

Microchip MPLAB XC8 Assembler V2.50 build 20240725155939 
                                                                                               Tue Feb 11 14:40:27 2025

Microchip MPLAB XC8 C Compiler v2.50 (Free license) build 20240725155939 Og1 
     1                           	processor	16F877
     2                           	pagewidth 120
     3                           	opt	flic
     4                           	psect	strings,global,class=STRING,space=0,delta=2,noexec
     5                           	psect	cinit,global,class=CODE,space=0,merge=1,delta=2
     6                           	psect	bssCOMMON,global,class=COMMON,space=1,delta=1,noexec
     7                           	psect	bssBANK1,global,class=BANK1,space=1,delta=1,noexec
     8                           	psect	bssBANK3,global,class=BANK3,space=1,delta=1,noexec
     9                           	psect	bssBANK2,global,class=BANK2,space=1,delta=1,noexec
    10                           	psect	clrtext,global,class=CODE,space=0,delta=2
    11                           	psect	cstackBANK3,global,class=BANK3,space=1,delta=1,noexec
    12                           	psect	cstackBANK1,global,class=BANK1,space=1,delta=1,noexec
    13                           	psect	cstackCOMMON,global,class=COMMON,space=1,delta=1,noexec
    14                           	psect	cstackBANK0,global,class=BANK0,space=1,delta=1,noexec
    15                           	psect	maintext,global,class=CODE,space=0,split=1,delta=2
    16                           	psect	text1,local,class=CODE,space=0,merge=1,delta=2,group=3
    17                           	psect	text2,local,class=CODE,space=0,merge=1,delta=2,group=1
    18                           	psect	text3,local,class=CODE,space=0,merge=1,delta=2,group=1
    19                           	psect	text4,local,class=CODE,space=0,merge=1,delta=2,group=1
    20                           	psect	text5,local,class=CODE,space=0,merge=1,delta=2,group=2
    21                           	psect	text6,local,class=CODE,space=0,merge=1,delta=2,group=1
    22                           	psect	text7,local,class=CODE,space=0,merge=1,delta=2,group=3
    23                           	psect	text8,local,class=CODE,space=0,merge=1,delta=2,group=1
    24                           	psect	text9,local,class=CODE,space=0,merge=1,delta=2,group=3
    25                           	psect	text10,local,class=CODE,space=0,merge=1,delta=2,group=3
    26                           	psect	text11,local,class=CODE,space=0,merge=1,delta=2,group=3
    27                           	psect	text12,local,class=CODE,space=0,merge=1,delta=2,group=3
    28                           	psect	text13,local,class=CODE,space=0,merge=1,delta=2,group=3
    29                           	psect	text14,local,class=CODE,space=0,merge=1,delta=2,group=3
    30                           	psect	text15,local,class=CODE,space=0,merge=1,delta=2,group=3
    31                           	psect	text16,local,class=CODE,space=0,merge=1,delta=2,group=2
    32                           	psect	text17,local,class=CODE,space=0,merge=1,delta=2,group=2
    33                           	psect	text18,local,class=CODE,space=0,merge=1,delta=2,group=2
    34                           	psect	text19,local,class=CODE,space=0,merge=1,delta=2,group=2
    35                           	psect	text20,local,class=CODE,space=0,merge=1,delta=2,group=2
    36                           	psect	text21,local,class=CODE,space=0,merge=1,delta=2,group=2
    37                           	psect	text22,local,class=CODE,space=0,merge=1,delta=2,group=2
    38                           	psect	text23,local,class=CODE,space=0,merge=1,delta=2,group=2
    39                           	psect	text24,local,class=CODE,space=0,merge=1,delta=2,group=2
    40                           	psect	text25,local,class=CODE,space=0,merge=1,delta=2
    41                           	psect	text26,local,class=CODE,space=0,merge=1,delta=2
    42                           	psect	text27,local,class=CODE,space=0,merge=1,delta=2
    43                           	psect	text28,local,class=CODE,space=0,merge=1,delta=2
    44                           	psect	text29,local,class=CODE,space=0,merge=1,delta=2
    45                           	psect	text30,local,class=CODE,space=0,merge=1,delta=2
    46                           	psect	text31,local,class=CODE,space=0,merge=1,delta=2
    47                           	psect	text32,local,class=CODE,space=0,merge=1,delta=2
    48                           	psect	text33,local,class=CODE,space=0,merge=1,delta=2,group=2
    49                           	psect	text34,local,class=CODE,space=0,merge=1,delta=2
    50                           	psect	intentry,global,class=CODE,space=0,delta=2
    51                           	psect	config,global,abs,ovrld,class=CONFIG,space=4,delta=2,noexec
    52                           	psect	text6_split_1,local,class=CODE,space=0,merge=1,delta=2
    53                           	dabs	1,0x7E,2
    54     0000                     
    55                           ; Generated 12/10/2023 GMT
    56                           ; 
    57                           ; Copyright © 2023, Microchip Technology Inc. and its subsidiaries ("Microchip")
    58                           ; All rights reserved.
    59                           ; 
    60                           ; This software is developed by Microchip Technology Inc. and its subsidiaries ("Microch
      +                          ip").
    61                           ; 
    62                           ; Redistribution and use in source and binary forms, with or without modification, are
    63                           ; permitted provided that the following conditions are met:
    64                           ; 
    65                           ;     1. Redistributions of source code must retain the above copyright notice, this lis
      +                          t of
    66                           ;        conditions and the following disclaimer.
    67                           ; 
    68                           ;     2. Redistributions in binary form must reproduce the above copyright notice, this 
      +                          list
    69                           ;        of conditions and the following disclaimer in the documentation and/or other
    70                           ;        materials provided with the distribution. Publication is not required when
    71                           ;        this file is used in an embedded application.
    72                           ; 
    73                           ;     3. Microchip's name may not be used to endorse or promote products derived from th
      +                          is
    74                           ;        software without specific prior written permission.
    75                           ; 
    76                           ; THIS SOFTWARE IS PROVIDED BY MICROCHIP "AS IS" AND ANY EXPRESS OR IMPLIED WARRANTIES,
    77                           ; INCLUDING, BUT NOT LIMITED TO, THE IMPLIED WARRANTIES OF MERCHANTABILITY AND FITNESS F
      +                          OR
    78                           ; PURPOSE ARE DISCLAIMED.  IN NO EVENT SHALL MICROCHIP BE LIABLE FOR ANY DIRECT, INDIREC
      +                          T,
    79                           ; INCIDENTAL, SPECIAL, EXEMPLARY, OR CONSEQUENTIAL DAMAGES (INCLUDING BUT NOT LIMITED TO
    80                           ; PROCUREMENT OF SUBSTITUTE GOODS OR SERVICES; LOSS OF USE, DATA OR PROFITS; OR BUSINESS
    81                           ; INTERRUPTION) HOWSOEVER CAUSED AND ON ANY THEORY OF LIABILITY, WHETHER IN CONTRACT, ST
      +                          RICT
    82                           ; LIABILITY, OR TORT (INCLUDING NEGLIGENCE OR OTHERWISE) ARISING IN ANY WAY OUT OF THE U
      +                          SE OF
    83                           ; THIS SOFTWARE, EVEN IF ADVISED OF THE POSSIBILITY OF SUCH DAMAGE.
    84                           ; 
    85                           ; 
    86                           ; Code-generator required, PIC16F877 Definitions
    87                           ; 
    88                           ; SFR Addresses
    89     0004                     fsr             equ	4
    90     0004                     fsr0            equ	4
    91     0000                     indf            equ	0
    92     0000                     indf0           equ	0
    93     0002                     pc              equ	2
    94     0002                     pcl             equ	2
    95     000A                     pclath          equ	10
    96     0003                     status          equ	3
    97     0000                     INDF            equ	0	;# 
    98     0001                     TMR0            equ	1	;# 
    99     0002                     PCL             equ	2	;# 
   100     0003                     STATUS          equ	3	;# 
   101     0004                     FSR             equ	4	;# 
   102     0005                     PORTA           equ	5	;# 
   103     0006                     PORTB           equ	6	;# 
   104     0007                     PORTC           equ	7	;# 
   105     0008                     PORTD           equ	8	;# 
   106     0009                     PORTE           equ	9	;# 
   107     000A                     PCLATH          equ	10	;# 
   108     000B                     INTCON          equ	11	;# 
   109     000C                     PIR1            equ	12	;# 
   110     000D                     PIR2            equ	13	;# 
   111     000E                     TMR1            equ	14	;# 
   112     000E                     TMR1L           equ	14	;# 
   113     000F                     TMR1H           equ	15	;# 
   114     0010                     T1CON           equ	16	;# 
   115     0011                     TMR2            equ	17	;# 
   116     0012                     T2CON           equ	18	;# 
   117     0013                     SSPBUF          equ	19	;# 
   118     0014                     SSPCON          equ	20	;# 
   119     0015                     CCPR1           equ	21	;# 
   120     0015                     CCPR1L          equ	21	;# 
   121     0016                     CCPR1H          equ	22	;# 
   122     0017                     CCP1CON         equ	23	;# 
   123     0018                     RCSTA           equ	24	;# 
   124     0019                     TXREG           equ	25	;# 
   125     001A                     RCREG           equ	26	;# 
   126     001B                     CCPR2           equ	27	;# 
   127     001B                     CCPR2L          equ	27	;# 
   128     001C                     CCPR2H          equ	28	;# 
   129     001D                     CCP2CON         equ	29	;# 
   130     001E                     ADRESH          equ	30	;# 
   131     001F                     ADCON0          equ	31	;# 
   132     0081                     OPTION_REG      equ	129	;# 
   133     0085                     TRISA           equ	133	;# 
   134     0086                     TRISB           equ	134	;# 
   135     0087                     TRISC           equ	135	;# 
   136     0088                     TRISD           equ	136	;# 
   137     0089                     TRISE           equ	137	;# 
   138     008C                     PIE1            equ	140	;# 
   139     008D                     PIE2            equ	141	;# 
   140     008E                     PCON            equ	142	;# 
   141     0091                     SSPCON2         equ	145	;# 
   142     0092                     PR2             equ	146	;# 
   143     0093                     SSPADD          equ	147	;# 
   144     0094                     SSPSTAT         equ	148	;# 
   145     0098                     TXSTA           equ	152	;# 
   146     0099                     SPBRG           equ	153	;# 
   147     009E                     ADRESL          equ	158	;# 
   148     009F                     ADCON1          equ	159	;# 
   149     010C                     EEDATA          equ	268	;# 
   150     010D                     EEADR           equ	269	;# 
   151     010E                     EEDATH          equ	270	;# 
   152     010F                     EEADRH          equ	271	;# 
   153     018C                     EECON1          equ	396	;# 
   154     018D                     EECON2          equ	397	;# 
   155     0000                     INDF            equ	0	;# 
   156     0001                     TMR0            equ	1	;# 
   157     0002                     PCL             equ	2	;# 
   158     0003                     STATUS          equ	3	;# 
   159     0004                     FSR             equ	4	;# 
   160     0005                     PORTA           equ	5	;# 
   161     0006                     PORTB           equ	6	;# 
   162     0007                     PORTC           equ	7	;# 
   163     0008                     PORTD           equ	8	;# 
   164     0009                     PORTE           equ	9	;# 
   165     000A                     PCLATH          equ	10	;# 
   166     000B                     INTCON          equ	11	;# 
   167     000C                     PIR1            equ	12	;# 
   168     000D                     PIR2            equ	13	;# 
   169     000E                     TMR1            equ	14	;# 
   170     000E                     TMR1L           equ	14	;# 
   171     000F                     TMR1H           equ	15	;# 
   172     0010                     T1CON           equ	16	;# 
   173     0011                     TMR2            equ	17	;# 
   174     0012                     T2CON           equ	18	;# 
   175     0013                     SSPBUF          equ	19	;# 
   176     0014                     SSPCON          equ	20	;# 
   177     0015                     CCPR1           equ	21	;# 
   178     0015                     CCPR1L          equ	21	;# 
   179     0016                     CCPR1H          equ	22	;# 
   180     0017                     CCP1CON         equ	23	;# 
   181     0018                     RCSTA           equ	24	;# 
   182     0019                     TXREG           equ	25	;# 
   183     001A                     RCREG           equ	26	;# 
   184     001B                     CCPR2           equ	27	;# 
   185     001B                     CCPR2L          equ	27	;# 
   186     001C                     CCPR2H          equ	28	;# 
   187     001D                     CCP2CON         equ	29	;# 
   188     001E                     ADRESH          equ	30	;# 
   189     001F                     ADCON0          equ	31	;# 
   190     0081                     OPTION_REG      equ	129	;# 
   191     0085                     TRISA           equ	133	;# 
   192     0086                     TRISB           equ	134	;# 
   193     0087                     TRISC           equ	135	;# 
   194     0088                     TRISD           equ	136	;# 
   195     0089                     TRISE           equ	137	;# 
   196     008C                     PIE1            equ	140	;# 
   197     008D                     PIE2            equ	141	;# 
   198     008E                     PCON            equ	142	;# 
   199     0091                     SSPCON2         equ	145	;# 
   200     0092                     PR2             equ	146	;# 
   201     0093                     SSPADD          equ	147	;# 
   202     0094                     SSPSTAT         equ	148	;# 
   203     0098                     TXSTA           equ	152	;# 
   204     0099                     SPBRG           equ	153	;# 
   205     009E                     ADRESL          equ	158	;# 
   206     009F                     ADCON1          equ	159	;# 
   207     010C                     EEDATA          equ	268	;# 
   208     010D                     EEADR           equ	269	;# 
   209     010E                     EEDATH          equ	270	;# 
   210     010F                     EEADRH          equ	271	;# 
   211     018C                     EECON1          equ	396	;# 
   212     018D                     EECON2          equ	397	;# 
   213     0009                     _PORTEbits      set	9
   214     0008                     _PORTDbits      set	8
   215     001E                     _ADRESH         set	30
   216     001F                     _ADCON0bits     set	31
   217     001F                     _ADCON0         set	31
   218     000B                     _INTCONbits     set	11
   219     0081                     _OPTION_REGbits set	129
   220     009E                     _ADRESL         set	158
   221     009F                     _ADCON1         set	159
   222     0086                     _TRISBbits      set	134
   223     0085                     _TRISA          set	133
   224     0088                     _TRISD          set	136
   225     0089                     _TRISE          set	137
   226                           
   227                           	psect	strings
   228     1800                     __pstrings:
   229     1800                     stringtab:
   230     1800                     __stringtab:
   231                           
   232                           ;	String table - string pointers are 1 byte each
   233     1800  1BFF               	btfsc	btemp+1,7
   234     1801  280A               	ljmp	stringcode
   235     1802  1383               	bcf	3,7
   236     1803  187F               	btfsc	btemp+1,0
   237     1804  1783               	bsf	3,7
   238     1805  0800               	movf	0,w
   239     1806  0A84               	incf	4,f
   240     1807  1903               	skipnz
   241     1808  0AFF               	incf	btemp+1,f
   242     1809  0008               	return
   243     180A                     stringcode:
   244     180A                     stringdir:
   245     180A  3018               	movlw	high stringdir
   246     180B  008A               	movwf	10
   247     180C  0804               	movf	4,w
   248     180D  0A84               	incf	4,f
   249     180E  0782               	addwf	2,f
   250     180F                     __stringbase:
   251     180F  3400               	retlw	0
   252     1810                     __end_of__stringtab:
   253     1810                     STR_2:
   254     1810  3456               	retlw	86	;'V'
   255     1811  343A               	retlw	58	;':'
   256     1812  3420               	retlw	32	;' '
   257     1813  3425               	retlw	37	;'%'
   258     1814  342E               	retlw	46	;'.'
   259     1815  3432               	retlw	50	;'2'
   260     1816  3466               	retlw	102	;'f'
   261     1817  3420               	retlw	32	;' '
   262     1818  3456               	retlw	86	;'V'
   263     1819  3400               	retlw	0
   264     181A                     STR_1:
   265     181A  3454               	retlw	84	;'T'
   266     181B  3465               	retlw	101	;'e'
   267     181C  346E               	retlw	110	;'n'
   268     181D  3473               	retlw	115	;'s'
   269     181E  3461               	retlw	97	;'a'
   270     181F  346F               	retlw	111	;'o'
   271     1820  343A               	retlw	58	;':'
   272     1821  3400               	retlw	0
   273     1822                     STR_3:
   274     1822  3469               	retlw	105	;'i'
   275     1823  346E               	retlw	110	;'n'
   276     1824  3466               	retlw	102	;'f'
   277     1825  3400               	retlw	0
   278     1826                     STR_6:
   279     1826  346E               	retlw	110	;'n'
   280     1827  3461               	retlw	97	;'a'
   281     1828  346E               	retlw	110	;'n'
   282     1829  3400               	retlw	0
   283     1826                     STR_7           equ	STR_6
   284     1826                     STR_8           equ	STR_6
   285     1822                     STR_4           equ	STR_3
   286     1822                     STR_5           equ	STR_3
   287                           
   288                           	psect	cinit
   289     000F                     start_initialization:	
   290                           ; #config settings
   291                           
   292     000F                     __initialization:
   293                           
   294                           ; Clear objects allocated to COMMON
   295     000F  01FA               	clrf	__pbssCOMMON& (0+127)
   296     0010  01FB               	clrf	(__pbssCOMMON+1)& (0+127)
   297                           
   298                           ; Clear objects allocated to BANK1
   299     0011  1683               	bsf	3,5	;RP0=1, select bank1
   300     0012  1303               	bcf	3,6	;RP1=0, select bank1
   301     0013  01ED               	clrf	__pbssBANK1& (0+127)
   302     0014  01EE               	clrf	(__pbssBANK1+1)& (0+127)
   303     0015  01EF               	clrf	(__pbssBANK1+2)& (0+127)
   304                           
   305                           ; Clear objects allocated to BANK3
   306     0016  1783               	bsf	3,7	;select IRP bank2
   307     0017  3090               	movlw	low __pbssBANK3
   308     0018  0084               	movwf	4
   309     0019  30A9               	movlw	low (__pbssBANK3+25)
   310     001A  160A  158A  268D  120A  118A  	fcall	clear_ram0
   311                           
   312                           ; Clear objects allocated to BANK2
   313     001F  3010               	movlw	low __pbssBANK2
   314     0020  0084               	movwf	4
   315     0021  3060               	movlw	low (__pbssBANK2+80)
   316     0022  160A  158A  268D  120A  118A  	fcall	clear_ram0
   317     0027                     end_of_initialization:	
   318                           ;End of C runtime variable initialization code
   319                           
   320     0027                     __end_of__initialization:
   321     0027  0183               	clrf	3
   322     0028  160A  118A  2C7F   	ljmp	_main	;jump to C main() function
   323                           
   324                           	psect	bssCOMMON
   325     007A                     __pbssCOMMON:
   326     007A                     _width:
   327     007A                     	ds	2
   328                           
   329                           	psect	bssBANK1
   330     00ED                     __pbssBANK1:
   331     00ED                     _prec:
   332     00ED                     	ds	2
   333     00EF                     _flags:
   334     00EF                     	ds	1
   335                           
   336                           	psect	bssBANK3
   337     0190                     __pbssBANK3:
   338     0190                     floorf@F521:
   339     0190                     	ds	4
   340     0194                     ___fpclassifyf@F465:
   341     0194                     	ds	4
   342     0198                     _atualizar_LCD:
   343     0198                     	ds	1
   344     0199                     _buffer:
   345     0199                     	ds	16
   346                           
   347                           	psect	bssBANK2
   348     0110                     __pbssBANK2:
   349     0110                     _dbuf:
   350     0110                     	ds	80
   351                           
   352                           	psect	clrtext
   353     1E8D                     clear_ram0:	
   354                           ;	Called with FSR containing the base address, and
   355                           ;	W with the last address+1
   356                           
   357     1E8D  0064               	clrwdt	;clear the watchdog before getting into this loop
   358     1E8E                     clrloop0:
   359     1E8E  0180               	clrf	0	;clear RAM location pointed to by FSR
   360     1E8F  0A84               	incf	4,f	;increment pointer
   361     1E90  0604               	xorwf	4,w	;XOR with final address
   362     1E91  1903               	btfsc	3,2	;have we reached the end yet?
   363     1E92  3400               	retlw	0	;all done for this memory range, return
   364     1E93  0604               	xorwf	4,w	;XOR again to restore value
   365     1E94  2E8E               	goto	clrloop0	;do the next byte
   366                           
   367                           	psect	cstackBANK3
   368     01A9                     __pcstackBANK3:
   369     01A9                     sprintf@ap:
   370                           
   371                           ; 1 bytes @ 0x0
   372     01A9                     	ds	1
   373     01AA                     sprintf@f:
   374                           
   375                           ; 11 bytes @ 0x1
   376     01AA                     	ds	11
   377     01B5                     main@voltage:
   378                           
   379                           ; 4 bytes @ 0xC
   380     01B5                     	ds	4
   381     01B9                     main@adc_value:
   382                           
   383                           ; 2 bytes @ 0x10
   384     01B9                     	ds	2
   385                           
   386                           	psect	cstackBANK1
   387     00A0                     __pcstackBANK1:
   388     00A0                     ?_efgtoa:
   389     00A0                     efgtoa@fp:	
   390                           ; 1 bytes @ 0x0
   391                           
   392                           
   393                           ; 2 bytes @ 0x0
   394     00A0                     	ds	2
   395     00A2                     efgtoa@f:
   396                           
   397                           ; 4 bytes @ 0x2
   398     00A2                     	ds	4
   399     00A6                     efgtoa@c:
   400                           
   401                           ; 1 bytes @ 0x6
   402     00A6                     	ds	1
   403     00A7                     ??_efgtoa:
   404                           
   405                           ; 1 bytes @ 0x7
   406     00A7                     	ds	4
   407     00AB                     efgtoa@ne:
   408                           
   409                           ; 2 bytes @ 0xB
   410     00AB                     	ds	2
   411     00AD                     efgtoa@p:
   412                           
   413                           ; 2 bytes @ 0xD
   414     00AD                     	ds	2
   415     00AF                     efgtoa@t:
   416                           
   417                           ; 2 bytes @ 0xF
   418     00AF                     	ds	2
   419     00B1                     _efgtoa$843:
   420                           
   421                           ; 2 bytes @ 0x11
   422     00B1                     	ds	2
   423     00B3                     efgtoa@pp:
   424                           
   425                           ; 1 bytes @ 0x13
   426     00B3                     	ds	1
   427     00B4                     efgtoa@mode:
   428                           
   429                           ; 1 bytes @ 0x14
   430     00B4                     	ds	1
   431     00B5                     efgtoa@nmode:
   432                           
   433                           ; 1 bytes @ 0x15
   434     00B5                     	ds	1
   435     00B6                     efgtoa@d:
   436                           
   437                           ; 2 bytes @ 0x16
   438     00B6                     	ds	2
   439     00B8                     efgtoa@m:
   440                           
   441                           ; 2 bytes @ 0x18
   442     00B8                     	ds	2
   443     00BA                     efgtoa@e:
   444                           
   445                           ; 2 bytes @ 0x1A
   446     00BA                     	ds	2
   447     00BC                     efgtoa@w:
   448                           
   449                           ; 2 bytes @ 0x1C
   450     00BC                     	ds	2
   451     00BE                     efgtoa@ou:
   452                           
   453                           ; 4 bytes @ 0x1E
   454     00BE                     	ds	4
   455     00C2                     efgtoa@i:
   456                           
   457                           ; 2 bytes @ 0x22
   458     00C2                     	ds	2
   459     00C4                     efgtoa@h:
   460                           
   461                           ; 4 bytes @ 0x24
   462     00C4                     	ds	4
   463     00C8                     efgtoa@l:
   464                           
   465                           ; 4 bytes @ 0x28
   466     00C8                     	ds	4
   467     00CC                     efgtoa@sign:
   468                           
   469                           ; 1 bytes @ 0x2C
   470     00CC                     	ds	1
   471     00CD                     efgtoa@g:
   472                           
   473                           ; 4 bytes @ 0x2D
   474     00CD                     	ds	4
   475     00D1                     efgtoa@n:
   476                           
   477                           ; 2 bytes @ 0x31
   478     00D1                     	ds	2
   479     00D3                     efgtoa@u:
   480                           
   481                           ; 4 bytes @ 0x33
   482     00D3                     	ds	4
   483     00D7                     ?_vfpfcnvrt:
   484     00D7                     vfpfcnvrt@fp:	
   485                           ; 1 bytes @ 0x37
   486                           
   487                           
   488                           ; 2 bytes @ 0x37
   489     00D7                     	ds	2
   490     00D9                     vfpfcnvrt@fmt:
   491                           
   492                           ; 1 bytes @ 0x39
   493     00D9                     	ds	1
   494     00DA                     vfpfcnvrt@ap:
   495                           
   496                           ; 1 bytes @ 0x3A
   497     00DA                     	ds	1
   498     00DB                     vfpfcnvrt@convarg:
   499                           
   500                           ; 4 bytes @ 0x3B
   501     00DB                     	ds	4
   502     00DF                     vfpfcnvrt@c:
   503                           
   504                           ; 1 bytes @ 0x3F
   505     00DF                     	ds	1
   506     00E0                     vfpfcnvrt@cp:
   507                           
   508                           ; 1 bytes @ 0x40
   509     00E0                     	ds	1
   510     00E1                     ?_vfprintf:
   511     00E1                     vfprintf@fp:	
   512                           ; 2 bytes @ 0x41
   513                           
   514                           
   515                           ; 2 bytes @ 0x41
   516     00E1                     	ds	2
   517     00E3                     vfprintf@fmt:
   518                           
   519                           ; 1 bytes @ 0x43
   520     00E3                     	ds	1
   521     00E4                     vfprintf@ap:
   522                           
   523                           ; 1 bytes @ 0x44
   524     00E4                     	ds	1
   525     00E5                     vfprintf@cfmt:
   526                           
   527                           ; 1 bytes @ 0x45
   528     00E5                     	ds	1
   529     00E6                     ?_sprintf:
   530     00E6                     sprintf@s:	
   531                           ; 2 bytes @ 0x46
   532                           
   533                           
   534                           ; 1 bytes @ 0x46
   535     00E6                     	ds	1
   536     00E7                     sprintf@fmt:
   537                           
   538                           ; 1 bytes @ 0x47
   539     00E7                     	ds	5
   540     00EC                     ??_sprintf:
   541                           
   542                           ; 1 bytes @ 0x4C
   543     00EC                     	ds	1
   544                           
   545                           	psect	cstackCOMMON
   546     0070                     __pcstackCOMMON:
   547     0070                     ?_lcd_initialise:
   548     0070                     ?_adc_initialise:	
   549                           ; 1 bytes @ 0x0
   550                           
   551     0070                     ?_configurar_interrupcoes:	
   552                           ; 1 bytes @ 0x0
   553                           
   554     0070                     ?_lcd_command:	
   555                           ; 1 bytes @ 0x0
   556                           
   557     0070                     ?_putch:	
   558                           ; 1 bytes @ 0x0
   559                           
   560     0070                     ?_isr:	
   561                           ; 1 bytes @ 0x0
   562                           
   563     0070                     ?_main:	
   564                           ; 1 bytes @ 0x0
   565                           
   566     0070                     ?_lcd_data:	
   567                           ; 1 bytes @ 0x0
   568                           
   569     0070                     putch@c:	
   570                           ; 1 bytes @ 0x0
   571                           
   572     0070                     ??_isr:	
   573                           ; 1 bytes @ 0x0
   574                           
   575                           
   576                           ; 1 bytes @ 0x0
   577     0070                     	ds	2
   578     0072                     ?_strcpy:
   579     0072                     ?_memcpy:	
   580                           ; 1 bytes @ 0x2
   581                           
   582     0072                     ?___fleq:	
   583                           ; 1 bytes @ 0x2
   584                           
   585     0072                     ?_read_adc:	
   586                           ; 1 bit 
   587                           
   588     0072                     ?__Umul8_16:	
   589                           ; 2 bytes @ 0x2
   590                           
   591     0072                     ?_fputc:	
   592                           ; 2 bytes @ 0x2
   593                           
   594     0072                     ?___fpclassifyf:	
   595                           ; 2 bytes @ 0x2
   596                           
   597     0072                     ?___wmul:	
   598                           ; 2 bytes @ 0x2
   599                           
   600     0072                     ?_labs:	
   601                           ; 2 bytes @ 0x2
   602                           
   603     0072                     ?___flneg:	
   604                           ; 4 bytes @ 0x2
   605                           
   606     0072                     ?___fltol:	
   607                           ; 4 bytes @ 0x2
   608                           
   609     0072                     ?___fladd:	
   610                           ; 4 bytes @ 0x2
   611                           
   612     0072                     ?___xxtofl:	
   613                           ; 4 bytes @ 0x2
   614                           
   615     0072                     __Umul8_16@multiplicand:	
   616                           ; 4 bytes @ 0x2
   617                           
   618     0072                     memcpy@d1:	
   619                           ; 1 bytes @ 0x2
   620                           
   621     0072                     strcpy@dest:	
   622                           ; 1 bytes @ 0x2
   623                           
   624     0072                     ___wmul@multiplier:	
   625                           ; 1 bytes @ 0x2
   626                           
   627     0072                     fputc@c:	
   628                           ; 2 bytes @ 0x2
   629                           
   630     0072                     ___fleq@ff1:	
   631                           ; 2 bytes @ 0x2
   632                           
   633     0072                     ___flneg@f1:	
   634                           ; 4 bytes @ 0x2
   635                           
   636     0072                     ___fltol@f1:	
   637                           ; 4 bytes @ 0x2
   638                           
   639     0072                     ___fladd@b:	
   640                           ; 4 bytes @ 0x2
   641                           
   642     0072                     ___xxtofl@val:	
   643                           ; 4 bytes @ 0x2
   644                           
   645     0072                     ___fpclassifyf@x:	
   646                           ; 4 bytes @ 0x2
   647                           
   648     0072                     labs@a:	
   649                           ; 4 bytes @ 0x2
   650                           
   651     0072                     ??_adc_initialise:	
   652                           ; 4 bytes @ 0x2
   653                           
   654     0072                     ??_configurar_interrupcoes:	
   655                           ; 1 bytes @ 0x2
   656                           
   657     0072                     ??_lcd_command:	
   658                           ; 1 bytes @ 0x2
   659                           
   660     0072                     ??_putch:	
   661                           ; 1 bytes @ 0x2
   662                           
   663     0072                     ??_lcd_data:	
   664                           ; 1 bytes @ 0x2
   665                           
   666                           
   667                           ; 1 bytes @ 0x2
   668     0072                     	ds	1
   669     0073                     memcpy@s1:
   670     0073                     strcpy@src:	
   671                           ; 1 bytes @ 0x3
   672                           
   673                           
   674                           ; 1 bytes @ 0x3
   675     0073                     	ds	1
   676     0074                     lcd_command@cmd:
   677     0074                     lcd_data@data:	
   678                           ; 1 bytes @ 0x4
   679                           
   680     0074                     strcpy@d:	
   681                           ; 1 bytes @ 0x4
   682                           
   683     0074                     ___wmul@multiplicand:	
   684                           ; 1 bytes @ 0x4
   685                           
   686     0074                     memcpy@n:	
   687                           ; 2 bytes @ 0x4
   688                           
   689     0074                     fputc@fp:	
   690                           ; 2 bytes @ 0x4
   691                           
   692     0074                     ??_read_adc:	
   693                           ; 2 bytes @ 0x4
   694                           
   695     0074                     ??__Umul8_16:	
   696                           ; 1 bytes @ 0x4
   697                           
   698     0074                     ??_strcpy:	
   699                           ; 1 bytes @ 0x4
   700                           
   701                           
   702                           ; 1 bytes @ 0x4
   703     0074                     	ds	1
   704     0075                     ?_lcd_set_cursor:
   705     0075                     ?_lcd_string:	
   706                           ; 1 bytes @ 0x5
   707                           
   708     0075                     lcd_set_cursor@col:	
   709                           ; 1 bytes @ 0x5
   710                           
   711     0075                     lcd_string@str:	
   712                           ; 1 bytes @ 0x5
   713                           
   714     0075                     ??_lcd_initialise:	
   715                           ; 2 bytes @ 0x5
   716                           
   717                           
   718                           ; 1 bytes @ 0x5
   719     0075                     	ds	1
   720     0076                     ?_fputs:
   721     0076                     lcd_set_cursor@row:	
   722                           ; 2 bytes @ 0x6
   723                           
   724     0076                     memcpy@tmp:	
   725                           ; 1 bytes @ 0x6
   726                           
   727     0076                     fputs@s:	
   728                           ; 1 bytes @ 0x6
   729                           
   730     0076                     ___wmul@product:	
   731                           ; 1 bytes @ 0x6
   732                           
   733     0076                     ___fleq@ff2:	
   734                           ; 2 bytes @ 0x6
   735                           
   736     0076                     ___fladd@a:	
   737                           ; 4 bytes @ 0x6
   738                           
   739     0076                     ??_lcd_set_cursor:	
   740                           ; 4 bytes @ 0x6
   741                           
   742     0076                     ??_labs:	
   743                           ; 1 bytes @ 0x6
   744                           
   745     0076                     ??_memcpy:	
   746                           ; 1 bytes @ 0x6
   747                           
   748     0076                     ??___wmul:	
   749                           ; 1 bytes @ 0x6
   750                           
   751     0076                     ??___flneg:	
   752                           ; 1 bytes @ 0x6
   753                           
   754     0076                     ??___fltol:	
   755                           ; 1 bytes @ 0x6
   756                           
   757     0076                     ??___xxtofl:	
   758                           ; 1 bytes @ 0x6
   759                           
   760                           
   761                           ; 1 bytes @ 0x6
   762     0076                     	ds	1
   763     0077                     lcd_set_cursor@pos:
   764     0077                     memcpy@d:	
   765                           ; 1 bytes @ 0x7
   766                           
   767     0077                     fputs@fp:	
   768                           ; 1 bytes @ 0x7
   769                           
   770     0077                     ??_lcd_string:	
   771                           ; 2 bytes @ 0x7
   772                           
   773                           
   774                           ; 1 bytes @ 0x7
   775     0077                     	ds	1
   776     0078                     ?_read_prec_or_width:
   777     0078                     read_prec_or_width@fmt:	
   778                           ; 2 bytes @ 0x8
   779                           
   780     0078                     memcpy@s:	
   781                           ; 1 bytes @ 0x8
   782                           
   783                           
   784                           ; 1 bytes @ 0x8
   785     0078                     	ds	1
   786     0079                     read_prec_or_width@ap:
   787     0079                     ??_pad:	
   788                           ; 1 bytes @ 0x9
   789                           
   790                           
   791                           ; 1 bytes @ 0x9
   792     0079                     	ds	1
   793     007A                     ??_vfprintf:
   794     007A                     ??_main:	
   795                           ; 1 bytes @ 0xA
   796                           
   797     007A                     ??___flsub:	
   798                           ; 1 bytes @ 0xA
   799                           
   800     007A                     ??_read_prec_or_width:	
   801                           ; 1 bytes @ 0xA
   802                           
   803                           
   804                           	psect	cstackBANK0
   805     0020                     __pcstackBANK0:	
   806                           ; 1 bytes @ 0xA
   807                           
   808     0020                     ___fltol@sign1:
   809     0020                     ___xxtofl@sign:	
   810                           ; 1 bytes @ 0x0
   811                           
   812     0020                     read_prec_or_width@c:	
   813                           ; 1 bytes @ 0x0
   814                           
   815     0020                     __Umul8_16@product:	
   816                           ; 1 bytes @ 0x0
   817                           
   818     0020                     ??_fputc:	
   819                           ; 2 bytes @ 0x0
   820                           
   821     0020                     ??___fpclassifyf:	
   822                           ; 1 bytes @ 0x0
   823                           
   824     0020                     ??___fleq:	
   825                           ; 1 bytes @ 0x0
   826                           
   827     0020                     ??___fladd:	
   828                           ; 1 bytes @ 0x0
   829                           
   830                           
   831                           ; 1 bytes @ 0x0
   832     0020                     	ds	1
   833     0021                     ___fltol@exp1:
   834     0021                     ___xxtofl@exp:	
   835                           ; 1 bytes @ 0x1
   836                           
   837     0021                     read_prec_or_width@n:	
   838                           ; 1 bytes @ 0x1
   839                           
   840                           
   841                           ; 2 bytes @ 0x1
   842     0021                     	ds	1
   843     0022                     __Umul8_16@word_mpld:
   844     0022                     ___xxtofl@arg:	
   845                           ; 2 bytes @ 0x2
   846                           
   847                           
   848                           ; 4 bytes @ 0x2
   849     0022                     	ds	2
   850     0024                     __Umul8_16@multiplier:
   851                           
   852                           ; 1 bytes @ 0x4
   853     0024                     	ds	2
   854     0026                     ?___flmul:
   855     0026                     ___fpclassifyf@e:	
   856                           ; 4 bytes @ 0x6
   857                           
   858     0026                     ___flmul@b:	
   859                           ; 2 bytes @ 0x6
   860                           
   861                           
   862                           ; 4 bytes @ 0x6
   863     0026                     	ds	2
   864     0028                     ___fladd@signs:
   865     0028                     ___fpclassifyf@u:	
   866                           ; 1 bytes @ 0x8
   867                           
   868                           
   869                           ; 4 bytes @ 0x8
   870     0028                     	ds	1
   871     0029                     ___fladd@aexp:
   872     0029                     ??_fputs:	
   873                           ; 1 bytes @ 0x9
   874                           
   875                           
   876                           ; 1 bytes @ 0x9
   877     0029                     	ds	1
   878     002A                     ___fladd@bexp:
   879     002A                     ___flmul@a:	
   880                           ; 1 bytes @ 0xA
   881                           
   882                           
   883                           ; 4 bytes @ 0xA
   884     002A                     	ds	1
   885     002B                     ___fladd@grs:
   886     002B                     fputs@c:	
   887                           ; 1 bytes @ 0xB
   888                           
   889                           
   890                           ; 1 bytes @ 0xB
   891     002B                     	ds	1
   892     002C                     fputs@i:
   893                           
   894                           ; 2 bytes @ 0xC
   895     002C                     	ds	2
   896     002E                     ?_pad:
   897     002E                     pad@fp:	
   898                           ; 1 bytes @ 0xE
   899                           
   900     002E                     ??___flmul:	
   901                           ; 2 bytes @ 0xE
   902                           
   903                           
   904                           ; 1 bytes @ 0xE
   905     002E                     	ds	2
   906     0030                     pad@buf:
   907                           
   908                           ; 1 bytes @ 0x10
   909     0030                     	ds	1
   910     0031                     pad@p:
   911                           
   912                           ; 2 bytes @ 0x11
   913     0031                     	ds	2
   914     0033                     ___flmul@sign:
   915     0033                     pad@i:	
   916                           ; 1 bytes @ 0x13
   917                           
   918                           
   919                           ; 2 bytes @ 0x13
   920     0033                     	ds	1
   921     0034                     ___flmul@aexp:
   922                           
   923                           ; 1 bytes @ 0x14
   924     0034                     	ds	1
   925     0035                     ___flmul@grs:
   926                           
   927                           ; 4 bytes @ 0x15
   928     0035                     	ds	4
   929     0039                     ___flmul@bexp:
   930                           
   931                           ; 1 bytes @ 0x19
   932     0039                     	ds	1
   933     003A                     ___flmul@prod:
   934                           
   935                           ; 4 bytes @ 0x1A
   936     003A                     	ds	4
   937     003E                     ___flmul@temp:
   938                           
   939                           ; 2 bytes @ 0x1E
   940     003E                     	ds	2
   941     0040                     ?___flge:
   942     0040                     ?___flsub:	
   943                           ; 1 bit 
   944                           
   945     0040                     ?___fldiv:	
   946                           ; 4 bytes @ 0x20
   947                           
   948     0040                     ___flge@ff1:	
   949                           ; 4 bytes @ 0x20
   950                           
   951     0040                     ___flsub@a:	
   952                           ; 4 bytes @ 0x20
   953                           
   954     0040                     ___fldiv@a:	
   955                           ; 4 bytes @ 0x20
   956                           
   957                           
   958                           ; 4 bytes @ 0x20
   959     0040                     	ds	4
   960     0044                     ___flge@ff2:
   961     0044                     ___flsub@b:	
   962                           ; 4 bytes @ 0x24
   963                           
   964     0044                     ___fldiv@b:	
   965                           ; 4 bytes @ 0x24
   966                           
   967                           
   968                           ; 4 bytes @ 0x24
   969     0044                     	ds	4
   970     0048                     ??___flge:
   971     0048                     ??___fldiv:	
   972                           ; 1 bytes @ 0x28
   973                           
   974                           
   975                           ; 1 bytes @ 0x28
   976     0048                     	ds	5
   977     004D                     ___fldiv@rem:
   978                           
   979                           ; 4 bytes @ 0x2D
   980     004D                     	ds	4
   981     0051                     ___fldiv@sign:
   982                           
   983                           ; 1 bytes @ 0x31
   984     0051                     	ds	1
   985     0052                     ___fldiv@new_exp:
   986                           
   987                           ; 2 bytes @ 0x32
   988     0052                     	ds	2
   989     0054                     ___fldiv@grs:
   990                           
   991                           ; 4 bytes @ 0x34
   992     0054                     	ds	4
   993     0058                     ___fldiv@bexp:
   994                           
   995                           ; 1 bytes @ 0x38
   996     0058                     	ds	1
   997     0059                     ___fldiv@aexp:
   998                           
   999                           ; 1 bytes @ 0x39
  1000     0059                     	ds	1
  1001     005A                     ?_floorf:
  1002     005A                     floorf@x:	
  1003                           ; 4 bytes @ 0x3A
  1004                           
  1005                           
  1006                           ; 4 bytes @ 0x3A
  1007     005A                     	ds	4
  1008     005E                     ??_floorf:
  1009                           
  1010                           ; 1 bytes @ 0x3E
  1011     005E                     	ds	6
  1012     0064                     floorf@m:
  1013                           
  1014                           ; 4 bytes @ 0x44
  1015     0064                     	ds	4
  1016     0068                     floorf@e:
  1017                           
  1018                           ; 2 bytes @ 0x48
  1019     0068                     	ds	2
  1020     006A                     floorf@u:
  1021                           
  1022                           ; 4 bytes @ 0x4A
  1023     006A                     	ds	4
  1024     006E                     ??_vfpfcnvrt:
  1025                           
  1026                           ; 1 bytes @ 0x4E
  1027     006E                     	ds	2
  1028                           
  1029                           	psect	maintext
  1030     147F                     __pmaintext:	
  1031 ;;
  1032 ;;Main: autosize = 0, tempsize = 0, incstack = 0, save=0
  1033 ;;
  1034 ;; *************** function _main *****************
  1035 ;; Defined at:
  1036 ;;		line 50 in file "newmain.c"
  1037 ;; Parameters:    Size  Location     Type
  1038 ;;		None
  1039 ;; Auto vars:     Size  Location     Type
  1040 ;;  voltage         4   12[BANK3 ] float 
  1041 ;;  adc_value       2   16[BANK3 ] unsigned int 
  1042 ;; Return value:  Size  Location     Type
  1043 ;;                  1    wreg      void 
  1044 ;; Registers used:
  1045 ;;		wreg, fsr0l, fsr0h, status,2, status,0, btemp+1, pclath, cstack
  1046 ;; Tracked objects:
  1047 ;;		On entry : B00/0
  1048 ;;		On exit  : 0/0
  1049 ;;		Unchanged: 0/0
  1050 ;; Data sizes:     COMMON   BANK0   BANK1   BANK3   BANK2
  1051 ;;      Params:         0       0       0       0       0
  1052 ;;      Locals:         0       0       0       6       0
  1053 ;;      Temps:          0       0       0       0       0
  1054 ;;      Totals:         0       0       0       6       0
  1055 ;;Total ram usage:        6 bytes
  1056 ;; Hardware stack levels required when called: 9
  1057 ;; This function calls:
  1058 ;;		___fldiv
  1059 ;;		___flmul
  1060 ;;		___xxtofl
  1061 ;;		_adc_initialise
  1062 ;;		_configurar_interrupcoes
  1063 ;;		_lcd_initialise
  1064 ;;		_lcd_set_cursor
  1065 ;;		_lcd_string
  1066 ;;		_read_adc
  1067 ;;		_sprintf
  1068 ;; This function is called by:
  1069 ;;		Startup code after reset
  1070 ;; This function uses a non-reentrant model
  1071 ;;
  1072                           
  1073     147F                     _main:	
  1074                           ;psect for function _main
  1075                           
  1076     147F                     l3700:	
  1077                           ;incstack = 0
  1078 ;; hardware stack exceeded
  1079                           ; Regs used in _main: [wreg-fsr0h+status,2+status,0+btemp+1+pclath+cstack]
  1080                           
  1081                           
  1082                           ;newmain.c: 52:     TRISE = 0x00;
  1083     147F  1683               	bsf	3,5	;RP0=1, select bank1
  1084     1480  1303               	bcf	3,6	;RP1=0, select bank1
  1085     1481  0189               	clrf	9	;volatile
  1086                           
  1087                           ;newmain.c: 53:     TRISD = 0x00;
  1088     1482  0188               	clrf	8	;volatile
  1089     1483                     l3702:
  1090                           
  1091                           ;newmain.c: 54:     TRISA = 0xFF;
  1092     1483  30FF               	movlw	255
  1093     1484  0085               	movwf	5	;volatile
  1094     1485                     l3704:
  1095                           
  1096                           ;newmain.c: 55:     TRISBbits.TRISB0 = 1;
  1097     1485  1406               	bsf	6,0	;volatile
  1098     1486                     l3706:
  1099                           
  1100                           ;newmain.c: 58:     lcd_initialise();
  1101     1486  160A  118A  2038  160A  118A  	fcall	_lcd_initialise
  1102     148B                     l3708:
  1103                           
  1104                           ;newmain.c: 59:     adc_initialise();
  1105     148B  120A  118A  27F7  160A  118A  	fcall	_adc_initialise
  1106     1490                     l3710:
  1107                           
  1108                           ;newmain.c: 60:     configurar_interrupcoes();
  1109     1490  160A  158A  2686  160A  118A  	fcall	_configurar_interrupcoes
  1110     1495                     l3712:
  1111                           
  1112                           ;newmain.c: 62:     lcd_set_cursor(0, 0);
  1113     1495  01F5               	clrf	lcd_set_cursor@col
  1114     1496  3000               	movlw	0
  1115     1497  160A  158A  26B7  160A  118A  	fcall	_lcd_set_cursor
  1116     149C                     l3714:
  1117                           
  1118                           ;newmain.c: 63:     lcd_string("Tensao:");
  1119     149C  300B               	movlw	(low ((STR_1-__stringbase)| (0+32768)))& (0+255)
  1120     149D  00F5               	movwf	lcd_string@str
  1121     149E  3080               	movlw	128
  1122     149F  00F6               	movwf	lcd_string@str+1
  1123     14A0  160A  158A  2786  160A  118A  	fcall	_lcd_string
  1124     14A5                     l3716:
  1125                           
  1126                           ;newmain.c: 66:         if (atualizar_LCD) {
  1127     14A5  1683               	bsf	3,5	;RP0=1, select bank3
  1128     14A6  1703               	bsf	3,6	;RP1=1, select bank3
  1129     14A7  0818               	movf	_atualizar_LCD^(0+384),w	;volatile
  1130     14A8  1903               	btfsc	3,2
  1131     14A9  2CAB               	goto	u5871
  1132     14AA  2CAC               	goto	u5870
  1133     14AB                     u5871:
  1134     14AB  2CA5               	goto	l3716
  1135     14AC                     u5870:
  1136     14AC                     l3718:
  1137                           
  1138                           ;newmain.c: 67:             atualizar_LCD = 0;
  1139     14AC  0198               	clrf	_atualizar_LCD^(0+384)	;volatile
  1140     14AD                     l3720:
  1141                           
  1142                           ;newmain.c: 69:             unsigned int adc_value = read_adc();
  1143     14AD  160A  158A  26A5  160A  118A  	fcall	_read_adc
  1144     14B2  0873               	movf	?_read_adc+1,w
  1145     14B3  1683               	bsf	3,5	;RP0=1, select bank3
  1146     14B4  1703               	bsf	3,6	;RP1=1, select bank3
  1147     14B5  00BA               	movwf	(main@adc_value+1)^(0+384)
  1148     14B6  0872               	movf	?_read_adc,w
  1149     14B7  00B9               	movwf	main@adc_value^(0+384)
  1150     14B8                     l3722:
  1151                           
  1152                           ;newmain.c: 70:             float voltage = (adc_value * 5.0f) / 1023.0f;
  1153     14B8  3044               	movlw	68
  1154     14B9  1283               	bcf	3,5	;RP0=0, select bank0
  1155     14BA  1303               	bcf	3,6	;RP1=0, select bank0
  1156     14BB  00C3               	movwf	___fldiv@a+3
  1157     14BC  307F               	movlw	127
  1158     14BD  00C2               	movwf	___fldiv@a+2
  1159     14BE  30C0               	movlw	192
  1160     14BF  00C1               	movwf	___fldiv@a+1
  1161     14C0  3000               	movlw	0
  1162     14C1  00C0               	movwf	___fldiv@a
  1163     14C2  3040               	movlw	64
  1164     14C3  00A9               	movwf	___flmul@b+3
  1165     14C4  30A0               	movlw	160
  1166     14C5  00A8               	movwf	___flmul@b+2
  1167     14C6  3000               	movlw	0
  1168     14C7  00A7               	movwf	___flmul@b+1
  1169     14C8  3000               	movlw	0
  1170     14C9  00A6               	movwf	___flmul@b
  1171     14CA  1683               	bsf	3,5	;RP0=1, select bank3
  1172     14CB  1703               	bsf	3,6	;RP1=1, select bank3
  1173     14CC  0839               	movf	main@adc_value^(0+384),w
  1174     14CD  00F2               	movwf	___xxtofl@val
  1175     14CE  083A               	movf	(main@adc_value+1)^(0+384),w
  1176     14CF  00F3               	movwf	___xxtofl@val+1
  1177     14D0  01F4               	clrf	___xxtofl@val+2
  1178     14D1  01F5               	clrf	___xxtofl@val+3
  1179     14D2  3000               	movlw	0
  1180     14D3  120A  158A  2000  160A  118A  	fcall	___xxtofl
  1181     14D8  0875               	movf	?___xxtofl+3,w
  1182     14D9  1283               	bcf	3,5	;RP0=0, select bank0
  1183     14DA  1303               	bcf	3,6	;RP1=0, select bank0
  1184     14DB  00AD               	movwf	___flmul@a+3
  1185     14DC  0874               	movf	?___xxtofl+2,w
  1186     14DD  00AC               	movwf	___flmul@a+2
  1187     14DE  0873               	movf	?___xxtofl+1,w
  1188     14DF  00AB               	movwf	___flmul@a+1
  1189     14E0  0872               	movf	?___xxtofl,w
  1190     14E1  00AA               	movwf	___flmul@a
  1191     14E2  120A  158A  24BE  160A  118A  	fcall	___flmul
  1192     14E7  1283               	bcf	3,5	;RP0=0, select bank0
  1193     14E8  1303               	bcf	3,6	;RP1=0, select bank0
  1194     14E9  0829               	movf	?___flmul+3,w
  1195     14EA  00C7               	movwf	___fldiv@b+3
  1196     14EB  0828               	movf	?___flmul+2,w
  1197     14EC  00C6               	movwf	___fldiv@b+2
  1198     14ED  0827               	movf	?___flmul+1,w
  1199     14EE  00C5               	movwf	___fldiv@b+1
  1200     14EF  0826               	movf	?___flmul,w
  1201     14F0  00C4               	movwf	___fldiv@b
  1202     14F1  160A  118A  2636  160A  118A  	fcall	___fldiv
  1203     14F6  1283               	bcf	3,5	;RP0=0, select bank0
  1204     14F7  1303               	bcf	3,6	;RP1=0, select bank0
  1205     14F8  0843               	movf	?___fldiv+3,w
  1206     14F9  1683               	bsf	3,5	;RP0=1, select bank3
  1207     14FA  1703               	bsf	3,6	;RP1=1, select bank3
  1208     14FB  00B8               	movwf	(main@voltage+3)^(0+384)
  1209     14FC  1283               	bcf	3,5	;RP0=0, select bank0
  1210     14FD  1303               	bcf	3,6	;RP1=0, select bank0
  1211     14FE  0842               	movf	?___fldiv+2,w
  1212     14FF  1683               	bsf	3,5	;RP0=1, select bank3
  1213     1500  1703               	bsf	3,6	;RP1=1, select bank3
  1214     1501  00B7               	movwf	(main@voltage+2)^(0+384)
  1215     1502  1283               	bcf	3,5	;RP0=0, select bank0
  1216     1503  1303               	bcf	3,6	;RP1=0, select bank0
  1217     1504  0841               	movf	?___fldiv+1,w
  1218     1505  1683               	bsf	3,5	;RP0=1, select bank3
  1219     1506  1703               	bsf	3,6	;RP1=1, select bank3
  1220     1507  00B6               	movwf	(main@voltage+1)^(0+384)
  1221     1508  1283               	bcf	3,5	;RP0=0, select bank0
  1222     1509  1303               	bcf	3,6	;RP1=0, select bank0
  1223     150A  0840               	movf	?___fldiv,w
  1224     150B  1683               	bsf	3,5	;RP0=1, select bank3
  1225     150C  1703               	bsf	3,6	;RP1=1, select bank3
  1226     150D  00B5               	movwf	main@voltage^(0+384)
  1227     150E                     l3724:
  1228                           
  1229                           ;newmain.c: 73:             lcd_set_cursor(1, 0);
  1230     150E  01F5               	clrf	lcd_set_cursor@col
  1231     150F  3001               	movlw	1
  1232     1510  160A  158A  26B7  160A  118A  	fcall	_lcd_set_cursor
  1233     1515                     l3726:
  1234                           
  1235                           ;newmain.c: 74:             sprintf(buffer, "V: %.2f V", voltage);
  1236     1515  3099               	movlw	(low (_buffer| (0+256)))& (0+255)
  1237     1516  1683               	bsf	3,5	;RP0=1, select bank1
  1238     1517  1303               	bcf	3,6	;RP1=0, select bank1
  1239     1518  00E6               	movwf	sprintf@s^(0+128)
  1240     1519  3001               	movlw	(low ((STR_2-__stringbase)| (0+32768)))& (0+255)
  1241     151A  00E7               	movwf	sprintf@fmt^(0+128)
  1242     151B  1683               	bsf	3,5	;RP0=1, select bank3
  1243     151C  1703               	bsf	3,6	;RP1=1, select bank3
  1244     151D  0838               	movf	(main@voltage+3)^(0+384),w
  1245     151E  1683               	bsf	3,5	;RP0=1, select bank1
  1246     151F  1303               	bcf	3,6	;RP1=0, select bank1
  1247     1520  00EB               	movwf	((?_sprintf+3)^(0+128)+2)
  1248     1521  1683               	bsf	3,5	;RP0=1, select bank3
  1249     1522  1703               	bsf	3,6	;RP1=1, select bank3
  1250     1523  0837               	movf	(main@voltage+2)^(0+384),w
  1251     1524  1683               	bsf	3,5	;RP0=1, select bank1
  1252     1525  1303               	bcf	3,6	;RP1=0, select bank1
  1253     1526  00EA               	movwf	((?_sprintf+2)^(0+128)+2)
  1254     1527  1683               	bsf	3,5	;RP0=1, select bank3
  1255     1528  1703               	bsf	3,6	;RP1=1, select bank3
  1256     1529  0836               	movf	(main@voltage+1)^(0+384),w
  1257     152A  1683               	bsf	3,5	;RP0=1, select bank1
  1258     152B  1303               	bcf	3,6	;RP1=0, select bank1
  1259     152C  00E9               	movwf	((?_sprintf+1)^(0+128)+2)
  1260     152D  1683               	bsf	3,5	;RP0=1, select bank3
  1261     152E  1703               	bsf	3,6	;RP1=1, select bank3
  1262     152F  0835               	movf	main@voltage^(0+384),w
  1263     1530  1683               	bsf	3,5	;RP0=1, select bank1
  1264     1531  1303               	bcf	3,6	;RP1=0, select bank1
  1265     1532  00E8               	movwf	(?_sprintf^(0+128)+2)
  1266     1533  160A  118A  200D  160A  118A  	fcall	_sprintf
  1267     1538                     l3728:
  1268                           
  1269                           ;newmain.c: 75:             lcd_string(buffer);
  1270     1538  3099               	movlw	(low (_buffer| (0+256)))& (0+255)
  1271     1539  00F5               	movwf	lcd_string@str
  1272     153A  3001               	movlw	1
  1273     153B  00F6               	movwf	lcd_string@str+1
  1274     153C  160A  158A  2786  160A  118A  	fcall	_lcd_string
  1275     1541  2CA5               	goto	l3716
  1276     1542  120A  118A  280C   	ljmp	start
  1277     1545                     __end_of_main:
  1278                           
  1279                           	psect	text1
  1280     100D                     __ptext1:	
  1281 ;; *************** function _sprintf *****************
  1282 ;; Defined at:
  1283 ;;		line 9 in file "C:\Program Files\Microchip\xc8\v2.50\pic\sources\c99\common\nf_sprintf.c"
  1284 ;; Parameters:    Size  Location     Type
  1285 ;;  s               1   70[BANK1 ] PTR unsigned char 
  1286 ;;		 -> buffer(16), 
  1287 ;;  fmt             1   71[BANK1 ] PTR const unsigned char 
  1288 ;;		 -> STR_2(10), 
  1289 ;; Auto vars:     Size  Location     Type
  1290 ;;  f              11    1[BANK3 ] struct _IO_FILE
  1291 ;;  ret             2    0        int 
  1292 ;;  ap              1    0[BANK3 ] PTR void [1]
  1293 ;;		 -> ?_sprintf(2), 
  1294 ;; Return value:  Size  Location     Type
  1295 ;;                  2   70[BANK1 ] int 
  1296 ;; Registers used:
  1297 ;;		wreg, fsr0l, fsr0h, status,2, status,0, btemp+1, pclath, cstack
  1298 ;; Tracked objects:
  1299 ;;		On entry : 0/0
  1300 ;;		On exit  : 0/0
  1301 ;;		Unchanged: 0/0
  1302 ;; Data sizes:     COMMON   BANK0   BANK1   BANK3   BANK2
  1303 ;;      Params:         0       0       6       0       0
  1304 ;;      Locals:         0       0       0      12       0
  1305 ;;      Temps:          0       0       1       0       0
  1306 ;;      Totals:         0       0       7      12       0
  1307 ;;Total ram usage:       19 bytes
  1308 ;; Hardware stack levels used: 1
  1309 ;; Hardware stack levels required when called: 8
  1310 ;; This function calls:
  1311 ;;		_vfprintf
  1312 ;; This function is called by:
  1313 ;;		_main
  1314 ;; This function uses a non-reentrant model
  1315 ;;
  1316                           
  1317     100D                     _sprintf:	
  1318                           ;psect for function _sprintf
  1319                           
  1320     100D                     l3686:	
  1321                           ;incstack = 0
  1322 ;; hardware stack exceeded
  1323                           ; Regs used in _sprintf: [wreg-fsr0h+status,2+status,0+btemp+1+pclath+cstack]
  1324                           
  1325     100D  30E8               	movlw	(low ((?_sprintf| 0+2)))& (0+255)
  1326     100E  1683               	bsf	3,5	;RP0=1, select bank3
  1327     100F  1703               	bsf	3,6	;RP1=1, select bank3
  1328     1010  00A9               	movwf	sprintf@ap^(0+384)
  1329     1011                     l3688:
  1330     1011  1683               	bsf	3,5	;RP0=1, select bank1
  1331     1012  1303               	bcf	3,6	;RP1=0, select bank1
  1332     1013  0866               	movf	sprintf@s^(0+128),w
  1333     1014  1683               	bsf	3,5	;RP0=1, select bank3
  1334     1015  1703               	bsf	3,6	;RP1=1, select bank3
  1335     1016  00AA               	movwf	sprintf@f^(0+384)
  1336     1017  3001               	movlw	1
  1337     1018  00AB               	movwf	(sprintf@f+1)^(0+384)
  1338     1019                     l3690:
  1339     1019  01AC               	clrf	(sprintf@f^(0+384)+2)
  1340     101A  01AD               	clrf	((sprintf@f+1)^(0+384)+2)
  1341     101B                     l3692:
  1342     101B  01B3               	clrf	(sprintf@f^(0+384)+9)
  1343     101C  01B4               	clrf	((sprintf@f+1)^(0+384)+9)
  1344     101D                     l3694:
  1345     101D  30AA               	movlw	low sprintf@f
  1346     101E  1683               	bsf	3,5	;RP0=1, select bank1
  1347     101F  1303               	bcf	3,6	;RP1=0, select bank1
  1348     1020  00E1               	movwf	vfprintf@fp^(0+128)
  1349     1021  3001               	movlw	high sprintf@f
  1350     1022  00E2               	movwf	(vfprintf@fp^(0+128)+1)
  1351     1023  0867               	movf	sprintf@fmt^(0+128),w
  1352     1024  00E3               	movwf	vfprintf@fmt^(0+128)
  1353     1025  30A9               	movlw	(low (sprintf@ap| (0+256)))& (0+255)
  1354     1026  00E4               	movwf	vfprintf@ap^(0+128)
  1355     1027  160A  158A  271A  160A  118A  	fcall	_vfprintf
  1356     102C                     l3696:
  1357     102C  1683               	bsf	3,5	;RP0=1, select bank3
  1358     102D  1703               	bsf	3,6	;RP1=1, select bank3
  1359     102E  082C               	movf	(sprintf@f^(0+384)+2),w
  1360     102F  1683               	bsf	3,5	;RP0=1, select bank1
  1361     1030  1303               	bcf	3,6	;RP1=0, select bank1
  1362     1031  0766               	addwf	sprintf@s^(0+128),w
  1363     1032  00EC               	movwf	??_sprintf^(0+128)
  1364     1033  086C               	movf	??_sprintf^(0+128),w
  1365     1034  0084               	movwf	4
  1366     1035  1783               	bsf	3,7	;select IRP bank2
  1367     1036  0180               	clrf	0
  1368     1037                     l644:
  1369     1037  0008               	return
  1370     1038                     __end_of_sprintf:
  1371                           
  1372                           	psect	text2
  1373     1F1A                     __ptext2:	
  1374 ;; *************** function _vfprintf *****************
  1375 ;; Defined at:
  1376 ;;		line 1817 in file "C:\Program Files\Microchip\xc8\v2.50\pic\sources\c99\common\doprnt.c"
  1377 ;; Parameters:    Size  Location     Type
  1378 ;;  fp              2   65[BANK1 ] PTR struct _IO_FILE
  1379 ;;		 -> sprintf@f(11), 
  1380 ;;  fmt             1   67[BANK1 ] PTR const unsigned char 
  1381 ;;		 -> STR_2(10), 
  1382 ;;  ap              1   68[BANK1 ] PTR PTR void 
  1383 ;;		 -> sprintf@ap(1), 
  1384 ;; Auto vars:     Size  Location     Type
  1385 ;;  cfmt            1   69[BANK1 ] PTR unsigned char 
  1386 ;;		 -> STR_2(10), 
  1387 ;; Return value:  Size  Location     Type
  1388 ;;                  2   65[BANK1 ] int 
  1389 ;; Registers used:
  1390 ;;		wreg, fsr0l, fsr0h, status,2, status,0, btemp+1, pclath, cstack
  1391 ;; Tracked objects:
  1392 ;;		On entry : 0/0
  1393 ;;		On exit  : 0/0
  1394 ;;		Unchanged: 0/0
  1395 ;; Data sizes:     COMMON   BANK0   BANK1   BANK3   BANK2
  1396 ;;      Params:         0       0       4       0       0
  1397 ;;      Locals:         0       0       1       0       0
  1398 ;;      Temps:          0       0       0       0       0
  1399 ;;      Totals:         0       0       5       0       0
  1400 ;;Total ram usage:        5 bytes
  1401 ;; Hardware stack levels used: 1
  1402 ;; Hardware stack levels required when called: 7
  1403 ;; This function calls:
  1404 ;;		_vfpfcnvrt
  1405 ;; This function is called by:
  1406 ;;		_sprintf
  1407 ;; This function uses a non-reentrant model
  1408 ;;
  1409                           
  1410     1F1A                     _vfprintf:	
  1411                           ;psect for function _vfprintf
  1412                           
  1413     1F1A                     l3676:	
  1414                           ;incstack = 0
  1415 ;; hardware stack exceeded
  1416                           ; Regs used in _vfprintf: [wreg-fsr0h+status,2+status,0+btemp+1+pclath+cstack]
  1417                           
  1418                           
  1419                           ;C:\Program Files\Microchip\xc8\v2.50\pic\sources\c99\common\doprnt.c: 1817: int vfprint
      +                          f(FILE *fp, const char *fmt, va_list ap);C:\Program Files\Microchip\xc8\v2.50\pic\source
      +                          s\c99\common\doprnt.c: 1818: {;C:\Program Files\Microchip\xc8\v2.50\pic\sources\c99\comm
      +                          on\doprnt.c: 1820:     char *cfmt;;C:\Program Files\Microchip\xc8\v2.50\pic\sources\c99\
      +                          common\doprnt.c: 1822:     cfmt = (char *)fmt;
  1420     1F1A  1683               	bsf	3,5	;RP0=1, select bank1
  1421     1F1B  1303               	bcf	3,6	;RP1=0, select bank1
  1422     1F1C  0863               	movf	vfprintf@fmt^(0+128),w
  1423     1F1D  00E5               	movwf	vfprintf@cfmt^(0+128)
  1424                           
  1425                           ;C:\Program Files\Microchip\xc8\v2.50\pic\sources\c99\common\doprnt.c: 1826:     while (
      +                          *cfmt) {
  1426     1F1E  2F2C               	goto	l3680
  1427     1F1F                     l3678:
  1428                           
  1429                           ;C:\Program Files\Microchip\xc8\v2.50\pic\sources\c99\common\doprnt.c: 1830:    vfpfcnvr
      +                          t(fp, &cfmt, ap);
  1430     1F1F  0861               	movf	vfprintf@fp^(0+128),w
  1431     1F20  00D7               	movwf	vfpfcnvrt@fp^(0+128)
  1432     1F21  0862               	movf	(vfprintf@fp+1)^(0+128),w
  1433     1F22  00D8               	movwf	(vfpfcnvrt@fp+1)^(0+128)
  1434     1F23  30E5               	movlw	(low (vfprintf@cfmt| 0))& (0+255)
  1435     1F24  00D9               	movwf	vfpfcnvrt@fmt^(0+128)
  1436     1F25  0864               	movf	vfprintf@ap^(0+128),w
  1437     1F26  00DA               	movwf	vfpfcnvrt@ap^(0+128)
  1438     1F27  160A  118A  2545  160A  158A  	fcall	_vfpfcnvrt
  1439     1F2C                     l3680:
  1440                           
  1441                           ;C:\Program Files\Microchip\xc8\v2.50\pic\sources\c99\common\doprnt.c: 1826:     while (
      +                          *cfmt) {
  1442     1F2C  1683               	bsf	3,5	;RP0=1, select bank1
  1443     1F2D  1303               	bcf	3,6	;RP1=0, select bank1
  1444     1F2E  0865               	movf	vfprintf@cfmt^(0+128),w
  1445     1F2F  0084               	movwf	4
  1446     1F30  160A  158A  200A  160A  158A  	fcall	stringdir
  1447     1F35  3A00               	xorlw	0
  1448     1F36  1D03               	skipz
  1449     1F37  2F39               	goto	u5861
  1450     1F38  2F3A               	goto	u5860
  1451     1F39                     u5861:
  1452     1F39  2F1F               	goto	l3678
  1453     1F3A                     u5860:
  1454     1F3A                     l3682:
  1455                           
  1456                           ;C:\Program Files\Microchip\xc8\v2.50\pic\sources\c99\common\doprnt.c: 1835:  return 0;
  1457     1F3A  01E1               	clrf	?_vfprintf^(0+128)
  1458     1F3B  01E2               	clrf	(?_vfprintf+1)^(0+128)
  1459     1F3C                     l762:
  1460     1F3C  0008               	return
  1461     1F3D                     __end_of_vfprintf:
  1462                           
  1463                           	psect	text3
  1464     1545                     __ptext3:	
  1465 ;; *************** function _vfpfcnvrt *****************
  1466 ;; Defined at:
  1467 ;;		line 1177 in file "C:\Program Files\Microchip\xc8\v2.50\pic\sources\c99\common\doprnt.c"
  1468 ;; Parameters:    Size  Location     Type
  1469 ;;  fp              2   55[BANK1 ] PTR struct _IO_FILE
  1470 ;;		 -> sprintf@f(11), 
  1471 ;;  fmt             1   57[BANK1 ] PTR PTR unsigned char 
  1472 ;;		 -> vfprintf@cfmt(1), 
  1473 ;;  ap              1   58[BANK1 ] PTR PTR void 
  1474 ;;		 -> sprintf@ap(1), 
  1475 ;; Auto vars:     Size  Location     Type
  1476 ;;  convarg         4   59[BANK1 ] struct .
  1477 ;;  cp              1   64[BANK1 ] PTR unsigned char 
  1478 ;;		 -> STR_2(10), 
  1479 ;;  c               1   63[BANK1 ] unsigned char 
  1480 ;;  done            1    0        _Bool 
  1481 ;; Return value:  Size  Location     Type
  1482 ;;                  1    wreg      void 
  1483 ;; Registers used:
  1484 ;;		wreg, fsr0l, fsr0h, status,2, status,0, btemp+1, pclath, cstack
  1485 ;; Tracked objects:
  1486 ;;		On entry : 0/0
  1487 ;;		On exit  : 0/0
  1488 ;;		Unchanged: 0/0
  1489 ;; Data sizes:     COMMON   BANK0   BANK1   BANK3   BANK2
  1490 ;;      Params:         0       0       4       0       0
  1491 ;;      Locals:         0       0       6       0       0
  1492 ;;      Temps:          0       2       0       0       0
  1493 ;;      Totals:         0       2      10       0       0
  1494 ;;Total ram usage:       12 bytes
  1495 ;; Hardware stack levels used: 1
  1496 ;; Hardware stack levels required when called: 6
  1497 ;; This function calls:
  1498 ;;		_efgtoa
  1499 ;;		_fputc
  1500 ;;		_read_prec_or_width
  1501 ;; This function is called by:
  1502 ;;		_vfprintf
  1503 ;; This function uses a non-reentrant model
  1504 ;;
  1505                           
  1506     1545                     _vfpfcnvrt:	
  1507                           ;psect for function _vfpfcnvrt
  1508                           
  1509     1545                     l3620:	
  1510                           ;incstack = 0
  1511 ;; hardware stack exceeded
  1512                           ; Regs used in _vfpfcnvrt: [wreg-fsr0h+status,2+status,0+btemp+1+pclath+cstack]
  1513                           
  1514                           
  1515                           ;C:\Program Files\Microchip\xc8\v2.50\pic\sources\c99\common\doprnt.c: 1177: vfpfcnvrt(F
      +                          ILE *fp, char *fmt[], va_list ap);C:\Program Files\Microchip\xc8\v2.50\pic\sources\c99\c
      +                          ommon\doprnt.c: 1178: {;C:\Program Files\Microchip\xc8\v2.50\pic\sources\c99\common\dopr
      +                          nt.c: 1179:     char c, *cp;;C:\Program Files\Microchip\xc8\v2.50\pic\sources\c99\common
      +                          \doprnt.c: 1180:     _Bool done;;C:\Program Files\Microchip\xc8\v2.50\pic\sources\c99\co
      +                          mmon\doprnt.c: 1188:  } convarg;;C:\Program Files\Microchip\xc8\v2.50\pic\sources\c99\co
      +                          mmon\doprnt.c: 1201:     if ((*fmt)[0] == '%') {
  1516     1545  1683               	bsf	3,5	;RP0=1, select bank1
  1517     1546  1303               	bcf	3,6	;RP1=0, select bank1
  1518     1547  0859               	movf	vfpfcnvrt@fmt^(0+128),w
  1519     1548  0084               	movwf	4
  1520     1549  1383               	bcf	3,7	;select IRP bank0
  1521     154A  0800               	movf	0,w
  1522     154B  0084               	movwf	4
  1523     154C  160A  158A  200A  160A  118A  	fcall	stringdir
  1524     1551  3A25               	xorlw	37
  1525     1552  1D03               	skipz
  1526     1553  2D55               	goto	u5831
  1527     1554  2D56               	goto	u5830
  1528     1555                     u5831:
  1529     1555  2E18               	goto	l3670
  1530     1556                     u5830:
  1531     1556                     l3622:
  1532                           
  1533                           ;C:\Program Files\Microchip\xc8\v2.50\pic\sources\c99\common\doprnt.c: 1202:         ++*
      +                          fmt;
  1534     1556  0859               	movf	vfpfcnvrt@fmt^(0+128),w
  1535     1557  0084               	movwf	4
  1536     1558  3001               	movlw	1
  1537     1559  0780               	addwf	0,f
  1538     155A                     l3624:
  1539                           
  1540                           ;C:\Program Files\Microchip\xc8\v2.50\pic\sources\c99\common\doprnt.c: 1204:         fla
      +                          gs = width = 0;
  1541     155A  01FA               	clrf	_width
  1542     155B  01FB               	clrf	_width+1
  1543     155C  3000               	movlw	0
  1544     155D  00EF               	movwf	_flags^(0+128)
  1545     155E                     l3626:
  1546                           
  1547                           ;C:\Program Files\Microchip\xc8\v2.50\pic\sources\c99\common\doprnt.c: 1205:         pre
      +                          c = -1;
  1548     155E  30FF               	movlw	255
  1549     155F  00ED               	movwf	_prec^(0+128)
  1550     1560  30FF               	movlw	255
  1551     1561  00EE               	movwf	(_prec^(0+128)+1)
  1552     1562                     l3628:
  1553                           
  1554                           ;C:\Program Files\Microchip\xc8\v2.50\pic\sources\c99\common\doprnt.c: 1265:         if 
      +                          ((*fmt)[0] == '.') {
  1555     1562  0859               	movf	vfpfcnvrt@fmt^(0+128),w
  1556     1563  0084               	movwf	4
  1557     1564  0800               	movf	0,w
  1558     1565  0084               	movwf	4
  1559     1566  160A  158A  200A  160A  118A  	fcall	stringdir
  1560     156B  3A2E               	xorlw	46
  1561     156C  1D03               	skipz
  1562     156D  2D6F               	goto	u5841
  1563     156E  2D70               	goto	u5840
  1564     156F                     u5841:
  1565     156F  2D83               	goto	l3634
  1566     1570                     u5840:
  1567     1570                     l3630:
  1568                           
  1569                           ;C:\Program Files\Microchip\xc8\v2.50\pic\sources\c99\common\doprnt.c: 1266:            
      +                           ++*fmt;
  1570     1570  0859               	movf	vfpfcnvrt@fmt^(0+128),w
  1571     1571  0084               	movwf	4
  1572     1572  3001               	movlw	1
  1573     1573  0780               	addwf	0,f
  1574     1574                     l3632:
  1575                           
  1576                           ;C:\Program Files\Microchip\xc8\v2.50\pic\sources\c99\common\doprnt.c: 1267:    prec = r
      +                          ead_prec_or_width(fmt, ap);
  1577     1574  0859               	movf	vfpfcnvrt@fmt^(0+128),w
  1578     1575  00F8               	movwf	read_prec_or_width@fmt
  1579     1576  085A               	movf	vfpfcnvrt@ap^(0+128),w
  1580     1577  00F9               	movwf	read_prec_or_width@ap
  1581     1578  120A  118A  279E  160A  118A  	fcall	_read_prec_or_width
  1582     157D  0879               	movf	?_read_prec_or_width+1,w
  1583     157E  1683               	bsf	3,5	;RP0=1, select bank1
  1584     157F  1303               	bcf	3,6	;RP1=0, select bank1
  1585     1580  00EE               	movwf	(_prec+1)^(0+128)
  1586     1581  0878               	movf	?_read_prec_or_width,w
  1587     1582  00ED               	movwf	_prec^(0+128)
  1588     1583                     l3634:
  1589                           
  1590                           ;C:\Program Files\Microchip\xc8\v2.50\pic\sources\c99\common\doprnt.c: 1689:   cp = *fmt
      +                          ;
  1591     1583  0859               	movf	vfpfcnvrt@fmt^(0+128),w
  1592     1584  0084               	movwf	4
  1593     1585  1383               	bcf	3,7	;select IRP bank0
  1594     1586  0800               	movf	0,w
  1595     1587  00E0               	movwf	vfpfcnvrt@cp^(0+128)
  1596     1588                     l3636:
  1597                           
  1598                           ;C:\Program Files\Microchip\xc8\v2.50\pic\sources\c99\common\doprnt.c: 1690:   c = *cp;
  1599     1588  0860               	movf	vfpfcnvrt@cp^(0+128),w
  1600     1589  0084               	movwf	4
  1601     158A  160A  158A  200A  160A  118A  	fcall	stringdir
  1602     158F  00DF               	movwf	vfpfcnvrt@c^(0+128)
  1603                           
  1604                           ;C:\Program Files\Microchip\xc8\v2.50\pic\sources\c99\common\doprnt.c: 1691:   switch(c)
      +                           {
  1605     1590  2D99               	goto	l3644
  1606     1591                     l3638:
  1607                           
  1608                           ;C:\Program Files\Microchip\xc8\v2.50\pic\sources\c99\common\doprnt.c: 1695:     cp++;
  1609     1591  3001               	movlw	1
  1610     1592  07E0               	addwf	vfpfcnvrt@cp^(0+128),f
  1611                           
  1612                           ;C:\Program Files\Microchip\xc8\v2.50\pic\sources\c99\common\doprnt.c: 1696:     break;
  1613     1593  2DA4               	goto	l3646
  1614     1594                     l744:	
  1615                           ;C:\Program Files\Microchip\xc8\v2.50\pic\sources\c99\common\doprnt.c: 1710:    case 'f'
      +                          :
  1616                           
  1617                           
  1618                           ;C:\Program Files\Microchip\xc8\v2.50\pic\sources\c99\common\doprnt.c: 1721:     c = 'l'
      +                          ;
  1619     1594  306C               	movlw	108
  1620     1595  00DF               	movwf	vfpfcnvrt@c^(0+128)
  1621                           
  1622                           ;C:\Program Files\Microchip\xc8\v2.50\pic\sources\c99\common\doprnt.c: 1722:     break;
  1623     1596  2DA4               	goto	l3646
  1624     1597                     l3640:
  1625                           
  1626                           ;C:\Program Files\Microchip\xc8\v2.50\pic\sources\c99\common\doprnt.c: 1724:     c = 0;
  1627     1597  01DF               	clrf	vfpfcnvrt@c^(0+128)
  1628                           
  1629                           ;C:\Program Files\Microchip\xc8\v2.50\pic\sources\c99\common\doprnt.c: 1725:     break;
  1630     1598  2DA4               	goto	l3646
  1631     1599                     l3644:
  1632     1599  085F               	movf	vfpfcnvrt@c^(0+128),w
  1633                           
  1634                           ; Switch size 1, requested type "simple"
  1635                           ; Number of cases is 3, Range of values is 76 to 108
  1636                           ; switch strategies available:
  1637                           ; Name         Instructions Cycles
  1638                           ; simple_byte           10     6 (average)
  1639                           ; direct_byte          110    11 (fixed)
  1640                           ; jumptable            263     9 (fixed)
  1641                           ;	Chosen strategy is simple_byte
  1642     159A  3A4C               	xorlw	76	; case 76
  1643     159B  1903               	skipnz
  1644     159C  2D91               	goto	l3638
  1645     159D  3A2A               	xorlw	42	; case 102
  1646     159E  1903               	skipnz
  1647     159F  2D94               	goto	l744
  1648     15A0  3A0A               	xorlw	10	; case 108
  1649     15A1  1903               	skipnz
  1650     15A2  2D91               	goto	l3638
  1651     15A3  2D97               	goto	l3640
  1652     15A4                     l3646:
  1653     15A4  0860               	movf	vfpfcnvrt@cp^(0+128),w
  1654     15A5  0084               	movwf	4
  1655     15A6  160A  158A  200A  160A  118A  	fcall	stringdir
  1656     15AB  3A66               	xorlw	102
  1657     15AC  1D03               	skipz
  1658     15AD  2DAF               	goto	u5851
  1659     15AE  2DB0               	goto	u5850
  1660     15AF                     u5851:
  1661     15AF  2E10               	goto	l3666
  1662     15B0                     u5850:
  1663     15B0  2DDD               	goto	l3654
  1664     15B1                     l3648:
  1665                           
  1666                           ;C:\Program Files\Microchip\xc8\v2.50\pic\sources\c99\common\doprnt.c: 1756:      convar
      +                          g.f = (long double)(*(double *)__va_arg(*(double **)ap, (double)0));
  1667     15B1  085A               	movf	vfpfcnvrt@ap^(0+128),w
  1668     15B2  0084               	movwf	4
  1669     15B3  1783               	bsf	3,7	;select IRP bank2
  1670     15B4  0800               	movf	0,w
  1671     15B5  00FF               	movwf	btemp+1
  1672     15B6  3004               	movlw	4
  1673     15B7  0780               	addwf	0,f
  1674     15B8  087F               	movf	btemp+1,w
  1675     15B9  0084               	movwf	4
  1676     15BA  1383               	bcf	3,7	;select IRP bank0
  1677     15BB  0800               	movf	0,w
  1678     15BC  00DB               	movwf	vfpfcnvrt@convarg^(0+128)
  1679     15BD  0A84               	incf	4,f
  1680     15BE  0800               	movf	0,w
  1681     15BF  00DC               	movwf	(vfpfcnvrt@convarg+1)^(0+128)
  1682     15C0  0A84               	incf	4,f
  1683     15C1  0800               	movf	0,w
  1684     15C2  00DD               	movwf	(vfpfcnvrt@convarg+2)^(0+128)
  1685     15C3  0A84               	incf	4,f
  1686     15C4  0800               	movf	0,w
  1687     15C5  00DE               	movwf	(vfpfcnvrt@convarg+3)^(0+128)
  1688                           
  1689                           ;C:\Program Files\Microchip\xc8\v2.50\pic\sources\c99\common\doprnt.c: 1757:      break;
  1690     15C6  2DE5               	goto	l3656
  1691     15C7                     l3650:
  1692                           
  1693                           ;C:\Program Files\Microchip\xc8\v2.50\pic\sources\c99\common\doprnt.c: 1759:      convar
      +                          g.f = (long double)(*(long double *)__va_arg(*(long double **)ap, (long double)0));
  1694     15C7  085A               	movf	vfpfcnvrt@ap^(0+128),w
  1695     15C8  0084               	movwf	4
  1696     15C9  1783               	bsf	3,7	;select IRP bank2
  1697     15CA  0800               	movf	0,w
  1698     15CB  00FF               	movwf	btemp+1
  1699     15CC  3004               	movlw	4
  1700     15CD  0780               	addwf	0,f
  1701     15CE  087F               	movf	btemp+1,w
  1702     15CF  0084               	movwf	4
  1703     15D0  1383               	bcf	3,7	;select IRP bank0
  1704     15D1  0800               	movf	0,w
  1705     15D2  00DB               	movwf	vfpfcnvrt@convarg^(0+128)
  1706     15D3  0A84               	incf	4,f
  1707     15D4  0800               	movf	0,w
  1708     15D5  00DC               	movwf	(vfpfcnvrt@convarg+1)^(0+128)
  1709     15D6  0A84               	incf	4,f
  1710     15D7  0800               	movf	0,w
  1711     15D8  00DD               	movwf	(vfpfcnvrt@convarg+2)^(0+128)
  1712     15D9  0A84               	incf	4,f
  1713     15DA  0800               	movf	0,w
  1714     15DB  00DE               	movwf	(vfpfcnvrt@convarg+3)^(0+128)
  1715                           
  1716                           ;C:\Program Files\Microchip\xc8\v2.50\pic\sources\c99\common\doprnt.c: 1760:      break;
  1717     15DC  2DE5               	goto	l3656
  1718     15DD                     l3654:
  1719     15DD  085F               	movf	vfpfcnvrt@c^(0+128),w
  1720                           
  1721                           ; Switch size 1, requested type "simple"
  1722                           ; Number of cases is 2, Range of values is 76 to 108
  1723                           ; switch strategies available:
  1724                           ; Name         Instructions Cycles
  1725                           ; simple_byte            7     4 (average)
  1726                           ; direct_byte          110    11 (fixed)
  1727                           ; jumptable            263     9 (fixed)
  1728                           ;	Chosen strategy is simple_byte
  1729     15DE  3A4C               	xorlw	76	; case 76
  1730     15DF  1903               	skipnz
  1731     15E0  2DC7               	goto	l3650
  1732     15E1  3A20               	xorlw	32	; case 108
  1733     15E2  1903               	skipnz
  1734     15E3  2DB1               	goto	l3648
  1735     15E4  2DE5               	goto	l3656
  1736     15E5                     l3656:
  1737                           
  1738                           ;C:\Program Files\Microchip\xc8\v2.50\pic\sources\c99\common\doprnt.c: 1762:    *fmt = c
      +                          p+1;
  1739     15E5  0859               	movf	vfpfcnvrt@fmt^(0+128),w
  1740     15E6  0084               	movwf	4
  1741     15E7  0860               	movf	vfpfcnvrt@cp^(0+128),w
  1742     15E8  3E01               	addlw	1
  1743     15E9  0080               	movwf	0
  1744                           
  1745                           ;C:\Program Files\Microchip\xc8\v2.50\pic\sources\c99\common\doprnt.c: 1763:    switch (
      +                          *cp) {
  1746     15EA  2E05               	goto	l3664
  1747     15EB                     l3658:
  1748                           
  1749                           ;C:\Program Files\Microchip\xc8\v2.50\pic\sources\c99\common\doprnt.c: 1790:      return
      +                           (void) efgtoa(fp, convarg.f, *cp);;	Return value of _vfpfcnvrt is never used
  1750     15EB  0857               	movf	vfpfcnvrt@fp^(0+128),w
  1751     15EC  00A0               	movwf	efgtoa@fp^(0+128)
  1752     15ED  0858               	movf	(vfpfcnvrt@fp+1)^(0+128),w
  1753     15EE  00A1               	movwf	(efgtoa@fp+1)^(0+128)
  1754     15EF  085E               	movf	(vfpfcnvrt@convarg+3)^(0+128),w
  1755     15F0  00A5               	movwf	(efgtoa@f+3)^(0+128)
  1756     15F1  085D               	movf	(vfpfcnvrt@convarg+2)^(0+128),w
  1757     15F2  00A4               	movwf	(efgtoa@f+2)^(0+128)
  1758     15F3  085C               	movf	(vfpfcnvrt@convarg+1)^(0+128),w
  1759     15F4  00A3               	movwf	(efgtoa@f+1)^(0+128)
  1760     15F5  085B               	movf	vfpfcnvrt@convarg^(0+128),w
  1761     15F6  00A2               	movwf	efgtoa@f^(0+128)
  1762     15F7  0860               	movf	vfpfcnvrt@cp^(0+128),w
  1763     15F8  0084               	movwf	4
  1764     15F9  160A  158A  200A  160A  118A  	fcall	stringdir
  1765     15FE  00A6               	movwf	efgtoa@c^(0+128)
  1766     15FF  120A  158A  21C5  160A  118A  	fcall	_efgtoa
  1767     1604  2E35               	goto	l755
  1768     1605                     l3664:
  1769     1605  0860               	movf	vfpfcnvrt@cp^(0+128),w
  1770     1606  0084               	movwf	4
  1771     1607  160A  158A  200A  160A  118A  	fcall	stringdir
  1772                           
  1773                           ; Switch size 1, requested type "simple"
  1774                           ; Number of cases is 1, Range of values is 102 to 102
  1775                           ; switch strategies available:
  1776                           ; Name         Instructions Cycles
  1777                           ; simple_byte            4     3 (average)
  1778                           ; direct_byte           14    11 (fixed)
  1779                           ; jumptable            263     9 (fixed)
  1780                           ;	Chosen strategy is simple_byte
  1781     160C  3A66               	xorlw	102	; case 102
  1782     160D  1903               	skipnz
  1783     160E  2DEB               	goto	l3658
  1784     160F  2E10               	goto	l3666
  1785     1610                     l3666:
  1786                           
  1787                           ;C:\Program Files\Microchip\xc8\v2.50\pic\sources\c99\common\doprnt.c: 1806:         ++*
      +                          fmt;
  1788     1610  1683               	bsf	3,5	;RP0=1, select bank1
  1789     1611  1303               	bcf	3,6	;RP1=0, select bank1
  1790     1612  0859               	movf	vfpfcnvrt@fmt^(0+128),w
  1791     1613  0084               	movwf	4
  1792     1614  3001               	movlw	1
  1793     1615  1383               	bcf	3,7	;select IRP bank0
  1794     1616  0780               	addwf	0,f
  1795     1617  2E35               	goto	l755
  1796     1618                     l3670:
  1797                           
  1798                           ;C:\Program Files\Microchip\xc8\v2.50\pic\sources\c99\common\doprnt.c: 1811:     fputc((
      +                          int)(*fmt)[0], fp);
  1799     1618  0859               	movf	vfpfcnvrt@fmt^(0+128),w
  1800     1619  0084               	movwf	4
  1801     161A  0800               	movf	0,w
  1802     161B  0084               	movwf	4
  1803     161C  160A  158A  200A  160A  118A  	fcall	stringdir
  1804     1621  1283               	bcf	3,5	;RP0=0, select bank0
  1805     1622  1303               	bcf	3,6	;RP1=0, select bank0
  1806     1623  00EE               	movwf	??_vfpfcnvrt
  1807     1624  01EF               	clrf	??_vfpfcnvrt+1
  1808     1625  086E               	movf	??_vfpfcnvrt,w
  1809     1626  00F2               	movwf	fputc@c
  1810     1627  086F               	movf	??_vfpfcnvrt+1,w
  1811     1628  00F3               	movwf	fputc@c+1
  1812     1629  1683               	bsf	3,5	;RP0=1, select bank1
  1813     162A  1303               	bcf	3,6	;RP1=0, select bank1
  1814     162B  0857               	movf	vfpfcnvrt@fp^(0+128),w
  1815     162C  00F4               	movwf	fputc@fp
  1816     162D  0858               	movf	(vfpfcnvrt@fp+1)^(0+128),w
  1817     162E  00F5               	movwf	fputc@fp+1
  1818     162F  160A  118A  21F7  160A  118A  	fcall	_fputc
  1819     1634  2E10               	goto	l3666
  1820     1635                     l755:
  1821     1635  0008               	return
  1822     1636                     __end_of_vfpfcnvrt:
  1823                           
  1824                           	psect	text4
  1825     079E                     __ptext4:	
  1826 ;; *************** function _read_prec_or_width *****************
  1827 ;; Defined at:
  1828 ;;		line 1158 in file "C:\Program Files\Microchip\xc8\v2.50\pic\sources\c99\common\doprnt.c"
  1829 ;; Parameters:    Size  Location     Type
  1830 ;;  fmt             1    8[COMMON] PTR PTR const unsigned c
  1831 ;;		 -> vfprintf@cfmt(1), 
  1832 ;;  ap              1    9[COMMON] PTR PTR void [1]
  1833 ;;		 -> sprintf@ap(1), 
  1834 ;; Auto vars:     Size  Location     Type
  1835 ;;  c               1    0[BANK0 ] unsigned char 
  1836 ;;  n               2    1[BANK0 ] int 
  1837 ;; Return value:  Size  Location     Type
  1838 ;;                  2    8[COMMON] int 
  1839 ;; Registers used:
  1840 ;;		wreg, fsr0l, fsr0h, status,2, status,0, btemp+1, pclath, cstack
  1841 ;; Tracked objects:
  1842 ;;		On entry : 0/0
  1843 ;;		On exit  : 0/0
  1844 ;;		Unchanged: 0/0
  1845 ;; Data sizes:     COMMON   BANK0   BANK1   BANK3   BANK2
  1846 ;;      Params:         2       0       0       0       0
  1847 ;;      Locals:         0       3       0       0       0
  1848 ;;      Temps:          0       0       0       0       0
  1849 ;;      Totals:         2       3       0       0       0
  1850 ;;Total ram usage:        5 bytes
  1851 ;; Hardware stack levels used: 1
  1852 ;; Hardware stack levels required when called: 2
  1853 ;; This function calls:
  1854 ;;		___wmul
  1855 ;; This function is called by:
  1856 ;;		_vfpfcnvrt
  1857 ;; This function uses a non-reentrant model
  1858 ;;
  1859                           
  1860     079E                     _read_prec_or_width:	
  1861                           ;psect for function _read_prec_or_width
  1862                           
  1863     079E                     l2916:	
  1864                           ;incstack = 0
  1865                           ; Regs used in _read_prec_or_width: [wreg-fsr0h+status,2+status,0+btemp+1+pclath+cstack]
  1866                           
  1867                           
  1868                           ;C:\Program Files\Microchip\xc8\v2.50\pic\sources\c99\common\doprnt.c: 1159:     int n =
      +                           0;
  1869     079E  1283               	bcf	3,5	;RP0=0, select bank0
  1870     079F  1303               	bcf	3,6	;RP1=0, select bank0
  1871     07A0  01A1               	clrf	read_prec_or_width@n
  1872     07A1  01A2               	clrf	read_prec_or_width@n+1
  1873     07A2                     l2918:
  1874                           
  1875                           ;C:\Program Files\Microchip\xc8\v2.50\pic\sources\c99\common\doprnt.c: 1160:     if ((*f
      +                          mt)[0] == '*') {
  1876     07A2  0878               	movf	read_prec_or_width@fmt,w
  1877     07A3  0084               	movwf	4
  1878     07A4  1383               	bcf	3,7	;select IRP bank0
  1879     07A5  0800               	movf	0,w
  1880     07A6  0084               	movwf	4
  1881     07A7  160A  158A  200A  120A  118A  	fcall	stringdir
  1882     07AC  3A2A               	xorlw	42
  1883     07AD  1D03               	skipz
  1884     07AE  2FB0               	goto	u4501
  1885     07AF  2FB1               	goto	u4500
  1886     07B0                     u4501:
  1887     07B0  2FE1               	goto	l2928
  1888     07B1                     u4500:
  1889     07B1                     l2920:
  1890                           
  1891                           ;C:\Program Files\Microchip\xc8\v2.50\pic\sources\c99\common\doprnt.c: 1161:         ++*
      +                          fmt;
  1892     07B1  0878               	movf	read_prec_or_width@fmt,w
  1893     07B2  0084               	movwf	4
  1894     07B3  3001               	movlw	1
  1895     07B4  0780               	addwf	0,f
  1896     07B5                     l2922:
  1897                           
  1898                           ;C:\Program Files\Microchip\xc8\v2.50\pic\sources\c99\common\doprnt.c: 1162:         n =
      +                           (*(int *)__va_arg(*(int **)*ap, (int)0));
  1899     07B5  0879               	movf	read_prec_or_width@ap,w
  1900     07B6  0084               	movwf	4
  1901     07B7  1783               	bsf	3,7	;select IRP bank2
  1902     07B8  0800               	movf	0,w
  1903     07B9  00FF               	movwf	btemp+1
  1904     07BA  3002               	movlw	2
  1905     07BB  0780               	addwf	0,f
  1906     07BC  087F               	movf	btemp+1,w
  1907     07BD  0084               	movwf	4
  1908     07BE  1383               	bcf	3,7	;select IRP bank0
  1909     07BF  0800               	movf	0,w
  1910     07C0  00A1               	movwf	read_prec_or_width@n
  1911     07C1  0A84               	incf	4,f
  1912     07C2  0800               	movf	0,w
  1913     07C3  00A2               	movwf	read_prec_or_width@n+1
  1914                           
  1915                           ;C:\Program Files\Microchip\xc8\v2.50\pic\sources\c99\common\doprnt.c: 1163:     } else 
      +                          {
  1916     07C4  2FF2               	goto	l2930
  1917     07C5                     l2924:
  1918                           
  1919                           ;C:\Program Files\Microchip\xc8\v2.50\pic\sources\c99\common\doprnt.c: 1166:            
      +                           n = n * 10 + c;
  1920     07C5  0822               	movf	read_prec_or_width@n+1,w
  1921     07C6  00F3               	movwf	___wmul@multiplier+1
  1922     07C7  0821               	movf	read_prec_or_width@n,w
  1923     07C8  00F2               	movwf	___wmul@multiplier
  1924     07C9  300A               	movlw	10
  1925     07CA  00F4               	movwf	___wmul@multiplicand
  1926     07CB  3000               	movlw	0
  1927     07CC  00F5               	movwf	___wmul@multiplicand+1
  1928     07CD  160A  158A  2761  120A  118A  	fcall	___wmul
  1929     07D2  1283               	bcf	3,5	;RP0=0, select bank0
  1930     07D3  1303               	bcf	3,6	;RP1=0, select bank0
  1931     07D4  0820               	movf	read_prec_or_width@c,w
  1932     07D5  0772               	addwf	?___wmul,w
  1933     07D6  00A1               	movwf	read_prec_or_width@n
  1934     07D7  3000               	movlw	0
  1935     07D8  1803               	skipnc
  1936     07D9  3001               	movlw	1
  1937     07DA  0773               	addwf	?___wmul+1,w
  1938     07DB  00A2               	movwf	read_prec_or_width@n+1
  1939     07DC                     l2926:
  1940                           
  1941                           ;C:\Program Files\Microchip\xc8\v2.50\pic\sources\c99\common\doprnt.c: 1167:            
      +                           ++*fmt;
  1942     07DC  0878               	movf	read_prec_or_width@fmt,w
  1943     07DD  0084               	movwf	4
  1944     07DE  3001               	movlw	1
  1945     07DF  1383               	bcf	3,7	;select IRP bank0
  1946     07E0  0780               	addwf	0,f
  1947     07E1                     l2928:
  1948                           
  1949                           ;C:\Program Files\Microchip\xc8\v2.50\pic\sources\c99\common\doprnt.c: 1165:         whi
      +                          le ((c = ((unsigned)(*fmt)[0]) - '0') < 10) {
  1950     07E1  0878               	movf	read_prec_or_width@fmt,w
  1951     07E2  0084               	movwf	4
  1952     07E3  0800               	movf	0,w
  1953     07E4  0084               	movwf	4
  1954     07E5  160A  158A  200A  120A  118A  	fcall	stringdir
  1955     07EA  3ED0               	addlw	208
  1956     07EB  00A0               	movwf	read_prec_or_width@c
  1957     07EC  300A               	movlw	10
  1958     07ED  0220               	subwf	read_prec_or_width@c,w
  1959     07EE  1C03               	skipc
  1960     07EF  2FF1               	goto	u4511
  1961     07F0  2FF2               	goto	u4510
  1962     07F1                     u4511:
  1963     07F1  2FC5               	goto	l2924
  1964     07F2                     u4510:
  1965     07F2                     l2930:
  1966                           
  1967                           ;C:\Program Files\Microchip\xc8\v2.50\pic\sources\c99\common\doprnt.c: 1170:     return 
      +                          n;
  1968     07F2  0822               	movf	read_prec_or_width@n+1,w
  1969     07F3  00F9               	movwf	?_read_prec_or_width+1
  1970     07F4  0821               	movf	read_prec_or_width@n,w
  1971     07F5  00F8               	movwf	?_read_prec_or_width
  1972     07F6                     l735:
  1973     07F6  0008               	return
  1974     07F7                     __end_of_read_prec_or_width:
  1975                           
  1976                           	psect	text5
  1977     1F61                     __ptext5:	
  1978 ;; *************** function ___wmul *****************
  1979 ;; Defined at:
  1980 ;;		line 15 in file "C:\Program Files\Microchip\xc8\v2.50\pic\sources\c99\common\Umul16.c"
  1981 ;; Parameters:    Size  Location     Type
  1982 ;;  multiplier      2    2[COMMON] unsigned int 
  1983 ;;  multiplicand    2    4[COMMON] unsigned int 
  1984 ;; Auto vars:     Size  Location     Type
  1985 ;;  product         2    6[COMMON] unsigned int 
  1986 ;; Return value:  Size  Location     Type
  1987 ;;                  2    2[COMMON] unsigned int 
  1988 ;; Registers used:
  1989 ;;		wreg, status,2, status,0
  1990 ;; Tracked objects:
  1991 ;;		On entry : 0/0
  1992 ;;		On exit  : 0/0
  1993 ;;		Unchanged: 0/0
  1994 ;; Data sizes:     COMMON   BANK0   BANK1   BANK3   BANK2
  1995 ;;      Params:         4       0       0       0       0
  1996 ;;      Locals:         2       0       0       0       0
  1997 ;;      Temps:          0       0       0       0       0
  1998 ;;      Totals:         6       0       0       0       0
  1999 ;;Total ram usage:        6 bytes
  2000 ;; Hardware stack levels used: 1
  2001 ;; Hardware stack levels required when called: 1
  2002 ;; This function calls:
  2003 ;;		Nothing
  2004 ;; This function is called by:
  2005 ;;		_read_prec_or_width
  2006 ;; This function uses a non-reentrant model
  2007 ;;
  2008                           
  2009     1F61                     ___wmul:	
  2010                           ;psect for function ___wmul
  2011                           
  2012     1F61                     l2234:	
  2013                           ;incstack = 0
  2014                           ; Regs used in ___wmul: [wreg+status,2+status,0]
  2015                           
  2016     1F61  01F6               	clrf	___wmul@product
  2017     1F62  01F7               	clrf	___wmul@product+1
  2018     1F63                     l2236:
  2019     1F63  1C72               	btfss	___wmul@multiplier,0
  2020     1F64  2F66               	goto	u2991
  2021     1F65  2F67               	goto	u2990
  2022     1F66                     u2991:
  2023     1F66  2F6D               	goto	l181
  2024     1F67                     u2990:
  2025     1F67                     l2238:
  2026     1F67  0874               	movf	___wmul@multiplicand,w
  2027     1F68  07F6               	addwf	___wmul@product,f
  2028     1F69  1803               	skipnc
  2029     1F6A  0AF7               	incf	___wmul@product+1,f
  2030     1F6B  0875               	movf	___wmul@multiplicand+1,w
  2031     1F6C  07F7               	addwf	___wmul@product+1,f
  2032     1F6D                     l181:
  2033     1F6D  3001               	movlw	1
  2034     1F6E                     u3005:
  2035     1F6E  1003               	clrc
  2036     1F6F  0DF4               	rlf	___wmul@multiplicand,f
  2037     1F70  0DF5               	rlf	___wmul@multiplicand+1,f
  2038     1F71  3EFF               	addlw	-1
  2039     1F72  1D03               	skipz
  2040     1F73  2F6E               	goto	u3005
  2041     1F74                     l2240:
  2042     1F74  3001               	movlw	1
  2043     1F75                     u3015:
  2044     1F75  1003               	clrc
  2045     1F76  0CF3               	rrf	___wmul@multiplier+1,f
  2046     1F77  0CF2               	rrf	___wmul@multiplier,f
  2047     1F78  3EFF               	addlw	-1
  2048     1F79  1D03               	skipz
  2049     1F7A  2F75               	goto	u3015
  2050     1F7B                     l2242:
  2051     1F7B  0872               	movf	___wmul@multiplier,w
  2052     1F7C  0473               	iorwf	___wmul@multiplier+1,w
  2053     1F7D  1D03               	btfss	3,2
  2054     1F7E  2F80               	goto	u3021
  2055     1F7F  2F81               	goto	u3020
  2056     1F80                     u3021:
  2057     1F80  2F63               	goto	l2236
  2058     1F81                     u3020:
  2059     1F81                     l2244:
  2060     1F81  0877               	movf	___wmul@product+1,w
  2061     1F82  00F3               	movwf	?___wmul+1
  2062     1F83  0876               	movf	___wmul@product,w
  2063     1F84  00F2               	movwf	?___wmul
  2064     1F85                     l183:
  2065     1F85  0008               	return
  2066     1F86                     __end_of___wmul:
  2067                           
  2068                           	psect	text6
  2069     09C5                     __ptext6:	
  2070 ;; *************** function _efgtoa *****************
  2071 ;; Defined at:
  2072 ;;		line 587 in file "C:\Program Files\Microchip\xc8\v2.50\pic\sources\c99\common\doprnt.c"
  2073 ;; Parameters:    Size  Location     Type
  2074 ;;  fp              2    0[BANK1 ] PTR struct _IO_FILE
  2075 ;;		 -> sprintf@f(11), 
  2076 ;;  f               4    2[BANK1 ] PTR struct _IO_FILE
  2077 ;;  c               1    6[BANK1 ] unsigned char 
  2078 ;; Auto vars:     Size  Location     Type
  2079 ;;  u               4   51[BANK1 ] struct flui
  2080 ;;  g               4   45[BANK1 ] struct flui
  2081 ;;  l               4   40[BANK1 ] struct flui
  2082 ;;  h               4   36[BANK1 ] struct flui
  2083 ;;  ou              4   30[BANK1 ] struct flui
  2084 ;;  n               2   49[BANK1 ] int 
  2085 ;;  i               2   34[BANK1 ] int 
  2086 ;;  w               2   28[BANK1 ] int 
  2087 ;;  e               2   26[BANK1 ] int 
  2088 ;;  m               2   24[BANK1 ] int 
  2089 ;;  d               2   22[BANK1 ] int 
  2090 ;;  t               2   15[BANK1 ] int 
  2091 ;;  p               2   13[BANK1 ] int 
  2092 ;;  ne              2   11[BANK1 ] int 
  2093 ;;  sign            1   44[BANK1 ] unsigned char 
  2094 ;;  nmode           1   21[BANK1 ] unsigned char 
  2095 ;;  mode            1   20[BANK1 ] unsigned char 
  2096 ;;  pp              1   19[BANK1 ] unsigned char 
  2097 ;;  esign           1    0        unsigned char 
  2098 ;; Return value:  Size  Location     Type
  2099 ;;                  1    wreg      void 
  2100 ;; Registers used:
  2101 ;;		wreg, fsr0l, fsr0h, status,2, status,0, btemp+1, pclath, cstack
  2102 ;; Tracked objects:
  2103 ;;		On entry : 0/0
  2104 ;;		On exit  : 0/0
  2105 ;;		Unchanged: 0/0
  2106 ;; Data sizes:     COMMON   BANK0   BANK1   BANK3   BANK2
  2107 ;;      Params:         0       0       7       0       0
  2108 ;;      Locals:         0       0      44       0       0
  2109 ;;      Temps:          0       0       4       0       0
  2110 ;;      Totals:         0       0      55       0       0
  2111 ;;Total ram usage:       55 bytes
  2112 ;; Hardware stack levels used: 1
  2113 ;; Hardware stack levels required when called: 5
  2114 ;; This function calls:
  2115 ;;		___fladd
  2116 ;;		___fldiv
  2117 ;;		___fleq
  2118 ;;		___flge
  2119 ;;		___flmul
  2120 ;;		___flneg
  2121 ;;		___flsub
  2122 ;;		___fltol
  2123 ;;		___fpclassifyf
  2124 ;;		_floorf
  2125 ;;		_labs
  2126 ;;		_memcpy
  2127 ;;		_pad
  2128 ;;		_strcpy
  2129 ;; This function is called by:
  2130 ;;		_vfpfcnvrt
  2131 ;; This function uses a non-reentrant model
  2132 ;;
  2133                           
  2134     09C5                     _efgtoa:	
  2135                           ;psect for function _efgtoa
  2136                           
  2137     09C5                     l3406:	
  2138                           ;incstack = 0
  2139 ;; hardware stack exceeded
  2140                           ; Regs used in _efgtoa: [wreg-fsr0h+status,2+status,0+btemp+1+pclath+cstack]
  2141                           
  2142                           
  2143                           ;C:\Program Files\Microchip\xc8\v2.50\pic\sources\c99\common\doprnt.c: 587: static void 
      +                          efgtoa(FILE *fp, long double f, char c);C:\Program Files\Microchip\xc8\v2.50\pic\sources
      +                          \c99\common\doprnt.c: 588: {;C:\Program Files\Microchip\xc8\v2.50\pic\sources\c99\common
      +                          \doprnt.c: 589:     char mode, nmode, pp, sign, esign;;C:\Program Files\Microchip\xc8\v2
      +                          .50\pic\sources\c99\common\doprnt.c: 590:     int d, e, i, m, n, ne, p, t, w;;C:\Program
      +                           Files\Microchip\xc8\v2.50\pic\sources\c99\common\doprnt.c: 591:     long double h, l;
  2144     09C5  1683               	bsf	3,5	;RP0=1, select bank1
  2145     09C6  1303               	bcf	3,6	;RP1=0, select bank1
  2146     09C7  01CC               	clrf	efgtoa@sign^(0+128)
  2147     09C8                     l3408:
  2148                           
  2149                           ;C:\Program Files\Microchip\xc8\v2.50\pic\sources\c99\common\doprnt.c: 596:     g.f = f;
  2150     09C8  0825               	movf	(efgtoa@f+3)^(0+128),w
  2151     09C9  00D0               	movwf	(efgtoa@g+3)^(0+128)
  2152     09CA  0824               	movf	(efgtoa@f+2)^(0+128),w
  2153     09CB  00CF               	movwf	(efgtoa@g+2)^(0+128)
  2154     09CC  0823               	movf	(efgtoa@f+1)^(0+128),w
  2155     09CD  00CE               	movwf	(efgtoa@g+1)^(0+128)
  2156     09CE  0822               	movf	efgtoa@f^(0+128),w
  2157     09CF  00CD               	movwf	efgtoa@g^(0+128)
  2158     09D0                     l3410:
  2159                           
  2160                           ;C:\Program Files\Microchip\xc8\v2.50\pic\sources\c99\common\doprnt.c: 597:     if (g.f 
      +                          < 0.0) {
  2161     09D0  0850               	movf	(efgtoa@g+3)^(0+128),w
  2162     09D1  1283               	bcf	3,5	;RP0=0, select bank0
  2163     09D2  1303               	bcf	3,6	;RP1=0, select bank0
  2164     09D3  00C3               	movwf	___flge@ff1+3
  2165     09D4  1683               	bsf	3,5	;RP0=1, select bank1
  2166     09D5  1303               	bcf	3,6	;RP1=0, select bank1
  2167     09D6  084F               	movf	(efgtoa@g+2)^(0+128),w
  2168     09D7  1283               	bcf	3,5	;RP0=0, select bank0
  2169     09D8  1303               	bcf	3,6	;RP1=0, select bank0
  2170     09D9  00C2               	movwf	___flge@ff1+2
  2171     09DA  1683               	bsf	3,5	;RP0=1, select bank1
  2172     09DB  1303               	bcf	3,6	;RP1=0, select bank1
  2173     09DC  084E               	movf	(efgtoa@g+1)^(0+128),w
  2174     09DD  1283               	bcf	3,5	;RP0=0, select bank0
  2175     09DE  1303               	bcf	3,6	;RP1=0, select bank0
  2176     09DF  00C1               	movwf	___flge@ff1+1
  2177     09E0  1683               	bsf	3,5	;RP0=1, select bank1
  2178     09E1  1303               	bcf	3,6	;RP1=0, select bank1
  2179     09E2  084D               	movf	efgtoa@g^(0+128),w
  2180     09E3  1283               	bcf	3,5	;RP0=0, select bank0
  2181     09E4  1303               	bcf	3,6	;RP1=0, select bank0
  2182     09E5  00C0               	movwf	___flge@ff1
  2183     09E6  3000               	movlw	0
  2184     09E7  00C7               	movwf	___flge@ff2+3
  2185     09E8  3000               	movlw	0
  2186     09E9  00C6               	movwf	___flge@ff2+2
  2187     09EA  3000               	movlw	0
  2188     09EB  00C5               	movwf	___flge@ff2+1
  2189     09EC  3000               	movlw	0
  2190     09ED  00C4               	movwf	___flge@ff2
  2191     09EE  160A  118A  23DB  120A  158A  	fcall	___flge
  2192     09F3  1803               	btfsc	3,0
  2193     09F4  29F6               	goto	u5481
  2194     09F5  29F7               	goto	u5480
  2195     09F6                     u5481:
  2196     09F6  2A12               	goto	l3416
  2197     09F7                     u5480:
  2198     09F7                     l3412:
  2199                           
  2200                           ;C:\Program Files\Microchip\xc8\v2.50\pic\sources\c99\common\doprnt.c: 598:         sign
      +                           = 1;
  2201     09F7  3001               	movlw	1
  2202     09F8  1683               	bsf	3,5	;RP0=1, select bank1
  2203     09F9  1303               	bcf	3,6	;RP1=0, select bank1
  2204     09FA  00CC               	movwf	efgtoa@sign^(0+128)
  2205     09FB                     l3414:
  2206                           
  2207                           ;C:\Program Files\Microchip\xc8\v2.50\pic\sources\c99\common\doprnt.c: 599:         g.f 
      +                          = -g.f;
  2208     09FB  0850               	movf	(efgtoa@g+3)^(0+128),w
  2209     09FC  00F5               	movwf	___flneg@f1+3
  2210     09FD  084F               	movf	(efgtoa@g+2)^(0+128),w
  2211     09FE  00F4               	movwf	___flneg@f1+2
  2212     09FF  084E               	movf	(efgtoa@g+1)^(0+128),w
  2213     0A00  00F3               	movwf	___flneg@f1+1
  2214     0A01  084D               	movf	efgtoa@g^(0+128),w
  2215     0A02  00F2               	movwf	___flneg@f1
  2216     0A03  160A  118A  2002  120A  158A  	fcall	___flneg
  2217     0A08  0875               	movf	?___flneg+3,w
  2218     0A09  1683               	bsf	3,5	;RP0=1, select bank1
  2219     0A0A  1303               	bcf	3,6	;RP1=0, select bank1
  2220     0A0B  00D0               	movwf	(efgtoa@g+3)^(0+128)
  2221     0A0C  0874               	movf	?___flneg+2,w
  2222     0A0D  00CF               	movwf	(efgtoa@g+2)^(0+128)
  2223     0A0E  0873               	movf	?___flneg+1,w
  2224     0A0F  00CE               	movwf	(efgtoa@g+1)^(0+128)
  2225     0A10  0872               	movf	?___flneg,w
  2226     0A11  00CD               	movwf	efgtoa@g^(0+128)
  2227     0A12                     l3416:
  2228                           
  2229                           ;C:\Program Files\Microchip\xc8\v2.50\pic\sources\c99\common\doprnt.c: 603:     n = 0;
  2230     0A12  1683               	bsf	3,5	;RP0=1, select bank1
  2231     0A13  1303               	bcf	3,6	;RP1=0, select bank1
  2232     0A14  01D1               	clrf	efgtoa@n^(0+128)
  2233     0A15  01D2               	clrf	(efgtoa@n+1)^(0+128)
  2234     0A16                     l3418:
  2235                           
  2236                           ;C:\Program Files\Microchip\xc8\v2.50\pic\sources\c99\common\doprnt.c: 604:     w = widt
      +                          h;
  2237     0A16  087B               	movf	_width+1,w
  2238     0A17  00BD               	movwf	(efgtoa@w+1)^(0+128)
  2239     0A18  087A               	movf	_width,w
  2240     0A19  00BC               	movwf	efgtoa@w^(0+128)
  2241     0A1A                     l3420:
  2242                           
  2243                           ;C:\Program Files\Microchip\xc8\v2.50\pic\sources\c99\common\doprnt.c: 605:     if (sign
  2244     0A1A  084C               	movf	efgtoa@sign^(0+128),w
  2245     0A1B  1903               	btfsc	3,2
  2246     0A1C  2A1E               	goto	u5491
  2247     0A1D  2A1F               	goto	u5490
  2248     0A1E                     u5491:
  2249     0A1E  2A2F               	goto	l3428
  2250     0A1F                     u5490:
  2251     0A1F                     l3422:
  2252                           
  2253                           ;C:\Program Files\Microchip\xc8\v2.50\pic\sources\c99\common\doprnt.c: 609:    ) {;C:\Pr
      +                          ogram Files\Microchip\xc8\v2.50\pic\sources\c99\common\doprnt.c: 610:   sign = sign ? '-
      +                          ' : '+';
  2254     0A1F  084C               	movf	efgtoa@sign^(0+128),w
  2255     0A20  1D03               	btfss	3,2
  2256     0A21  2A23               	goto	u5501
  2257     0A22  2A24               	goto	u5500
  2258     0A23                     u5501:
  2259     0A23  2A29               	goto	l3426
  2260     0A24                     u5500:
  2261     0A24                     l3424:
  2262     0A24  302B               	movlw	43
  2263     0A25  00B1               	movwf	_efgtoa$843^(0+128)
  2264     0A26  3000               	movlw	0
  2265     0A27  00B2               	movwf	(_efgtoa$843^(0+128)+1)
  2266     0A28  2A2D               	goto	l683
  2267     0A29                     l3426:
  2268     0A29  302D               	movlw	45
  2269     0A2A  00B1               	movwf	_efgtoa$843^(0+128)
  2270     0A2B  3000               	movlw	0
  2271     0A2C  00B2               	movwf	(_efgtoa$843^(0+128)+1)
  2272     0A2D                     l683:
  2273     0A2D  0831               	movf	_efgtoa$843^(0+128),w
  2274     0A2E  00CC               	movwf	efgtoa@sign^(0+128)
  2275     0A2F                     l3428:
  2276                           
  2277                           ;C:\Program Files\Microchip\xc8\v2.50\pic\sources\c99\common\doprnt.c: 619:     if (( __
      +                          fpclassifyf(g.f) == 1 )) {
  2278     0A2F  0850               	movf	(efgtoa@g+3)^(0+128),w
  2279     0A30  00F5               	movwf	___fpclassifyf@x+3
  2280     0A31  084F               	movf	(efgtoa@g+2)^(0+128),w
  2281     0A32  00F4               	movwf	___fpclassifyf@x+2
  2282     0A33  084E               	movf	(efgtoa@g+1)^(0+128),w
  2283     0A34  00F3               	movwf	___fpclassifyf@x+1
  2284     0A35  084D               	movf	efgtoa@g^(0+128),w
  2285     0A36  00F2               	movwf	___fpclassifyf@x
  2286     0A37  160A  118A  216A  120A  158A  	fcall	___fpclassifyf
  2287     0A3C  0372               	decf	?___fpclassifyf,w
  2288     0A3D  0473               	iorwf	?___fpclassifyf+1,w
  2289     0A3E  1D03               	btfss	3,2
  2290     0A3F  2A41               	goto	u5511
  2291     0A40  2A42               	goto	u5510
  2292     0A41                     u5511:
  2293     0A41  2A8B               	goto	l3442
  2294     0A42                     u5510:
  2295     0A42                     l3430:
  2296                           
  2297                           ;C:\Program Files\Microchip\xc8\v2.50\pic\sources\c99\common\doprnt.c: 620:   if (sign) 
      +                          {
  2298     0A42  1683               	bsf	3,5	;RP0=1, select bank1
  2299     0A43  1303               	bcf	3,6	;RP1=0, select bank1
  2300     0A44  084C               	movf	efgtoa@sign^(0+128),w
  2301     0A45  1903               	btfsc	3,2
  2302     0A46  2A48               	goto	u5521
  2303     0A47  2A49               	goto	u5520
  2304     0A48                     u5521:
  2305     0A48  2A59               	goto	l3434
  2306     0A49                     u5520:
  2307     0A49                     l3432:
  2308                           
  2309                           ;C:\Program Files\Microchip\xc8\v2.50\pic\sources\c99\common\doprnt.c: 621:    dbuf[0] =
      +                           sign;
  2310     0A49  084C               	movf	efgtoa@sign^(0+128),w
  2311     0A4A  1283               	bcf	3,5	;RP0=0, select bank2
  2312     0A4B  1703               	bsf	3,6	;RP1=1, select bank2
  2313     0A4C  0090               	movwf	_dbuf^(0+256)
  2314                           
  2315                           ;C:\Program Files\Microchip\xc8\v2.50\pic\sources\c99\common\doprnt.c: 622:    w--;
  2316     0A4D  30FF               	movlw	255
  2317     0A4E  1683               	bsf	3,5	;RP0=1, select bank1
  2318     0A4F  1303               	bcf	3,6	;RP1=0, select bank1
  2319     0A50  07BC               	addwf	efgtoa@w^(0+128),f
  2320     0A51  1803               	skipnc
  2321     0A52  0ABD               	incf	(efgtoa@w+1)^(0+128),f
  2322     0A53  30FF               	movlw	255
  2323     0A54  07BD               	addwf	(efgtoa@w+1)^(0+128),f
  2324                           
  2325                           ;C:\Program Files\Microchip\xc8\v2.50\pic\sources\c99\common\doprnt.c: 623:    n = 1;
  2326     0A55  3001               	movlw	1
  2327     0A56  00D1               	movwf	efgtoa@n^(0+128)
  2328     0A57  3000               	movlw	0
  2329     0A58  00D2               	movwf	(efgtoa@n^(0+128)+1)
  2330     0A59                     l3434:
  2331                           
  2332                           ;C:\Program Files\Microchip\xc8\v2.50\pic\sources\c99\common\doprnt.c: 631:   {;C:\Progr
      +                          am Files\Microchip\xc8\v2.50\pic\sources\c99\common\doprnt.c: 632:             strcpy(&d
      +                          buf[n], "inf");
  2333     0A59  0851               	movf	efgtoa@n^(0+128),w
  2334     0A5A  3E10               	addlw	(low (_dbuf| (0+256)))& (0+255)
  2335     0A5B  00F2               	movwf	strcpy@dest
  2336     0A5C  3013               	movlw	(low ((STR_3-__stringbase)| (0+32768)))& (0+255)
  2337     0A5D  00F3               	movwf	strcpy@src
  2338     0A5E  160A  158A  26E0  120A  158A  	fcall	_strcpy
  2339     0A63                     l3436:
  2340                           
  2341                           ;C:\Program Files\Microchip\xc8\v2.50\pic\sources\c99\common\doprnt.c: 633:         };C:
      +                          \Program Files\Microchip\xc8\v2.50\pic\sources\c99\common\doprnt.c: 634:         w -= ((
      +                          sizeof("inf")/sizeof("inf"[0]))-1);
  2342     0A63  30FD               	movlw	253
  2343     0A64  1683               	bsf	3,5	;RP0=1, select bank1
  2344     0A65  1303               	bcf	3,6	;RP1=0, select bank1
  2345     0A66  07BC               	addwf	efgtoa@w^(0+128),f
  2346     0A67  1803               	skipnc
  2347     0A68  0ABD               	incf	(efgtoa@w+1)^(0+128),f
  2348     0A69  30FF               	movlw	255
  2349     0A6A  07BD               	addwf	(efgtoa@w+1)^(0+128),f
  2350     0A6B                     l3438:
  2351                           
  2352                           ;C:\Program Files\Microchip\xc8\v2.50\pic\sources\c99\common\doprnt.c: 635:         retu
      +                          rn (void) pad(fp, &dbuf[0], w);
  2353     0A6B  0820               	movf	efgtoa@fp^(0+128),w
  2354     0A6C  1283               	bcf	3,5	;RP0=0, select bank0
  2355     0A6D  1303               	bcf	3,6	;RP1=0, select bank0
  2356     0A6E  00AE               	movwf	pad@fp
  2357     0A6F  1683               	bsf	3,5	;RP0=1, select bank1
  2358     0A70  1303               	bcf	3,6	;RP1=0, select bank1
  2359     0A71  0821               	movf	(efgtoa@fp+1)^(0+128),w
  2360     0A72  1283               	bcf	3,5	;RP0=0, select bank0
  2361     0A73  1303               	bcf	3,6	;RP1=0, select bank0
  2362     0A74  00AF               	movwf	pad@fp+1
  2363     0A75  3010               	movlw	(low (_dbuf| (0+256)))& (0+255)
  2364     0A76  00B0               	movwf	pad@buf
  2365     0A77  1683               	bsf	3,5	;RP0=1, select bank1
  2366     0A78  1303               	bcf	3,6	;RP1=0, select bank1
  2367     0A79  083D               	movf	(efgtoa@w+1)^(0+128),w
  2368     0A7A  1283               	bcf	3,5	;RP0=0, select bank0
  2369     0A7B  1303               	bcf	3,6	;RP1=0, select bank0
  2370     0A7C  00B2               	movwf	pad@p+1
  2371     0A7D  1683               	bsf	3,5	;RP0=1, select bank1
  2372     0A7E  1303               	bcf	3,6	;RP1=0, select bank1
  2373     0A7F  083C               	movf	efgtoa@w^(0+128),w
  2374     0A80  1283               	bcf	3,5	;RP0=0, select bank0
  2375     0A81  1303               	bcf	3,6	;RP1=0, select bank0
  2376     0A82  00B1               	movwf	pad@p
  2377     0A83  160A  118A  2066  120A  158A  	fcall	_pad
  2378     0A88  120A  118A  2D4D   	goto	l686
  2379     0A8B                     l3442:
  2380                           
  2381                           ;C:\Program Files\Microchip\xc8\v2.50\pic\sources\c99\common\doprnt.c: 637:     if (( __
      +                          fpclassifyf(g.f) == 0 )) {
  2382     0A8B  1683               	bsf	3,5	;RP0=1, select bank1
  2383     0A8C  1303               	bcf	3,6	;RP1=0, select bank1
  2384     0A8D  0850               	movf	(efgtoa@g+3)^(0+128),w
  2385     0A8E  00F5               	movwf	___fpclassifyf@x+3
  2386     0A8F  084F               	movf	(efgtoa@g+2)^(0+128),w
  2387     0A90  00F4               	movwf	___fpclassifyf@x+2
  2388     0A91  084E               	movf	(efgtoa@g+1)^(0+128),w
  2389     0A92  00F3               	movwf	___fpclassifyf@x+1
  2390     0A93  084D               	movf	efgtoa@g^(0+128),w
  2391     0A94  00F2               	movwf	___fpclassifyf@x
  2392     0A95  160A  118A  216A  120A  158A  	fcall	___fpclassifyf
  2393     0A9A  0872               	movf	?___fpclassifyf,w
  2394     0A9B  0473               	iorwf	?___fpclassifyf+1,w
  2395     0A9C  1D03               	btfss	3,2
  2396     0A9D  2A9F               	goto	u5531
  2397     0A9E  2AA0               	goto	u5530
  2398     0A9F                     u5531:
  2399     0A9F  2AC2               	goto	l3456
  2400     0AA0                     u5530:
  2401     0AA0                     l3444:
  2402                           
  2403                           ;C:\Program Files\Microchip\xc8\v2.50\pic\sources\c99\common\doprnt.c: 638:   if (sign) 
      +                          {
  2404     0AA0  1683               	bsf	3,5	;RP0=1, select bank1
  2405     0AA1  1303               	bcf	3,6	;RP1=0, select bank1
  2406     0AA2  084C               	movf	efgtoa@sign^(0+128),w
  2407     0AA3  1903               	btfsc	3,2
  2408     0AA4  2AA6               	goto	u5541
  2409     0AA5  2AA7               	goto	u5540
  2410     0AA6                     u5541:
  2411     0AA6  2AB7               	goto	l3448
  2412     0AA7                     u5540:
  2413     0AA7                     l3446:
  2414                           
  2415                           ;C:\Program Files\Microchip\xc8\v2.50\pic\sources\c99\common\doprnt.c: 639:    dbuf[0] =
      +                           sign;
  2416     0AA7  084C               	movf	efgtoa@sign^(0+128),w
  2417     0AA8  1283               	bcf	3,5	;RP0=0, select bank2
  2418     0AA9  1703               	bsf	3,6	;RP1=1, select bank2
  2419     0AAA  0090               	movwf	_dbuf^(0+256)
  2420                           
  2421                           ;C:\Program Files\Microchip\xc8\v2.50\pic\sources\c99\common\doprnt.c: 640:    w--;
  2422     0AAB  30FF               	movlw	255
  2423     0AAC  1683               	bsf	3,5	;RP0=1, select bank1
  2424     0AAD  1303               	bcf	3,6	;RP1=0, select bank1
  2425     0AAE  07BC               	addwf	efgtoa@w^(0+128),f
  2426     0AAF  1803               	skipnc
  2427     0AB0  0ABD               	incf	(efgtoa@w+1)^(0+128),f
  2428     0AB1  30FF               	movlw	255
  2429     0AB2  07BD               	addwf	(efgtoa@w+1)^(0+128),f
  2430                           
  2431                           ;C:\Program Files\Microchip\xc8\v2.50\pic\sources\c99\common\doprnt.c: 641:    n = 1;
  2432     0AB3  3001               	movlw	1
  2433     0AB4  00D1               	movwf	efgtoa@n^(0+128)
  2434     0AB5  3000               	movlw	0
  2435     0AB6  00D2               	movwf	(efgtoa@n^(0+128)+1)
  2436     0AB7                     l3448:
  2437                           
  2438                           ;C:\Program Files\Microchip\xc8\v2.50\pic\sources\c99\common\doprnt.c: 649:   {;C:\Progr
      +                          am Files\Microchip\xc8\v2.50\pic\sources\c99\common\doprnt.c: 650:             strcpy(&d
      +                          buf[n], "nan");
  2439     0AB7  0851               	movf	efgtoa@n^(0+128),w
  2440     0AB8  3E10               	addlw	(low (_dbuf| (0+256)))& (0+255)
  2441     0AB9  00F2               	movwf	strcpy@dest
  2442     0ABA  3017               	movlw	(low ((STR_6-__stringbase)| (0+32768)))& (0+255)
  2443     0ABB  00F3               	movwf	strcpy@src
  2444     0ABC  160A  158A  26E0  120A  158A  	fcall	_strcpy
  2445     0AC1  2A63               	goto	l3436
  2446     0AC2                     l3456:
  2447                           
  2448                           ;C:\Program Files\Microchip\xc8\v2.50\pic\sources\c99\common\doprnt.c: 657:     u.f = 1.
      +                          0;
  2449     0AC2  303F               	movlw	63
  2450     0AC3  1683               	bsf	3,5	;RP0=1, select bank1
  2451     0AC4  1303               	bcf	3,6	;RP1=0, select bank1
  2452     0AC5  00D6               	movwf	(efgtoa@u+3)^(0+128)
  2453     0AC6  3080               	movlw	128
  2454     0AC7  00D5               	movwf	(efgtoa@u+2)^(0+128)
  2455     0AC8  3000               	movlw	0
  2456     0AC9  00D4               	movwf	(efgtoa@u+1)^(0+128)
  2457     0ACA  3000               	movlw	0
  2458     0ACB  00D3               	movwf	efgtoa@u^(0+128)
  2459     0ACC                     l3458:
  2460                           
  2461                           ;C:\Program Files\Microchip\xc8\v2.50\pic\sources\c99\common\doprnt.c: 658:     e = 0;
  2462     0ACC  01BA               	clrf	efgtoa@e^(0+128)
  2463     0ACD  01BB               	clrf	(efgtoa@e+1)^(0+128)
  2464     0ACE                     l3460:
  2465                           
  2466                           ;C:\Program Files\Microchip\xc8\v2.50\pic\sources\c99\common\doprnt.c: 659:  if (!(g.f =
      +                          = 0.0)) {
  2467     0ACE  0850               	movf	(efgtoa@g+3)^(0+128),w
  2468     0ACF  00F5               	movwf	___fleq@ff1+3
  2469     0AD0  084F               	movf	(efgtoa@g+2)^(0+128),w
  2470     0AD1  00F4               	movwf	___fleq@ff1+2
  2471     0AD2  084E               	movf	(efgtoa@g+1)^(0+128),w
  2472     0AD3  00F3               	movwf	___fleq@ff1+1
  2473     0AD4  084D               	movf	efgtoa@g^(0+128),w
  2474     0AD5  00F2               	movwf	___fleq@ff1
  2475     0AD6  3000               	movlw	0
  2476     0AD7  00F9               	movwf	___fleq@ff2+3
  2477     0AD8  3000               	movlw	0
  2478     0AD9  00F8               	movwf	___fleq@ff2+2
  2479     0ADA  3000               	movlw	0
  2480     0ADB  00F7               	movwf	___fleq@ff2+1
  2481     0ADC  3000               	movlw	0
  2482     0ADD  00F6               	movwf	___fleq@ff2
  2483     0ADE  160A  118A  20A4  120A  158A  	fcall	___fleq
  2484     0AE3  1803               	btfsc	3,0
  2485     0AE4  2AE6               	goto	u5551
  2486     0AE5  2AE7               	goto	u5550
  2487     0AE6                     u5551:
  2488     0AE6  2CB0               	goto	l3486
  2489     0AE7                     u5550:
  2490     0AE7  2AF8               	goto	l3466
  2491     0AE8                     l3464:
  2492                           
  2493                           ;C:\Program Files\Microchip\xc8\v2.50\pic\sources\c99\common\doprnt.c: 661:    u = ou;
  2494     0AE8  1683               	bsf	3,5	;RP0=1, select bank1
  2495     0AE9  1303               	bcf	3,6	;RP1=0, select bank1
  2496     0AEA  0841               	movf	(efgtoa@ou+3)^(0+128),w
  2497     0AEB  00D6               	movwf	(efgtoa@u+3)^(0+128)
  2498     0AEC  0840               	movf	(efgtoa@ou+2)^(0+128),w
  2499     0AED  00D5               	movwf	(efgtoa@u+2)^(0+128)
  2500     0AEE  083F               	movf	(efgtoa@ou+1)^(0+128),w
  2501     0AEF  00D4               	movwf	(efgtoa@u+1)^(0+128)
  2502     0AF0  083E               	movf	efgtoa@ou^(0+128),w
  2503     0AF1  00D3               	movwf	efgtoa@u^(0+128)
  2504                           
  2505                           ;C:\Program Files\Microchip\xc8\v2.50\pic\sources\c99\common\doprnt.c: 662:    ++e;
  2506     0AF2  3001               	movlw	1
  2507     0AF3  07BA               	addwf	efgtoa@e^(0+128),f
  2508     0AF4  1803               	skipnc
  2509     0AF5  0ABB               	incf	(efgtoa@e+1)^(0+128),f
  2510     0AF6  3000               	movlw	0
  2511     0AF7  07BB               	addwf	(efgtoa@e+1)^(0+128),f
  2512     0AF8                     l3466:
  2513                           
  2514                           ;C:\Program Files\Microchip\xc8\v2.50\pic\sources\c99\common\doprnt.c: 660:   while ((la
      +                          bs((g).u-((ou.f = u.f*10.0,ou)).u) <= 1) || g.f > ou.f) {
  2515     0AF8  3041               	movlw	65
  2516     0AF9  1283               	bcf	3,5	;RP0=0, select bank0
  2517     0AFA  1303               	bcf	3,6	;RP1=0, select bank0
  2518     0AFB  00A9               	movwf	___flmul@b+3
  2519     0AFC  3020               	movlw	32
  2520     0AFD  00A8               	movwf	___flmul@b+2
  2521     0AFE  3000               	movlw	0
  2522     0AFF  00A7               	movwf	___flmul@b+1
  2523     0B00  3000               	movlw	0
  2524     0B01  00A6               	movwf	___flmul@b
  2525     0B02  1683               	bsf	3,5	;RP0=1, select bank1
  2526     0B03  1303               	bcf	3,6	;RP1=0, select bank1
  2527     0B04  0856               	movf	(efgtoa@u+3)^(0+128),w
  2528     0B05  1283               	bcf	3,5	;RP0=0, select bank0
  2529     0B06  1303               	bcf	3,6	;RP1=0, select bank0
  2530     0B07  00AD               	movwf	___flmul@a+3
  2531     0B08  1683               	bsf	3,5	;RP0=1, select bank1
  2532     0B09  1303               	bcf	3,6	;RP1=0, select bank1
  2533     0B0A  0855               	movf	(efgtoa@u+2)^(0+128),w
  2534     0B0B  1283               	bcf	3,5	;RP0=0, select bank0
  2535     0B0C  1303               	bcf	3,6	;RP1=0, select bank0
  2536     0B0D  00AC               	movwf	___flmul@a+2
  2537     0B0E  1683               	bsf	3,5	;RP0=1, select bank1
  2538     0B0F  1303               	bcf	3,6	;RP1=0, select bank1
  2539     0B10  0854               	movf	(efgtoa@u+1)^(0+128),w
  2540     0B11  1283               	bcf	3,5	;RP0=0, select bank0
  2541     0B12  1303               	bcf	3,6	;RP1=0, select bank0
  2542     0B13  00AB               	movwf	___flmul@a+1
  2543     0B14  1683               	bsf	3,5	;RP0=1, select bank1
  2544     0B15  1303               	bcf	3,6	;RP1=0, select bank1
  2545     0B16  0853               	movf	efgtoa@u^(0+128),w
  2546     0B17  1283               	bcf	3,5	;RP0=0, select bank0
  2547     0B18  1303               	bcf	3,6	;RP1=0, select bank0
  2548     0B19  00AA               	movwf	___flmul@a
  2549     0B1A  120A  158A  24BE  120A  158A  	fcall	___flmul
  2550     0B1F  1283               	bcf	3,5	;RP0=0, select bank0
  2551     0B20  1303               	bcf	3,6	;RP1=0, select bank0
  2552     0B21  0829               	movf	?___flmul+3,w
  2553     0B22  1683               	bsf	3,5	;RP0=1, select bank1
  2554     0B23  1303               	bcf	3,6	;RP1=0, select bank1
  2555     0B24  00C1               	movwf	(efgtoa@ou+3)^(0+128)
  2556     0B25  1283               	bcf	3,5	;RP0=0, select bank0
  2557     0B26  1303               	bcf	3,6	;RP1=0, select bank0
  2558     0B27  0828               	movf	?___flmul+2,w
  2559     0B28  1683               	bsf	3,5	;RP0=1, select bank1
  2560     0B29  1303               	bcf	3,6	;RP1=0, select bank1
  2561     0B2A  00C0               	movwf	(efgtoa@ou+2)^(0+128)
  2562     0B2B  1283               	bcf	3,5	;RP0=0, select bank0
  2563     0B2C  1303               	bcf	3,6	;RP1=0, select bank0
  2564     0B2D  0827               	movf	?___flmul+1,w
  2565     0B2E  1683               	bsf	3,5	;RP0=1, select bank1
  2566     0B2F  1303               	bcf	3,6	;RP1=0, select bank1
  2567     0B30  00BF               	movwf	(efgtoa@ou+1)^(0+128)
  2568     0B31  1283               	bcf	3,5	;RP0=0, select bank0
  2569     0B32  1303               	bcf	3,6	;RP1=0, select bank0
  2570     0B33  0826               	movf	?___flmul,w
  2571     0B34  1683               	bsf	3,5	;RP0=1, select bank1
  2572     0B35  1303               	bcf	3,6	;RP1=0, select bank1
  2573     0B36  00BE               	movwf	efgtoa@ou^(0+128)
  2574     0B37                     l3468:
  2575     0B37  084D               	movf	efgtoa@g^(0+128),w
  2576     0B38  00A7               	movwf	??_efgtoa^(0+128)
  2577     0B39  084E               	movf	(efgtoa@g+1)^(0+128),w
  2578     0B3A  00A8               	movwf	(??_efgtoa^(0+128)+1)
  2579     0B3B  084F               	movf	(efgtoa@g+2)^(0+128),w
  2580     0B3C  00A9               	movwf	(??_efgtoa^(0+128)+2)
  2581     0B3D  0850               	movf	(efgtoa@g+3)^(0+128),w
  2582     0B3E  00AA               	movwf	(??_efgtoa^(0+128)+3)
  2583     0B3F  083E               	movf	efgtoa@ou^(0+128),w
  2584     0B40  02A7               	subwf	??_efgtoa^(0+128),f
  2585     0B41  083F               	movf	(efgtoa@ou+1)^(0+128),w
  2586     0B42  1C03               	skipc
  2587     0B43  0F3F               	incfsz	(efgtoa@ou+1)^(0+128),w
  2588     0B44  2B46               	goto	u5561
  2589     0B45  2B47               	goto	u5562
  2590     0B46                     u5561:
  2591     0B46  02A8               	subwf	(??_efgtoa^(0+128)+1),f
  2592     0B47                     u5562:
  2593     0B47  0840               	movf	(efgtoa@ou+2)^(0+128),w
  2594     0B48  1C03               	skipc
  2595     0B49  0F40               	incfsz	(efgtoa@ou+2)^(0+128),w
  2596     0B4A  2B4C               	goto	u5563
  2597     0B4B  2B4D               	goto	u5564
  2598     0B4C                     u5563:
  2599     0B4C  02A9               	subwf	(??_efgtoa^(0+128)+2),f
  2600     0B4D                     u5564:
  2601     0B4D  0841               	movf	(efgtoa@ou+3)^(0+128),w
  2602     0B4E  1C03               	skipc
  2603     0B4F  0F41               	incfsz	(efgtoa@ou+3)^(0+128),w
  2604     0B50  2B52               	goto	u5565
  2605     0B51  2B53               	goto	u5566
  2606     0B52                     u5565:
  2607     0B52  02AA               	subwf	(??_efgtoa^(0+128)+3),f
  2608     0B53                     u5566:
  2609     0B53  082A               	movf	(??_efgtoa+3)^(0+128),w
  2610     0B54  00F5               	movwf	labs@a+3
  2611     0B55  0829               	movf	(??_efgtoa+2)^(0+128),w
  2612     0B56  00F4               	movwf	labs@a+2
  2613     0B57  0828               	movf	(??_efgtoa+1)^(0+128),w
  2614     0B58  00F3               	movwf	labs@a+1
  2615     0B59  0827               	movf	??_efgtoa^(0+128),w
  2616     0B5A  00F2               	movwf	labs@a
  2617     0B5B  160A  158A  26CB  120A  158A  	fcall	_labs
  2618     0B60  1BF5               	btfsc	?_labs+3,7
  2619     0B61  2B72               	goto	u5571
  2620     0B62  0875               	movf	?_labs+3,w
  2621     0B63  1D03               	btfss	3,2
  2622     0B64  2B73               	goto	u5570
  2623     0B65  0874               	movf	?_labs+2,w
  2624     0B66  1D03               	btfss	3,2
  2625     0B67  2B73               	goto	u5570
  2626     0B68  0873               	movf	?_labs+1,w
  2627     0B69  1D03               	btfss	3,2
  2628     0B6A  2B73               	goto	u5570
  2629     0B6B  3002               	movlw	2
  2630     0B6C  0272               	subwf	?_labs,w
  2631     0B6D  1D03               	skipz
  2632     0B6E  2B6F               	goto	u5573
  2633     0B6F                     u5573:
  2634     0B6F  1C03               	btfss	3,0
  2635     0B70  2B72               	goto	u5571
  2636     0B71  2B73               	goto	u5570
  2637     0B72                     u5571:
  2638     0B72  2AE8               	goto	l3464
  2639     0B73                     u5570:
  2640     0B73                     l3470:
  2641     0B73  1683               	bsf	3,5	;RP0=1, select bank1
  2642     0B74  1303               	bcf	3,6	;RP1=0, select bank1
  2643     0B75  0841               	movf	(efgtoa@ou+3)^(0+128),w
  2644     0B76  1283               	bcf	3,5	;RP0=0, select bank0
  2645     0B77  1303               	bcf	3,6	;RP1=0, select bank0
  2646     0B78  00C3               	movwf	___flge@ff1+3
  2647     0B79  1683               	bsf	3,5	;RP0=1, select bank1
  2648     0B7A  1303               	bcf	3,6	;RP1=0, select bank1
  2649     0B7B  0840               	movf	(efgtoa@ou+2)^(0+128),w
  2650     0B7C  1283               	bcf	3,5	;RP0=0, select bank0
  2651     0B7D  1303               	bcf	3,6	;RP1=0, select bank0
  2652     0B7E  00C2               	movwf	___flge@ff1+2
  2653     0B7F  1683               	bsf	3,5	;RP0=1, select bank1
  2654     0B80  1303               	bcf	3,6	;RP1=0, select bank1
  2655     0B81  083F               	movf	(efgtoa@ou+1)^(0+128),w
  2656     0B82  1283               	bcf	3,5	;RP0=0, select bank0
  2657     0B83  1303               	bcf	3,6	;RP1=0, select bank0
  2658     0B84  00C1               	movwf	___flge@ff1+1
  2659     0B85  1683               	bsf	3,5	;RP0=1, select bank1
  2660     0B86  1303               	bcf	3,6	;RP1=0, select bank1
  2661     0B87  083E               	movf	efgtoa@ou^(0+128),w
  2662     0B88  1283               	bcf	3,5	;RP0=0, select bank0
  2663     0B89  1303               	bcf	3,6	;RP1=0, select bank0
  2664     0B8A  00C0               	movwf	___flge@ff1
  2665     0B8B  1683               	bsf	3,5	;RP0=1, select bank1
  2666     0B8C  1303               	bcf	3,6	;RP1=0, select bank1
  2667     0B8D  0850               	movf	(efgtoa@g+3)^(0+128),w
  2668     0B8E  1283               	bcf	3,5	;RP0=0, select bank0
  2669     0B8F  1303               	bcf	3,6	;RP1=0, select bank0
  2670     0B90  00C7               	movwf	___flge@ff2+3
  2671     0B91  1683               	bsf	3,5	;RP0=1, select bank1
  2672     0B92  1303               	bcf	3,6	;RP1=0, select bank1
  2673     0B93  084F               	movf	(efgtoa@g+2)^(0+128),w
  2674     0B94  1283               	bcf	3,5	;RP0=0, select bank0
  2675     0B95  1303               	bcf	3,6	;RP1=0, select bank0
  2676     0B96  00C6               	movwf	___flge@ff2+2
  2677     0B97  1683               	bsf	3,5	;RP0=1, select bank1
  2678     0B98  1303               	bcf	3,6	;RP1=0, select bank1
  2679     0B99  084E               	movf	(efgtoa@g+1)^(0+128),w
  2680     0B9A  1283               	bcf	3,5	;RP0=0, select bank0
  2681     0B9B  1303               	bcf	3,6	;RP1=0, select bank0
  2682     0B9C  00C5               	movwf	___flge@ff2+1
  2683     0B9D  1683               	bsf	3,5	;RP0=1, select bank1
  2684     0B9E  1303               	bcf	3,6	;RP1=0, select bank1
  2685     0B9F  084D               	movf	efgtoa@g^(0+128),w
  2686     0BA0  1283               	bcf	3,5	;RP0=0, select bank0
  2687     0BA1  1303               	bcf	3,6	;RP1=0, select bank0
  2688     0BA2  00C4               	movwf	___flge@ff2
  2689     0BA3  160A  118A  23DB  120A  158A  	fcall	___flge
  2690     0BA8  1C03               	btfss	3,0
  2691     0BA9  2BAB               	goto	u5581
  2692     0BAA  2BAC               	goto	u5580
  2693     0BAB                     u5581:
  2694     0BAB  2AE8               	goto	l3464
  2695     0BAC                     u5580:
  2696     0BAC                     l3472:
  2697                           
  2698                           ;C:\Program Files\Microchip\xc8\v2.50\pic\sources\c99\common\doprnt.c: 664:   if ((labs(
      +                          (g).u-(u).u) <= 1)) {
  2699     0BAC  1683               	bsf	3,5	;RP0=1, select bank1
  2700     0BAD  1303               	bcf	3,6	;RP1=0, select bank1
  2701     0BAE  084D               	movf	efgtoa@g^(0+128),w
  2702     0BAF  00A7               	movwf	??_efgtoa^(0+128)
  2703     0BB0  084E               	movf	(efgtoa@g+1)^(0+128),w
  2704     0BB1  00A8               	movwf	(??_efgtoa^(0+128)+1)
  2705     0BB2  084F               	movf	(efgtoa@g+2)^(0+128),w
  2706     0BB3  00A9               	movwf	(??_efgtoa^(0+128)+2)
  2707     0BB4  0850               	movf	(efgtoa@g+3)^(0+128),w
  2708     0BB5  00AA               	movwf	(??_efgtoa^(0+128)+3)
  2709     0BB6  0853               	movf	efgtoa@u^(0+128),w
  2710     0BB7  02A7               	subwf	??_efgtoa^(0+128),f
  2711     0BB8  0854               	movf	(efgtoa@u+1)^(0+128),w
  2712     0BB9  1C03               	skipc
  2713     0BBA  0F54               	incfsz	(efgtoa@u+1)^(0+128),w
  2714     0BBB  2BBD               	goto	u5591
  2715     0BBC  2BBE               	goto	u5592
  2716     0BBD                     u5591:
  2717     0BBD  02A8               	subwf	(??_efgtoa^(0+128)+1),f
  2718     0BBE                     u5592:
  2719     0BBE  0855               	movf	(efgtoa@u+2)^(0+128),w
  2720     0BBF  1C03               	skipc
  2721     0BC0  0F55               	incfsz	(efgtoa@u+2)^(0+128),w
  2722     0BC1  2BC3               	goto	u5593
  2723     0BC2  2BC4               	goto	u5594
  2724     0BC3                     u5593:
  2725     0BC3  02A9               	subwf	(??_efgtoa^(0+128)+2),f
  2726     0BC4                     u5594:
  2727     0BC4  0856               	movf	(efgtoa@u+3)^(0+128),w
  2728     0BC5  1C03               	skipc
  2729     0BC6  0F56               	incfsz	(efgtoa@u+3)^(0+128),w
  2730     0BC7  2BC9               	goto	u5595
  2731     0BC8  2BCA               	goto	u5596
  2732     0BC9                     u5595:
  2733     0BC9  02AA               	subwf	(??_efgtoa^(0+128)+3),f
  2734     0BCA                     u5596:
  2735     0BCA  082A               	movf	(??_efgtoa+3)^(0+128),w
  2736     0BCB  00F5               	movwf	labs@a+3
  2737     0BCC  0829               	movf	(??_efgtoa+2)^(0+128),w
  2738     0BCD  00F4               	movwf	labs@a+2
  2739     0BCE  0828               	movf	(??_efgtoa+1)^(0+128),w
  2740     0BCF  00F3               	movwf	labs@a+1
  2741     0BD0  0827               	movf	??_efgtoa^(0+128),w
  2742     0BD1  00F2               	movwf	labs@a
  2743     0BD2  160A  158A  26CB  120A  158A  	fcall	_labs
  2744     0BD7  1BF5               	btfsc	?_labs+3,7
  2745     0BD8  2BEA               	goto	u5600
  2746     0BD9  0875               	movf	?_labs+3,w
  2747     0BDA  1D03               	btfss	3,2
  2748     0BDB  2BE9               	goto	u5601
  2749     0BDC  0874               	movf	?_labs+2,w
  2750     0BDD  1D03               	btfss	3,2
  2751     0BDE  2BE9               	goto	u5601
  2752     0BDF  0873               	movf	?_labs+1,w
  2753     0BE0  1D03               	btfss	3,2
  2754     0BE1  2BE9               	goto	u5601
  2755     0BE2  3002               	movlw	2
  2756     0BE3  0272               	subwf	?_labs,w
  2757     0BE4  1D03               	skipz
  2758     0BE5  2BE6               	goto	u5603
  2759     0BE6                     u5603:
  2760     0BE6  1803               	btfsc	3,0
  2761     0BE7  2BE9               	goto	u5601
  2762     0BE8  2BEA               	goto	u5600
  2763     0BE9                     u5601:
  2764     0BE9  2C77               	goto	l3484
  2765     0BEA                     u5600:
  2766     0BEA                     l3474:
  2767                           
  2768                           ;C:\Program Files\Microchip\xc8\v2.50\pic\sources\c99\common\doprnt.c: 665:    g = u;
  2769     0BEA  1683               	bsf	3,5	;RP0=1, select bank1
  2770     0BEB  1303               	bcf	3,6	;RP1=0, select bank1
  2771     0BEC  0856               	movf	(efgtoa@u+3)^(0+128),w
  2772     0BED  00D0               	movwf	(efgtoa@g+3)^(0+128)
  2773     0BEE  0855               	movf	(efgtoa@u+2)^(0+128),w
  2774     0BEF  00CF               	movwf	(efgtoa@g+2)^(0+128)
  2775     0BF0  0854               	movf	(efgtoa@u+1)^(0+128),w
  2776     0BF1  00CE               	movwf	(efgtoa@g+1)^(0+128)
  2777     0BF2  0853               	movf	efgtoa@u^(0+128),w
  2778     0BF3  00CD               	movwf	efgtoa@g^(0+128)
  2779                           
  2780                           ;C:\Program Files\Microchip\xc8\v2.50\pic\sources\c99\common\doprnt.c: 666:   }
  2781     0BF4  2CB0               	goto	l3486
  2782     0BF5                     l3476:
  2783                           
  2784                           ;C:\Program Files\Microchip\xc8\v2.50\pic\sources\c99\common\doprnt.c: 669:     u.f = u.
      +                          f/10.0;
  2785     0BF5  3041               	movlw	65
  2786     0BF6  1283               	bcf	3,5	;RP0=0, select bank0
  2787     0BF7  1303               	bcf	3,6	;RP1=0, select bank0
  2788     0BF8  00C3               	movwf	___fldiv@a+3
  2789     0BF9  3020               	movlw	32
  2790     0BFA  00C2               	movwf	___fldiv@a+2
  2791     0BFB  3000               	movlw	0
  2792     0BFC  00C1               	movwf	___fldiv@a+1
  2793     0BFD  3000               	movlw	0
  2794     0BFE  00C0               	movwf	___fldiv@a
  2795     0BFF  1683               	bsf	3,5	;RP0=1, select bank1
  2796     0C00  1303               	bcf	3,6	;RP1=0, select bank1
  2797     0C01  0856               	movf	(efgtoa@u+3)^(0+128),w
  2798     0C02  1283               	bcf	3,5	;RP0=0, select bank0
  2799     0C03  1303               	bcf	3,6	;RP1=0, select bank0
  2800     0C04  00C7               	movwf	___fldiv@b+3
  2801     0C05  1683               	bsf	3,5	;RP0=1, select bank1
  2802     0C06  1303               	bcf	3,6	;RP1=0, select bank1
  2803     0C07  0855               	movf	(efgtoa@u+2)^(0+128),w
  2804     0C08  1283               	bcf	3,5	;RP0=0, select bank0
  2805     0C09  1303               	bcf	3,6	;RP1=0, select bank0
  2806     0C0A  00C6               	movwf	___fldiv@b+2
  2807     0C0B  1683               	bsf	3,5	;RP0=1, select bank1
  2808     0C0C  1303               	bcf	3,6	;RP1=0, select bank1
  2809     0C0D  0854               	movf	(efgtoa@u+1)^(0+128),w
  2810     0C0E  1283               	bcf	3,5	;RP0=0, select bank0
  2811     0C0F  1303               	bcf	3,6	;RP1=0, select bank0
  2812     0C10  00C5               	movwf	___fldiv@b+1
  2813     0C11  1683               	bsf	3,5	;RP0=1, select bank1
  2814     0C12  1303               	bcf	3,6	;RP1=0, select bank1
  2815     0C13  0853               	movf	efgtoa@u^(0+128),w
  2816     0C14  1283               	bcf	3,5	;RP0=0, select bank0
  2817     0C15  1303               	bcf	3,6	;RP1=0, select bank0
  2818     0C16  00C4               	movwf	___fldiv@b
  2819     0C17  160A  118A  2636  120A  158A  	fcall	___fldiv
  2820     0C1C  1283               	bcf	3,5	;RP0=0, select bank0
  2821     0C1D  1303               	bcf	3,6	;RP1=0, select bank0
  2822     0C1E  0843               	movf	?___fldiv+3,w
  2823     0C1F  1683               	bsf	3,5	;RP0=1, select bank1
  2824     0C20  1303               	bcf	3,6	;RP1=0, select bank1
  2825     0C21  00D6               	movwf	(efgtoa@u+3)^(0+128)
  2826     0C22  1283               	bcf	3,5	;RP0=0, select bank0
  2827     0C23  1303               	bcf	3,6	;RP1=0, select bank0
  2828     0C24  0842               	movf	?___fldiv+2,w
  2829     0C25  1683               	bsf	3,5	;RP0=1, select bank1
  2830     0C26  1303               	bcf	3,6	;RP1=0, select bank1
  2831     0C27  00D5               	movwf	(efgtoa@u+2)^(0+128)
  2832     0C28  1283               	bcf	3,5	;RP0=0, select bank0
  2833     0C29  1303               	bcf	3,6	;RP1=0, select bank0
  2834     0C2A  0841               	movf	?___fldiv+1,w
  2835     0C2B  1683               	bsf	3,5	;RP0=1, select bank1
  2836     0C2C  1303               	bcf	3,6	;RP1=0, select bank1
  2837     0C2D  00D4               	movwf	(efgtoa@u+1)^(0+128)
  2838     0C2E  1283               	bcf	3,5	;RP0=0, select bank0
  2839     0C2F  1303               	bcf	3,6	;RP1=0, select bank0
  2840     0C30  0840               	movf	?___fldiv,w
  2841     0C31  1683               	bsf	3,5	;RP0=1, select bank1
  2842     0C32  1303               	bcf	3,6	;RP1=0, select bank1
  2843     0C33  00D3               	movwf	efgtoa@u^(0+128)
  2844     0C34                     l3478:
  2845                           
  2846                           ;C:\Program Files\Microchip\xc8\v2.50\pic\sources\c99\common\doprnt.c: 670:     --e;
  2847     0C34  30FF               	movlw	255
  2848     0C35  07BA               	addwf	efgtoa@e^(0+128),f
  2849     0C36  1803               	skipnc
  2850     0C37  0ABB               	incf	(efgtoa@e+1)^(0+128),f
  2851     0C38  30FF               	movlw	255
  2852     0C39  07BB               	addwf	(efgtoa@e+1)^(0+128),f
  2853     0C3A                     l3480:
  2854                           
  2855                           ;C:\Program Files\Microchip\xc8\v2.50\pic\sources\c99\common\doprnt.c: 671:     if ((lab
      +                          s((g).u-(u).u) <= 1)) {
  2856     0C3A  084D               	movf	efgtoa@g^(0+128),w
  2857     0C3B  00A7               	movwf	??_efgtoa^(0+128)
  2858     0C3C  084E               	movf	(efgtoa@g+1)^(0+128),w
  2859     0C3D  00A8               	movwf	(??_efgtoa^(0+128)+1)
  2860     0C3E  084F               	movf	(efgtoa@g+2)^(0+128),w
  2861     0C3F  00A9               	movwf	(??_efgtoa^(0+128)+2)
  2862     0C40  0850               	movf	(efgtoa@g+3)^(0+128),w
  2863     0C41  00AA               	movwf	(??_efgtoa^(0+128)+3)
  2864     0C42  0853               	movf	efgtoa@u^(0+128),w
  2865     0C43  02A7               	subwf	??_efgtoa^(0+128),f
  2866     0C44  0854               	movf	(efgtoa@u+1)^(0+128),w
  2867     0C45  1C03               	skipc
  2868     0C46  0F54               	incfsz	(efgtoa@u+1)^(0+128),w
  2869     0C47  2C49               	goto	u5611
  2870     0C48  2C4A               	goto	u5612
  2871     0C49                     u5611:
  2872     0C49  02A8               	subwf	(??_efgtoa^(0+128)+1),f
  2873     0C4A                     u5612:
  2874     0C4A  0855               	movf	(efgtoa@u+2)^(0+128),w
  2875     0C4B  1C03               	skipc
  2876     0C4C  0F55               	incfsz	(efgtoa@u+2)^(0+128),w
  2877     0C4D  2C4F               	goto	u5613
  2878     0C4E  2C50               	goto	u5614
  2879     0C4F                     u5613:
  2880     0C4F  02A9               	subwf	(??_efgtoa^(0+128)+2),f
  2881     0C50                     u5614:
  2882     0C50  0856               	movf	(efgtoa@u+3)^(0+128),w
  2883     0C51  1C03               	skipc
  2884     0C52  0F56               	incfsz	(efgtoa@u+3)^(0+128),w
  2885     0C53  2C55               	goto	u5615
  2886     0C54  2C56               	goto	u5616
  2887     0C55                     u5615:
  2888     0C55  02AA               	subwf	(??_efgtoa^(0+128)+3),f
  2889     0C56                     u5616:
  2890     0C56  082A               	movf	(??_efgtoa+3)^(0+128),w
  2891     0C57  00F5               	movwf	labs@a+3
  2892     0C58  0829               	movf	(??_efgtoa+2)^(0+128),w
  2893     0C59  00F4               	movwf	labs@a+2
  2894     0C5A  0828               	movf	(??_efgtoa+1)^(0+128),w
  2895     0C5B  00F3               	movwf	labs@a+1
  2896     0C5C  0827               	movf	??_efgtoa^(0+128),w
  2897     0C5D  00F2               	movwf	labs@a
  2898     0C5E  160A  158A  26CB  120A  158A  	fcall	_labs
  2899     0C63  1BF5               	btfsc	?_labs+3,7
  2900     0C64  2C76               	goto	u5620
  2901     0C65  0875               	movf	?_labs+3,w
  2902     0C66  1D03               	btfss	3,2
  2903     0C67  2C75               	goto	u5621
  2904     0C68  0874               	movf	?_labs+2,w
  2905     0C69  1D03               	btfss	3,2
  2906     0C6A  2C75               	goto	u5621
  2907     0C6B  0873               	movf	?_labs+1,w
  2908     0C6C  1D03               	btfss	3,2
  2909     0C6D  2C75               	goto	u5621
  2910     0C6E  3002               	movlw	2
  2911     0C6F  0272               	subwf	?_labs,w
  2912     0C70  1D03               	skipz
  2913     0C71  2C72               	goto	u5623
  2914     0C72                     u5623:
  2915     0C72  1803               	btfsc	3,0
  2916     0C73  2C75               	goto	u5621
  2917     0C74  2C76               	goto	u5620
  2918     0C75                     u5621:
  2919     0C75  2C77               	goto	l3484
  2920     0C76                     u5620:
  2921     0C76  2BEA               	goto	l3474
  2922     0C77                     l3484:
  2923                           
  2924                           ;C:\Program Files\Microchip\xc8\v2.50\pic\sources\c99\common\doprnt.c: 668:    while (g.
      +                          f < u.f) {
  2925     0C77  1683               	bsf	3,5	;RP0=1, select bank1
  2926     0C78  1303               	bcf	3,6	;RP1=0, select bank1
  2927     0C79  0850               	movf	(efgtoa@g+3)^(0+128),w
  2928     0C7A  1283               	bcf	3,5	;RP0=0, select bank0
  2929     0C7B  1303               	bcf	3,6	;RP1=0, select bank0
  2930     0C7C  00C3               	movwf	___flge@ff1+3
  2931     0C7D  1683               	bsf	3,5	;RP0=1, select bank1
  2932     0C7E  1303               	bcf	3,6	;RP1=0, select bank1
  2933     0C7F  084F               	movf	(efgtoa@g+2)^(0+128),w
  2934     0C80  1283               	bcf	3,5	;RP0=0, select bank0
  2935     0C81  1303               	bcf	3,6	;RP1=0, select bank0
  2936     0C82  00C2               	movwf	___flge@ff1+2
  2937     0C83  1683               	bsf	3,5	;RP0=1, select bank1
  2938     0C84  1303               	bcf	3,6	;RP1=0, select bank1
  2939     0C85  084E               	movf	(efgtoa@g+1)^(0+128),w
  2940     0C86  1283               	bcf	3,5	;RP0=0, select bank0
  2941     0C87  1303               	bcf	3,6	;RP1=0, select bank0
  2942     0C88  00C1               	movwf	___flge@ff1+1
  2943     0C89  1683               	bsf	3,5	;RP0=1, select bank1
  2944     0C8A  1303               	bcf	3,6	;RP1=0, select bank1
  2945     0C8B  084D               	movf	efgtoa@g^(0+128),w
  2946     0C8C  1283               	bcf	3,5	;RP0=0, select bank0
  2947     0C8D  1303               	bcf	3,6	;RP1=0, select bank0
  2948     0C8E  00C0               	movwf	___flge@ff1
  2949     0C8F  1683               	bsf	3,5	;RP0=1, select bank1
  2950     0C90  1303               	bcf	3,6	;RP1=0, select bank1
  2951     0C91  0856               	movf	(efgtoa@u+3)^(0+128),w
  2952     0C92  1283               	bcf	3,5	;RP0=0, select bank0
  2953     0C93  1303               	bcf	3,6	;RP1=0, select bank0
  2954     0C94  00C7               	movwf	___flge@ff2+3
  2955     0C95  1683               	bsf	3,5	;RP0=1, select bank1
  2956     0C96  1303               	bcf	3,6	;RP1=0, select bank1
  2957     0C97  0855               	movf	(efgtoa@u+2)^(0+128),w
  2958     0C98  1283               	bcf	3,5	;RP0=0, select bank0
  2959     0C99  1303               	bcf	3,6	;RP1=0, select bank0
  2960     0C9A  00C6               	movwf	___flge@ff2+2
  2961     0C9B  1683               	bsf	3,5	;RP0=1, select bank1
  2962     0C9C  1303               	bcf	3,6	;RP1=0, select bank1
  2963     0C9D  0854               	movf	(efgtoa@u+1)^(0+128),w
  2964     0C9E  1283               	bcf	3,5	;RP0=0, select bank0
  2965     0C9F  1303               	bcf	3,6	;RP1=0, select bank0
  2966     0CA0  00C5               	movwf	___flge@ff2+1
  2967     0CA1  1683               	bsf	3,5	;RP0=1, select bank1
  2968     0CA2  1303               	bcf	3,6	;RP1=0, select bank1
  2969     0CA3  0853               	movf	efgtoa@u^(0+128),w
  2970     0CA4  1283               	bcf	3,5	;RP0=0, select bank0
  2971     0CA5  1303               	bcf	3,6	;RP1=0, select bank0
  2972     0CA6  00C4               	movwf	___flge@ff2
  2973     0CA7  160A  118A  23DB  120A  158A  	fcall	___flge
  2974     0CAC  1C03               	btfss	3,0
  2975     0CAD  2CAF               	goto	u5631
  2976     0CAE  2CB0               	goto	u5630
  2977     0CAF                     u5631:
  2978     0CAF  2BF5               	goto	l3476
  2979     0CB0                     u5630:
  2980     0CB0                     l3486:
  2981                           
  2982                           ;C:\Program Files\Microchip\xc8\v2.50\pic\sources\c99\common\doprnt.c: 683:  mode = c;
  2983     0CB0  1683               	bsf	3,5	;RP0=1, select bank1
  2984     0CB1  1303               	bcf	3,6	;RP1=0, select bank1
  2985     0CB2  0826               	movf	efgtoa@c^(0+128),w
  2986     0CB3  00B4               	movwf	efgtoa@mode^(0+128)
  2987                           
  2988                           ;C:\Program Files\Microchip\xc8\v2.50\pic\sources\c99\common\doprnt.c: 685:     nmode = 
      +                          mode;
  2989     0CB4  0834               	movf	efgtoa@mode^(0+128),w
  2990     0CB5  00B5               	movwf	efgtoa@nmode^(0+128)
  2991     0CB6                     l3488:
  2992                           
  2993                           ;C:\Program Files\Microchip\xc8\v2.50\pic\sources\c99\common\doprnt.c: 695:  {;C:\Progra
      +                          m Files\Microchip\xc8\v2.50\pic\sources\c99\common\doprnt.c: 696:         p = (prec < 0)
      +                           ? 6 : prec;
  2994     0CB6  1BEE               	btfsc	(_prec+1)^(0+128),7
  2995     0CB7  2CBB               	goto	u5641
  2996     0CB8  120A  118A  282B   	goto	u5640
  2997     0CBB                     u5641:
  2998     0CBB  120A  118A  2830   	goto	l3492
  2999                           
  3000                           	psect	text7
  3001     1EE0                     __ptext7:	
  3002 ;; *************** function _strcpy *****************
  3003 ;; Defined at:
  3004 ;;		line 3 in file "C:\Program Files\Microchip\xc8\v2.50\pic\sources\c99\common\strcpy.c"
  3005 ;; Parameters:    Size  Location     Type
  3006 ;;  dest            1    2[COMMON] PTR unsigned char 
  3007 ;;		 -> dbuf(80), 
  3008 ;;  src             1    3[COMMON] PTR const unsigned char 
  3009 ;;		 -> STR_6(4), STR_3(4), 
  3010 ;; Auto vars:     Size  Location     Type
  3011 ;;  d               1    4[COMMON] PTR unsigned char 
  3012 ;;		 -> dbuf(80), 
  3013 ;; Return value:  Size  Location     Type
  3014 ;;                  1    2[COMMON] PTR unsigned char 
  3015 ;; Registers used:
  3016 ;;		wreg, fsr0l, fsr0h, status,2, status,0, btemp+1, pclath
  3017 ;; Tracked objects:
  3018 ;;		On entry : 0/0
  3019 ;;		On exit  : 0/0
  3020 ;;		Unchanged: 0/0
  3021 ;; Data sizes:     COMMON   BANK0   BANK1   BANK3   BANK2
  3022 ;;      Params:         2       0       0       0       0
  3023 ;;      Locals:         1       0       0       0       0
  3024 ;;      Temps:          0       0       0       0       0
  3025 ;;      Totals:         3       0       0       0       0
  3026 ;;Total ram usage:        3 bytes
  3027 ;; Hardware stack levels used: 2
  3028 ;; Hardware stack levels required when called: 1
  3029 ;; This function calls:
  3030 ;;		Nothing
  3031 ;; This function is called by:
  3032 ;;		_efgtoa
  3033 ;; This function uses a non-reentrant model
  3034 ;;
  3035                           
  3036     1EE0                     _strcpy:	
  3037                           ;psect for function _strcpy
  3038                           
  3039     1EE0                     l2652:	
  3040                           ;incstack = 0
  3041                           ; Regs used in _strcpy: [wreg-fsr0h+status,2+status,0+btemp+1+pclath]
  3042                           
  3043     1EE0  0872               	movf	strcpy@dest,w
  3044     1EE1  00F4               	movwf	strcpy@d
  3045     1EE2                     l2654:
  3046     1EE2  3001               	movlw	1
  3047     1EE3  07F3               	addwf	strcpy@src,f
  3048     1EE4  30FF               	movlw	-1
  3049     1EE5  0773               	addwf	strcpy@src,w
  3050     1EE6  0084               	movwf	4
  3051     1EE7  160A  158A  200A  160A  158A  	fcall	stringdir
  3052     1EEC  00FF               	movwf	btemp+1
  3053     1EED  0874               	movf	strcpy@d,w
  3054     1EEE  0AF4               	incf	strcpy@d,f
  3055     1EEF  0084               	movwf	4
  3056     1EF0  087F               	movf	btemp+1,w
  3057     1EF1  1783               	bsf	3,7	;select IRP bank2
  3058     1EF2  0080               	movwf	0
  3059     1EF3  0800               	movf	0,w
  3060     1EF4  1D03               	btfss	3,2
  3061     1EF5  2EF7               	goto	u4001
  3062     1EF6  2EF8               	goto	u4000
  3063     1EF7                     u4001:
  3064     1EF7  2EE2               	goto	l2654
  3065     1EF8                     u4000:
  3066     1EF8                     l828:
  3067     1EF8  0008               	return
  3068     1EF9                     __end_of_strcpy:
  3069                           
  3070                           	psect	text8
  3071     1066                     __ptext8:	
  3072 ;; *************** function _pad *****************
  3073 ;; Defined at:
  3074 ;;		line 193 in file "C:\Program Files\Microchip\xc8\v2.50\pic\sources\c99\common\doprnt.c"
  3075 ;; Parameters:    Size  Location     Type
  3076 ;;  fp              2   14[BANK0 ] PTR struct _IO_FILE
  3077 ;;		 -> sprintf@f(11), 
  3078 ;;  buf             1   16[BANK0 ] PTR unsigned char 
  3079 ;;		 -> dbuf(80), 
  3080 ;;  p               2   17[BANK0 ] int 
  3081 ;; Auto vars:     Size  Location     Type
  3082 ;;  i               2   19[BANK0 ] int 
  3083 ;; Return value:  Size  Location     Type
  3084 ;;                  1    wreg      void 
  3085 ;; Registers used:
  3086 ;;		wreg, fsr0l, fsr0h, status,2, status,0, pclath, cstack
  3087 ;; Tracked objects:
  3088 ;;		On entry : 0/0
  3089 ;;		On exit  : 0/0
  3090 ;;		Unchanged: 0/0
  3091 ;; Data sizes:     COMMON   BANK0   BANK1   BANK3   BANK2
  3092 ;;      Params:         0       5       0       0       0
  3093 ;;      Locals:         0       2       0       0       0
  3094 ;;      Temps:          1       0       0       0       0
  3095 ;;      Totals:         1       7       0       0       0
  3096 ;;Total ram usage:        8 bytes
  3097 ;; Hardware stack levels used: 1
  3098 ;; Hardware stack levels required when called: 4
  3099 ;; This function calls:
  3100 ;;		_fputc
  3101 ;;		_fputs
  3102 ;; This function is called by:
  3103 ;;		_efgtoa
  3104 ;; This function uses a non-reentrant model
  3105 ;;
  3106                           
  3107     1066                     _pad:	
  3108                           ;psect for function _pad
  3109                           
  3110     1066                     l3370:	
  3111                           ;incstack = 0
  3112 ;; hardware stack exceeded
  3113                           ; Regs used in _pad: [wreg-fsr0h+status,2+status,0+pclath+cstack]
  3114                           
  3115                           
  3116                           ;C:\Program Files\Microchip\xc8\v2.50\pic\sources\c99\common\doprnt.c: 193: static void 
      +                          pad(FILE *fp, char *buf, int p);C:\Program Files\Microchip\xc8\v2.50\pic\sources\c99\com
      +                          mon\doprnt.c: 194: {;C:\Program Files\Microchip\xc8\v2.50\pic\sources\c99\common\doprnt.
      +                          c: 195:     int i;;C:\Program Files\Microchip\xc8\v2.50\pic\sources\c99\common\doprnt.c:
      +                           205:  if (p < 0) {
  3117     1066  1283               	bcf	3,5	;RP0=0, select bank0
  3118     1067  1303               	bcf	3,6	;RP1=0, select bank0
  3119     1068  1FB2               	btfss	pad@p+1,7
  3120     1069  286B               	goto	u5381
  3121     106A  286C               	goto	u5380
  3122     106B                     u5381:
  3123     106B  286E               	goto	l671
  3124     106C                     u5380:
  3125     106C                     l3372:
  3126                           
  3127                           ;C:\Program Files\Microchip\xc8\v2.50\pic\sources\c99\common\doprnt.c: 206:   p = 0;
  3128     106C  01B1               	clrf	pad@p
  3129     106D  01B2               	clrf	pad@p+1
  3130     106E                     l671:	
  3131                           ;C:\Program Files\Microchip\xc8\v2.50\pic\sources\c99\common\doprnt.c: 207:  }
  3132                           
  3133                           
  3134                           ;C:\Program Files\Microchip\xc8\v2.50\pic\sources\c99\common\doprnt.c: 208:     i = 0;
  3135     106E  01B3               	clrf	pad@i
  3136     106F  01B4               	clrf	pad@i+1
  3137                           
  3138                           ;C:\Program Files\Microchip\xc8\v2.50\pic\sources\c99\common\doprnt.c: 209:     while (i
      +                           < p) {
  3139     1070  2888               	goto	l3378
  3140     1071                     l3374:
  3141                           
  3142                           ;C:\Program Files\Microchip\xc8\v2.50\pic\sources\c99\common\doprnt.c: 210:         fput
      +                          c(' ', fp);
  3143     1071  3020               	movlw	32
  3144     1072  00F2               	movwf	fputc@c
  3145     1073  3000               	movlw	0
  3146     1074  00F3               	movwf	fputc@c+1
  3147     1075  1283               	bcf	3,5	;RP0=0, select bank0
  3148     1076  1303               	bcf	3,6	;RP1=0, select bank0
  3149     1077  082E               	movf	pad@fp,w
  3150     1078  00F4               	movwf	fputc@fp
  3151     1079  082F               	movf	pad@fp+1,w
  3152     107A  00F5               	movwf	fputc@fp+1
  3153     107B  160A  118A  21F7  160A  118A  	fcall	_fputc
  3154     1080                     l3376:
  3155                           
  3156                           ;C:\Program Files\Microchip\xc8\v2.50\pic\sources\c99\common\doprnt.c: 211:         ++i;
  3157     1080  3001               	movlw	1
  3158     1081  1283               	bcf	3,5	;RP0=0, select bank0
  3159     1082  1303               	bcf	3,6	;RP1=0, select bank0
  3160     1083  07B3               	addwf	pad@i,f
  3161     1084  1803               	skipnc
  3162     1085  0AB4               	incf	pad@i+1,f
  3163     1086  3000               	movlw	0
  3164     1087  07B4               	addwf	pad@i+1,f
  3165     1088                     l3378:
  3166                           
  3167                           ;C:\Program Files\Microchip\xc8\v2.50\pic\sources\c99\common\doprnt.c: 209:     while (i
      +                           < p) {
  3168     1088  0834               	movf	pad@i+1,w
  3169     1089  3A80               	xorlw	128
  3170     108A  00F9               	movwf	??_pad
  3171     108B  0832               	movf	pad@p+1,w
  3172     108C  3A80               	xorlw	128
  3173     108D  0279               	subwf	??_pad,w
  3174     108E  1D03               	skipz
  3175     108F  2892               	goto	u5395
  3176     1090  0831               	movf	pad@p,w
  3177     1091  0233               	subwf	pad@i,w
  3178     1092                     u5395:
  3179     1092  1C03               	skipc
  3180     1093  2895               	goto	u5391
  3181     1094  2896               	goto	u5390
  3182     1095                     u5391:
  3183     1095  2871               	goto	l3374
  3184     1096                     u5390:
  3185     1096                     l3380:
  3186                           
  3187                           ;C:\Program Files\Microchip\xc8\v2.50\pic\sources\c99\common\doprnt.c: 218:         fput
      +                          s((const char *)buf, fp);
  3188     1096  1283               	bcf	3,5	;RP0=0, select bank0
  3189     1097  1303               	bcf	3,6	;RP1=0, select bank0
  3190     1098  0830               	movf	pad@buf,w
  3191     1099  00F6               	movwf	fputs@s
  3192     109A  082E               	movf	pad@fp,w
  3193     109B  00F7               	movwf	fputs@fp
  3194     109C  082F               	movf	pad@fp+1,w
  3195     109D  00F8               	movwf	fputs@fp+1
  3196     109E  160A  158A  27D5  160A  118A  	fcall	_fputs
  3197     10A3                     l675:
  3198     10A3  0008               	return
  3199     10A4                     __end_of_pad:
  3200                           
  3201                           	psect	text9
  3202     1FD5                     __ptext9:	
  3203 ;; *************** function _fputs *****************
  3204 ;; Defined at:
  3205 ;;		line 8 in file "C:\Program Files\Microchip\xc8\v2.50\pic\sources\c99\common\nf_fputs.c"
  3206 ;; Parameters:    Size  Location     Type
  3207 ;;  s               1    6[COMMON] PTR const unsigned char 
  3208 ;;		 -> dbuf(80), 
  3209 ;;  fp              2    7[COMMON] PTR struct _IO_FILE
  3210 ;;		 -> sprintf@f(11), 
  3211 ;; Auto vars:     Size  Location     Type
  3212 ;;  i               2   12[BANK0 ] int 
  3213 ;;  c               1   11[BANK0 ] unsigned char 
  3214 ;; Return value:  Size  Location     Type
  3215 ;;                  2    6[COMMON] int 
  3216 ;; Registers used:
  3217 ;;		wreg, fsr0l, fsr0h, status,2, status,0, pclath, cstack
  3218 ;; Tracked objects:
  3219 ;;		On entry : 0/0
  3220 ;;		On exit  : 0/0
  3221 ;;		Unchanged: 0/0
  3222 ;; Data sizes:     COMMON   BANK0   BANK1   BANK3   BANK2
  3223 ;;      Params:         3       0       0       0       0
  3224 ;;      Locals:         0       3       0       0       0
  3225 ;;      Temps:          0       2       0       0       0
  3226 ;;      Totals:         3       5       0       0       0
  3227 ;;Total ram usage:        8 bytes
  3228 ;; Hardware stack levels used: 1
  3229 ;; Hardware stack levels required when called: 3
  3230 ;; This function calls:
  3231 ;;		_fputc
  3232 ;; This function is called by:
  3233 ;;		_pad
  3234 ;; This function uses a non-reentrant model
  3235 ;;
  3236                           
  3237     1FD5                     _fputs:	
  3238                           ;psect for function _fputs
  3239                           
  3240     1FD5                     l3184:	
  3241                           ;incstack = 0
  3242 ;; hardware stack exceeded
  3243                           ; Regs used in _fputs: [wreg-fsr0h+status,2+status,0+pclath+cstack]
  3244                           
  3245     1FD5  1283               	bcf	3,5	;RP0=0, select bank0
  3246     1FD6  1303               	bcf	3,6	;RP1=0, select bank0
  3247     1FD7  01AC               	clrf	fputs@i
  3248     1FD8  01AD               	clrf	fputs@i+1
  3249     1FD9  2FF2               	goto	l3190
  3250     1FDA                     l3186:
  3251     1FDA  082B               	movf	fputs@c,w
  3252     1FDB  00A9               	movwf	??_fputs
  3253     1FDC  01AA               	clrf	??_fputs+1
  3254     1FDD  0829               	movf	??_fputs,w
  3255     1FDE  00F2               	movwf	fputc@c
  3256     1FDF  082A               	movf	??_fputs+1,w
  3257     1FE0  00F3               	movwf	fputc@c+1
  3258     1FE1  0877               	movf	fputs@fp,w
  3259     1FE2  00F4               	movwf	fputc@fp
  3260     1FE3  0878               	movf	fputs@fp+1,w
  3261     1FE4  00F5               	movwf	fputc@fp+1
  3262     1FE5  160A  118A  21F7  160A  158A  	fcall	_fputc
  3263     1FEA                     l3188:
  3264     1FEA  3001               	movlw	1
  3265     1FEB  1283               	bcf	3,5	;RP0=0, select bank0
  3266     1FEC  1303               	bcf	3,6	;RP1=0, select bank0
  3267     1FED  07AC               	addwf	fputs@i,f
  3268     1FEE  1803               	skipnc
  3269     1FEF  0AAD               	incf	fputs@i+1,f
  3270     1FF0  3000               	movlw	0
  3271     1FF1  07AD               	addwf	fputs@i+1,f
  3272     1FF2                     l3190:
  3273     1FF2  082C               	movf	fputs@i,w
  3274     1FF3  0776               	addwf	fputs@s,w
  3275     1FF4  00A9               	movwf	??_fputs
  3276     1FF5  0829               	movf	??_fputs,w
  3277     1FF6  0084               	movwf	4
  3278     1FF7  1783               	bsf	3,7	;select IRP bank2
  3279     1FF8  0800               	movf	0,w
  3280     1FF9  00AB               	movwf	fputs@c
  3281     1FFA  082B               	movf	fputs@c,w
  3282     1FFB  1D03               	btfss	3,2
  3283     1FFC  2FFE               	goto	u4901
  3284     1FFD  2FFF               	goto	u4900
  3285     1FFE                     u4901:
  3286     1FFE  2FDA               	goto	l3186
  3287     1FFF                     u4900:
  3288     1FFF                     l819:
  3289     1FFF  0008               	return
  3290     2000                     __end_of_fputs:
  3291                           
  3292                           	psect	text10
  3293     11F7                     __ptext10:	
  3294 ;; *************** function _fputc *****************
  3295 ;; Defined at:
  3296 ;;		line 8 in file "C:\Program Files\Microchip\xc8\v2.50\pic\sources\c99\common\nf_fputc.c"
  3297 ;; Parameters:    Size  Location     Type
  3298 ;;  c               2    2[COMMON] int 
  3299 ;;  fp              2    4[COMMON] PTR struct _IO_FILE
  3300 ;;		 -> sprintf@f(11), 
  3301 ;; Auto vars:     Size  Location     Type
  3302 ;;		None
  3303 ;; Return value:  Size  Location     Type
  3304 ;;                  2    2[COMMON] int 
  3305 ;; Registers used:
  3306 ;;		wreg, fsr0l, fsr0h, status,2, status,0, pclath, cstack
  3307 ;; Tracked objects:
  3308 ;;		On entry : 0/0
  3309 ;;		On exit  : 0/0
  3310 ;;		Unchanged: 0/0
  3311 ;; Data sizes:     COMMON   BANK0   BANK1   BANK3   BANK2
  3312 ;;      Params:         4       0       0       0       0
  3313 ;;      Locals:         0       0       0       0       0
  3314 ;;      Temps:          0       9       0       0       0
  3315 ;;      Totals:         4       9       0       0       0
  3316 ;;Total ram usage:       13 bytes
  3317 ;; Hardware stack levels used: 1
  3318 ;; Hardware stack levels required when called: 2
  3319 ;; This function calls:
  3320 ;;		_putch
  3321 ;; This function is called by:
  3322 ;;		_pad
  3323 ;;		_vfpfcnvrt
  3324 ;;		_fputs
  3325 ;; This function uses a non-reentrant model
  3326 ;;
  3327                           
  3328     11F7                     _fputc:	
  3329                           ;psect for function _fputc
  3330                           
  3331     11F7                     l2000:	
  3332                           ;incstack = 0
  3333                           ; Regs used in _fputc: [wreg-fsr0h+status,2+status,0+pclath+cstack]
  3334                           
  3335     11F7  0874               	movf	fputc@fp,w
  3336     11F8  0475               	iorwf	fputc@fp+1,w
  3337     11F9  1903               	btfsc	3,2
  3338     11FA  29FC               	goto	u2441
  3339     11FB  29FD               	goto	u2440
  3340     11FC                     u2441:
  3341     11FC  2A03               	goto	l2004
  3342     11FD                     u2440:
  3343     11FD                     l2002:
  3344     11FD  0874               	movf	fputc@fp,w
  3345     11FE  0475               	iorwf	fputc@fp+1,w
  3346     11FF  1D03               	btfss	3,2
  3347     1200  2A02               	goto	u2451
  3348     1201  2A03               	goto	u2450
  3349     1202                     u2451:
  3350     1202  2A0A               	goto	l2006
  3351     1203                     u2450:
  3352     1203                     l2004:
  3353     1203  0872               	movf	fputc@c,w
  3354     1204  120A  118A  2003  160A  118A  	fcall	_putch
  3355     1209  2A96               	goto	l811
  3356     120A                     l2006:
  3357     120A  0874               	movf	fputc@fp,w
  3358     120B  3E09               	addlw	9
  3359     120C  1283               	bcf	3,5	;RP0=0, select bank0
  3360     120D  1303               	bcf	3,6	;RP1=0, select bank0
  3361     120E  00A0               	movwf	??_fputc
  3362     120F  0875               	movf	fputc@fp+1,w
  3363     1210  1803               	skipnc
  3364     1211  3E01               	addlw	1
  3365     1212  3E00               	addlw	0
  3366     1213  00A1               	movwf	??_fputc+1
  3367     1214  0820               	movf	??_fputc,w
  3368     1215  0084               	movwf	4
  3369     1216  1783               	bsf	3,7
  3370     1217  1C21               	btfss	??_fputc+1,0
  3371     1218  1383               	bcf	3,7
  3372     1219  0800               	movf	0,w
  3373     121A  00A2               	movwf	??_fputc+2
  3374     121B  0A84               	incf	4,f
  3375     121C  0800               	movf	0,w
  3376     121D  00A3               	movwf	??_fputc+3
  3377     121E  0822               	movf	??_fputc+2,w
  3378     121F  0423               	iorwf	??_fputc+3,w
  3379     1220  1903               	btfsc	3,2
  3380     1221  2A23               	goto	u2461
  3381     1222  2A24               	goto	u2460
  3382     1223                     u2461:
  3383     1223  2A56               	goto	l2010
  3384     1224                     u2460:
  3385     1224                     l2008:
  3386     1224  0874               	movf	fputc@fp,w
  3387     1225  3E09               	addlw	9
  3388     1226  00A0               	movwf	??_fputc
  3389     1227  0875               	movf	fputc@fp+1,w
  3390     1228  1803               	skipnc
  3391     1229  3E01               	addlw	1
  3392     122A  3E00               	addlw	0
  3393     122B  00A1               	movwf	??_fputc+1
  3394     122C  0820               	movf	??_fputc,w
  3395     122D  0084               	movwf	4
  3396     122E  1783               	bsf	3,7
  3397     122F  1C21               	btfss	??_fputc+1,0
  3398     1230  1383               	bcf	3,7
  3399     1231  0800               	movf	0,w
  3400     1232  00A2               	movwf	??_fputc+2
  3401     1233  0A84               	incf	4,f
  3402     1234  0800               	movf	0,w
  3403     1235  00A3               	movwf	??_fputc+3
  3404     1236  0874               	movf	fputc@fp,w
  3405     1237  3E02               	addlw	2
  3406     1238  00A4               	movwf	??_fputc+4
  3407     1239  0875               	movf	fputc@fp+1,w
  3408     123A  1803               	skipnc
  3409     123B  3E01               	addlw	1
  3410     123C  3E00               	addlw	0
  3411     123D  00A5               	movwf	??_fputc+5
  3412     123E  0824               	movf	??_fputc+4,w
  3413     123F  0084               	movwf	4
  3414     1240  1783               	bsf	3,7
  3415     1241  1C25               	btfss	??_fputc+5,0
  3416     1242  1383               	bcf	3,7
  3417     1243  0800               	movf	0,w
  3418     1244  00A6               	movwf	??_fputc+6
  3419     1245  0A84               	incf	4,f
  3420     1246  0800               	movf	0,w
  3421     1247  00A7               	movwf	??_fputc+7
  3422     1248  0827               	movf	??_fputc+7,w
  3423     1249  3A80               	xorlw	128
  3424     124A  00A8               	movwf	??_fputc+8
  3425     124B  0823               	movf	??_fputc+3,w
  3426     124C  3A80               	xorlw	128
  3427     124D  0228               	subwf	??_fputc+8,w
  3428     124E  1D03               	skipz
  3429     124F  2A52               	goto	u2475
  3430     1250  0822               	movf	??_fputc+2,w
  3431     1251  0226               	subwf	??_fputc+6,w
  3432     1252                     u2475:
  3433     1252  1803               	skipnc
  3434     1253  2A55               	goto	u2471
  3435     1254  2A56               	goto	u2470
  3436     1255                     u2471:
  3437     1255  2A96               	goto	l811
  3438     1256                     u2470:
  3439     1256                     l2010:
  3440     1256  0874               	movf	fputc@fp,w
  3441     1257  0084               	movwf	4
  3442     1258  1783               	bsf	3,7
  3443     1259  1C75               	btfss	fputc@fp+1,0
  3444     125A  1383               	bcf	3,7
  3445     125B  0800               	movf	0,w
  3446     125C  1283               	bcf	3,5	;RP0=0, select bank0
  3447     125D  1303               	bcf	3,6	;RP1=0, select bank0
  3448     125E  00A0               	movwf	??_fputc
  3449     125F  0A84               	incf	4,f
  3450     1260  0800               	movf	0,w
  3451     1261  00A1               	movwf	??_fputc+1
  3452     1262  0874               	movf	fputc@fp,w
  3453     1263  3E02               	addlw	2
  3454     1264  00A2               	movwf	??_fputc+2
  3455     1265  0875               	movf	fputc@fp+1,w
  3456     1266  1803               	skipnc
  3457     1267  3E01               	addlw	1
  3458     1268  3E00               	addlw	0
  3459     1269  00A3               	movwf	??_fputc+3
  3460     126A  0822               	movf	??_fputc+2,w
  3461     126B  0084               	movwf	4
  3462     126C  1783               	bsf	3,7
  3463     126D  1C23               	btfss	??_fputc+3,0
  3464     126E  1383               	bcf	3,7
  3465     126F  0800               	movf	0,w
  3466     1270  0720               	addwf	??_fputc,w
  3467     1271  00A5               	movwf	??_fputc+5
  3468     1272  0821               	movf	??_fputc+1,w
  3469     1273  00A4               	movwf	??_fputc+4
  3470     1274  1803               	skipnc
  3471     1275  0AA4               	incf	??_fputc+4,f
  3472     1276  1F80               	btfss	0,7
  3473     1277  2A79               	goto	u2480
  3474     1278  03A4               	decf	??_fputc+4,f
  3475     1279                     u2480:
  3476     1279  1283               	bcf	3,5	;RP0=0, select bank0
  3477     127A  1303               	bcf	3,6	;RP1=0, select bank0
  3478     127B  0824               	movf	??_fputc+4,w
  3479     127C  00A6               	movwf	??_fputc+6
  3480     127D  0825               	movf	??_fputc+5,w
  3481     127E  0084               	movwf	4
  3482     127F  1783               	bsf	3,7
  3483     1280  1C26               	btfss	??_fputc+6,0
  3484     1281  1383               	bcf	3,7
  3485     1282  0872               	movf	fputc@c,w
  3486     1283  0080               	movwf	0
  3487     1284  0874               	movf	fputc@fp,w
  3488     1285  3E02               	addlw	2
  3489     1286  00A0               	movwf	??_fputc
  3490     1287  0875               	movf	fputc@fp+1,w
  3491     1288  1803               	skipnc
  3492     1289  3E01               	addlw	1
  3493     128A  3E00               	addlw	0
  3494     128B  00A1               	movwf	??_fputc+1
  3495     128C  0820               	movf	??_fputc,w
  3496     128D  0084               	movwf	4
  3497     128E  1783               	bsf	3,7
  3498     128F  1C21               	btfss	??_fputc+1,0
  3499     1290  1383               	bcf	3,7
  3500     1291  3001               	movlw	1
  3501     1292  0780               	addwf	0,f
  3502     1293  0A84               	incf	4,f
  3503     1294  1803               	skipnc
  3504     1295  0A80               	incf	0,f
  3505     1296                     l811:
  3506     1296  0008               	return
  3507     1297                     __end_of_fputc:
  3508                           
  3509                           	psect	text11
  3510     0003                     __ptext11:	
  3511 ;; *************** function _putch *****************
  3512 ;; Defined at:
  3513 ;;		line 7 in file "C:\Program Files\Microchip\xc8\v2.50\pic\sources\c99\common\putch.c"
  3514 ;; Parameters:    Size  Location     Type
  3515 ;;  c               1    wreg     unsigned char 
  3516 ;; Auto vars:     Size  Location     Type
  3517 ;;  c               1    0[COMMON] unsigned char 
  3518 ;; Return value:  Size  Location     Type
  3519 ;;                  1    wreg      void 
  3520 ;; Registers used:
  3521 ;;		wreg
  3522 ;; Tracked objects:
  3523 ;;		On entry : 0/0
  3524 ;;		On exit  : 0/0
  3525 ;;		Unchanged: 0/0
  3526 ;; Data sizes:     COMMON   BANK0   BANK1   BANK3   BANK2
  3527 ;;      Params:         0       0       0       0       0
  3528 ;;      Locals:         0       0       0       0       0
  3529 ;;      Temps:          0       0       0       0       0
  3530 ;;      Totals:         0       0       0       0       0
  3531 ;;Total ram usage:        0 bytes
  3532 ;; Hardware stack levels used: 1
  3533 ;; Hardware stack levels required when called: 1
  3534 ;; This function calls:
  3535 ;;		Nothing
  3536 ;; This function is called by:
  3537 ;;		_fputc
  3538 ;; This function uses a non-reentrant model
  3539 ;;
  3540                           
  3541     0003                     _putch:	
  3542                           ;psect for function _putch
  3543                           
  3544     0003                     l822:	
  3545                           ;incstack = 0
  3546                           ; Regs used in _putch: [wreg]
  3547                           
  3548     0003  0008               	return
  3549     0004                     __end_of_putch:
  3550                           
  3551                           	psect	text12
  3552     1EF9                     __ptext12:	
  3553 ;; *************** function _memcpy *****************
  3554 ;; Defined at:
  3555 ;;		line 4 in file "C:\Program Files\Microchip\xc8\v2.50\pic\sources\c99\common\memcpy.c"
  3556 ;; Parameters:    Size  Location     Type
  3557 ;;  d1              1    2[COMMON] PTR void 
  3558 ;;		 -> dbuf(80), 
  3559 ;;  s1              1    3[COMMON] PTR const void 
  3560 ;;		 -> dbuf(80), 
  3561 ;;  n               2    4[COMMON] unsigned int 
  3562 ;; Auto vars:     Size  Location     Type
  3563 ;;  s               1    8[COMMON] PTR const unsigned char 
  3564 ;;		 -> dbuf(80), 
  3565 ;;  d               1    7[COMMON] PTR unsigned char 
  3566 ;;		 -> dbuf(80), 
  3567 ;;  tmp             1    6[COMMON] unsigned char 
  3568 ;; Return value:  Size  Location     Type
  3569 ;;                  1    2[COMMON] PTR void 
  3570 ;; Registers used:
  3571 ;;		wreg, fsr0l, fsr0h, status,2, status,0
  3572 ;; Tracked objects:
  3573 ;;		On entry : 0/0
  3574 ;;		On exit  : 0/0
  3575 ;;		Unchanged: 0/0
  3576 ;; Data sizes:     COMMON   BANK0   BANK1   BANK3   BANK2
  3577 ;;      Params:         4       0       0       0       0
  3578 ;;      Locals:         3       0       0       0       0
  3579 ;;      Temps:          0       0       0       0       0
  3580 ;;      Totals:         7       0       0       0       0
  3581 ;;Total ram usage:        7 bytes
  3582 ;; Hardware stack levels used: 1
  3583 ;; Hardware stack levels required when called: 1
  3584 ;; This function calls:
  3585 ;;		Nothing
  3586 ;; This function is called by:
  3587 ;;		_efgtoa
  3588 ;; This function uses a non-reentrant model
  3589 ;;
  3590                           
  3591     1EF9                     _memcpy:	
  3592                           ;psect for function _memcpy
  3593                           
  3594     1EF9                     l2694:	
  3595                           ;incstack = 0
  3596                           ; Regs used in _memcpy: [wreg-fsr0h+status,2+status,0]
  3597                           
  3598     1EF9  0873               	movf	memcpy@s1,w
  3599     1EFA  00F8               	movwf	memcpy@s
  3600     1EFB  0872               	movf	memcpy@d1,w
  3601     1EFC  00F7               	movwf	memcpy@d
  3602     1EFD  2F0B               	goto	l796
  3603     1EFE                     l2696:
  3604     1EFE  0878               	movf	memcpy@s,w
  3605     1EFF  0084               	movwf	4
  3606     1F00  1783               	bsf	3,7	;select IRP bank2
  3607     1F01  0800               	movf	0,w
  3608     1F02  00F6               	movwf	memcpy@tmp
  3609     1F03                     l2698:
  3610     1F03  3001               	movlw	1
  3611     1F04  07F8               	addwf	memcpy@s,f
  3612     1F05                     l2700:
  3613     1F05  0877               	movf	memcpy@d,w
  3614     1F06  0084               	movwf	4
  3615     1F07  0876               	movf	memcpy@tmp,w
  3616     1F08  0080               	movwf	0
  3617     1F09  3001               	movlw	1
  3618     1F0A  07F7               	addwf	memcpy@d,f
  3619     1F0B                     l796:
  3620     1F0B  3001               	movlw	1
  3621     1F0C  02F4               	subwf	memcpy@n,f
  3622     1F0D  3000               	movlw	0
  3623     1F0E  1C03               	skipc
  3624     1F0F  03F5               	decf	memcpy@n+1,f
  3625     1F10  02F5               	subwf	memcpy@n+1,f
  3626     1F11  0A74               	incf	memcpy@n,w
  3627     1F12  1D03               	skipz
  3628     1F13  2F18               	goto	u4141
  3629     1F14  0A75               	incf	memcpy@n+1,w
  3630     1F15  1D03               	btfss	3,2
  3631     1F16  2F18               	goto	u4141
  3632     1F17  2F19               	goto	u4140
  3633     1F18                     u4141:
  3634     1F18  2EFE               	goto	l2696
  3635     1F19                     u4140:
  3636     1F19                     l799:
  3637     1F19  0008               	return
  3638     1F1A                     __end_of_memcpy:
  3639                           
  3640                           	psect	text13
  3641     1ECB                     __ptext13:	
  3642 ;; *************** function _labs *****************
  3643 ;; Defined at:
  3644 ;;		line 1 in file "C:\Program Files\Microchip\xc8\v2.50\pic\sources\c99\common\labs.c"
  3645 ;; Parameters:    Size  Location     Type
  3646 ;;  a               4    2[COMMON] long 
  3647 ;; Auto vars:     Size  Location     Type
  3648 ;;		None
  3649 ;; Return value:  Size  Location     Type
  3650 ;;                  4    2[COMMON] long 
  3651 ;; Registers used:
  3652 ;;		wreg, status,2, status,0
  3653 ;; Tracked objects:
  3654 ;;		On entry : 0/0
  3655 ;;		On exit  : 0/0
  3656 ;;		Unchanged: 0/0
  3657 ;; Data sizes:     COMMON   BANK0   BANK1   BANK3   BANK2
  3658 ;;      Params:         4       0       0       0       0
  3659 ;;      Locals:         0       0       0       0       0
  3660 ;;      Temps:          0       0       0       0       0
  3661 ;;      Totals:         4       0       0       0       0
  3662 ;;Total ram usage:        4 bytes
  3663 ;; Hardware stack levels used: 1
  3664 ;; Hardware stack levels required when called: 1
  3665 ;; This function calls:
  3666 ;;		Nothing
  3667 ;; This function is called by:
  3668 ;;		_efgtoa
  3669 ;; This function uses a non-reentrant model
  3670 ;;
  3671                           
  3672     1ECB                     _labs:	
  3673                           ;psect for function _labs
  3674                           
  3675     1ECB                     l2656:	
  3676                           ;incstack = 0
  3677                           ; Regs used in _labs: [wreg+status,2+status,0]
  3678                           
  3679     1ECB  1BF5               	btfsc	labs@a+3,7
  3680     1ECC  2ECE               	goto	u4011
  3681     1ECD  2ECF               	goto	u4010
  3682     1ECE                     u4011:
  3683     1ECE  2ED0               	goto	l2660
  3684     1ECF                     u4010:
  3685     1ECF                     l2658:
  3686     1ECF  2EDF               	goto	l793
  3687     1ED0                     l2660:
  3688     1ED0  0972               	comf	labs@a,w
  3689     1ED1  00F2               	movwf	?_labs
  3690     1ED2  0973               	comf	labs@a+1,w
  3691     1ED3  00F3               	movwf	?_labs+1
  3692     1ED4  0974               	comf	labs@a+2,w
  3693     1ED5  00F4               	movwf	?_labs+2
  3694     1ED6  0975               	comf	labs@a+3,w
  3695     1ED7  00F5               	movwf	?_labs+3
  3696     1ED8  0AF2               	incf	?_labs,f
  3697     1ED9  1903               	skipnz
  3698     1EDA  0AF3               	incf	?_labs+1,f
  3699     1EDB  1903               	skipnz
  3700     1EDC  0AF4               	incf	?_labs+2,f
  3701     1EDD  1903               	skipnz
  3702     1EDE  0AF5               	incf	?_labs+3,f
  3703     1EDF                     l793:
  3704     1EDF  0008               	return
  3705     1EE0                     __end_of_labs:
  3706                           
  3707                           	psect	text14
  3708     08B6                     __ptext14:	
  3709 ;; *************** function _floorf *****************
  3710 ;; Defined at:
  3711 ;;		line 3 in file "C:\Program Files\Microchip\xc8\v2.50\pic\sources\c99\common\floorf.c"
  3712 ;; Parameters:    Size  Location     Type
  3713 ;;  x               4   58[BANK0 ] float 
  3714 ;; Auto vars:     Size  Location     Type
  3715 ;;  u               4   74[BANK0 ] struct .
  3716 ;;  m               4   68[BANK0 ] unsigned long 
  3717 ;;  e               2   72[BANK0 ] int 
  3718 ;; Return value:  Size  Location     Type
  3719 ;;                  4   58[BANK0 ] float 
  3720 ;; Registers used:
  3721 ;;		wreg, status,2, status,0, btemp+1
  3722 ;; Tracked objects:
  3723 ;;		On entry : 0/0
  3724 ;;		On exit  : 0/0
  3725 ;;		Unchanged: 0/0
  3726 ;; Data sizes:     COMMON   BANK0   BANK1   BANK3   BANK2
  3727 ;;      Params:         0       4       0       0       0
  3728 ;;      Locals:         0      10       0       0       0
  3729 ;;      Temps:          0       6       0       0       0
  3730 ;;      Totals:         0      20       0       0       0
  3731 ;;Total ram usage:       20 bytes
  3732 ;; Hardware stack levels used: 1
  3733 ;; Hardware stack levels required when called: 1
  3734 ;; This function calls:
  3735 ;;		Nothing
  3736 ;; This function is called by:
  3737 ;;		_efgtoa
  3738 ;; This function uses a non-reentrant model
  3739 ;;
  3740                           
  3741     08B6                     _floorf:	
  3742                           ;psect for function _floorf
  3743                           
  3744     08B6                     l2664:	
  3745                           ;incstack = 0
  3746                           ; Regs used in _floorf: [wreg+status,2+status,0+btemp+1]
  3747                           
  3748     08B6  1683               	bsf	3,5	;RP0=1, select bank3
  3749     08B7  1703               	bsf	3,6	;RP1=1, select bank3
  3750     08B8  0813               	movf	(floorf@F521+3)^(0+384),w
  3751     08B9  1283               	bcf	3,5	;RP0=0, select bank0
  3752     08BA  1303               	bcf	3,6	;RP1=0, select bank0
  3753     08BB  00ED               	movwf	floorf@u+3
  3754     08BC  1683               	bsf	3,5	;RP0=1, select bank3
  3755     08BD  1703               	bsf	3,6	;RP1=1, select bank3
  3756     08BE  0812               	movf	(floorf@F521+2)^(0+384),w
  3757     08BF  1283               	bcf	3,5	;RP0=0, select bank0
  3758     08C0  1303               	bcf	3,6	;RP1=0, select bank0
  3759     08C1  00EC               	movwf	floorf@u+2
  3760     08C2  1683               	bsf	3,5	;RP0=1, select bank3
  3761     08C3  1703               	bsf	3,6	;RP1=1, select bank3
  3762     08C4  0811               	movf	(floorf@F521+1)^(0+384),w
  3763     08C5  1283               	bcf	3,5	;RP0=0, select bank0
  3764     08C6  1303               	bcf	3,6	;RP1=0, select bank0
  3765     08C7  00EB               	movwf	floorf@u+1
  3766     08C8  1683               	bsf	3,5	;RP0=1, select bank3
  3767     08C9  1703               	bsf	3,6	;RP1=1, select bank3
  3768     08CA  0810               	movf	floorf@F521^(0+384),w
  3769     08CB  1283               	bcf	3,5	;RP0=0, select bank0
  3770     08CC  1303               	bcf	3,6	;RP1=0, select bank0
  3771     08CD  00EA               	movwf	floorf@u
  3772     08CE  085D               	movf	floorf@x+3,w
  3773     08CF  00ED               	movwf	floorf@u+3
  3774     08D0  085C               	movf	floorf@x+2,w
  3775     08D1  00EC               	movwf	floorf@u+2
  3776     08D2  085B               	movf	floorf@x+1,w
  3777     08D3  00EB               	movwf	floorf@u+1
  3778     08D4  085A               	movf	floorf@x,w
  3779     08D5  00EA               	movwf	floorf@u
  3780     08D6                     l2666:
  3781     08D6  086A               	movf	floorf@u,w
  3782     08D7  00DE               	movwf	??_floorf
  3783     08D8  086B               	movf	floorf@u+1,w
  3784     08D9  00DF               	movwf	??_floorf+1
  3785     08DA  086C               	movf	floorf@u+2,w
  3786     08DB  00E0               	movwf	??_floorf+2
  3787     08DC  086D               	movf	floorf@u+3,w
  3788     08DD  00E1               	movwf	??_floorf+3
  3789     08DE  3017               	movlw	23
  3790     08DF                     u4025:
  3791     08DF  1003               	clrc
  3792     08E0  0CE1               	rrf	??_floorf+3,f
  3793     08E1  0CE0               	rrf	??_floorf+2,f
  3794     08E2  0CDF               	rrf	??_floorf+1,f
  3795     08E3  0CDE               	rrf	??_floorf,f
  3796     08E4                     u4020:
  3797     08E4  3EFF               	addlw	-1
  3798     08E5  1D03               	skipz
  3799     08E6  28DF               	goto	u4025
  3800     08E7  30FF               	movlw	255
  3801     08E8  055E               	andwf	??_floorf,w
  3802     08E9  00E2               	movwf	??_floorf+4
  3803     08EA  3000               	movlw	0
  3804     08EB  055F               	andwf	??_floorf+1,w
  3805     08EC  00E3               	movwf	??_floorf+5
  3806     08ED  0862               	movf	??_floorf+4,w
  3807     08EE  3E81               	addlw	129
  3808     08EF  00E8               	movwf	floorf@e
  3809     08F0  0863               	movf	??_floorf+5,w
  3810     08F1  1803               	skipnc
  3811     08F2  3E01               	addlw	1
  3812     08F3  3EFF               	addlw	255
  3813     08F4  00E9               	movwf	floorf@e+1
  3814     08F5                     l2668:
  3815     08F5  0869               	movf	floorf@e+1,w
  3816     08F6  3A80               	xorlw	128
  3817     08F7  00FF               	movwf	btemp+1
  3818     08F8  3080               	movlw	128
  3819     08F9  027F               	subwf	btemp+1,w
  3820     08FA  1D03               	skipz
  3821     08FB  28FE               	goto	u4035
  3822     08FC  3017               	movlw	23
  3823     08FD  0268               	subwf	floorf@e,w
  3824     08FE                     u4035:
  3825     08FE  1C03               	skipc
  3826     08FF  2901               	goto	u4031
  3827     0900  2902               	goto	u4030
  3828     0901                     u4031:
  3829     0901  2903               	goto	l778
  3830     0902                     u4030:
  3831     0902                     l2670:
  3832     0902  29C4               	goto	l779
  3833     0903                     l778:
  3834     0903  1283               	bcf	3,5	;RP0=0, select bank0
  3835     0904  1303               	bcf	3,6	;RP1=0, select bank0
  3836     0905  1BE9               	btfsc	floorf@e+1,7
  3837     0906  2908               	goto	u4041
  3838     0907  2909               	goto	u4040
  3839     0908                     u4041:
  3840     0908  2979               	goto	l2684
  3841     0909                     u4040:
  3842     0909                     l2672:
  3843     0909  0A68               	incf	floorf@e,w
  3844     090A  00FF               	movwf	btemp+1
  3845     090B  30FF               	movlw	255
  3846     090C  00DE               	movwf	??_floorf
  3847     090D  30FF               	movlw	255
  3848     090E  00DF               	movwf	??_floorf+1
  3849     090F  307F               	movlw	127
  3850     0910  00E0               	movwf	??_floorf+2
  3851     0911  3000               	movlw	0
  3852     0912  00E1               	movwf	??_floorf+3
  3853     0913  2919               	goto	u4050
  3854     0914                     u4055:
  3855     0914  0D61               	rlf	??_floorf+3,w
  3856     0915  0CE1               	rrf	??_floorf+3,f
  3857     0916  0CE0               	rrf	??_floorf+2,f
  3858     0917  0CDF               	rrf	??_floorf+1,f
  3859     0918  0CDE               	rrf	??_floorf,f
  3860     0919                     u4050:
  3861     0919  0BFF               	decfsz	btemp+1,f
  3862     091A  2914               	goto	u4055
  3863     091B  0861               	movf	??_floorf+3,w
  3864     091C  00E7               	movwf	floorf@m+3
  3865     091D  0860               	movf	??_floorf+2,w
  3866     091E  00E6               	movwf	floorf@m+2
  3867     091F  085F               	movf	??_floorf+1,w
  3868     0920  00E5               	movwf	floorf@m+1
  3869     0921  085E               	movf	??_floorf,w
  3870     0922  00E4               	movwf	floorf@m
  3871     0923                     l2674:
  3872     0923  0864               	movf	floorf@m,w
  3873     0924  056A               	andwf	floorf@u,w
  3874     0925  00DE               	movwf	??_floorf
  3875     0926  0865               	movf	floorf@m+1,w
  3876     0927  056B               	andwf	floorf@u+1,w
  3877     0928  00DF               	movwf	??_floorf+1
  3878     0929  0866               	movf	floorf@m+2,w
  3879     092A  056C               	andwf	floorf@u+2,w
  3880     092B  00E0               	movwf	??_floorf+2
  3881     092C  0867               	movf	floorf@m+3,w
  3882     092D  056D               	andwf	floorf@u+3,w
  3883     092E  00E1               	movwf	??_floorf+3
  3884     092F  0861               	movf	??_floorf+3,w
  3885     0930  0460               	iorwf	??_floorf+2,w
  3886     0931  045F               	iorwf	??_floorf+1,w
  3887     0932  045E               	iorwf	??_floorf,w
  3888     0933  1D03               	skipz
  3889     0934  2936               	goto	u4061
  3890     0935  2937               	goto	u4060
  3891     0936                     u4061:
  3892     0936  2938               	goto	l2678
  3893     0937                     u4060:
  3894     0937  2902               	goto	l2670
  3895     0938                     l2678:
  3896     0938  086A               	movf	floorf@u,w
  3897     0939  00DE               	movwf	??_floorf
  3898     093A  086B               	movf	floorf@u+1,w
  3899     093B  00DF               	movwf	??_floorf+1
  3900     093C  086C               	movf	floorf@u+2,w
  3901     093D  00E0               	movwf	??_floorf+2
  3902     093E  086D               	movf	floorf@u+3,w
  3903     093F  00E1               	movwf	??_floorf+3
  3904     0940  301F               	movlw	31
  3905     0941                     u4075:
  3906     0941  1003               	clrc
  3907     0942  0CE1               	rrf	??_floorf+3,f
  3908     0943  0CE0               	rrf	??_floorf+2,f
  3909     0944  0CDF               	rrf	??_floorf+1,f
  3910     0945  0CDE               	rrf	??_floorf,f
  3911     0946                     u4070:
  3912     0946  3EFF               	addlw	-1
  3913     0947  1D03               	skipz
  3914     0948  2941               	goto	u4075
  3915     0949  0861               	movf	??_floorf+3,w
  3916     094A  0460               	iorwf	??_floorf+2,w
  3917     094B  045F               	iorwf	??_floorf+1,w
  3918     094C  045E               	iorwf	??_floorf,w
  3919     094D  1903               	skipnz
  3920     094E  2950               	goto	u4081
  3921     094F  2951               	goto	u4080
  3922     0950                     u4081:
  3923     0950  2968               	goto	l2682
  3924     0951                     u4080:
  3925     0951                     l2680:
  3926     0951  0864               	movf	floorf@m,w
  3927     0952  07EA               	addwf	floorf@u,f
  3928     0953  0865               	movf	floorf@m+1,w
  3929     0954  1103               	clrz
  3930     0955  1803               	skipnc
  3931     0956  3E01               	addlw	1
  3932     0957  1903               	skipnz
  3933     0958  295A               	goto	u4091
  3934     0959  07EB               	addwf	floorf@u+1,f
  3935     095A                     u4091:
  3936     095A  0866               	movf	floorf@m+2,w
  3937     095B  1103               	clrz
  3938     095C  1803               	skipnc
  3939     095D  3E01               	addlw	1
  3940     095E  1903               	skipnz
  3941     095F  2961               	goto	u4092
  3942     0960  07EC               	addwf	floorf@u+2,f
  3943     0961                     u4092:
  3944     0961  0867               	movf	floorf@m+3,w
  3945     0962  1103               	clrz
  3946     0963  1803               	skipnc
  3947     0964  3E01               	addlw	1
  3948     0965  1903               	skipnz
  3949     0966  2968               	goto	u4093
  3950     0967  07ED               	addwf	floorf@u+3,f
  3951     0968                     u4093:
  3952     0968                     l2682:
  3953     0968  0964               	comf	floorf@m,w
  3954     0969  00DE               	movwf	??_floorf
  3955     096A  0965               	comf	floorf@m+1,w
  3956     096B  00DF               	movwf	??_floorf+1
  3957     096C  0966               	comf	floorf@m+2,w
  3958     096D  00E0               	movwf	??_floorf+2
  3959     096E  0967               	comf	floorf@m+3,w
  3960     096F  00E1               	movwf	??_floorf+3
  3961     0970  085E               	movf	??_floorf,w
  3962     0971  05EA               	andwf	floorf@u,f
  3963     0972  085F               	movf	??_floorf+1,w
  3964     0973  05EB               	andwf	floorf@u+1,f
  3965     0974  0860               	movf	??_floorf+2,w
  3966     0975  05EC               	andwf	floorf@u+2,f
  3967     0976  0861               	movf	??_floorf+3,w
  3968     0977  05ED               	andwf	floorf@u+3,f
  3969     0978  29BC               	goto	l783
  3970     0979                     l2684:
  3971     0979  086A               	movf	floorf@u,w
  3972     097A  00DE               	movwf	??_floorf
  3973     097B  086B               	movf	floorf@u+1,w
  3974     097C  00DF               	movwf	??_floorf+1
  3975     097D  086C               	movf	floorf@u+2,w
  3976     097E  00E0               	movwf	??_floorf+2
  3977     097F  086D               	movf	floorf@u+3,w
  3978     0980  00E1               	movwf	??_floorf+3
  3979     0981  301F               	movlw	31
  3980     0982                     u4105:
  3981     0982  1003               	clrc
  3982     0983  0CE1               	rrf	??_floorf+3,f
  3983     0984  0CE0               	rrf	??_floorf+2,f
  3984     0985  0CDF               	rrf	??_floorf+1,f
  3985     0986  0CDE               	rrf	??_floorf,f
  3986     0987                     u4100:
  3987     0987  3EFF               	addlw	-1
  3988     0988  1D03               	skipz
  3989     0989  2982               	goto	u4105
  3990     098A  0861               	movf	??_floorf+3,w
  3991     098B  0460               	iorwf	??_floorf+2,w
  3992     098C  045F               	iorwf	??_floorf+1,w
  3993     098D  045E               	iorwf	??_floorf,w
  3994     098E  1D03               	skipz
  3995     098F  2991               	goto	u4111
  3996     0990  2992               	goto	u4110
  3997     0991                     u4111:
  3998     0991  299B               	goto	l2688
  3999     0992                     u4110:
  4000     0992                     l2686:
  4001     0992  3000               	movlw	0
  4002     0993  00ED               	movwf	floorf@u+3
  4003     0994  3000               	movlw	0
  4004     0995  00EC               	movwf	floorf@u+2
  4005     0996  3000               	movlw	0
  4006     0997  00EB               	movwf	floorf@u+1
  4007     0998  3000               	movlw	0
  4008     0999  00EA               	movwf	floorf@u
  4009     099A  29BC               	goto	l783
  4010     099B                     l2688:
  4011     099B  086A               	movf	floorf@u,w
  4012     099C  00DE               	movwf	??_floorf
  4013     099D  086B               	movf	floorf@u+1,w
  4014     099E  00DF               	movwf	??_floorf+1
  4015     099F  086C               	movf	floorf@u+2,w
  4016     09A0  00E0               	movwf	??_floorf+2
  4017     09A1  086D               	movf	floorf@u+3,w
  4018     09A2  00E1               	movwf	??_floorf+3
  4019     09A3  3001               	movlw	1
  4020     09A4                     u4125:
  4021     09A4  1003               	clrc
  4022     09A5  0DDE               	rlf	??_floorf,f
  4023     09A6  0DDF               	rlf	??_floorf+1,f
  4024     09A7  0DE0               	rlf	??_floorf+2,f
  4025     09A8  0DE1               	rlf	??_floorf+3,f
  4026     09A9                     u4120:
  4027     09A9  3EFF               	addlw	-1
  4028     09AA  1D03               	skipz
  4029     09AB  29A4               	goto	u4125
  4030     09AC  0861               	movf	??_floorf+3,w
  4031     09AD  0460               	iorwf	??_floorf+2,w
  4032     09AE  045F               	iorwf	??_floorf+1,w
  4033     09AF  045E               	iorwf	??_floorf,w
  4034     09B0  1903               	skipnz
  4035     09B1  29B3               	goto	u4131
  4036     09B2  29B4               	goto	u4130
  4037     09B3                     u4131:
  4038     09B3  29BC               	goto	l783
  4039     09B4                     u4130:
  4040     09B4                     l2690:
  4041     09B4  30BF               	movlw	191
  4042     09B5  00ED               	movwf	floorf@u+3
  4043     09B6  3080               	movlw	128
  4044     09B7  00EC               	movwf	floorf@u+2
  4045     09B8  3000               	movlw	0
  4046     09B9  00EB               	movwf	floorf@u+1
  4047     09BA  3000               	movlw	0
  4048     09BB  00EA               	movwf	floorf@u
  4049     09BC                     l783:
  4050     09BC  086D               	movf	floorf@u+3,w
  4051     09BD  00DD               	movwf	?_floorf+3
  4052     09BE  086C               	movf	floorf@u+2,w
  4053     09BF  00DC               	movwf	?_floorf+2
  4054     09C0  086B               	movf	floorf@u+1,w
  4055     09C1  00DB               	movwf	?_floorf+1
  4056     09C2  086A               	movf	floorf@u,w
  4057     09C3  00DA               	movwf	?_floorf
  4058     09C4                     l779:
  4059     09C4  0008               	return
  4060     09C5                     __end_of_floorf:
  4061                           
  4062                           	psect	text15
  4063     116A                     __ptext15:	
  4064 ;; *************** function ___fpclassifyf *****************
  4065 ;; Defined at:
  4066 ;;		line 4 in file "C:\Program Files\Microchip\xc8\v2.50\pic\sources\c99\common\__fpclassifyf.c"
  4067 ;; Parameters:    Size  Location     Type
  4068 ;;  x               4    2[COMMON] float 
  4069 ;; Auto vars:     Size  Location     Type
  4070 ;;  u               4    8[BANK0 ] struct .
  4071 ;;  e               2    6[BANK0 ] int 
  4072 ;; Return value:  Size  Location     Type
  4073 ;;                  2    2[COMMON] int 
  4074 ;; Registers used:
  4075 ;;		wreg, status,2, status,0
  4076 ;; Tracked objects:
  4077 ;;		On entry : 0/0
  4078 ;;		On exit  : 0/0
  4079 ;;		Unchanged: 0/0
  4080 ;; Data sizes:     COMMON   BANK0   BANK1   BANK3   BANK2
  4081 ;;      Params:         4       0       0       0       0
  4082 ;;      Locals:         0       6       0       0       0
  4083 ;;      Temps:          0       6       0       0       0
  4084 ;;      Totals:         4      12       0       0       0
  4085 ;;Total ram usage:       16 bytes
  4086 ;; Hardware stack levels used: 1
  4087 ;; Hardware stack levels required when called: 1
  4088 ;; This function calls:
  4089 ;;		Nothing
  4090 ;; This function is called by:
  4091 ;;		_efgtoa
  4092 ;; This function uses a non-reentrant model
  4093 ;;
  4094                           
  4095     116A                     ___fpclassifyf:	
  4096                           ;psect for function ___fpclassifyf
  4097                           
  4098     116A                     l3382:	
  4099                           ;incstack = 0
  4100                           ; Regs used in ___fpclassifyf: [wreg+status,2+status,0]
  4101                           
  4102     116A  1683               	bsf	3,5	;RP0=1, select bank3
  4103     116B  1703               	bsf	3,6	;RP1=1, select bank3
  4104     116C  0817               	movf	(___fpclassifyf@F465+3)^(0+384),w
  4105     116D  1283               	bcf	3,5	;RP0=0, select bank0
  4106     116E  1303               	bcf	3,6	;RP1=0, select bank0
  4107     116F  00AB               	movwf	___fpclassifyf@u+3
  4108     1170  1683               	bsf	3,5	;RP0=1, select bank3
  4109     1171  1703               	bsf	3,6	;RP1=1, select bank3
  4110     1172  0816               	movf	(___fpclassifyf@F465+2)^(0+384),w
  4111     1173  1283               	bcf	3,5	;RP0=0, select bank0
  4112     1174  1303               	bcf	3,6	;RP1=0, select bank0
  4113     1175  00AA               	movwf	___fpclassifyf@u+2
  4114     1176  1683               	bsf	3,5	;RP0=1, select bank3
  4115     1177  1703               	bsf	3,6	;RP1=1, select bank3
  4116     1178  0815               	movf	(___fpclassifyf@F465+1)^(0+384),w
  4117     1179  1283               	bcf	3,5	;RP0=0, select bank0
  4118     117A  1303               	bcf	3,6	;RP1=0, select bank0
  4119     117B  00A9               	movwf	___fpclassifyf@u+1
  4120     117C  1683               	bsf	3,5	;RP0=1, select bank3
  4121     117D  1703               	bsf	3,6	;RP1=1, select bank3
  4122     117E  0814               	movf	___fpclassifyf@F465^(0+384),w
  4123     117F  1283               	bcf	3,5	;RP0=0, select bank0
  4124     1180  1303               	bcf	3,6	;RP1=0, select bank0
  4125     1181  00A8               	movwf	___fpclassifyf@u
  4126     1182  0875               	movf	___fpclassifyf@x+3,w
  4127     1183  00AB               	movwf	___fpclassifyf@u+3
  4128     1184  0874               	movf	___fpclassifyf@x+2,w
  4129     1185  00AA               	movwf	___fpclassifyf@u+2
  4130     1186  0873               	movf	___fpclassifyf@x+1,w
  4131     1187  00A9               	movwf	___fpclassifyf@u+1
  4132     1188  0872               	movf	___fpclassifyf@x,w
  4133     1189  00A8               	movwf	___fpclassifyf@u
  4134     118A                     l3384:
  4135     118A  0828               	movf	___fpclassifyf@u,w
  4136     118B  00A0               	movwf	??___fpclassifyf
  4137     118C  0829               	movf	___fpclassifyf@u+1,w
  4138     118D  00A1               	movwf	??___fpclassifyf+1
  4139     118E  082A               	movf	___fpclassifyf@u+2,w
  4140     118F  00A2               	movwf	??___fpclassifyf+2
  4141     1190  082B               	movf	___fpclassifyf@u+3,w
  4142     1191  00A3               	movwf	??___fpclassifyf+3
  4143     1192  3017               	movlw	23
  4144     1193                     u5405:
  4145     1193  1003               	clrc
  4146     1194  0CA3               	rrf	??___fpclassifyf+3,f
  4147     1195  0CA2               	rrf	??___fpclassifyf+2,f
  4148     1196  0CA1               	rrf	??___fpclassifyf+1,f
  4149     1197  0CA0               	rrf	??___fpclassifyf,f
  4150     1198                     u5400:
  4151     1198  3EFF               	addlw	-1
  4152     1199  1D03               	skipz
  4153     119A  2993               	goto	u5405
  4154     119B  30FF               	movlw	255
  4155     119C  0520               	andwf	??___fpclassifyf,w
  4156     119D  00A6               	movwf	___fpclassifyf@e
  4157     119E  3000               	movlw	0
  4158     119F  0521               	andwf	??___fpclassifyf+1,w
  4159     11A0  00A7               	movwf	___fpclassifyf@e+1
  4160     11A1                     l3386:
  4161     11A1  0826               	movf	___fpclassifyf@e,w
  4162     11A2  0427               	iorwf	___fpclassifyf@e+1,w
  4163     11A3  1D03               	btfss	3,2
  4164     11A4  29A6               	goto	u5411
  4165     11A5  29A7               	goto	u5410
  4166     11A6                     u5411:
  4167     11A6  29CA               	goto	l3396
  4168     11A7                     u5410:
  4169     11A7                     l3388:
  4170     11A7  0828               	movf	___fpclassifyf@u,w
  4171     11A8  00A0               	movwf	??___fpclassifyf
  4172     11A9  0829               	movf	___fpclassifyf@u+1,w
  4173     11AA  00A1               	movwf	??___fpclassifyf+1
  4174     11AB  082A               	movf	___fpclassifyf@u+2,w
  4175     11AC  00A2               	movwf	??___fpclassifyf+2
  4176     11AD  082B               	movf	___fpclassifyf@u+3,w
  4177     11AE  00A3               	movwf	??___fpclassifyf+3
  4178     11AF  3001               	movlw	1
  4179     11B0                     u5425:
  4180     11B0  1003               	clrc
  4181     11B1  0DA0               	rlf	??___fpclassifyf,f
  4182     11B2  0DA1               	rlf	??___fpclassifyf+1,f
  4183     11B3  0DA2               	rlf	??___fpclassifyf+2,f
  4184     11B4  0DA3               	rlf	??___fpclassifyf+3,f
  4185     11B5                     u5420:
  4186     11B5  3EFF               	addlw	-1
  4187     11B6  1D03               	skipz
  4188     11B7  29B0               	goto	u5425
  4189     11B8  0823               	movf	??___fpclassifyf+3,w
  4190     11B9  0422               	iorwf	??___fpclassifyf+2,w
  4191     11BA  0421               	iorwf	??___fpclassifyf+1,w
  4192     11BB  0420               	iorwf	??___fpclassifyf,w
  4193     11BC  1D03               	skipz
  4194     11BD  29BF               	goto	u5431
  4195     11BE  29C0               	goto	u5430
  4196     11BF                     u5431:
  4197     11BF  29C5               	goto	l3392
  4198     11C0                     u5430:
  4199     11C0                     l3390:
  4200     11C0  3002               	movlw	2
  4201     11C1  00F2               	movwf	?___fpclassifyf
  4202     11C2  3000               	movlw	0
  4203     11C3  00F3               	movwf	?___fpclassifyf+1
  4204     11C4  29F6               	goto	l772
  4205     11C5                     l3392:
  4206     11C5  3003               	movlw	3
  4207     11C6  00F2               	movwf	?___fpclassifyf
  4208     11C7  3000               	movlw	0
  4209     11C8  00F3               	movwf	?___fpclassifyf+1
  4210     11C9  29F6               	goto	l772
  4211     11CA                     l3396:
  4212     11CA  0A26               	incf	___fpclassifyf@e,w
  4213     11CB  0427               	iorwf	___fpclassifyf@e+1,w
  4214     11CC  1D03               	btfss	3,2
  4215     11CD  29CF               	goto	u5441
  4216     11CE  29D0               	goto	u5440
  4217     11CF                     u5441:
  4218     11CF  29F2               	goto	l3402
  4219     11D0                     u5440:
  4220     11D0                     l3398:
  4221     11D0  0828               	movf	___fpclassifyf@u,w
  4222     11D1  00A0               	movwf	??___fpclassifyf
  4223     11D2  0829               	movf	___fpclassifyf@u+1,w
  4224     11D3  00A1               	movwf	??___fpclassifyf+1
  4225     11D4  082A               	movf	___fpclassifyf@u+2,w
  4226     11D5  00A2               	movwf	??___fpclassifyf+2
  4227     11D6  082B               	movf	___fpclassifyf@u+3,w
  4228     11D7  00A3               	movwf	??___fpclassifyf+3
  4229     11D8  3009               	movlw	9
  4230     11D9                     u5455:
  4231     11D9  1003               	clrc
  4232     11DA  0DA0               	rlf	??___fpclassifyf,f
  4233     11DB  0DA1               	rlf	??___fpclassifyf+1,f
  4234     11DC  0DA2               	rlf	??___fpclassifyf+2,f
  4235     11DD  0DA3               	rlf	??___fpclassifyf+3,f
  4236     11DE                     u5450:
  4237     11DE  3EFF               	addlw	-1
  4238     11DF  1D03               	skipz
  4239     11E0  29D9               	goto	u5455
  4240     11E1  0823               	movf	??___fpclassifyf+3,w
  4241     11E2  0422               	iorwf	??___fpclassifyf+2,w
  4242     11E3  0421               	iorwf	??___fpclassifyf+1,w
  4243     11E4  0420               	iorwf	??___fpclassifyf,w
  4244     11E5  1903               	skipnz
  4245     11E6  29E8               	goto	u5461
  4246     11E7  29EA               	goto	u5460
  4247     11E8                     u5461:
  4248     11E8  3001               	movlw	1
  4249     11E9  29EB               	goto	u5470
  4250     11EA                     u5460:
  4251     11EA  3000               	movlw	0
  4252     11EB                     u5470:
  4253     11EB  00A4               	movwf	??___fpclassifyf+4
  4254     11EC  01A5               	clrf	??___fpclassifyf+5
  4255     11ED  0824               	movf	??___fpclassifyf+4,w
  4256     11EE  00F2               	movwf	?___fpclassifyf
  4257     11EF  0825               	movf	??___fpclassifyf+5,w
  4258     11F0  00F3               	movwf	?___fpclassifyf+1
  4259     11F1  29F6               	goto	l772
  4260     11F2                     l3402:
  4261     11F2  3004               	movlw	4
  4262     11F3  00F2               	movwf	?___fpclassifyf
  4263     11F4  3000               	movlw	0
  4264     11F5  00F3               	movwf	?___fpclassifyf+1
  4265     11F6                     l772:
  4266     11F6  0008               	return
  4267     11F7                     __end_of___fpclassifyf:
  4268                           
  4269                           	psect	text16
  4270     10F4                     __ptext16:	
  4271 ;; *************** function ___fltol *****************
  4272 ;; Defined at:
  4273 ;;		line 43 in file "C:\Program Files\Microchip\xc8\v2.50\pic\sources\c99\common\fltol.c"
  4274 ;; Parameters:    Size  Location     Type
  4275 ;;  f1              4    2[COMMON] int 
  4276 ;; Auto vars:     Size  Location     Type
  4277 ;;  exp1            1    1[BANK0 ] unsigned char 
  4278 ;;  sign1           1    0[BANK0 ] unsigned char 
  4279 ;; Return value:  Size  Location     Type
  4280 ;;                  4    2[COMMON] long 
  4281 ;; Registers used:
  4282 ;;		wreg, status,2, status,0
  4283 ;; Tracked objects:
  4284 ;;		On entry : 0/0
  4285 ;;		On exit  : 0/0
  4286 ;;		Unchanged: 0/0
  4287 ;; Data sizes:     COMMON   BANK0   BANK1   BANK3   BANK2
  4288 ;;      Params:         4       0       0       0       0
  4289 ;;      Locals:         0       2       0       0       0
  4290 ;;      Temps:          4       0       0       0       0
  4291 ;;      Totals:         8       2       0       0       0
  4292 ;;Total ram usage:       10 bytes
  4293 ;; Hardware stack levels used: 1
  4294 ;; Hardware stack levels required when called: 1
  4295 ;; This function calls:
  4296 ;;		Nothing
  4297 ;; This function is called by:
  4298 ;;		_efgtoa
  4299 ;; This function uses a non-reentrant model
  4300 ;;
  4301                           
  4302     10F4                     ___fltol:	
  4303                           ;psect for function ___fltol
  4304                           
  4305     10F4                     l3192:	
  4306                           ;incstack = 0
  4307                           ; Regs used in ___fltol: [wreg+status,2+status,0]
  4308                           
  4309     10F4  1003               	clrc
  4310     10F5  0D74               	rlf	___fltol@f1+2,w
  4311     10F6  0D75               	rlf	___fltol@f1+3,w
  4312     10F7  1283               	bcf	3,5	;RP0=0, select bank0
  4313     10F8  1303               	bcf	3,6	;RP1=0, select bank0
  4314     10F9  00A1               	movwf	___fltol@exp1
  4315     10FA  0821               	movf	___fltol@exp1,w
  4316     10FB  1D03               	btfss	3,2
  4317     10FC  28FE               	goto	u4911
  4318     10FD  28FF               	goto	u4910
  4319     10FE                     u4911:
  4320     10FE  2908               	goto	l3198
  4321     10FF                     u4910:
  4322     10FF                     l3194:
  4323     10FF  3000               	movlw	0
  4324     1100  00F5               	movwf	?___fltol+3
  4325     1101  3000               	movlw	0
  4326     1102  00F4               	movwf	?___fltol+2
  4327     1103  3000               	movlw	0
  4328     1104  00F3               	movwf	?___fltol+1
  4329     1105  3000               	movlw	0
  4330     1106  00F2               	movwf	?___fltol
  4331     1107  2969               	goto	l375
  4332     1108                     l3198:
  4333     1108  0872               	movf	___fltol@f1,w
  4334     1109  00F6               	movwf	??___fltol
  4335     110A  0873               	movf	___fltol@f1+1,w
  4336     110B  00F7               	movwf	??___fltol+1
  4337     110C  0874               	movf	___fltol@f1+2,w
  4338     110D  00F8               	movwf	??___fltol+2
  4339     110E  0875               	movf	___fltol@f1+3,w
  4340     110F  00F9               	movwf	??___fltol+3
  4341     1110  301F               	movlw	31
  4342     1111                     u4925:
  4343     1111  1003               	clrc
  4344     1112  0CF9               	rrf	??___fltol+3,f
  4345     1113  0CF8               	rrf	??___fltol+2,f
  4346     1114  0CF7               	rrf	??___fltol+1,f
  4347     1115  0CF6               	rrf	??___fltol,f
  4348     1116                     u4920:
  4349     1116  3EFF               	addlw	-1
  4350     1117  1D03               	skipz
  4351     1118  2911               	goto	u4925
  4352     1119  0876               	movf	??___fltol,w
  4353     111A  00A0               	movwf	___fltol@sign1
  4354     111B                     l3200:
  4355     111B  17F4               	bsf	___fltol@f1+2,7
  4356     111C                     l3202:
  4357     111C  30FF               	movlw	255
  4358     111D  05F2               	andwf	___fltol@f1,f
  4359     111E  30FF               	movlw	255
  4360     111F  05F3               	andwf	___fltol@f1+1,f
  4361     1120  30FF               	movlw	255
  4362     1121  05F4               	andwf	___fltol@f1+2,f
  4363     1122  3000               	movlw	0
  4364     1123  05F5               	andwf	___fltol@f1+3,f
  4365     1124                     l3204:
  4366     1124  3096               	movlw	150
  4367     1125  02A1               	subwf	___fltol@exp1,f
  4368     1126                     l3206:
  4369     1126  1FA1               	btfss	___fltol@exp1,7
  4370     1127  2929               	goto	u4931
  4371     1128  292A               	goto	u4930
  4372     1129                     u4931:
  4373     1129  2942               	goto	l3216
  4374     112A                     u4930:
  4375     112A                     l3208:
  4376     112A  0821               	movf	___fltol@exp1,w
  4377     112B  3A80               	xorlw	128
  4378     112C  3E97               	addlw	151
  4379     112D  1803               	skipnc
  4380     112E  2930               	goto	u4941
  4381     112F  2931               	goto	u4940
  4382     1130                     u4941:
  4383     1130  2932               	goto	l3214
  4384     1131                     u4940:
  4385     1131  28FF               	goto	l3194
  4386     1132                     l3214:
  4387     1132  3001               	movlw	1
  4388     1133                     u4955:
  4389     1133  1003               	clrc
  4390     1134  0CF5               	rrf	___fltol@f1+3,f
  4391     1135  0CF4               	rrf	___fltol@f1+2,f
  4392     1136  0CF3               	rrf	___fltol@f1+1,f
  4393     1137  0CF2               	rrf	___fltol@f1,f
  4394     1138  3EFF               	addlw	-1
  4395     1139  1D03               	skipz
  4396     113A  2933               	goto	u4955
  4397     113B  3001               	movlw	1
  4398     113C  07A1               	addwf	___fltol@exp1,f
  4399     113D  1D03               	btfss	3,2
  4400     113E  2940               	goto	u4961
  4401     113F  2941               	goto	u4960
  4402     1140                     u4961:
  4403     1140  2932               	goto	l3214
  4404     1141                     u4960:
  4405     1141  2959               	goto	l3224
  4406     1142                     l3216:
  4407     1142  3020               	movlw	32
  4408     1143  0221               	subwf	___fltol@exp1,w
  4409     1144  1C03               	skipc
  4410     1145  2947               	goto	u4971
  4411     1146  2948               	goto	u4970
  4412     1147                     u4971:
  4413     1147  2954               	goto	l382
  4414     1148                     u4970:
  4415     1148  28FF               	goto	l3194
  4416     1149                     l3222:
  4417     1149  3001               	movlw	1
  4418     114A  00F6               	movwf	??___fltol
  4419     114B                     u4985:
  4420     114B  1003               	clrc
  4421     114C  0DF2               	rlf	___fltol@f1,f
  4422     114D  0DF3               	rlf	___fltol@f1+1,f
  4423     114E  0DF4               	rlf	___fltol@f1+2,f
  4424     114F  0DF5               	rlf	___fltol@f1+3,f
  4425     1150  0BF6               	decfsz	??___fltol,f
  4426     1151  294B               	goto	u4985
  4427     1152  3001               	movlw	1
  4428     1153  02A1               	subwf	___fltol@exp1,f
  4429     1154                     l382:
  4430     1154  0821               	movf	___fltol@exp1,w
  4431     1155  1D03               	btfss	3,2
  4432     1156  2958               	goto	u4991
  4433     1157  2959               	goto	u4990
  4434     1158                     u4991:
  4435     1158  2949               	goto	l3222
  4436     1159                     u4990:
  4437     1159                     l3224:
  4438     1159  0820               	movf	___fltol@sign1,w
  4439     115A  1903               	btfsc	3,2
  4440     115B  295D               	goto	u5001
  4441     115C  295E               	goto	u5000
  4442     115D                     u5001:
  4443     115D  2969               	goto	l385
  4444     115E                     u5000:
  4445     115E                     l3226:
  4446     115E  09F2               	comf	___fltol@f1,f
  4447     115F  09F3               	comf	___fltol@f1+1,f
  4448     1160  09F4               	comf	___fltol@f1+2,f
  4449     1161  09F5               	comf	___fltol@f1+3,f
  4450     1162  0AF2               	incf	___fltol@f1,f
  4451     1163  1903               	skipnz
  4452     1164  0AF3               	incf	___fltol@f1+1,f
  4453     1165  1903               	skipnz
  4454     1166  0AF4               	incf	___fltol@f1+2,f
  4455     1167  1903               	skipnz
  4456     1168  0AF5               	incf	___fltol@f1+3,f
  4457     1169                     l385:
  4458     1169                     l375:
  4459     1169  0008               	return
  4460     116A                     __end_of___fltol:
  4461                           
  4462                           	psect	text17
  4463     1F3D                     __ptext17:	
  4464 ;; *************** function ___flsub *****************
  4465 ;; Defined at:
  4466 ;;		line 242 in file "C:\Program Files\Microchip\xc8\v2.50\pic\sources\c99\common\sprcadd.c"
  4467 ;; Parameters:    Size  Location     Type
  4468 ;;  a               4   32[BANK0 ] long 
  4469 ;;  b               4   36[BANK0 ] long 
  4470 ;; Auto vars:     Size  Location     Type
  4471 ;;		None
  4472 ;; Return value:  Size  Location     Type
  4473 ;;                  4   32[BANK0 ] long 
  4474 ;; Registers used:
  4475 ;;		wreg, status,2, status,0, btemp+1, pclath, cstack
  4476 ;; Tracked objects:
  4477 ;;		On entry : 0/0
  4478 ;;		On exit  : 0/0
  4479 ;;		Unchanged: 0/0
  4480 ;; Data sizes:     COMMON   BANK0   BANK1   BANK3   BANK2
  4481 ;;      Params:         0       8       0       0       0
  4482 ;;      Locals:         0       0       0       0       0
  4483 ;;      Temps:          0       0       0       0       0
  4484 ;;      Totals:         0       8       0       0       0
  4485 ;;Total ram usage:        8 bytes
  4486 ;; Hardware stack levels used: 1
  4487 ;; Hardware stack levels required when called: 2
  4488 ;; This function calls:
  4489 ;;		___fladd
  4490 ;; This function is called by:
  4491 ;;		_efgtoa
  4492 ;; This function uses a non-reentrant model
  4493 ;;
  4494                           
  4495     1F3D                     ___flsub:	
  4496                           ;psect for function ___flsub
  4497                           
  4498     1F3D                     l2324:	
  4499                           ;incstack = 0
  4500                           ; Regs used in ___flsub: [wreg+status,2+status,0+btemp+1+pclath+cstack]
  4501                           
  4502     1F3D  3080               	movlw	128
  4503     1F3E  1283               	bcf	3,5	;RP0=0, select bank0
  4504     1F3F  1303               	bcf	3,6	;RP1=0, select bank0
  4505     1F40  06C3               	xorwf	___flsub@a+3,f
  4506     1F41                     l2326:
  4507     1F41  0847               	movf	___flsub@b+3,w
  4508     1F42  00F5               	movwf	___fladd@b+3
  4509     1F43  0846               	movf	___flsub@b+2,w
  4510     1F44  00F4               	movwf	___fladd@b+2
  4511     1F45  0845               	movf	___flsub@b+1,w
  4512     1F46  00F3               	movwf	___fladd@b+1
  4513     1F47  0844               	movf	___flsub@b,w
  4514     1F48  00F2               	movwf	___fladd@b
  4515     1F49  0843               	movf	___flsub@a+3,w
  4516     1F4A  00F9               	movwf	___fladd@a+3
  4517     1F4B  0842               	movf	___flsub@a+2,w
  4518     1F4C  00F8               	movwf	___fladd@a+2
  4519     1F4D  0841               	movf	___flsub@a+1,w
  4520     1F4E  00F7               	movwf	___fladd@a+1
  4521     1F4F  0840               	movf	___flsub@a,w
  4522     1F50  00F6               	movwf	___fladd@a
  4523     1F51  120A  118A  254E  160A  158A  	fcall	___fladd
  4524     1F56  0875               	movf	?___fladd+3,w
  4525     1F57  1283               	bcf	3,5	;RP0=0, select bank0
  4526     1F58  1303               	bcf	3,6	;RP1=0, select bank0
  4527     1F59  00C3               	movwf	?___flsub+3
  4528     1F5A  0874               	movf	?___fladd+2,w
  4529     1F5B  00C2               	movwf	?___flsub+2
  4530     1F5C  0873               	movf	?___fladd+1,w
  4531     1F5D  00C1               	movwf	?___flsub+1
  4532     1F5E  0872               	movf	?___fladd,w
  4533     1F5F  00C0               	movwf	?___flsub
  4534     1F60                     l528:
  4535     1F60  0008               	return
  4536     1F61                     __end_of___flsub:
  4537                           
  4538                           	psect	text18
  4539     054E                     __ptext18:	
  4540 ;; *************** function ___fladd *****************
  4541 ;; Defined at:
  4542 ;;		line 10 in file "C:\Program Files\Microchip\xc8\v2.50\pic\sources\c99\common\sprcadd.c"
  4543 ;; Parameters:    Size  Location     Type
  4544 ;;  b               4    2[COMMON] long 
  4545 ;;  a               4    6[COMMON] long 
  4546 ;; Auto vars:     Size  Location     Type
  4547 ;;  grs             1   11[BANK0 ] unsigned char 
  4548 ;;  bexp            1   10[BANK0 ] unsigned char 
  4549 ;;  aexp            1    9[BANK0 ] unsigned char 
  4550 ;;  signs           1    8[BANK0 ] unsigned char 
  4551 ;; Return value:  Size  Location     Type
  4552 ;;                  4    2[COMMON] unsigned char 
  4553 ;; Registers used:
  4554 ;;		wreg, status,2, status,0, btemp+1
  4555 ;; Tracked objects:
  4556 ;;		On entry : 0/0
  4557 ;;		On exit  : 0/0
  4558 ;;		Unchanged: 0/0
  4559 ;; Data sizes:     COMMON   BANK0   BANK1   BANK3   BANK2
  4560 ;;      Params:         8       0       0       0       0
  4561 ;;      Locals:         0       4       0       0       0
  4562 ;;      Temps:          0       8       0       0       0
  4563 ;;      Totals:         8      12       0       0       0
  4564 ;;Total ram usage:       20 bytes
  4565 ;; Hardware stack levels used: 1
  4566 ;; Hardware stack levels required when called: 1
  4567 ;; This function calls:
  4568 ;;		Nothing
  4569 ;; This function is called by:
  4570 ;;		___flsub
  4571 ;;		_efgtoa
  4572 ;; This function uses a non-reentrant model
  4573 ;;
  4574                           
  4575     054E                     ___fladd:	
  4576                           ;psect for function ___fladd
  4577                           
  4578     054E                     l2014:	
  4579                           ;incstack = 0
  4580                           ; Regs used in ___fladd: [wreg+status,2+status,0+btemp+1]
  4581                           
  4582     054E  0875               	movf	___fladd@b+3,w
  4583     054F  1283               	bcf	3,5	;RP0=0, select bank0
  4584     0550  1303               	bcf	3,6	;RP1=0, select bank0
  4585     0551  00A8               	movwf	___fladd@signs
  4586     0552                     l2016:
  4587     0552  3080               	movlw	128
  4588     0553  05A8               	andwf	___fladd@signs,f
  4589     0554                     l2018:
  4590     0554  0875               	movf	___fladd@b+3,w
  4591     0555  00A0               	movwf	??___fladd
  4592     0556  0720               	addwf	??___fladd,w
  4593     0557  00AA               	movwf	___fladd@bexp
  4594     0558                     l2020:
  4595     0558  1FF4               	btfss	___fladd@b+2,7
  4596     0559  2D5B               	goto	u2491
  4597     055A  2D5C               	goto	u2490
  4598     055B                     u2491:
  4599     055B  2D5D               	goto	l2024
  4600     055C                     u2490:
  4601     055C                     l2022:
  4602     055C  142A               	bsf	___fladd@bexp,0
  4603     055D                     l2024:
  4604     055D  082A               	movf	___fladd@bexp,w
  4605     055E  1903               	btfsc	3,2
  4606     055F  2D61               	goto	u2501
  4607     0560  2D62               	goto	u2500
  4608     0561                     u2501:
  4609     0561  2D72               	goto	l2034
  4610     0562                     u2500:
  4611     0562                     l2026:
  4612     0562  0A2A               	incf	___fladd@bexp,w
  4613     0563  1D03               	btfss	3,2
  4614     0564  2D66               	goto	u2511
  4615     0565  2D67               	goto	u2510
  4616     0566                     u2511:
  4617     0566  2D6F               	goto	l2030
  4618     0567                     u2510:
  4619     0567                     l2028:
  4620     0567  3000               	movlw	0
  4621     0568  00F5               	movwf	___fladd@b+3
  4622     0569  3000               	movlw	0
  4623     056A  00F4               	movwf	___fladd@b+2
  4624     056B  3000               	movlw	0
  4625     056C  00F3               	movwf	___fladd@b+1
  4626     056D  3000               	movlw	0
  4627     056E  00F2               	movwf	___fladd@b
  4628     056F                     l2030:
  4629     056F  17F4               	bsf	___fladd@b+2,7
  4630     0570                     l2032:
  4631     0570  01F5               	clrf	___fladd@b+3
  4632     0571  2D7A               	goto	l477
  4633     0572                     l2034:
  4634     0572  3000               	movlw	0
  4635     0573  00F5               	movwf	___fladd@b+3
  4636     0574  3000               	movlw	0
  4637     0575  00F4               	movwf	___fladd@b+2
  4638     0576  3000               	movlw	0
  4639     0577  00F3               	movwf	___fladd@b+1
  4640     0578  3000               	movlw	0
  4641     0579  00F2               	movwf	___fladd@b
  4642     057A                     l477:
  4643     057A  0879               	movf	___fladd@a+3,w
  4644     057B  00A9               	movwf	___fladd@aexp
  4645     057C                     l2036:
  4646     057C  3080               	movlw	128
  4647     057D  05A9               	andwf	___fladd@aexp,f
  4648     057E                     l2038:
  4649     057E  0829               	movf	___fladd@aexp,w
  4650     057F  0628               	xorwf	___fladd@signs,w
  4651     0580  1903               	skipnz
  4652     0581  2D83               	goto	u2521
  4653     0582  2D84               	goto	u2520
  4654     0583                     u2521:
  4655     0583  2D85               	goto	l2042
  4656     0584                     u2520:
  4657     0584                     l2040:
  4658     0584  1728               	bsf	___fladd@signs,6
  4659     0585                     l2042:
  4660     0585  0879               	movf	___fladd@a+3,w
  4661     0586  00A0               	movwf	??___fladd
  4662     0587  0720               	addwf	??___fladd,w
  4663     0588  00A9               	movwf	___fladd@aexp
  4664     0589                     l2044:
  4665     0589  1FF8               	btfss	___fladd@a+2,7
  4666     058A  2D8C               	goto	u2531
  4667     058B  2D8D               	goto	u2530
  4668     058C                     u2531:
  4669     058C  2D8E               	goto	l2048
  4670     058D                     u2530:
  4671     058D                     l2046:
  4672     058D  1429               	bsf	___fladd@aexp,0
  4673     058E                     l2048:
  4674     058E  0829               	movf	___fladd@aexp,w
  4675     058F  1903               	btfsc	3,2
  4676     0590  2D92               	goto	u2541
  4677     0591  2D93               	goto	u2540
  4678     0592                     u2541:
  4679     0592  2DA3               	goto	l2058
  4680     0593                     u2540:
  4681     0593                     l2050:
  4682     0593  0A29               	incf	___fladd@aexp,w
  4683     0594  1D03               	btfss	3,2
  4684     0595  2D97               	goto	u2551
  4685     0596  2D98               	goto	u2550
  4686     0597                     u2551:
  4687     0597  2DA0               	goto	l2054
  4688     0598                     u2550:
  4689     0598                     l2052:
  4690     0598  3000               	movlw	0
  4691     0599  00F9               	movwf	___fladd@a+3
  4692     059A  3000               	movlw	0
  4693     059B  00F8               	movwf	___fladd@a+2
  4694     059C  3000               	movlw	0
  4695     059D  00F7               	movwf	___fladd@a+1
  4696     059E  3000               	movlw	0
  4697     059F  00F6               	movwf	___fladd@a
  4698     05A0                     l2054:
  4699     05A0  17F8               	bsf	___fladd@a+2,7
  4700     05A1                     l2056:
  4701     05A1  01F9               	clrf	___fladd@a+3
  4702     05A2  2DAB               	goto	l482
  4703     05A3                     l2058:
  4704     05A3  3000               	movlw	0
  4705     05A4  00F9               	movwf	___fladd@a+3
  4706     05A5  3000               	movlw	0
  4707     05A6  00F8               	movwf	___fladd@a+2
  4708     05A7  3000               	movlw	0
  4709     05A8  00F7               	movwf	___fladd@a+1
  4710     05A9  3000               	movlw	0
  4711     05AA  00F6               	movwf	___fladd@a
  4712     05AB                     l482:
  4713     05AB  082A               	movf	___fladd@bexp,w
  4714     05AC  0229               	subwf	___fladd@aexp,w
  4715     05AD  1803               	skipnc
  4716     05AE  2DB0               	goto	u2561
  4717     05AF  2DB1               	goto	u2560
  4718     05B0                     u2561:
  4719     05B0  2DD5               	goto	l2094
  4720     05B1                     u2560:
  4721     05B1                     l2060:
  4722     05B1  1F28               	btfss	___fladd@signs,6
  4723     05B2  2DB4               	goto	u2571
  4724     05B3  2DB5               	goto	u2570
  4725     05B4                     u2571:
  4726     05B4  2DB7               	goto	l2064
  4727     05B5                     u2570:
  4728     05B5                     l2062:
  4729     05B5  3080               	movlw	128
  4730     05B6  06A8               	xorwf	___fladd@signs,f
  4731     05B7                     l2064:
  4732     05B7  082A               	movf	___fladd@bexp,w
  4733     05B8  00AB               	movwf	___fladd@grs
  4734     05B9                     l2066:
  4735     05B9  0829               	movf	___fladd@aexp,w
  4736     05BA  00AA               	movwf	___fladd@bexp
  4737     05BB                     l2068:
  4738     05BB  082B               	movf	___fladd@grs,w
  4739     05BC  00A9               	movwf	___fladd@aexp
  4740     05BD                     l2070:
  4741     05BD  0872               	movf	___fladd@b,w
  4742     05BE  00AB               	movwf	___fladd@grs
  4743     05BF                     l2072:
  4744     05BF  0876               	movf	___fladd@a,w
  4745     05C0  00F2               	movwf	___fladd@b
  4746     05C1                     l2074:
  4747     05C1  082B               	movf	___fladd@grs,w
  4748     05C2  00F6               	movwf	___fladd@a
  4749     05C3                     l2076:
  4750     05C3  0873               	movf	___fladd@b+1,w
  4751     05C4  00AB               	movwf	___fladd@grs
  4752     05C5                     l2078:
  4753     05C5  0877               	movf	___fladd@a+1,w
  4754     05C6  00F3               	movwf	___fladd@b+1
  4755     05C7                     l2080:
  4756     05C7  082B               	movf	___fladd@grs,w
  4757     05C8  00F7               	movwf	___fladd@a+1
  4758     05C9                     l2082:
  4759     05C9  0874               	movf	___fladd@b+2,w
  4760     05CA  00AB               	movwf	___fladd@grs
  4761     05CB                     l2084:
  4762     05CB  0878               	movf	___fladd@a+2,w
  4763     05CC  00F4               	movwf	___fladd@b+2
  4764     05CD                     l2086:
  4765     05CD  082B               	movf	___fladd@grs,w
  4766     05CE  00F8               	movwf	___fladd@a+2
  4767     05CF                     l2088:
  4768     05CF  0875               	movf	___fladd@b+3,w
  4769     05D0  00AB               	movwf	___fladd@grs
  4770     05D1                     l2090:
  4771     05D1  0879               	movf	___fladd@a+3,w
  4772     05D2  00F5               	movwf	___fladd@b+3
  4773     05D3                     l2092:
  4774     05D3  082B               	movf	___fladd@grs,w
  4775     05D4  00F9               	movwf	___fladd@a+3
  4776     05D5                     l2094:
  4777     05D5  01AB               	clrf	___fladd@grs
  4778     05D6                     l2096:
  4779     05D6  0829               	movf	___fladd@aexp,w
  4780     05D7  00A0               	movwf	??___fladd
  4781     05D8  01A1               	clrf	??___fladd+1
  4782     05D9  0821               	movf	??___fladd+1,w
  4783     05DA  00A3               	movwf	??___fladd+3
  4784     05DB  082A               	movf	___fladd@bexp,w
  4785     05DC  0220               	subwf	??___fladd,w
  4786     05DD  00A2               	movwf	??___fladd+2
  4787     05DE  1C03               	skipc
  4788     05DF  03A3               	decf	??___fladd+3,f
  4789     05E0  0823               	movf	??___fladd+3,w
  4790     05E1  3A80               	xorlw	128
  4791     05E2  00FF               	movwf	btemp+1
  4792     05E3  3080               	movlw	128
  4793     05E4  027F               	subwf	btemp+1,w
  4794     05E5  1D03               	skipz
  4795     05E6  2DE9               	goto	u2585
  4796     05E7  301A               	movlw	26
  4797     05E8  0222               	subwf	??___fladd+2,w
  4798     05E9                     u2585:
  4799     05E9  1C03               	skipc
  4800     05EA  2DEC               	goto	u2581
  4801     05EB  2DED               	goto	u2580
  4802     05EC                     u2581:
  4803     05EC  2E22               	goto	l2112
  4804     05ED                     u2580:
  4805     05ED                     l2098:
  4806     05ED  0875               	movf	___fladd@b+3,w
  4807     05EE  0474               	iorwf	___fladd@b+2,w
  4808     05EF  0473               	iorwf	___fladd@b+1,w
  4809     05F0  0472               	iorwf	___fladd@b,w
  4810     05F1  1D03               	skipz
  4811     05F2  2DF4               	goto	u2591
  4812     05F3  2DF6               	goto	u2590
  4813     05F4                     u2591:
  4814     05F4  3001               	movlw	1
  4815     05F5  2DF7               	goto	u2600
  4816     05F6                     u2590:
  4817     05F6  3000               	movlw	0
  4818     05F7                     u2600:
  4819     05F7  1283               	bcf	3,5	;RP0=0, select bank0
  4820     05F8  1303               	bcf	3,6	;RP1=0, select bank0
  4821     05F9  00AB               	movwf	___fladd@grs
  4822     05FA  3000               	movlw	0
  4823     05FB  00F5               	movwf	___fladd@b+3
  4824     05FC  3000               	movlw	0
  4825     05FD  00F4               	movwf	___fladd@b+2
  4826     05FE  3000               	movlw	0
  4827     05FF  00F3               	movwf	___fladd@b+1
  4828     0600  3000               	movlw	0
  4829     0601  00F2               	movwf	___fladd@b
  4830     0602  0829               	movf	___fladd@aexp,w
  4831     0603  00AA               	movwf	___fladd@bexp
  4832     0604  2E2A               	goto	l486
  4833     0605                     l488:
  4834     0605  1C2B               	btfss	___fladd@grs,0
  4835     0606  2E08               	goto	u2611
  4836     0607  2E09               	goto	u2610
  4837     0608                     u2611:
  4838     0608  2E10               	goto	l2102
  4839     0609                     u2610:
  4840     0609                     l2100:
  4841     0609  082B               	movf	___fladd@grs,w
  4842     060A  00A0               	movwf	??___fladd
  4843     060B  1003               	clrc
  4844     060C  0C20               	rrf	??___fladd,w
  4845     060D  3801               	iorlw	1
  4846     060E  00AB               	movwf	___fladd@grs
  4847     060F  2E12               	goto	l2104
  4848     0610                     l2102:
  4849     0610  1003               	clrc
  4850     0611  0CAB               	rrf	___fladd@grs,f
  4851     0612                     l2104:
  4852     0612  1C72               	btfss	___fladd@b,0
  4853     0613  2E15               	goto	u2621
  4854     0614  2E16               	goto	u2620
  4855     0615                     u2621:
  4856     0615  2E17               	goto	l2108
  4857     0616                     u2620:
  4858     0616                     l2106:
  4859     0616  17AB               	bsf	___fladd@grs,7
  4860     0617                     l2108:
  4861     0617  3001               	movlw	1
  4862     0618  00A0               	movwf	??___fladd
  4863     0619                     u2635:
  4864     0619  0D75               	rlf	___fladd@b+3,w
  4865     061A  0CF5               	rrf	___fladd@b+3,f
  4866     061B  0CF4               	rrf	___fladd@b+2,f
  4867     061C  0CF3               	rrf	___fladd@b+1,f
  4868     061D  0CF2               	rrf	___fladd@b,f
  4869     061E  0BA0               	decfsz	??___fladd& (0+127),f
  4870     061F  2E19               	goto	u2635
  4871     0620                     l2110:
  4872     0620  3001               	movlw	1
  4873     0621  07AA               	addwf	___fladd@bexp,f
  4874     0622                     l2112:
  4875     0622  1283               	bcf	3,5	;RP0=0, select bank0
  4876     0623  1303               	bcf	3,6	;RP1=0, select bank0
  4877     0624  0829               	movf	___fladd@aexp,w
  4878     0625  022A               	subwf	___fladd@bexp,w
  4879     0626  1C03               	skipc
  4880     0627  2E29               	goto	u2641
  4881     0628  2E2A               	goto	u2640
  4882     0629                     u2641:
  4883     0629  2E05               	goto	l488
  4884     062A                     u2640:
  4885     062A                     l486:
  4886     062A  1B28               	btfsc	___fladd@signs,6
  4887     062B  2E2D               	goto	u2651
  4888     062C  2E2E               	goto	u2650
  4889     062D                     u2651:
  4890     062D  2E75               	goto	l2138
  4891     062E                     u2650:
  4892     062E                     l2114:
  4893     062E  082A               	movf	___fladd@bexp,w
  4894     062F  1D03               	btfss	3,2
  4895     0630  2E32               	goto	u2661
  4896     0631  2E33               	goto	u2660
  4897     0632                     u2661:
  4898     0632  2E3C               	goto	l2120
  4899     0633                     u2660:
  4900     0633                     l2116:
  4901     0633  3000               	movlw	0
  4902     0634  00F5               	movwf	?___fladd+3
  4903     0635  3000               	movlw	0
  4904     0636  00F4               	movwf	?___fladd+2
  4905     0637  3000               	movlw	0
  4906     0638  00F3               	movwf	?___fladd+1
  4907     0639  3000               	movlw	0
  4908     063A  00F2               	movwf	?___fladd
  4909     063B  2F9D               	goto	l495
  4910     063C                     l2120:
  4911     063C  0876               	movf	___fladd@a,w
  4912     063D  07F2               	addwf	___fladd@b,f
  4913     063E  0877               	movf	___fladd@a+1,w
  4914     063F  1103               	clrz
  4915     0640  1803               	skipnc
  4916     0641  3E01               	addlw	1
  4917     0642  1903               	skipnz
  4918     0643  2E45               	goto	u2671
  4919     0644  07F3               	addwf	___fladd@b+1,f
  4920     0645                     u2671:
  4921     0645  0878               	movf	___fladd@a+2,w
  4922     0646  1103               	clrz
  4923     0647  1803               	skipnc
  4924     0648  3E01               	addlw	1
  4925     0649  1903               	skipnz
  4926     064A  2E4C               	goto	u2672
  4927     064B  07F4               	addwf	___fladd@b+2,f
  4928     064C                     u2672:
  4929     064C  0879               	movf	___fladd@a+3,w
  4930     064D  1103               	clrz
  4931     064E  1803               	skipnc
  4932     064F  3E01               	addlw	1
  4933     0650  1903               	skipnz
  4934     0651  2E53               	goto	u2673
  4935     0652  07F5               	addwf	___fladd@b+3,f
  4936     0653                     u2673:
  4937     0653                     l2122:
  4938     0653  1C75               	btfss	___fladd@b+3,0
  4939     0654  2E56               	goto	u2681
  4940     0655  2E57               	goto	u2680
  4941     0656                     u2681:
  4942     0656  2F29               	goto	l2174
  4943     0657                     u2680:
  4944     0657                     l2124:
  4945     0657  1C2B               	btfss	___fladd@grs,0
  4946     0658  2E5A               	goto	u2691
  4947     0659  2E5B               	goto	u2690
  4948     065A                     u2691:
  4949     065A  2E62               	goto	l2128
  4950     065B                     u2690:
  4951     065B                     l2126:
  4952     065B  082B               	movf	___fladd@grs,w
  4953     065C  00A0               	movwf	??___fladd
  4954     065D  1003               	clrc
  4955     065E  0C20               	rrf	??___fladd,w
  4956     065F  3801               	iorlw	1
  4957     0660  00AB               	movwf	___fladd@grs
  4958     0661  2E64               	goto	l2130
  4959     0662                     l2128:
  4960     0662  1003               	clrc
  4961     0663  0CAB               	rrf	___fladd@grs,f
  4962     0664                     l2130:
  4963     0664  1C72               	btfss	___fladd@b,0
  4964     0665  2E67               	goto	u2701
  4965     0666  2E68               	goto	u2700
  4966     0667                     u2701:
  4967     0667  2E69               	goto	l2134
  4968     0668                     u2700:
  4969     0668                     l2132:
  4970     0668  17AB               	bsf	___fladd@grs,7
  4971     0669                     l2134:
  4972     0669  3001               	movlw	1
  4973     066A  00A0               	movwf	??___fladd
  4974     066B                     u2715:
  4975     066B  0D75               	rlf	___fladd@b+3,w
  4976     066C  0CF5               	rrf	___fladd@b+3,f
  4977     066D  0CF4               	rrf	___fladd@b+2,f
  4978     066E  0CF3               	rrf	___fladd@b+1,f
  4979     066F  0CF2               	rrf	___fladd@b,f
  4980     0670  0BA0               	decfsz	??___fladd& (0+127),f
  4981     0671  2E6B               	goto	u2715
  4982     0672                     l2136:
  4983     0672  3001               	movlw	1
  4984     0673  07AA               	addwf	___fladd@bexp,f
  4985     0674  2F29               	goto	l2174
  4986     0675                     l2138:
  4987     0675  0875               	movf	___fladd@b+3,w
  4988     0676  3A80               	xorlw	128
  4989     0677  00FF               	movwf	btemp+1
  4990     0678  0879               	movf	___fladd@a+3,w
  4991     0679  3A80               	xorlw	128
  4992     067A  027F               	subwf	btemp+1,w
  4993     067B  1D03               	skipz
  4994     067C  2E87               	goto	u2723
  4995     067D  0878               	movf	___fladd@a+2,w
  4996     067E  0274               	subwf	___fladd@b+2,w
  4997     067F  1D03               	skipz
  4998     0680  2E87               	goto	u2723
  4999     0681  0877               	movf	___fladd@a+1,w
  5000     0682  0273               	subwf	___fladd@b+1,w
  5001     0683  1D03               	skipz
  5002     0684  2E87               	goto	u2723
  5003     0685  0876               	movf	___fladd@a,w
  5004     0686  0272               	subwf	___fladd@b,w
  5005     0687                     u2723:
  5006     0687  1803               	skipnc
  5007     0688  2E8A               	goto	u2721
  5008     0689  2E8B               	goto	u2720
  5009     068A                     u2721:
  5010     068A  2EE2               	goto	l2150
  5011     068B                     u2720:
  5012     068B                     l2140:
  5013     068B  30FF               	movlw	255
  5014     068C  00A0               	movwf	??___fladd
  5015     068D  30FF               	movlw	255
  5016     068E  00A1               	movwf	??___fladd+1
  5017     068F  30FF               	movlw	255
  5018     0690  00A2               	movwf	??___fladd+2
  5019     0691  30FF               	movlw	255
  5020     0692  00A3               	movwf	??___fladd+3
  5021     0693  0876               	movf	___fladd@a,w
  5022     0694  00A4               	movwf	??___fladd+4
  5023     0695  0877               	movf	___fladd@a+1,w
  5024     0696  00A5               	movwf	??___fladd+5
  5025     0697  0878               	movf	___fladd@a+2,w
  5026     0698  00A6               	movwf	??___fladd+6
  5027     0699  0879               	movf	___fladd@a+3,w
  5028     069A  00A7               	movwf	??___fladd+7
  5029     069B  0872               	movf	___fladd@b,w
  5030     069C  02A4               	subwf	??___fladd+4,f
  5031     069D  0873               	movf	___fladd@b+1,w
  5032     069E  1C03               	skipc
  5033     069F  0F73               	incfsz	___fladd@b+1,w
  5034     06A0  2EA2               	goto	u2731
  5035     06A1  2EA3               	goto	u2732
  5036     06A2                     u2731:
  5037     06A2  02A5               	subwf	??___fladd+5,f
  5038     06A3                     u2732:
  5039     06A3  0874               	movf	___fladd@b+2,w
  5040     06A4  1C03               	skipc
  5041     06A5  0F74               	incfsz	___fladd@b+2,w
  5042     06A6  2EA8               	goto	u2733
  5043     06A7  2EA9               	goto	u2734
  5044     06A8                     u2733:
  5045     06A8  02A6               	subwf	??___fladd+6,f
  5046     06A9                     u2734:
  5047     06A9  0875               	movf	___fladd@b+3,w
  5048     06AA  1C03               	skipc
  5049     06AB  0F75               	incfsz	___fladd@b+3,w
  5050     06AC  2EAE               	goto	u2735
  5051     06AD  2EAF               	goto	u2736
  5052     06AE                     u2735:
  5053     06AE  02A7               	subwf	??___fladd+7,f
  5054     06AF                     u2736:
  5055     06AF  0824               	movf	??___fladd+4,w
  5056     06B0  07A0               	addwf	??___fladd,f
  5057     06B1  0825               	movf	??___fladd+5,w
  5058     06B2  1803               	skipnc
  5059     06B3  0F25               	incfsz	??___fladd+5,w
  5060     06B4  2EB6               	goto	u2740
  5061     06B5  2EB7               	goto	u2741
  5062     06B6                     u2740:
  5063     06B6  07A1               	addwf	??___fladd+1,f
  5064     06B7                     u2741:
  5065     06B7  0826               	movf	??___fladd+6,w
  5066     06B8  1803               	skipnc
  5067     06B9  0F26               	incfsz	??___fladd+6,w
  5068     06BA  2EBC               	goto	u2742
  5069     06BB  2EBD               	goto	u2743
  5070     06BC                     u2742:
  5071     06BC  07A2               	addwf	??___fladd+2,f
  5072     06BD                     u2743:
  5073     06BD  0827               	movf	??___fladd+7,w
  5074     06BE  1803               	skipnc
  5075     06BF  0A27               	incf	??___fladd+7,w
  5076     06C0  07A3               	addwf	??___fladd+3,f
  5077     06C1  0823               	movf	??___fladd+3,w
  5078     06C2  00F5               	movwf	___fladd@b+3
  5079     06C3  0822               	movf	??___fladd+2,w
  5080     06C4  00F4               	movwf	___fladd@b+2
  5081     06C5  0821               	movf	??___fladd+1,w
  5082     06C6  00F3               	movwf	___fladd@b+1
  5083     06C7  0820               	movf	??___fladd,w
  5084     06C8  00F2               	movwf	___fladd@b
  5085     06C9                     l2142:
  5086     06C9  3080               	movlw	128
  5087     06CA  06A8               	xorwf	___fladd@signs,f
  5088     06CB                     l2144:
  5089     06CB  032B               	decf	___fladd@grs,w
  5090     06CC  3AFF               	xorlw	255
  5091     06CD  00AB               	movwf	___fladd@grs
  5092     06CE                     l2146:
  5093     06CE  082B               	movf	___fladd@grs,w
  5094     06CF  1D03               	btfss	3,2
  5095     06D0  2ED2               	goto	u2751
  5096     06D1  2ED3               	goto	u2750
  5097     06D2                     u2751:
  5098     06D2  2EF0               	goto	l503
  5099     06D3                     u2750:
  5100     06D3                     l2148:
  5101     06D3  3001               	movlw	1
  5102     06D4  07F2               	addwf	___fladd@b,f
  5103     06D5  3000               	movlw	0
  5104     06D6  1803               	skipnc
  5105     06D7  3001               	movlw	1
  5106     06D8  07F3               	addwf	___fladd@b+1,f
  5107     06D9  3000               	movlw	0
  5108     06DA  1803               	skipnc
  5109     06DB  3001               	movlw	1
  5110     06DC  07F4               	addwf	___fladd@b+2,f
  5111     06DD  3000               	movlw	0
  5112     06DE  1803               	skipnc
  5113     06DF  3001               	movlw	1
  5114     06E0  07F5               	addwf	___fladd@b+3,f
  5115     06E1  2EF0               	goto	l503
  5116     06E2                     l2150:
  5117     06E2  0876               	movf	___fladd@a,w
  5118     06E3  02F2               	subwf	___fladd@b,f
  5119     06E4  0877               	movf	___fladd@a+1,w
  5120     06E5  1C03               	skipc
  5121     06E6  0F77               	incfsz	___fladd@a+1,w
  5122     06E7  02F3               	subwf	___fladd@b+1,f
  5123     06E8  0878               	movf	___fladd@a+2,w
  5124     06E9  1C03               	skipc
  5125     06EA  0F78               	incfsz	___fladd@a+2,w
  5126     06EB  02F4               	subwf	___fladd@b+2,f
  5127     06EC  0879               	movf	___fladd@a+3,w
  5128     06ED  1C03               	skipc
  5129     06EE  0F79               	incfsz	___fladd@a+3,w
  5130     06EF  02F5               	subwf	___fladd@b+3,f
  5131     06F0                     l503:
  5132     06F0  0875               	movf	___fladd@b+3,w
  5133     06F1  0474               	iorwf	___fladd@b+2,w
  5134     06F2  0473               	iorwf	___fladd@b+1,w
  5135     06F3  0472               	iorwf	___fladd@b,w
  5136     06F4  1D03               	skipz
  5137     06F5  2EF7               	goto	u2761
  5138     06F6  2EF8               	goto	u2760
  5139     06F7                     u2761:
  5140     06F7  2F25               	goto	l2172
  5141     06F8                     u2760:
  5142     06F8                     l2152:
  5143     06F8  082B               	movf	___fladd@grs,w
  5144     06F9  1D03               	btfss	3,2
  5145     06FA  2EFC               	goto	u2771
  5146     06FB  2EFD               	goto	u2770
  5147     06FC                     u2771:
  5148     06FC  2F25               	goto	l2172
  5149     06FD                     u2770:
  5150     06FD                     l2154:
  5151     06FD  3000               	movlw	0
  5152     06FE  00F5               	movwf	?___fladd+3
  5153     06FF  3000               	movlw	0
  5154     0700  00F4               	movwf	?___fladd+2
  5155     0701  3000               	movlw	0
  5156     0702  00F3               	movwf	?___fladd+1
  5157     0703  3000               	movlw	0
  5158     0704  00F2               	movwf	?___fladd
  5159     0705  2F9D               	goto	l495
  5160     0706                     l2158:
  5161     0706  3001               	movlw	1
  5162     0707  00A0               	movwf	??___fladd
  5163     0708                     u2785:
  5164     0708  1003               	clrc
  5165     0709  0DF2               	rlf	___fladd@b,f
  5166     070A  0DF3               	rlf	___fladd@b+1,f
  5167     070B  0DF4               	rlf	___fladd@b+2,f
  5168     070C  0DF5               	rlf	___fladd@b+3,f
  5169     070D  0BA0               	decfsz	??___fladd,f
  5170     070E  2F08               	goto	u2785
  5171     070F                     l2160:
  5172     070F  1FAB               	btfss	___fladd@grs,7
  5173     0710  2F12               	goto	u2791
  5174     0711  2F13               	goto	u2790
  5175     0712                     u2791:
  5176     0712  2F14               	goto	l507
  5177     0713                     u2790:
  5178     0713                     l2162:
  5179     0713  1472               	bsf	___fladd@b,0
  5180     0714                     l507:
  5181     0714  1C2B               	btfss	___fladd@grs,0
  5182     0715  2F17               	goto	u2801
  5183     0716  2F18               	goto	u2800
  5184     0717                     u2801:
  5185     0717  2F1C               	goto	l2166
  5186     0718                     u2800:
  5187     0718                     l2164:
  5188     0718  1403               	setc
  5189     0719  0D2B               	rlf	___fladd@grs,w
  5190     071A  00AB               	movwf	___fladd@grs
  5191     071B  2F1E               	goto	l2168
  5192     071C                     l2166:
  5193     071C  1003               	clrc
  5194     071D  0DAB               	rlf	___fladd@grs,f
  5195     071E                     l2168:
  5196     071E  082A               	movf	___fladd@bexp,w
  5197     071F  1903               	btfsc	3,2
  5198     0720  2F22               	goto	u2811
  5199     0721  2F23               	goto	u2810
  5200     0722                     u2811:
  5201     0722  2F25               	goto	l2172
  5202     0723                     u2810:
  5203     0723                     l2170:
  5204     0723  3001               	movlw	1
  5205     0724  02AA               	subwf	___fladd@bexp,f
  5206     0725                     l2172:
  5207     0725  1FF4               	btfss	___fladd@b+2,7
  5208     0726  2F28               	goto	u2821
  5209     0727  2F29               	goto	u2820
  5210     0728                     u2821:
  5211     0728  2F06               	goto	l2158
  5212     0729                     u2820:
  5213     0729                     l2174:
  5214     0729  01A9               	clrf	___fladd@aexp
  5215     072A                     l2176:
  5216     072A  1FAB               	btfss	___fladd@grs,7
  5217     072B  2F2D               	goto	u2831
  5218     072C  2F2E               	goto	u2830
  5219     072D                     u2831:
  5220     072D  2F3C               	goto	l2184
  5221     072E                     u2830:
  5222     072E                     l2178:
  5223     072E  082B               	movf	___fladd@grs,w
  5224     072F  397F               	andlw	127
  5225     0730  1903               	btfsc	3,2
  5226     0731  2F33               	goto	u2841
  5227     0732  2F34               	goto	u2840
  5228     0733                     u2841:
  5229     0733  2F37               	goto	l513
  5230     0734                     u2840:
  5231     0734                     l2180:
  5232     0734  3001               	movlw	1
  5233     0735  00A9               	movwf	___fladd@aexp
  5234     0736  2F3C               	goto	l2184
  5235     0737                     l513:
  5236     0737  1C72               	btfss	___fladd@b,0
  5237     0738  2F3A               	goto	u2851
  5238     0739  2F3B               	goto	u2850
  5239     073A                     u2851:
  5240     073A  2F3C               	goto	l2184
  5241     073B                     u2850:
  5242     073B  2F34               	goto	l2180
  5243     073C                     l2184:
  5244     073C  0829               	movf	___fladd@aexp,w
  5245     073D  1903               	btfsc	3,2
  5246     073E  2F40               	goto	u2861
  5247     073F  2F41               	goto	u2860
  5248     0740                     u2861:
  5249     0740  2F73               	goto	l516
  5250     0741                     u2860:
  5251     0741                     l2186:
  5252     0741  3001               	movlw	1
  5253     0742  07F2               	addwf	___fladd@b,f
  5254     0743  3000               	movlw	0
  5255     0744  1803               	skipnc
  5256     0745  3001               	movlw	1
  5257     0746  07F3               	addwf	___fladd@b+1,f
  5258     0747  3000               	movlw	0
  5259     0748  1803               	skipnc
  5260     0749  3001               	movlw	1
  5261     074A  07F4               	addwf	___fladd@b+2,f
  5262     074B  3000               	movlw	0
  5263     074C  1803               	skipnc
  5264     074D  3001               	movlw	1
  5265     074E  07F5               	addwf	___fladd@b+3,f
  5266     074F                     l2188:
  5267     074F  1C75               	btfss	___fladd@b+3,0
  5268     0750  2F52               	goto	u2871
  5269     0751  2F53               	goto	u2870
  5270     0752                     u2871:
  5271     0752  2F73               	goto	l516
  5272     0753                     u2870:
  5273     0753                     l2190:
  5274     0753  0872               	movf	___fladd@b,w
  5275     0754  00A0               	movwf	??___fladd
  5276     0755  0873               	movf	___fladd@b+1,w
  5277     0756  00A1               	movwf	??___fladd+1
  5278     0757  0874               	movf	___fladd@b+2,w
  5279     0758  00A2               	movwf	??___fladd+2
  5280     0759  0875               	movf	___fladd@b+3,w
  5281     075A  00A3               	movwf	??___fladd+3
  5282     075B  3001               	movlw	1
  5283     075C  00A4               	movwf	??___fladd+4
  5284     075D                     u2885:
  5285     075D  0D23               	rlf	??___fladd+3,w
  5286     075E  0CA3               	rrf	??___fladd+3,f
  5287     075F  0CA2               	rrf	??___fladd+2,f
  5288     0760  0CA1               	rrf	??___fladd+1,f
  5289     0761  0CA0               	rrf	??___fladd,f
  5290     0762                     u2880:
  5291     0762  0BA4               	decfsz	??___fladd+4,f
  5292     0763  2F5D               	goto	u2885
  5293     0764  0823               	movf	??___fladd+3,w
  5294     0765  00F5               	movwf	___fladd@b+3
  5295     0766  0822               	movf	??___fladd+2,w
  5296     0767  00F4               	movwf	___fladd@b+2
  5297     0768  0821               	movf	??___fladd+1,w
  5298     0769  00F3               	movwf	___fladd@b+1
  5299     076A  0820               	movf	??___fladd,w
  5300     076B  00F2               	movwf	___fladd@b
  5301     076C  0A2A               	incf	___fladd@bexp,w
  5302     076D  1903               	btfsc	3,2
  5303     076E  2F70               	goto	u2891
  5304     076F  2F71               	goto	u2890
  5305     0770                     u2891:
  5306     0770  2F73               	goto	l516
  5307     0771                     u2890:
  5308     0771                     l2192:
  5309     0771  3001               	movlw	1
  5310     0772  07AA               	addwf	___fladd@bexp,f
  5311     0773                     l516:
  5312     0773  0A2A               	incf	___fladd@bexp,w
  5313     0774  1903               	btfsc	3,2
  5314     0775  2F77               	goto	u2901
  5315     0776  2F78               	goto	u2900
  5316     0777                     u2901:
  5317     0777  2F7D               	goto	l2196
  5318     0778                     u2900:
  5319     0778                     l2194:
  5320     0778  082A               	movf	___fladd@bexp,w
  5321     0779  1D03               	btfss	3,2
  5322     077A  2F7C               	goto	u2911
  5323     077B  2F7D               	goto	u2910
  5324     077C                     u2911:
  5325     077C  2F8B               	goto	l2202
  5326     077D                     u2910:
  5327     077D                     l2196:
  5328     077D  3000               	movlw	0
  5329     077E  00F5               	movwf	___fladd@b+3
  5330     077F  3000               	movlw	0
  5331     0780  00F4               	movwf	___fladd@b+2
  5332     0781  3000               	movlw	0
  5333     0782  00F3               	movwf	___fladd@b+1
  5334     0783  3000               	movlw	0
  5335     0784  00F2               	movwf	___fladd@b
  5336     0785                     l2198:
  5337     0785  082A               	movf	___fladd@bexp,w
  5338     0786  1D03               	btfss	3,2
  5339     0787  2F89               	goto	u2921
  5340     0788  2F8A               	goto	u2920
  5341     0789                     u2921:
  5342     0789  2F8B               	goto	l2202
  5343     078A                     u2920:
  5344     078A                     l2200:
  5345     078A  01A8               	clrf	___fladd@signs
  5346     078B                     l2202:
  5347     078B  1C2A               	btfss	___fladd@bexp,0
  5348     078C  2F8E               	goto	u2931
  5349     078D  2F8F               	goto	u2930
  5350     078E                     u2931:
  5351     078E  2F91               	goto	l2206
  5352     078F                     u2930:
  5353     078F                     l2204:
  5354     078F  17F4               	bsf	___fladd@b+2,7
  5355     0790  2F93               	goto	l524
  5356     0791                     l2206:
  5357     0791  307F               	movlw	127
  5358     0792  05F4               	andwf	___fladd@b+2,f
  5359     0793                     l524:
  5360     0793  082A               	movf	___fladd@bexp,w
  5361     0794  00A0               	movwf	??___fladd
  5362     0795  1003               	clrc
  5363     0796  0C20               	rrf	??___fladd,w
  5364     0797  00F5               	movwf	___fladd@b+3
  5365     0798                     l2208:
  5366     0798  1FA8               	btfss	___fladd@signs,7
  5367     0799  2F9B               	goto	u2941
  5368     079A  2F9C               	goto	u2940
  5369     079B                     u2941:
  5370     079B  2F9D               	goto	l525
  5371     079C                     u2940:
  5372     079C                     l2210:
  5373     079C  17F5               	bsf	___fladd@b+3,7
  5374     079D                     l525:
  5375     079D                     l495:
  5376     079D  0008               	return
  5377     079E                     __end_of___fladd:
  5378                           
  5379                           	psect	text19
  5380     1002                     __ptext19:	
  5381 ;; *************** function ___flneg *****************
  5382 ;; Defined at:
  5383 ;;		line 15 in file "C:\Program Files\Microchip\xc8\v2.50\pic\sources\c99\common\flneg.c"
  5384 ;; Parameters:    Size  Location     Type
  5385 ;;  f1              4    2[COMMON] unsigned char 
  5386 ;; Auto vars:     Size  Location     Type
  5387 ;;		None
  5388 ;; Return value:  Size  Location     Type
  5389 ;;                  4    2[COMMON] unsigned char 
  5390 ;; Registers used:
  5391 ;;		wreg
  5392 ;; Tracked objects:
  5393 ;;		On entry : 0/0
  5394 ;;		On exit  : 0/0
  5395 ;;		Unchanged: 0/0
  5396 ;; Data sizes:     COMMON   BANK0   BANK1   BANK3   BANK2
  5397 ;;      Params:         4       0       0       0       0
  5398 ;;      Locals:         0       0       0       0       0
  5399 ;;      Temps:          0       0       0       0       0
  5400 ;;      Totals:         4       0       0       0       0
  5401 ;;Total ram usage:        4 bytes
  5402 ;; Hardware stack levels used: 1
  5403 ;; Hardware stack levels required when called: 1
  5404 ;; This function calls:
  5405 ;;		Nothing
  5406 ;; This function is called by:
  5407 ;;		_efgtoa
  5408 ;; This function uses a non-reentrant model
  5409 ;;
  5410                           
  5411     1002                     ___flneg:	
  5412                           ;psect for function ___flneg
  5413                           
  5414     1002                     l2280:	
  5415                           ;incstack = 0
  5416                           ; Regs used in ___flneg: [wreg]
  5417                           
  5418     1002  0875               	movf	___flneg@f1+3,w
  5419     1003  0474               	iorwf	___flneg@f1+2,w
  5420     1004  0473               	iorwf	___flneg@f1+1,w
  5421     1005  0472               	iorwf	___flneg@f1,w
  5422     1006  1903               	skipnz
  5423     1007  2809               	goto	u3131
  5424     1008  280A               	goto	u3130
  5425     1009                     u3131:
  5426     1009  280C               	goto	l2284
  5427     100A                     u3130:
  5428     100A                     l2282:
  5429     100A  3080               	movlw	128
  5430     100B  06F5               	xorwf	___flneg@f1+3,f
  5431     100C                     l2284:
  5432     100C                     l371:
  5433     100C  0008               	return
  5434     100D                     __end_of___flneg:
  5435                           
  5436                           	psect	text20
  5437     0CBE                     __ptext20:	
  5438 ;; *************** function ___flmul *****************
  5439 ;; Defined at:
  5440 ;;		line 8 in file "C:\Program Files\Microchip\xc8\v2.50\pic\sources\c99\common\sprcmul.c"
  5441 ;; Parameters:    Size  Location     Type
  5442 ;;  b               4    6[BANK0 ] unsigned char 
  5443 ;;  a               4   10[BANK0 ] unsigned char 
  5444 ;; Auto vars:     Size  Location     Type
  5445 ;;  prod            4   26[BANK0 ] struct .
  5446 ;;  grs             4   21[BANK0 ] unsigned long 
  5447 ;;  temp            2   30[BANK0 ] struct .
  5448 ;;  bexp            1   25[BANK0 ] unsigned char 
  5449 ;;  aexp            1   20[BANK0 ] unsigned char 
  5450 ;;  sign            1   19[BANK0 ] unsigned char 
  5451 ;; Return value:  Size  Location     Type
  5452 ;;                  4    6[BANK0 ] unsigned char 
  5453 ;; Registers used:
  5454 ;;		wreg, status,2, status,0, btemp+1, pclath, cstack
  5455 ;; Tracked objects:
  5456 ;;		On entry : 0/0
  5457 ;;		On exit  : 0/0
  5458 ;;		Unchanged: 0/0
  5459 ;; Data sizes:     COMMON   BANK0   BANK1   BANK3   BANK2
  5460 ;;      Params:         0       8       0       0       0
  5461 ;;      Locals:         0      13       0       0       0
  5462 ;;      Temps:          0       5       0       0       0
  5463 ;;      Totals:         0      26       0       0       0
  5464 ;;Total ram usage:       26 bytes
  5465 ;; Hardware stack levels used: 1
  5466 ;; Hardware stack levels required when called: 2
  5467 ;; This function calls:
  5468 ;;		__Umul8_16
  5469 ;; This function is called by:
  5470 ;;		_main
  5471 ;;		_efgtoa
  5472 ;; This function uses a non-reentrant model
  5473 ;;
  5474                           
  5475     0CBE                     ___flmul:	
  5476                           ;psect for function ___flmul
  5477                           
  5478     0CBE                     l3228:	
  5479                           ;incstack = 0
  5480                           ; Regs used in ___flmul: [wreg+status,2+status,0+btemp+1+pclath+cstack]
  5481                           
  5482     0CBE  1283               	bcf	3,5	;RP0=0, select bank0
  5483     0CBF  1303               	bcf	3,6	;RP1=0, select bank0
  5484     0CC0  0829               	movf	___flmul@b+3,w
  5485     0CC1  00B3               	movwf	___flmul@sign
  5486     0CC2                     l3230:
  5487     0CC2  3080               	movlw	128
  5488     0CC3  05B3               	andwf	___flmul@sign,f
  5489     0CC4                     l3232:
  5490     0CC4  0829               	movf	___flmul@b+3,w
  5491     0CC5  00AE               	movwf	??___flmul
  5492     0CC6  072E               	addwf	??___flmul,w
  5493     0CC7  00B9               	movwf	___flmul@bexp
  5494     0CC8                     l3234:
  5495     0CC8  1FA8               	btfss	___flmul@b+2,7
  5496     0CC9  2CCB               	goto	u5011
  5497     0CCA  2CCC               	goto	u5010
  5498     0CCB                     u5011:
  5499     0CCB  2CCD               	goto	l3238
  5500     0CCC                     u5010:
  5501     0CCC                     l3236:
  5502     0CCC  1439               	bsf	___flmul@bexp,0
  5503     0CCD                     l3238:
  5504     0CCD  0839               	movf	___flmul@bexp,w
  5505     0CCE  1903               	btfsc	3,2
  5506     0CCF  2CD1               	goto	u5021
  5507     0CD0  2CD2               	goto	u5020
  5508     0CD1                     u5021:
  5509     0CD1  2CE1               	goto	l3246
  5510     0CD2                     u5020:
  5511     0CD2                     l3240:
  5512     0CD2  0A39               	incf	___flmul@bexp,w
  5513     0CD3  1D03               	btfss	3,2
  5514     0CD4  2CD6               	goto	u5031
  5515     0CD5  2CD7               	goto	u5030
  5516     0CD6                     u5031:
  5517     0CD6  2CDF               	goto	l3244
  5518     0CD7                     u5030:
  5519     0CD7                     l3242:
  5520     0CD7  3000               	movlw	0
  5521     0CD8  00A9               	movwf	___flmul@b+3
  5522     0CD9  3000               	movlw	0
  5523     0CDA  00A8               	movwf	___flmul@b+2
  5524     0CDB  3000               	movlw	0
  5525     0CDC  00A7               	movwf	___flmul@b+1
  5526     0CDD  3000               	movlw	0
  5527     0CDE  00A6               	movwf	___flmul@b
  5528     0CDF                     l3244:
  5529     0CDF  17A8               	bsf	___flmul@b+2,7
  5530     0CE0  2CE9               	goto	l3248
  5531     0CE1                     l3246:
  5532     0CE1  3000               	movlw	0
  5533     0CE2  00A9               	movwf	___flmul@b+3
  5534     0CE3  3000               	movlw	0
  5535     0CE4  00A8               	movwf	___flmul@b+2
  5536     0CE5  3000               	movlw	0
  5537     0CE6  00A7               	movwf	___flmul@b+1
  5538     0CE7  3000               	movlw	0
  5539     0CE8  00A6               	movwf	___flmul@b
  5540     0CE9                     l3248:
  5541     0CE9  082D               	movf	___flmul@a+3,w
  5542     0CEA  3980               	andlw	128
  5543     0CEB  06B3               	xorwf	___flmul@sign,f
  5544     0CEC                     l3250:
  5545     0CEC  082D               	movf	___flmul@a+3,w
  5546     0CED  00AE               	movwf	??___flmul
  5547     0CEE  072E               	addwf	??___flmul,w
  5548     0CEF  00B4               	movwf	___flmul@aexp
  5549     0CF0                     l3252:
  5550     0CF0  1FAC               	btfss	___flmul@a+2,7
  5551     0CF1  2CF3               	goto	u5041
  5552     0CF2  2CF4               	goto	u5040
  5553     0CF3                     u5041:
  5554     0CF3  2CF5               	goto	l3256
  5555     0CF4                     u5040:
  5556     0CF4                     l3254:
  5557     0CF4  1434               	bsf	___flmul@aexp,0
  5558     0CF5                     l3256:
  5559     0CF5  0834               	movf	___flmul@aexp,w
  5560     0CF6  1903               	btfsc	3,2
  5561     0CF7  2CF9               	goto	u5051
  5562     0CF8  2CFA               	goto	u5050
  5563     0CF9                     u5051:
  5564     0CF9  2D09               	goto	l3264
  5565     0CFA                     u5050:
  5566     0CFA                     l3258:
  5567     0CFA  0A34               	incf	___flmul@aexp,w
  5568     0CFB  1D03               	btfss	3,2
  5569     0CFC  2CFE               	goto	u5061
  5570     0CFD  2CFF               	goto	u5060
  5571     0CFE                     u5061:
  5572     0CFE  2D07               	goto	l3262
  5573     0CFF                     u5060:
  5574     0CFF                     l3260:
  5575     0CFF  3000               	movlw	0
  5576     0D00  00AD               	movwf	___flmul@a+3
  5577     0D01  3000               	movlw	0
  5578     0D02  00AC               	movwf	___flmul@a+2
  5579     0D03  3000               	movlw	0
  5580     0D04  00AB               	movwf	___flmul@a+1
  5581     0D05  3000               	movlw	0
  5582     0D06  00AA               	movwf	___flmul@a
  5583     0D07                     l3262:
  5584     0D07  17AC               	bsf	___flmul@a+2,7
  5585     0D08  2D11               	goto	l3266
  5586     0D09                     l3264:
  5587     0D09  3000               	movlw	0
  5588     0D0A  00AD               	movwf	___flmul@a+3
  5589     0D0B  3000               	movlw	0
  5590     0D0C  00AC               	movwf	___flmul@a+2
  5591     0D0D  3000               	movlw	0
  5592     0D0E  00AB               	movwf	___flmul@a+1
  5593     0D0F  3000               	movlw	0
  5594     0D10  00AA               	movwf	___flmul@a
  5595     0D11                     l3266:
  5596     0D11  0834               	movf	___flmul@aexp,w
  5597     0D12  1903               	btfsc	3,2
  5598     0D13  2D15               	goto	u5071
  5599     0D14  2D16               	goto	u5070
  5600     0D15                     u5071:
  5601     0D15  2D1B               	goto	l3270
  5602     0D16                     u5070:
  5603     0D16                     l3268:
  5604     0D16  0839               	movf	___flmul@bexp,w
  5605     0D17  1D03               	btfss	3,2
  5606     0D18  2D1A               	goto	u5081
  5607     0D19  2D1B               	goto	u5080
  5608     0D1A                     u5081:
  5609     0D1A  2D24               	goto	l3274
  5610     0D1B                     u5080:
  5611     0D1B                     l3270:
  5612     0D1B  3000               	movlw	0
  5613     0D1C  00A9               	movwf	?___flmul+3
  5614     0D1D  3000               	movlw	0
  5615     0D1E  00A8               	movwf	?___flmul+2
  5616     0D1F  3000               	movlw	0
  5617     0D20  00A7               	movwf	?___flmul+1
  5618     0D21  3000               	movlw	0
  5619     0D22  00A6               	movwf	?___flmul
  5620     0D23  2FFF               	goto	l578
  5621     0D24                     l3274:
  5622     0D24  0826               	movf	___flmul@b,w
  5623     0D25  00F2               	movwf	__Umul8_16@multiplicand
  5624     0D26  082C               	movf	___flmul@a+2,w
  5625     0D27  160A  158A  27AC  120A  158A  	fcall	__Umul8_16
  5626     0D2C  0873               	movf	?__Umul8_16+1,w
  5627     0D2D  1283               	bcf	3,5	;RP0=0, select bank0
  5628     0D2E  1303               	bcf	3,6	;RP1=0, select bank0
  5629     0D2F  00BF               	movwf	___flmul@temp+1
  5630     0D30  0872               	movf	?__Umul8_16,w
  5631     0D31  00BE               	movwf	___flmul@temp
  5632     0D32                     l3276:
  5633     0D32  083E               	movf	___flmul@temp,w
  5634     0D33  00AE               	movwf	??___flmul
  5635     0D34  01AF               	clrf	??___flmul+1
  5636     0D35  01B0               	clrf	??___flmul+2
  5637     0D36  01B1               	clrf	??___flmul+3
  5638     0D37  0831               	movf	??___flmul+3,w
  5639     0D38  00B8               	movwf	___flmul@grs+3
  5640     0D39  0830               	movf	??___flmul+2,w
  5641     0D3A  00B7               	movwf	___flmul@grs+2
  5642     0D3B  082F               	movf	??___flmul+1,w
  5643     0D3C  00B6               	movwf	___flmul@grs+1
  5644     0D3D  082E               	movf	??___flmul,w
  5645     0D3E  00B5               	movwf	___flmul@grs
  5646     0D3F                     l3278:
  5647     0D3F  083F               	movf	___flmul@temp+1,w
  5648     0D40  00AE               	movwf	??___flmul
  5649     0D41  01AF               	clrf	??___flmul+1
  5650     0D42  01B0               	clrf	??___flmul+2
  5651     0D43  01B1               	clrf	??___flmul+3
  5652     0D44  0831               	movf	??___flmul+3,w
  5653     0D45  00BD               	movwf	___flmul@prod+3
  5654     0D46  0830               	movf	??___flmul+2,w
  5655     0D47  00BC               	movwf	___flmul@prod+2
  5656     0D48  082F               	movf	??___flmul+1,w
  5657     0D49  00BB               	movwf	___flmul@prod+1
  5658     0D4A  082E               	movf	??___flmul,w
  5659     0D4B  00BA               	movwf	___flmul@prod
  5660     0D4C  0827               	movf	___flmul@b+1,w
  5661     0D4D  00F2               	movwf	__Umul8_16@multiplicand
  5662     0D4E  082B               	movf	___flmul@a+1,w
  5663     0D4F  160A  158A  27AC  120A  158A  	fcall	__Umul8_16
  5664     0D54  0873               	movf	?__Umul8_16+1,w
  5665     0D55  1283               	bcf	3,5	;RP0=0, select bank0
  5666     0D56  1303               	bcf	3,6	;RP1=0, select bank0
  5667     0D57  00BF               	movwf	___flmul@temp+1
  5668     0D58  0872               	movf	?__Umul8_16,w
  5669     0D59  00BE               	movwf	___flmul@temp
  5670     0D5A                     l3280:
  5671     0D5A  083E               	movf	___flmul@temp,w
  5672     0D5B  00AE               	movwf	??___flmul
  5673     0D5C  01AF               	clrf	??___flmul+1
  5674     0D5D  01B0               	clrf	??___flmul+2
  5675     0D5E  01B1               	clrf	??___flmul+3
  5676     0D5F  082E               	movf	??___flmul,w
  5677     0D60  07B5               	addwf	___flmul@grs,f
  5678     0D61  082F               	movf	??___flmul+1,w
  5679     0D62  1103               	clrz
  5680     0D63  1803               	skipnc
  5681     0D64  3E01               	addlw	1
  5682     0D65  1903               	skipnz
  5683     0D66  2D68               	goto	u5091
  5684     0D67  07B6               	addwf	___flmul@grs+1,f
  5685     0D68                     u5091:
  5686     0D68  0830               	movf	??___flmul+2,w
  5687     0D69  1103               	clrz
  5688     0D6A  1803               	skipnc
  5689     0D6B  3E01               	addlw	1
  5690     0D6C  1903               	skipnz
  5691     0D6D  2D6F               	goto	u5092
  5692     0D6E  07B7               	addwf	___flmul@grs+2,f
  5693     0D6F                     u5092:
  5694     0D6F  0831               	movf	??___flmul+3,w
  5695     0D70  1103               	clrz
  5696     0D71  1803               	skipnc
  5697     0D72  3E01               	addlw	1
  5698     0D73  1903               	skipnz
  5699     0D74  2D76               	goto	u5093
  5700     0D75  07B8               	addwf	___flmul@grs+3,f
  5701     0D76                     u5093:
  5702     0D76                     l3282:
  5703     0D76  083F               	movf	___flmul@temp+1,w
  5704     0D77  00AE               	movwf	??___flmul
  5705     0D78  01AF               	clrf	??___flmul+1
  5706     0D79  01B0               	clrf	??___flmul+2
  5707     0D7A  01B1               	clrf	??___flmul+3
  5708     0D7B  082E               	movf	??___flmul,w
  5709     0D7C  07BA               	addwf	___flmul@prod,f
  5710     0D7D  082F               	movf	??___flmul+1,w
  5711     0D7E  1103               	clrz
  5712     0D7F  1803               	skipnc
  5713     0D80  3E01               	addlw	1
  5714     0D81  1903               	skipnz
  5715     0D82  2D84               	goto	u5101
  5716     0D83  07BB               	addwf	___flmul@prod+1,f
  5717     0D84                     u5101:
  5718     0D84  0830               	movf	??___flmul+2,w
  5719     0D85  1103               	clrz
  5720     0D86  1803               	skipnc
  5721     0D87  3E01               	addlw	1
  5722     0D88  1903               	skipnz
  5723     0D89  2D8B               	goto	u5102
  5724     0D8A  07BC               	addwf	___flmul@prod+2,f
  5725     0D8B                     u5102:
  5726     0D8B  0831               	movf	??___flmul+3,w
  5727     0D8C  1103               	clrz
  5728     0D8D  1803               	skipnc
  5729     0D8E  3E01               	addlw	1
  5730     0D8F  1903               	skipnz
  5731     0D90  2D92               	goto	u5103
  5732     0D91  07BD               	addwf	___flmul@prod+3,f
  5733     0D92                     u5103:
  5734     0D92  0828               	movf	___flmul@b+2,w
  5735     0D93  00F2               	movwf	__Umul8_16@multiplicand
  5736     0D94  082A               	movf	___flmul@a,w
  5737     0D95  160A  158A  27AC  120A  158A  	fcall	__Umul8_16
  5738     0D9A  0873               	movf	?__Umul8_16+1,w
  5739     0D9B  1283               	bcf	3,5	;RP0=0, select bank0
  5740     0D9C  1303               	bcf	3,6	;RP1=0, select bank0
  5741     0D9D  00BF               	movwf	___flmul@temp+1
  5742     0D9E  0872               	movf	?__Umul8_16,w
  5743     0D9F  00BE               	movwf	___flmul@temp
  5744     0DA0                     l3284:
  5745     0DA0  083E               	movf	___flmul@temp,w
  5746     0DA1  00AE               	movwf	??___flmul
  5747     0DA2  01AF               	clrf	??___flmul+1
  5748     0DA3  01B0               	clrf	??___flmul+2
  5749     0DA4  01B1               	clrf	??___flmul+3
  5750     0DA5  082E               	movf	??___flmul,w
  5751     0DA6  07B5               	addwf	___flmul@grs,f
  5752     0DA7  082F               	movf	??___flmul+1,w
  5753     0DA8  1103               	clrz
  5754     0DA9  1803               	skipnc
  5755     0DAA  3E01               	addlw	1
  5756     0DAB  1903               	skipnz
  5757     0DAC  2DAE               	goto	u5111
  5758     0DAD  07B6               	addwf	___flmul@grs+1,f
  5759     0DAE                     u5111:
  5760     0DAE  0830               	movf	??___flmul+2,w
  5761     0DAF  1103               	clrz
  5762     0DB0  1803               	skipnc
  5763     0DB1  3E01               	addlw	1
  5764     0DB2  1903               	skipnz
  5765     0DB3  2DB5               	goto	u5112
  5766     0DB4  07B7               	addwf	___flmul@grs+2,f
  5767     0DB5                     u5112:
  5768     0DB5  0831               	movf	??___flmul+3,w
  5769     0DB6  1103               	clrz
  5770     0DB7  1803               	skipnc
  5771     0DB8  3E01               	addlw	1
  5772     0DB9  1903               	skipnz
  5773     0DBA  2DBC               	goto	u5113
  5774     0DBB  07B8               	addwf	___flmul@grs+3,f
  5775     0DBC                     u5113:
  5776     0DBC                     l3286:
  5777     0DBC  083F               	movf	___flmul@temp+1,w
  5778     0DBD  00AE               	movwf	??___flmul
  5779     0DBE  01AF               	clrf	??___flmul+1
  5780     0DBF  01B0               	clrf	??___flmul+2
  5781     0DC0  01B1               	clrf	??___flmul+3
  5782     0DC1  082E               	movf	??___flmul,w
  5783     0DC2  07BA               	addwf	___flmul@prod,f
  5784     0DC3  082F               	movf	??___flmul+1,w
  5785     0DC4  1103               	clrz
  5786     0DC5  1803               	skipnc
  5787     0DC6  3E01               	addlw	1
  5788     0DC7  1903               	skipnz
  5789     0DC8  2DCA               	goto	u5121
  5790     0DC9  07BB               	addwf	___flmul@prod+1,f
  5791     0DCA                     u5121:
  5792     0DCA  0830               	movf	??___flmul+2,w
  5793     0DCB  1103               	clrz
  5794     0DCC  1803               	skipnc
  5795     0DCD  3E01               	addlw	1
  5796     0DCE  1903               	skipnz
  5797     0DCF  2DD1               	goto	u5122
  5798     0DD0  07BC               	addwf	___flmul@prod+2,f
  5799     0DD1                     u5122:
  5800     0DD1  0831               	movf	??___flmul+3,w
  5801     0DD2  1103               	clrz
  5802     0DD3  1803               	skipnc
  5803     0DD4  3E01               	addlw	1
  5804     0DD5  1903               	skipnz
  5805     0DD6  2DD8               	goto	u5123
  5806     0DD7  07BD               	addwf	___flmul@prod+3,f
  5807     0DD8                     u5123:
  5808     0DD8                     l3288:
  5809     0DD8  3008               	movlw	8
  5810     0DD9  00AE               	movwf	??___flmul
  5811     0DDA                     u5135:
  5812     0DDA  1003               	clrc
  5813     0DDB  0DB5               	rlf	___flmul@grs,f
  5814     0DDC  0DB6               	rlf	___flmul@grs+1,f
  5815     0DDD  0DB7               	rlf	___flmul@grs+2,f
  5816     0DDE  0DB8               	rlf	___flmul@grs+3,f
  5817     0DDF  0BAE               	decfsz	??___flmul,f
  5818     0DE0  2DDA               	goto	u5135
  5819     0DE1                     l3290:
  5820     0DE1  0827               	movf	___flmul@b+1,w
  5821     0DE2  00F2               	movwf	__Umul8_16@multiplicand
  5822     0DE3  082A               	movf	___flmul@a,w
  5823     0DE4  160A  158A  27AC  120A  158A  	fcall	__Umul8_16
  5824     0DE9  0873               	movf	?__Umul8_16+1,w
  5825     0DEA  1283               	bcf	3,5	;RP0=0, select bank0
  5826     0DEB  1303               	bcf	3,6	;RP1=0, select bank0
  5827     0DEC  00BF               	movwf	___flmul@temp+1
  5828     0DED  0872               	movf	?__Umul8_16,w
  5829     0DEE  00BE               	movwf	___flmul@temp
  5830     0DEF                     l3292:
  5831     0DEF  083E               	movf	___flmul@temp,w
  5832     0DF0  00AE               	movwf	??___flmul
  5833     0DF1  083F               	movf	___flmul@temp+1,w
  5834     0DF2  00AF               	movwf	??___flmul+1
  5835     0DF3  01B0               	clrf	??___flmul+2
  5836     0DF4  01B1               	clrf	??___flmul+3
  5837     0DF5  082E               	movf	??___flmul,w
  5838     0DF6  07B5               	addwf	___flmul@grs,f
  5839     0DF7  082F               	movf	??___flmul+1,w
  5840     0DF8  1103               	clrz
  5841     0DF9  1803               	skipnc
  5842     0DFA  3E01               	addlw	1
  5843     0DFB  1903               	skipnz
  5844     0DFC  2DFE               	goto	u5141
  5845     0DFD  07B6               	addwf	___flmul@grs+1,f
  5846     0DFE                     u5141:
  5847     0DFE  0830               	movf	??___flmul+2,w
  5848     0DFF  1103               	clrz
  5849     0E00  1803               	skipnc
  5850     0E01  3E01               	addlw	1
  5851     0E02  1903               	skipnz
  5852     0E03  2E05               	goto	u5142
  5853     0E04  07B7               	addwf	___flmul@grs+2,f
  5854     0E05                     u5142:
  5855     0E05  0831               	movf	??___flmul+3,w
  5856     0E06  1103               	clrz
  5857     0E07  1803               	skipnc
  5858     0E08  3E01               	addlw	1
  5859     0E09  1903               	skipnz
  5860     0E0A  2E0C               	goto	u5143
  5861     0E0B  07B8               	addwf	___flmul@grs+3,f
  5862     0E0C                     u5143:
  5863     0E0C                     l3294:
  5864     0E0C  0826               	movf	___flmul@b,w
  5865     0E0D  00F2               	movwf	__Umul8_16@multiplicand
  5866     0E0E  082B               	movf	___flmul@a+1,w
  5867     0E0F  160A  158A  27AC  120A  158A  	fcall	__Umul8_16
  5868     0E14  0873               	movf	?__Umul8_16+1,w
  5869     0E15  1283               	bcf	3,5	;RP0=0, select bank0
  5870     0E16  1303               	bcf	3,6	;RP1=0, select bank0
  5871     0E17  00BF               	movwf	___flmul@temp+1
  5872     0E18  0872               	movf	?__Umul8_16,w
  5873     0E19  00BE               	movwf	___flmul@temp
  5874     0E1A                     l3296:
  5875     0E1A  083E               	movf	___flmul@temp,w
  5876     0E1B  00AE               	movwf	??___flmul
  5877     0E1C  083F               	movf	___flmul@temp+1,w
  5878     0E1D  00AF               	movwf	??___flmul+1
  5879     0E1E  01B0               	clrf	??___flmul+2
  5880     0E1F  01B1               	clrf	??___flmul+3
  5881     0E20  082E               	movf	??___flmul,w
  5882     0E21  07B5               	addwf	___flmul@grs,f
  5883     0E22  082F               	movf	??___flmul+1,w
  5884     0E23  1103               	clrz
  5885     0E24  1803               	skipnc
  5886     0E25  3E01               	addlw	1
  5887     0E26  1903               	skipnz
  5888     0E27  2E29               	goto	u5151
  5889     0E28  07B6               	addwf	___flmul@grs+1,f
  5890     0E29                     u5151:
  5891     0E29  0830               	movf	??___flmul+2,w
  5892     0E2A  1103               	clrz
  5893     0E2B  1803               	skipnc
  5894     0E2C  3E01               	addlw	1
  5895     0E2D  1903               	skipnz
  5896     0E2E  2E30               	goto	u5152
  5897     0E2F  07B7               	addwf	___flmul@grs+2,f
  5898     0E30                     u5152:
  5899     0E30  0831               	movf	??___flmul+3,w
  5900     0E31  1103               	clrz
  5901     0E32  1803               	skipnc
  5902     0E33  3E01               	addlw	1
  5903     0E34  1903               	skipnz
  5904     0E35  2E37               	goto	u5153
  5905     0E36  07B8               	addwf	___flmul@grs+3,f
  5906     0E37                     u5153:
  5907     0E37                     l3298:
  5908     0E37  3008               	movlw	8
  5909     0E38  00AE               	movwf	??___flmul
  5910     0E39                     u5165:
  5911     0E39  1003               	clrc
  5912     0E3A  0DB5               	rlf	___flmul@grs,f
  5913     0E3B  0DB6               	rlf	___flmul@grs+1,f
  5914     0E3C  0DB7               	rlf	___flmul@grs+2,f
  5915     0E3D  0DB8               	rlf	___flmul@grs+3,f
  5916     0E3E  0BAE               	decfsz	??___flmul,f
  5917     0E3F  2E39               	goto	u5165
  5918     0E40  0826               	movf	___flmul@b,w
  5919     0E41  00F2               	movwf	__Umul8_16@multiplicand
  5920     0E42  082A               	movf	___flmul@a,w
  5921     0E43  160A  158A  27AC  120A  158A  	fcall	__Umul8_16
  5922     0E48  0873               	movf	?__Umul8_16+1,w
  5923     0E49  1283               	bcf	3,5	;RP0=0, select bank0
  5924     0E4A  1303               	bcf	3,6	;RP1=0, select bank0
  5925     0E4B  00BF               	movwf	___flmul@temp+1
  5926     0E4C  0872               	movf	?__Umul8_16,w
  5927     0E4D  00BE               	movwf	___flmul@temp
  5928     0E4E                     l3300:
  5929     0E4E  083E               	movf	___flmul@temp,w
  5930     0E4F  00AE               	movwf	??___flmul
  5931     0E50  083F               	movf	___flmul@temp+1,w
  5932     0E51  00AF               	movwf	??___flmul+1
  5933     0E52  01B0               	clrf	??___flmul+2
  5934     0E53  01B1               	clrf	??___flmul+3
  5935     0E54  082E               	movf	??___flmul,w
  5936     0E55  07B5               	addwf	___flmul@grs,f
  5937     0E56  082F               	movf	??___flmul+1,w
  5938     0E57  1103               	clrz
  5939     0E58  1803               	skipnc
  5940     0E59  3E01               	addlw	1
  5941     0E5A  1903               	skipnz
  5942     0E5B  2E5D               	goto	u5171
  5943     0E5C  07B6               	addwf	___flmul@grs+1,f
  5944     0E5D                     u5171:
  5945     0E5D  0830               	movf	??___flmul+2,w
  5946     0E5E  1103               	clrz
  5947     0E5F  1803               	skipnc
  5948     0E60  3E01               	addlw	1
  5949     0E61  1903               	skipnz
  5950     0E62  2E64               	goto	u5172
  5951     0E63  07B7               	addwf	___flmul@grs+2,f
  5952     0E64                     u5172:
  5953     0E64  0831               	movf	??___flmul+3,w
  5954     0E65  1103               	clrz
  5955     0E66  1803               	skipnc
  5956     0E67  3E01               	addlw	1
  5957     0E68  1903               	skipnz
  5958     0E69  2E6B               	goto	u5173
  5959     0E6A  07B8               	addwf	___flmul@grs+3,f
  5960     0E6B                     u5173:
  5961     0E6B                     l3302:
  5962     0E6B  0827               	movf	___flmul@b+1,w
  5963     0E6C  00F2               	movwf	__Umul8_16@multiplicand
  5964     0E6D  082C               	movf	___flmul@a+2,w
  5965     0E6E  160A  158A  27AC  120A  158A  	fcall	__Umul8_16
  5966     0E73  0873               	movf	?__Umul8_16+1,w
  5967     0E74  1283               	bcf	3,5	;RP0=0, select bank0
  5968     0E75  1303               	bcf	3,6	;RP1=0, select bank0
  5969     0E76  00BF               	movwf	___flmul@temp+1
  5970     0E77  0872               	movf	?__Umul8_16,w
  5971     0E78  00BE               	movwf	___flmul@temp
  5972     0E79  083E               	movf	___flmul@temp,w
  5973     0E7A  00AE               	movwf	??___flmul
  5974     0E7B  083F               	movf	___flmul@temp+1,w
  5975     0E7C  00AF               	movwf	??___flmul+1
  5976     0E7D  01B0               	clrf	??___flmul+2
  5977     0E7E  01B1               	clrf	??___flmul+3
  5978     0E7F  082E               	movf	??___flmul,w
  5979     0E80  07BA               	addwf	___flmul@prod,f
  5980     0E81  082F               	movf	??___flmul+1,w
  5981     0E82  1103               	clrz
  5982     0E83  1803               	skipnc
  5983     0E84  3E01               	addlw	1
  5984     0E85  1903               	skipnz
  5985     0E86  2E88               	goto	u5181
  5986     0E87  07BB               	addwf	___flmul@prod+1,f
  5987     0E88                     u5181:
  5988     0E88  0830               	movf	??___flmul+2,w
  5989     0E89  1103               	clrz
  5990     0E8A  1803               	skipnc
  5991     0E8B  3E01               	addlw	1
  5992     0E8C  1903               	skipnz
  5993     0E8D  2E8F               	goto	u5182
  5994     0E8E  07BC               	addwf	___flmul@prod+2,f
  5995     0E8F                     u5182:
  5996     0E8F  0831               	movf	??___flmul+3,w
  5997     0E90  1103               	clrz
  5998     0E91  1803               	skipnc
  5999     0E92  3E01               	addlw	1
  6000     0E93  1903               	skipnz
  6001     0E94  2E96               	goto	u5183
  6002     0E95  07BD               	addwf	___flmul@prod+3,f
  6003     0E96                     u5183:
  6004     0E96                     l3304:
  6005     0E96  0828               	movf	___flmul@b+2,w
  6006     0E97  00F2               	movwf	__Umul8_16@multiplicand
  6007     0E98  082B               	movf	___flmul@a+1,w
  6008     0E99  160A  158A  27AC  120A  158A  	fcall	__Umul8_16
  6009     0E9E  0873               	movf	?__Umul8_16+1,w
  6010     0E9F  1283               	bcf	3,5	;RP0=0, select bank0
  6011     0EA0  1303               	bcf	3,6	;RP1=0, select bank0
  6012     0EA1  00BF               	movwf	___flmul@temp+1
  6013     0EA2  0872               	movf	?__Umul8_16,w
  6014     0EA3  00BE               	movwf	___flmul@temp
  6015     0EA4                     l3306:
  6016     0EA4  083E               	movf	___flmul@temp,w
  6017     0EA5  00AE               	movwf	??___flmul
  6018     0EA6  083F               	movf	___flmul@temp+1,w
  6019     0EA7  00AF               	movwf	??___flmul+1
  6020     0EA8  01B0               	clrf	??___flmul+2
  6021     0EA9  01B1               	clrf	??___flmul+3
  6022     0EAA  082E               	movf	??___flmul,w
  6023     0EAB  07BA               	addwf	___flmul@prod,f
  6024     0EAC  082F               	movf	??___flmul+1,w
  6025     0EAD  1103               	clrz
  6026     0EAE  1803               	skipnc
  6027     0EAF  3E01               	addlw	1
  6028     0EB0  1903               	skipnz
  6029     0EB1  2EB3               	goto	u5191
  6030     0EB2  07BB               	addwf	___flmul@prod+1,f
  6031     0EB3                     u5191:
  6032     0EB3  0830               	movf	??___flmul+2,w
  6033     0EB4  1103               	clrz
  6034     0EB5  1803               	skipnc
  6035     0EB6  3E01               	addlw	1
  6036     0EB7  1903               	skipnz
  6037     0EB8  2EBA               	goto	u5192
  6038     0EB9  07BC               	addwf	___flmul@prod+2,f
  6039     0EBA                     u5192:
  6040     0EBA  0831               	movf	??___flmul+3,w
  6041     0EBB  1103               	clrz
  6042     0EBC  1803               	skipnc
  6043     0EBD  3E01               	addlw	1
  6044     0EBE  1903               	skipnz
  6045     0EBF  2EC1               	goto	u5193
  6046     0EC0  07BD               	addwf	___flmul@prod+3,f
  6047     0EC1                     u5193:
  6048     0EC1  0828               	movf	___flmul@b+2,w
  6049     0EC2  00F2               	movwf	__Umul8_16@multiplicand
  6050     0EC3  082C               	movf	___flmul@a+2,w
  6051     0EC4  160A  158A  27AC  120A  158A  	fcall	__Umul8_16
  6052     0EC9  0873               	movf	?__Umul8_16+1,w
  6053     0ECA  1283               	bcf	3,5	;RP0=0, select bank0
  6054     0ECB  1303               	bcf	3,6	;RP1=0, select bank0
  6055     0ECC  00BF               	movwf	___flmul@temp+1
  6056     0ECD  0872               	movf	?__Umul8_16,w
  6057     0ECE  00BE               	movwf	___flmul@temp
  6058     0ECF                     l3308:
  6059     0ECF  083E               	movf	___flmul@temp,w
  6060     0ED0  00AE               	movwf	??___flmul
  6061     0ED1  083F               	movf	___flmul@temp+1,w
  6062     0ED2  00AF               	movwf	??___flmul+1
  6063     0ED3  01B0               	clrf	??___flmul+2
  6064     0ED4  01B1               	clrf	??___flmul+3
  6065     0ED5  3008               	movlw	8
  6066     0ED6                     u5205:
  6067     0ED6  1003               	clrc
  6068     0ED7  0DAE               	rlf	??___flmul,f
  6069     0ED8  0DAF               	rlf	??___flmul+1,f
  6070     0ED9  0DB0               	rlf	??___flmul+2,f
  6071     0EDA  0DB1               	rlf	??___flmul+3,f
  6072     0EDB                     u5200:
  6073     0EDB  3EFF               	addlw	-1
  6074     0EDC  1D03               	skipz
  6075     0EDD  2ED6               	goto	u5205
  6076     0EDE  082E               	movf	??___flmul,w
  6077     0EDF  07BA               	addwf	___flmul@prod,f
  6078     0EE0  082F               	movf	??___flmul+1,w
  6079     0EE1  1103               	clrz
  6080     0EE2  1803               	skipnc
  6081     0EE3  3E01               	addlw	1
  6082     0EE4  1903               	skipnz
  6083     0EE5  2EE7               	goto	u5211
  6084     0EE6  07BB               	addwf	___flmul@prod+1,f
  6085     0EE7                     u5211:
  6086     0EE7  0830               	movf	??___flmul+2,w
  6087     0EE8  1103               	clrz
  6088     0EE9  1803               	skipnc
  6089     0EEA  3E01               	addlw	1
  6090     0EEB  1903               	skipnz
  6091     0EEC  2EEE               	goto	u5212
  6092     0EED  07BC               	addwf	___flmul@prod+2,f
  6093     0EEE                     u5212:
  6094     0EEE  0831               	movf	??___flmul+3,w
  6095     0EEF  1103               	clrz
  6096     0EF0  1803               	skipnc
  6097     0EF1  3E01               	addlw	1
  6098     0EF2  1903               	skipnz
  6099     0EF3  2EF5               	goto	u5213
  6100     0EF4  07BD               	addwf	___flmul@prod+3,f
  6101     0EF5                     u5213:
  6102     0EF5                     l3310:
  6103     0EF5  0835               	movf	___flmul@grs,w
  6104     0EF6  00AE               	movwf	??___flmul
  6105     0EF7  0836               	movf	___flmul@grs+1,w
  6106     0EF8  00AF               	movwf	??___flmul+1
  6107     0EF9  0837               	movf	___flmul@grs+2,w
  6108     0EFA  00B0               	movwf	??___flmul+2
  6109     0EFB  0838               	movf	___flmul@grs+3,w
  6110     0EFC  00B1               	movwf	??___flmul+3
  6111     0EFD  3018               	movlw	24
  6112     0EFE                     u5225:
  6113     0EFE  1003               	clrc
  6114     0EFF  0CB1               	rrf	??___flmul+3,f
  6115     0F00  0CB0               	rrf	??___flmul+2,f
  6116     0F01  0CAF               	rrf	??___flmul+1,f
  6117     0F02  0CAE               	rrf	??___flmul,f
  6118     0F03                     u5220:
  6119     0F03  3EFF               	addlw	-1
  6120     0F04  1D03               	skipz
  6121     0F05  2EFE               	goto	u5225
  6122     0F06  082E               	movf	??___flmul,w
  6123     0F07  07BA               	addwf	___flmul@prod,f
  6124     0F08  082F               	movf	??___flmul+1,w
  6125     0F09  1103               	clrz
  6126     0F0A  1803               	skipnc
  6127     0F0B  3E01               	addlw	1
  6128     0F0C  1903               	skipnz
  6129     0F0D  2F0F               	goto	u5231
  6130     0F0E  07BB               	addwf	___flmul@prod+1,f
  6131     0F0F                     u5231:
  6132     0F0F  0830               	movf	??___flmul+2,w
  6133     0F10  1103               	clrz
  6134     0F11  1803               	skipnc
  6135     0F12  3E01               	addlw	1
  6136     0F13  1903               	skipnz
  6137     0F14  2F16               	goto	u5232
  6138     0F15  07BC               	addwf	___flmul@prod+2,f
  6139     0F16                     u5232:
  6140     0F16  0831               	movf	??___flmul+3,w
  6141     0F17  1103               	clrz
  6142     0F18  1803               	skipnc
  6143     0F19  3E01               	addlw	1
  6144     0F1A  1903               	skipnz
  6145     0F1B  2F1D               	goto	u5233
  6146     0F1C  07BD               	addwf	___flmul@prod+3,f
  6147     0F1D                     u5233:
  6148     0F1D                     l3312:
  6149     0F1D  3008               	movlw	8
  6150     0F1E  00AE               	movwf	??___flmul
  6151     0F1F                     u5245:
  6152     0F1F  1003               	clrc
  6153     0F20  0DB5               	rlf	___flmul@grs,f
  6154     0F21  0DB6               	rlf	___flmul@grs+1,f
  6155     0F22  0DB7               	rlf	___flmul@grs+2,f
  6156     0F23  0DB8               	rlf	___flmul@grs+3,f
  6157     0F24  0BAE               	decfsz	??___flmul,f
  6158     0F25  2F1F               	goto	u5245
  6159     0F26                     l3314:
  6160     0F26  0839               	movf	___flmul@bexp,w
  6161     0F27  0734               	addwf	___flmul@aexp,w
  6162     0F28  00AE               	movwf	??___flmul
  6163     0F29  01AF               	clrf	??___flmul+1
  6164     0F2A  0DAF               	rlf	??___flmul+1,f
  6165     0F2B  082E               	movf	??___flmul,w
  6166     0F2C  3E82               	addlw	130
  6167     0F2D  00BE               	movwf	___flmul@temp
  6168     0F2E  082F               	movf	??___flmul+1,w
  6169     0F2F  1803               	skipnc
  6170     0F30  3E01               	addlw	1
  6171     0F31  3EFF               	addlw	255
  6172     0F32  00BF               	movwf	___flmul@temp+1
  6173     0F33  2F51               	goto	l3326
  6174     0F34                     l3316:
  6175     0F34  3001               	movlw	1
  6176     0F35  00AE               	movwf	??___flmul
  6177     0F36                     u5255:
  6178     0F36  1003               	clrc
  6179     0F37  0DBA               	rlf	___flmul@prod,f
  6180     0F38  0DBB               	rlf	___flmul@prod+1,f
  6181     0F39  0DBC               	rlf	___flmul@prod+2,f
  6182     0F3A  0DBD               	rlf	___flmul@prod+3,f
  6183     0F3B  0BAE               	decfsz	??___flmul,f
  6184     0F3C  2F36               	goto	u5255
  6185     0F3D                     l3318:
  6186     0F3D  1FB8               	btfss	___flmul@grs+3,7
  6187     0F3E  2F40               	goto	u5261
  6188     0F3F  2F41               	goto	u5260
  6189     0F40                     u5261:
  6190     0F40  2F42               	goto	l3322
  6191     0F41                     u5260:
  6192     0F41                     l3320:
  6193     0F41  143A               	bsf	___flmul@prod,0
  6194     0F42                     l3322:
  6195     0F42  3001               	movlw	1
  6196     0F43  00AE               	movwf	??___flmul
  6197     0F44                     u5275:
  6198     0F44  1003               	clrc
  6199     0F45  0DB5               	rlf	___flmul@grs,f
  6200     0F46  0DB6               	rlf	___flmul@grs+1,f
  6201     0F47  0DB7               	rlf	___flmul@grs+2,f
  6202     0F48  0DB8               	rlf	___flmul@grs+3,f
  6203     0F49  0BAE               	decfsz	??___flmul,f
  6204     0F4A  2F44               	goto	u5275
  6205     0F4B                     l3324:
  6206     0F4B  30FF               	movlw	255
  6207     0F4C  07BE               	addwf	___flmul@temp,f
  6208     0F4D  1803               	skipnc
  6209     0F4E  0ABF               	incf	___flmul@temp+1,f
  6210     0F4F  30FF               	movlw	255
  6211     0F50  07BF               	addwf	___flmul@temp+1,f
  6212     0F51                     l3326:
  6213     0F51  1FBC               	btfss	___flmul@prod+2,7
  6214     0F52  2F54               	goto	u5281
  6215     0F53  2F55               	goto	u5280
  6216     0F54                     u5281:
  6217     0F54  2F34               	goto	l3316
  6218     0F55                     u5280:
  6219     0F55                     l3328:
  6220     0F55  01B4               	clrf	___flmul@aexp
  6221     0F56                     l3330:
  6222     0F56  1FB8               	btfss	___flmul@grs+3,7
  6223     0F57  2F59               	goto	u5291
  6224     0F58  2F5A               	goto	u5290
  6225     0F59                     u5291:
  6226     0F59  2F76               	goto	l3338
  6227     0F5A                     u5290:
  6228     0F5A                     l3332:
  6229     0F5A  30FF               	movlw	255
  6230     0F5B  0535               	andwf	___flmul@grs,w
  6231     0F5C  00AE               	movwf	??___flmul
  6232     0F5D  30FF               	movlw	255
  6233     0F5E  0536               	andwf	___flmul@grs+1,w
  6234     0F5F  00AF               	movwf	??___flmul+1
  6235     0F60  30FF               	movlw	255
  6236     0F61  0537               	andwf	___flmul@grs+2,w
  6237     0F62  00B0               	movwf	??___flmul+2
  6238     0F63  307F               	movlw	127
  6239     0F64  0538               	andwf	___flmul@grs+3,w
  6240     0F65  00B1               	movwf	??___flmul+3
  6241     0F66  0831               	movf	??___flmul+3,w
  6242     0F67  0430               	iorwf	??___flmul+2,w
  6243     0F68  042F               	iorwf	??___flmul+1,w
  6244     0F69  042E               	iorwf	??___flmul,w
  6245     0F6A  1903               	skipnz
  6246     0F6B  2F6D               	goto	u5301
  6247     0F6C  2F6E               	goto	u5300
  6248     0F6D                     u5301:
  6249     0F6D  2F71               	goto	l584
  6250     0F6E                     u5300:
  6251     0F6E                     l3334:
  6252     0F6E  3001               	movlw	1
  6253     0F6F  00B4               	movwf	___flmul@aexp
  6254     0F70  2F76               	goto	l3338
  6255     0F71                     l584:
  6256     0F71  1C3A               	btfss	___flmul@prod,0
  6257     0F72  2F74               	goto	u5311
  6258     0F73  2F75               	goto	u5310
  6259     0F74                     u5311:
  6260     0F74  2F76               	goto	l3338
  6261     0F75                     u5310:
  6262     0F75  2F6E               	goto	l3334
  6263     0F76                     l3338:
  6264     0F76  0834               	movf	___flmul@aexp,w
  6265     0F77  1903               	btfsc	3,2
  6266     0F78  2F7A               	goto	u5321
  6267     0F79  2F7B               	goto	u5320
  6268     0F7A                     u5321:
  6269     0F7A  2FAC               	goto	l3348
  6270     0F7B                     u5320:
  6271     0F7B                     l3340:
  6272     0F7B  3001               	movlw	1
  6273     0F7C  07BA               	addwf	___flmul@prod,f
  6274     0F7D  3000               	movlw	0
  6275     0F7E  1803               	skipnc
  6276     0F7F  3001               	movlw	1
  6277     0F80  07BB               	addwf	___flmul@prod+1,f
  6278     0F81  3000               	movlw	0
  6279     0F82  1803               	skipnc
  6280     0F83  3001               	movlw	1
  6281     0F84  07BC               	addwf	___flmul@prod+2,f
  6282     0F85  3000               	movlw	0
  6283     0F86  1803               	skipnc
  6284     0F87  3001               	movlw	1
  6285     0F88  07BD               	addwf	___flmul@prod+3,f
  6286     0F89                     l3342:
  6287     0F89  1C3D               	btfss	___flmul@prod+3,0
  6288     0F8A  2F8C               	goto	u5331
  6289     0F8B  2F8D               	goto	u5330
  6290     0F8C                     u5331:
  6291     0F8C  2FAC               	goto	l3348
  6292     0F8D                     u5330:
  6293     0F8D                     l3344:
  6294     0F8D  083A               	movf	___flmul@prod,w
  6295     0F8E  00AE               	movwf	??___flmul
  6296     0F8F  083B               	movf	___flmul@prod+1,w
  6297     0F90  00AF               	movwf	??___flmul+1
  6298     0F91  083C               	movf	___flmul@prod+2,w
  6299     0F92  00B0               	movwf	??___flmul+2
  6300     0F93  083D               	movf	___flmul@prod+3,w
  6301     0F94  00B1               	movwf	??___flmul+3
  6302     0F95  3001               	movlw	1
  6303     0F96  00B2               	movwf	??___flmul+4
  6304     0F97                     u5345:
  6305     0F97  0D31               	rlf	??___flmul+3,w
  6306     0F98  0CB1               	rrf	??___flmul+3,f
  6307     0F99  0CB0               	rrf	??___flmul+2,f
  6308     0F9A  0CAF               	rrf	??___flmul+1,f
  6309     0F9B  0CAE               	rrf	??___flmul,f
  6310     0F9C                     u5340:
  6311     0F9C  0BB2               	decfsz	??___flmul+4,f
  6312     0F9D  2F97               	goto	u5345
  6313     0F9E  0831               	movf	??___flmul+3,w
  6314     0F9F  00BD               	movwf	___flmul@prod+3
  6315     0FA0  0830               	movf	??___flmul+2,w
  6316     0FA1  00BC               	movwf	___flmul@prod+2
  6317     0FA2  082F               	movf	??___flmul+1,w
  6318     0FA3  00BB               	movwf	___flmul@prod+1
  6319     0FA4  082E               	movf	??___flmul,w
  6320     0FA5  00BA               	movwf	___flmul@prod
  6321     0FA6                     l3346:
  6322     0FA6  3001               	movlw	1
  6323     0FA7  07BE               	addwf	___flmul@temp,f
  6324     0FA8  1803               	skipnc
  6325     0FA9  0ABF               	incf	___flmul@temp+1,f
  6326     0FAA  3000               	movlw	0
  6327     0FAB  07BF               	addwf	___flmul@temp+1,f
  6328     0FAC                     l3348:
  6329     0FAC  083F               	movf	___flmul@temp+1,w
  6330     0FAD  3A80               	xorlw	128
  6331     0FAE  00FF               	movwf	btemp+1
  6332     0FAF  3080               	movlw	128
  6333     0FB0  027F               	subwf	btemp+1,w
  6334     0FB1  1D03               	skipz
  6335     0FB2  2FB5               	goto	u5355
  6336     0FB3  30FF               	movlw	255
  6337     0FB4  023E               	subwf	___flmul@temp,w
  6338     0FB5                     u5355:
  6339     0FB5  1C03               	skipc
  6340     0FB6  2FB8               	goto	u5351
  6341     0FB7  2FB9               	goto	u5350
  6342     0FB8                     u5351:
  6343     0FB8  2FC4               	goto	l3352
  6344     0FB9                     u5350:
  6345     0FB9                     l3350:
  6346     0FB9  307F               	movlw	127
  6347     0FBA  1283               	bcf	3,5	;RP0=0, select bank0
  6348     0FBB  1303               	bcf	3,6	;RP1=0, select bank0
  6349     0FBC  00BD               	movwf	___flmul@prod+3
  6350     0FBD  3080               	movlw	128
  6351     0FBE  00BC               	movwf	___flmul@prod+2
  6352     0FBF  3000               	movlw	0
  6353     0FC0  00BB               	movwf	___flmul@prod+1
  6354     0FC1  3000               	movlw	0
  6355     0FC2  00BA               	movwf	___flmul@prod
  6356     0FC3  2FF5               	goto	l590
  6357     0FC4                     l3352:
  6358     0FC4  1283               	bcf	3,5	;RP0=0, select bank0
  6359     0FC5  1303               	bcf	3,6	;RP1=0, select bank0
  6360     0FC6  083F               	movf	___flmul@temp+1,w
  6361     0FC7  3A80               	xorlw	128
  6362     0FC8  00FF               	movwf	btemp+1
  6363     0FC9  3080               	movlw	128
  6364     0FCA  027F               	subwf	btemp+1,w
  6365     0FCB  1D03               	skipz
  6366     0FCC  2FCF               	goto	u5365
  6367     0FCD  3001               	movlw	1
  6368     0FCE  023E               	subwf	___flmul@temp,w
  6369     0FCF                     u5365:
  6370     0FCF  1803               	skipnc
  6371     0FD0  2FD2               	goto	u5361
  6372     0FD1  2FD3               	goto	u5360
  6373     0FD2                     u5361:
  6374     0FD2  2FDF               	goto	l3358
  6375     0FD3                     u5360:
  6376     0FD3                     l3354:
  6377     0FD3  3000               	movlw	0
  6378     0FD4  1283               	bcf	3,5	;RP0=0, select bank0
  6379     0FD5  1303               	bcf	3,6	;RP1=0, select bank0
  6380     0FD6  00BD               	movwf	___flmul@prod+3
  6381     0FD7  3000               	movlw	0
  6382     0FD8  00BC               	movwf	___flmul@prod+2
  6383     0FD9  3000               	movlw	0
  6384     0FDA  00BB               	movwf	___flmul@prod+1
  6385     0FDB  3000               	movlw	0
  6386     0FDC  00BA               	movwf	___flmul@prod
  6387     0FDD                     l3356:
  6388     0FDD  01B3               	clrf	___flmul@sign
  6389     0FDE  2FF5               	goto	l590
  6390     0FDF                     l3358:
  6391     0FDF  1283               	bcf	3,5	;RP0=0, select bank0
  6392     0FE0  1303               	bcf	3,6	;RP1=0, select bank0
  6393     0FE1  083E               	movf	___flmul@temp,w
  6394     0FE2  00B9               	movwf	___flmul@bexp
  6395     0FE3  30FF               	movlw	255
  6396     0FE4  05BA               	andwf	___flmul@prod,f
  6397     0FE5  30FF               	movlw	255
  6398     0FE6  05BB               	andwf	___flmul@prod+1,f
  6399     0FE7  307F               	movlw	127
  6400     0FE8  05BC               	andwf	___flmul@prod+2,f
  6401     0FE9  3000               	movlw	0
  6402     0FEA  05BD               	andwf	___flmul@prod+3,f
  6403     0FEB                     l3360:
  6404     0FEB  1C39               	btfss	___flmul@bexp,0
  6405     0FEC  2FEE               	goto	u5371
  6406     0FED  2FEF               	goto	u5370
  6407     0FEE                     u5371:
  6408     0FEE  2FF0               	goto	l3364
  6409     0FEF                     u5370:
  6410     0FEF                     l3362:
  6411     0FEF  17BC               	bsf	___flmul@prod+2,7
  6412     0FF0                     l3364:
  6413     0FF0  0839               	movf	___flmul@bexp,w
  6414     0FF1  00AE               	movwf	??___flmul
  6415     0FF2  1003               	clrc
  6416     0FF3  0C2E               	rrf	??___flmul,w
  6417     0FF4  00BD               	movwf	___flmul@prod+3
  6418     0FF5                     l590:
  6419     0FF5  0833               	movf	___flmul@sign,w
  6420     0FF6  04BD               	iorwf	___flmul@prod+3,f
  6421     0FF7                     l3366:
  6422     0FF7  083D               	movf	___flmul@prod+3,w
  6423     0FF8  00A9               	movwf	?___flmul+3
  6424     0FF9  083C               	movf	___flmul@prod+2,w
  6425     0FFA  00A8               	movwf	?___flmul+2
  6426     0FFB  083B               	movf	___flmul@prod+1,w
  6427     0FFC  00A7               	movwf	?___flmul+1
  6428     0FFD  083A               	movf	___flmul@prod,w
  6429     0FFE  00A6               	movwf	?___flmul
  6430     0FFF                     l578:
  6431     0FFF  0008               	return
  6432     1000                     __end_of___flmul:
  6433                           
  6434                           	psect	text21
  6435     1FAC                     __ptext21:	
  6436 ;; *************** function __Umul8_16 *****************
  6437 ;; Defined at:
  6438 ;;		line 4 in file "C:\Program Files\Microchip\xc8\v2.50\pic\sources\c99\common\Umul8_16.c"
  6439 ;; Parameters:    Size  Location     Type
  6440 ;;  multiplier      1    wreg     unsigned char 
  6441 ;;  multiplicand    1    2[COMMON] unsigned char 
  6442 ;; Auto vars:     Size  Location     Type
  6443 ;;  multiplier      1    4[BANK0 ] unsigned char 
  6444 ;;  word_mpld       2    2[BANK0 ] unsigned short 
  6445 ;;  product         2    0[BANK0 ] unsigned short 
  6446 ;; Return value:  Size  Location     Type
  6447 ;;                  2    2[COMMON] unsigned int 
  6448 ;; Registers used:
  6449 ;;		wreg, status,2, status,0
  6450 ;; Tracked objects:
  6451 ;;		On entry : 0/0
  6452 ;;		On exit  : 0/0
  6453 ;;		Unchanged: 0/0
  6454 ;; Data sizes:     COMMON   BANK0   BANK1   BANK3   BANK2
  6455 ;;      Params:         2       0       0       0       0
  6456 ;;      Locals:         0       5       0       0       0
  6457 ;;      Temps:          2       0       0       0       0
  6458 ;;      Totals:         4       5       0       0       0
  6459 ;;Total ram usage:        9 bytes
  6460 ;; Hardware stack levels used: 1
  6461 ;; Hardware stack levels required when called: 1
  6462 ;; This function calls:
  6463 ;;		Nothing
  6464 ;; This function is called by:
  6465 ;;		___flmul
  6466 ;; This function uses a non-reentrant model
  6467 ;;
  6468                           
  6469     1FAC                     __Umul8_16:	
  6470                           ;psect for function __Umul8_16
  6471                           
  6472                           
  6473                           ;incstack = 0
  6474                           ; Regs used in __Umul8_16: [wreg+status,2+status,0]
  6475                           ;__Umul8_16@multiplier stored from wreg
  6476     1FAC  1283               	bcf	3,5	;RP0=0, select bank0
  6477     1FAD  1303               	bcf	3,6	;RP1=0, select bank0
  6478     1FAE  00A4               	movwf	__Umul8_16@multiplier
  6479     1FAF                     l3170:
  6480     1FAF  01A0               	clrf	__Umul8_16@product
  6481     1FB0  01A1               	clrf	__Umul8_16@product+1
  6482     1FB1                     l3172:
  6483     1FB1  0872               	movf	__Umul8_16@multiplicand,w
  6484     1FB2  00F4               	movwf	??__Umul8_16
  6485     1FB3  01F5               	clrf	??__Umul8_16+1
  6486     1FB4  0874               	movf	??__Umul8_16,w
  6487     1FB5  00A2               	movwf	__Umul8_16@word_mpld
  6488     1FB6  0875               	movf	??__Umul8_16+1,w
  6489     1FB7  00A3               	movwf	__Umul8_16@word_mpld+1
  6490     1FB8                     l3174:
  6491     1FB8  1C24               	btfss	__Umul8_16@multiplier,0
  6492     1FB9  2FBB               	goto	u4871
  6493     1FBA  2FBC               	goto	u4870
  6494     1FBB                     u4871:
  6495     1FBB  2FC2               	goto	l597
  6496     1FBC                     u4870:
  6497     1FBC                     l3176:
  6498     1FBC  0822               	movf	__Umul8_16@word_mpld,w
  6499     1FBD  07A0               	addwf	__Umul8_16@product,f
  6500     1FBE  1803               	skipnc
  6501     1FBF  0AA1               	incf	__Umul8_16@product+1,f
  6502     1FC0  0823               	movf	__Umul8_16@word_mpld+1,w
  6503     1FC1  07A1               	addwf	__Umul8_16@product+1,f
  6504     1FC2                     l597:
  6505     1FC2  3001               	movlw	1
  6506     1FC3                     u4885:
  6507     1FC3  1003               	clrc
  6508     1FC4  0DA2               	rlf	__Umul8_16@word_mpld,f
  6509     1FC5  0DA3               	rlf	__Umul8_16@word_mpld+1,f
  6510     1FC6  3EFF               	addlw	-1
  6511     1FC7  1D03               	skipz
  6512     1FC8  2FC3               	goto	u4885
  6513     1FC9  1003               	clrc
  6514     1FCA  0CA4               	rrf	__Umul8_16@multiplier,f
  6515     1FCB                     l3178:
  6516     1FCB  0824               	movf	__Umul8_16@multiplier,w
  6517     1FCC  1D03               	btfss	3,2
  6518     1FCD  2FCF               	goto	u4891
  6519     1FCE  2FD0               	goto	u4890
  6520     1FCF                     u4891:
  6521     1FCF  2FB8               	goto	l3174
  6522     1FD0                     u4890:
  6523     1FD0                     l3180:
  6524     1FD0  0821               	movf	__Umul8_16@product+1,w
  6525     1FD1  00F3               	movwf	?__Umul8_16+1
  6526     1FD2  0820               	movf	__Umul8_16@product,w
  6527     1FD3  00F2               	movwf	?__Umul8_16
  6528     1FD4                     l599:
  6529     1FD4  0008               	return
  6530     1FD5                     __end_of__Umul8_16:
  6531                           
  6532                           	psect	text22
  6533     13DB                     __ptext22:	
  6534 ;; *************** function ___flge *****************
  6535 ;; Defined at:
  6536 ;;		line 4 in file "C:\Program Files\Microchip\xc8\v2.50\pic\sources\c99\common\flge.c"
  6537 ;; Parameters:    Size  Location     Type
  6538 ;;  ff1             4   32[BANK0 ] unsigned int 
  6539 ;;  ff2             4   36[BANK0 ] unsigned int 
  6540 ;; Auto vars:     Size  Location     Type
  6541 ;;		None
  6542 ;; Return value:  Size  Location     Type
  6543 ;;		None               void
  6544 ;; Registers used:
  6545 ;;		wreg, status,2, status,0
  6546 ;; Tracked objects:
  6547 ;;		On entry : 0/0
  6548 ;;		On exit  : 0/0
  6549 ;;		Unchanged: 0/0
  6550 ;; Data sizes:     COMMON   BANK0   BANK1   BANK3   BANK2
  6551 ;;      Params:         0       8       0       0       0
  6552 ;;      Locals:         0       0       0       0       0
  6553 ;;      Temps:          0       4       0       0       0
  6554 ;;      Totals:         0      12       0       0       0
  6555 ;;Total ram usage:       12 bytes
  6556 ;; Hardware stack levels used: 1
  6557 ;; Hardware stack levels required when called: 1
  6558 ;; This function calls:
  6559 ;;		Nothing
  6560 ;; This function is called by:
  6561 ;;		_efgtoa
  6562 ;; This function uses a non-reentrant model
  6563 ;;
  6564                           
  6565     13DB                     ___flge:	
  6566                           ;psect for function ___flge
  6567                           
  6568     13DB                     l2260:	
  6569                           ;incstack = 0
  6570                           ; Regs used in ___flge: [wreg+status,2+status,0]
  6571                           
  6572     13DB  3000               	movlw	0
  6573     13DC  1283               	bcf	3,5	;RP0=0, select bank0
  6574     13DD  1303               	bcf	3,6	;RP1=0, select bank0
  6575     13DE  0540               	andwf	___flge@ff1,w
  6576     13DF  00C8               	movwf	??___flge
  6577     13E0  3000               	movlw	0
  6578     13E1  0541               	andwf	___flge@ff1+1,w
  6579     13E2  00C9               	movwf	??___flge+1
  6580     13E3  3080               	movlw	128
  6581     13E4  0542               	andwf	___flge@ff1+2,w
  6582     13E5  00CA               	movwf	??___flge+2
  6583     13E6  307F               	movlw	127
  6584     13E7  0543               	andwf	___flge@ff1+3,w
  6585     13E8  00CB               	movwf	??___flge+3
  6586     13E9  084B               	movf	??___flge+3,w
  6587     13EA  044A               	iorwf	??___flge+2,w
  6588     13EB  0449               	iorwf	??___flge+1,w
  6589     13EC  0448               	iorwf	??___flge,w
  6590     13ED  1D03               	skipz
  6591     13EE  2BF0               	goto	u3061
  6592     13EF  2BF1               	goto	u3060
  6593     13F0                     u3061:
  6594     13F0  2BF9               	goto	l359
  6595     13F1                     u3060:
  6596     13F1                     l2262:
  6597     13F1  3000               	movlw	0
  6598     13F2  00C3               	movwf	___flge@ff1+3
  6599     13F3  3000               	movlw	0
  6600     13F4  00C2               	movwf	___flge@ff1+2
  6601     13F5  3000               	movlw	0
  6602     13F6  00C1               	movwf	___flge@ff1+1
  6603     13F7  3000               	movlw	0
  6604     13F8  00C0               	movwf	___flge@ff1
  6605     13F9                     l359:
  6606     13F9  3000               	movlw	0
  6607     13FA  0544               	andwf	___flge@ff2,w
  6608     13FB  00C8               	movwf	??___flge
  6609     13FC  3000               	movlw	0
  6610     13FD  0545               	andwf	___flge@ff2+1,w
  6611     13FE  00C9               	movwf	??___flge+1
  6612     13FF  3080               	movlw	128
  6613     1400  0546               	andwf	___flge@ff2+2,w
  6614     1401  00CA               	movwf	??___flge+2
  6615     1402  307F               	movlw	127
  6616     1403  0547               	andwf	___flge@ff2+3,w
  6617     1404  00CB               	movwf	??___flge+3
  6618     1405  084B               	movf	??___flge+3,w
  6619     1406  044A               	iorwf	??___flge+2,w
  6620     1407  0449               	iorwf	??___flge+1,w
  6621     1408  0448               	iorwf	??___flge,w
  6622     1409  1D03               	skipz
  6623     140A  2C0C               	goto	u3071
  6624     140B  2C0D               	goto	u3070
  6625     140C                     u3071:
  6626     140C  2C15               	goto	l2266
  6627     140D                     u3070:
  6628     140D                     l2264:
  6629     140D  3000               	movlw	0
  6630     140E  00C7               	movwf	___flge@ff2+3
  6631     140F  3000               	movlw	0
  6632     1410  00C6               	movwf	___flge@ff2+2
  6633     1411  3000               	movlw	0
  6634     1412  00C5               	movwf	___flge@ff2+1
  6635     1413  3000               	movlw	0
  6636     1414  00C4               	movwf	___flge@ff2
  6637     1415                     l2266:
  6638     1415  1FC3               	btfss	___flge@ff1+3,7
  6639     1416  2C18               	goto	u3081
  6640     1417  2C19               	goto	u3080
  6641     1418                     u3081:
  6642     1418  2C3D               	goto	l2270
  6643     1419                     u3080:
  6644     1419                     l2268:
  6645     1419  3000               	movlw	0
  6646     141A  00C8               	movwf	??___flge
  6647     141B  3000               	movlw	0
  6648     141C  00C9               	movwf	??___flge+1
  6649     141D  3000               	movlw	0
  6650     141E  00CA               	movwf	??___flge+2
  6651     141F  3080               	movlw	128
  6652     1420  00CB               	movwf	??___flge+3
  6653     1421  0840               	movf	___flge@ff1,w
  6654     1422  02C8               	subwf	??___flge,f
  6655     1423  0841               	movf	___flge@ff1+1,w
  6656     1424  1C03               	skipc
  6657     1425  0F41               	incfsz	___flge@ff1+1,w
  6658     1426  2C28               	goto	u3091
  6659     1427  2C29               	goto	u3092
  6660     1428                     u3091:
  6661     1428  02C9               	subwf	??___flge+1,f
  6662     1429                     u3092:
  6663     1429  0842               	movf	___flge@ff1+2,w
  6664     142A  1C03               	skipc
  6665     142B  0F42               	incfsz	___flge@ff1+2,w
  6666     142C  2C2E               	goto	u3093
  6667     142D  2C2F               	goto	u3094
  6668     142E                     u3093:
  6669     142E  02CA               	subwf	??___flge+2,f
  6670     142F                     u3094:
  6671     142F  0843               	movf	___flge@ff1+3,w
  6672     1430  1C03               	skipc
  6673     1431  0F43               	incfsz	___flge@ff1+3,w
  6674     1432  2C34               	goto	u3095
  6675     1433  2C35               	goto	u3096
  6676     1434                     u3095:
  6677     1434  02CB               	subwf	??___flge+3,f
  6678     1435                     u3096:
  6679     1435  084B               	movf	??___flge+3,w
  6680     1436  00C3               	movwf	___flge@ff1+3
  6681     1437  084A               	movf	??___flge+2,w
  6682     1438  00C2               	movwf	___flge@ff1+2
  6683     1439  0849               	movf	??___flge+1,w
  6684     143A  00C1               	movwf	___flge@ff1+1
  6685     143B  0848               	movf	??___flge,w
  6686     143C  00C0               	movwf	___flge@ff1
  6687     143D                     l2270:
  6688     143D  1FC7               	btfss	___flge@ff2+3,7
  6689     143E  2C40               	goto	u3101
  6690     143F  2C41               	goto	u3100
  6691     1440                     u3101:
  6692     1440  2C65               	goto	l362
  6693     1441                     u3100:
  6694     1441                     l2272:
  6695     1441  3000               	movlw	0
  6696     1442  00C8               	movwf	??___flge
  6697     1443  3000               	movlw	0
  6698     1444  00C9               	movwf	??___flge+1
  6699     1445  3000               	movlw	0
  6700     1446  00CA               	movwf	??___flge+2
  6701     1447  3080               	movlw	128
  6702     1448  00CB               	movwf	??___flge+3
  6703     1449  0844               	movf	___flge@ff2,w
  6704     144A  02C8               	subwf	??___flge,f
  6705     144B  0845               	movf	___flge@ff2+1,w
  6706     144C  1C03               	skipc
  6707     144D  0F45               	incfsz	___flge@ff2+1,w
  6708     144E  2C50               	goto	u3111
  6709     144F  2C51               	goto	u3112
  6710     1450                     u3111:
  6711     1450  02C9               	subwf	??___flge+1,f
  6712     1451                     u3112:
  6713     1451  0846               	movf	___flge@ff2+2,w
  6714     1452  1C03               	skipc
  6715     1453  0F46               	incfsz	___flge@ff2+2,w
  6716     1454  2C56               	goto	u3113
  6717     1455  2C57               	goto	u3114
  6718     1456                     u3113:
  6719     1456  02CA               	subwf	??___flge+2,f
  6720     1457                     u3114:
  6721     1457  0847               	movf	___flge@ff2+3,w
  6722     1458  1C03               	skipc
  6723     1459  0F47               	incfsz	___flge@ff2+3,w
  6724     145A  2C5C               	goto	u3115
  6725     145B  2C5D               	goto	u3116
  6726     145C                     u3115:
  6727     145C  02CB               	subwf	??___flge+3,f
  6728     145D                     u3116:
  6729     145D  084B               	movf	??___flge+3,w
  6730     145E  00C7               	movwf	___flge@ff2+3
  6731     145F  084A               	movf	??___flge+2,w
  6732     1460  00C6               	movwf	___flge@ff2+2
  6733     1461  0849               	movf	??___flge+1,w
  6734     1462  00C5               	movwf	___flge@ff2+1
  6735     1463  0848               	movf	??___flge,w
  6736     1464  00C4               	movwf	___flge@ff2
  6737     1465                     l362:
  6738     1465  3080               	movlw	128
  6739     1466  06C3               	xorwf	___flge@ff1+3,f
  6740     1467  3080               	movlw	128
  6741     1468  06C7               	xorwf	___flge@ff2+3,f
  6742     1469  0847               	movf	___flge@ff2+3,w
  6743     146A  0243               	subwf	___flge@ff1+3,w
  6744     146B  1D03               	skipz
  6745     146C  2C77               	goto	u3125
  6746     146D  0846               	movf	___flge@ff2+2,w
  6747     146E  0242               	subwf	___flge@ff1+2,w
  6748     146F  1D03               	skipz
  6749     1470  2C77               	goto	u3125
  6750     1471  0845               	movf	___flge@ff2+1,w
  6751     1472  0241               	subwf	___flge@ff1+1,w
  6752     1473  1D03               	skipz
  6753     1474  2C77               	goto	u3125
  6754     1475  0844               	movf	___flge@ff2,w
  6755     1476  0240               	subwf	___flge@ff1,w
  6756     1477                     u3125:
  6757     1477  1803               	skipnc
  6758     1478  2C7A               	goto	u3121
  6759     1479  2C7B               	goto	u3120
  6760     147A                     u3121:
  6761     147A  2C7D               	goto	l2276
  6762     147B                     u3120:
  6763     147B                     l2274:
  6764     147B  1003               	clrc
  6765     147C  2C7E               	goto	l367
  6766     147D                     l2276:
  6767     147D  1403               	setc
  6768     147E                     l367:
  6769     147E  0008               	return
  6770     147F                     __end_of___flge:
  6771                           
  6772                           	psect	text23
  6773     10A4                     __ptext23:	
  6774 ;; *************** function ___fleq *****************
  6775 ;; Defined at:
  6776 ;;		line 4 in file "C:\Program Files\Microchip\xc8\v2.50\pic\sources\c99\common\fleq.c"
  6777 ;; Parameters:    Size  Location     Type
  6778 ;;  ff1             4    2[COMMON] unsigned int 
  6779 ;;  ff2             4    6[COMMON] unsigned int 
  6780 ;; Auto vars:     Size  Location     Type
  6781 ;;		None
  6782 ;; Return value:  Size  Location     Type
  6783 ;;		None               void
  6784 ;; Registers used:
  6785 ;;		wreg, status,2, status,0
  6786 ;; Tracked objects:
  6787 ;;		On entry : 0/0
  6788 ;;		On exit  : 0/0
  6789 ;;		Unchanged: 0/0
  6790 ;; Data sizes:     COMMON   BANK0   BANK1   BANK3   BANK2
  6791 ;;      Params:         8       0       0       0       0
  6792 ;;      Locals:         0       0       0       0       0
  6793 ;;      Temps:          0       4       0       0       0
  6794 ;;      Totals:         8       4       0       0       0
  6795 ;;Total ram usage:       12 bytes
  6796 ;; Hardware stack levels used: 1
  6797 ;; Hardware stack levels required when called: 1
  6798 ;; This function calls:
  6799 ;;		Nothing
  6800 ;; This function is called by:
  6801 ;;		_efgtoa
  6802 ;; This function uses a non-reentrant model
  6803 ;;
  6804                           
  6805     10A4                     ___fleq:	
  6806                           ;psect for function ___fleq
  6807                           
  6808     10A4                     l2248:	
  6809                           ;incstack = 0
  6810                           ; Regs used in ___fleq: [wreg+status,2+status,0]
  6811                           
  6812     10A4  3000               	movlw	0
  6813     10A5  0572               	andwf	___fleq@ff1,w
  6814     10A6  1283               	bcf	3,5	;RP0=0, select bank0
  6815     10A7  1303               	bcf	3,6	;RP1=0, select bank0
  6816     10A8  00A0               	movwf	??___fleq
  6817     10A9  3000               	movlw	0
  6818     10AA  0573               	andwf	___fleq@ff1+1,w
  6819     10AB  00A1               	movwf	??___fleq+1
  6820     10AC  3080               	movlw	128
  6821     10AD  0574               	andwf	___fleq@ff1+2,w
  6822     10AE  00A2               	movwf	??___fleq+2
  6823     10AF  307F               	movlw	127
  6824     10B0  0575               	andwf	___fleq@ff1+3,w
  6825     10B1  00A3               	movwf	??___fleq+3
  6826     10B2  0823               	movf	??___fleq+3,w
  6827     10B3  0422               	iorwf	??___fleq+2,w
  6828     10B4  0421               	iorwf	??___fleq+1,w
  6829     10B5  0420               	iorwf	??___fleq,w
  6830     10B6  1D03               	skipz
  6831     10B7  28B9               	goto	u3031
  6832     10B8  28BA               	goto	u3030
  6833     10B9                     u3031:
  6834     10B9  28C2               	goto	l350
  6835     10BA                     u3030:
  6836     10BA                     l2250:
  6837     10BA  3000               	movlw	0
  6838     10BB  00F5               	movwf	___fleq@ff1+3
  6839     10BC  3000               	movlw	0
  6840     10BD  00F4               	movwf	___fleq@ff1+2
  6841     10BE  3000               	movlw	0
  6842     10BF  00F3               	movwf	___fleq@ff1+1
  6843     10C0  3000               	movlw	0
  6844     10C1  00F2               	movwf	___fleq@ff1
  6845     10C2                     l350:
  6846     10C2  3000               	movlw	0
  6847     10C3  0576               	andwf	___fleq@ff2,w
  6848     10C4  00A0               	movwf	??___fleq
  6849     10C5  3000               	movlw	0
  6850     10C6  0577               	andwf	___fleq@ff2+1,w
  6851     10C7  00A1               	movwf	??___fleq+1
  6852     10C8  3080               	movlw	128
  6853     10C9  0578               	andwf	___fleq@ff2+2,w
  6854     10CA  00A2               	movwf	??___fleq+2
  6855     10CB  307F               	movlw	127
  6856     10CC  0579               	andwf	___fleq@ff2+3,w
  6857     10CD  00A3               	movwf	??___fleq+3
  6858     10CE  0823               	movf	??___fleq+3,w
  6859     10CF  0422               	iorwf	??___fleq+2,w
  6860     10D0  0421               	iorwf	??___fleq+1,w
  6861     10D1  0420               	iorwf	??___fleq,w
  6862     10D2  1D03               	skipz
  6863     10D3  28D5               	goto	u3041
  6864     10D4  28D6               	goto	u3040
  6865     10D5                     u3041:
  6866     10D5  28DE               	goto	l351
  6867     10D6                     u3040:
  6868     10D6                     l2252:
  6869     10D6  3000               	movlw	0
  6870     10D7  00F9               	movwf	___fleq@ff2+3
  6871     10D8  3000               	movlw	0
  6872     10D9  00F8               	movwf	___fleq@ff2+2
  6873     10DA  3000               	movlw	0
  6874     10DB  00F7               	movwf	___fleq@ff2+1
  6875     10DC  3000               	movlw	0
  6876     10DD  00F6               	movwf	___fleq@ff2
  6877     10DE                     l351:
  6878     10DE  0879               	movf	___fleq@ff2+3,w
  6879     10DF  0675               	xorwf	___fleq@ff1+3,w
  6880     10E0  1D03               	skipz
  6881     10E1  28EC               	goto	u3055
  6882     10E2  0878               	movf	___fleq@ff2+2,w
  6883     10E3  0674               	xorwf	___fleq@ff1+2,w
  6884     10E4  1D03               	skipz
  6885     10E5  28EC               	goto	u3055
  6886     10E6  0877               	movf	___fleq@ff2+1,w
  6887     10E7  0673               	xorwf	___fleq@ff1+1,w
  6888     10E8  1D03               	skipz
  6889     10E9  28EC               	goto	u3055
  6890     10EA  0876               	movf	___fleq@ff2,w
  6891     10EB  0672               	xorwf	___fleq@ff1,w
  6892     10EC                     u3055:
  6893     10EC  1903               	skipnz
  6894     10ED  28EF               	goto	u3051
  6895     10EE  28F0               	goto	u3050
  6896     10EF                     u3051:
  6897     10EF  28F2               	goto	l2256
  6898     10F0                     u3050:
  6899     10F0                     l2254:
  6900     10F0  1003               	clrc
  6901     10F1  28F3               	goto	l356
  6902     10F2                     l2256:
  6903     10F2  1403               	setc
  6904     10F3                     l356:
  6905     10F3  0008               	return
  6906     10F4                     __end_of___fleq:
  6907                           
  6908                           	psect	text24
  6909     1636                     __ptext24:	
  6910 ;; *************** function ___fldiv *****************
  6911 ;; Defined at:
  6912 ;;		line 8 in file "C:\Program Files\Microchip\xc8\v2.50\pic\sources\c99\common\sprcdiv.c"
  6913 ;; Parameters:    Size  Location     Type
  6914 ;;  a               4   32[BANK0 ] unsigned int 
  6915 ;;  b               4   36[BANK0 ] unsigned int 
  6916 ;; Auto vars:     Size  Location     Type
  6917 ;;  grs             4   52[BANK0 ] unsigned long 
  6918 ;;  rem             4   45[BANK0 ] unsigned long 
  6919 ;;  new_exp         2   50[BANK0 ] short 
  6920 ;;  aexp            1   57[BANK0 ] unsigned char 
  6921 ;;  bexp            1   56[BANK0 ] unsigned char 
  6922 ;;  sign            1   49[BANK0 ] unsigned char 
  6923 ;; Return value:  Size  Location     Type
  6924 ;;                  4   32[BANK0 ] unsigned char 
  6925 ;; Registers used:
  6926 ;;		wreg, status,2, status,0, btemp+1
  6927 ;; Tracked objects:
  6928 ;;		On entry : 0/0
  6929 ;;		On exit  : 0/0
  6930 ;;		Unchanged: 0/0
  6931 ;; Data sizes:     COMMON   BANK0   BANK1   BANK3   BANK2
  6932 ;;      Params:         0       8       0       0       0
  6933 ;;      Locals:         0      13       0       0       0
  6934 ;;      Temps:          0       5       0       0       0
  6935 ;;      Totals:         0      26       0       0       0
  6936 ;;Total ram usage:       26 bytes
  6937 ;; Hardware stack levels used: 1
  6938 ;; Hardware stack levels required when called: 1
  6939 ;; This function calls:
  6940 ;;		Nothing
  6941 ;; This function is called by:
  6942 ;;		_main
  6943 ;;		_efgtoa
  6944 ;; This function uses a non-reentrant model
  6945 ;;
  6946                           
  6947     1636                     ___fldiv:	
  6948                           ;psect for function ___fldiv
  6949                           
  6950     1636                     l2330:	
  6951                           ;incstack = 0
  6952                           ; Regs used in ___fldiv: [wreg+status,2+status,0+btemp+1]
  6953                           
  6954     1636  1283               	bcf	3,5	;RP0=0, select bank0
  6955     1637  1303               	bcf	3,6	;RP1=0, select bank0
  6956     1638  0847               	movf	___fldiv@b+3,w
  6957     1639  00D1               	movwf	___fldiv@sign
  6958     163A                     l2332:
  6959     163A  3080               	movlw	128
  6960     163B  05D1               	andwf	___fldiv@sign,f
  6961     163C                     l2334:
  6962     163C  0847               	movf	___fldiv@b+3,w
  6963     163D  00C8               	movwf	??___fldiv
  6964     163E  0748               	addwf	??___fldiv,w
  6965     163F  00D8               	movwf	___fldiv@bexp
  6966     1640                     l2336:
  6967     1640  1FC6               	btfss	___fldiv@b+2,7
  6968     1641  2E43               	goto	u3241
  6969     1642  2E44               	goto	u3240
  6970     1643                     u3241:
  6971     1643  2E45               	goto	l2340
  6972     1644                     u3240:
  6973     1644                     l2338:
  6974     1644  1458               	bsf	___fldiv@bexp,0
  6975     1645                     l2340:
  6976     1645  0858               	movf	___fldiv@bexp,w
  6977     1646  1903               	btfsc	3,2
  6978     1647  2E49               	goto	u3251
  6979     1648  2E4A               	goto	u3250
  6980     1649                     u3251:
  6981     1649  2E5A               	goto	l2350
  6982     164A                     u3250:
  6983     164A                     l2342:
  6984     164A  0A58               	incf	___fldiv@bexp,w
  6985     164B  1D03               	btfss	3,2
  6986     164C  2E4E               	goto	u3261
  6987     164D  2E4F               	goto	u3260
  6988     164E                     u3261:
  6989     164E  2E57               	goto	l2346
  6990     164F                     u3260:
  6991     164F                     l2344:
  6992     164F  3000               	movlw	0
  6993     1650  00C7               	movwf	___fldiv@b+3
  6994     1651  3000               	movlw	0
  6995     1652  00C6               	movwf	___fldiv@b+2
  6996     1653  3000               	movlw	0
  6997     1654  00C5               	movwf	___fldiv@b+1
  6998     1655  3000               	movlw	0
  6999     1656  00C4               	movwf	___fldiv@b
  7000     1657                     l2346:
  7001     1657  17C6               	bsf	___fldiv@b+2,7
  7002     1658                     l2348:
  7003     1658  01C7               	clrf	___fldiv@b+3
  7004     1659  2E62               	goto	l2352
  7005     165A                     l2350:
  7006     165A  3000               	movlw	0
  7007     165B  00C7               	movwf	___fldiv@b+3
  7008     165C  3000               	movlw	0
  7009     165D  00C6               	movwf	___fldiv@b+2
  7010     165E  3000               	movlw	0
  7011     165F  00C5               	movwf	___fldiv@b+1
  7012     1660  3000               	movlw	0
  7013     1661  00C4               	movwf	___fldiv@b
  7014     1662                     l2352:
  7015     1662  0843               	movf	___fldiv@a+3,w
  7016     1663  3980               	andlw	128
  7017     1664  06D1               	xorwf	___fldiv@sign,f
  7018     1665                     l2354:
  7019     1665  0843               	movf	___fldiv@a+3,w
  7020     1666  00C8               	movwf	??___fldiv
  7021     1667  0748               	addwf	??___fldiv,w
  7022     1668  00D9               	movwf	___fldiv@aexp
  7023     1669                     l2356:
  7024     1669  1FC2               	btfss	___fldiv@a+2,7
  7025     166A  2E6C               	goto	u3271
  7026     166B  2E6D               	goto	u3270
  7027     166C                     u3271:
  7028     166C  2E6E               	goto	l2360
  7029     166D                     u3270:
  7030     166D                     l2358:
  7031     166D  1459               	bsf	___fldiv@aexp,0
  7032     166E                     l2360:
  7033     166E  0859               	movf	___fldiv@aexp,w
  7034     166F  1903               	btfsc	3,2
  7035     1670  2E72               	goto	u3281
  7036     1671  2E73               	goto	u3280
  7037     1672                     u3281:
  7038     1672  2E83               	goto	l2370
  7039     1673                     u3280:
  7040     1673                     l2362:
  7041     1673  0A59               	incf	___fldiv@aexp,w
  7042     1674  1D03               	btfss	3,2
  7043     1675  2E77               	goto	u3291
  7044     1676  2E78               	goto	u3290
  7045     1677                     u3291:
  7046     1677  2E80               	goto	l2366
  7047     1678                     u3290:
  7048     1678                     l2364:
  7049     1678  3000               	movlw	0
  7050     1679  00C3               	movwf	___fldiv@a+3
  7051     167A  3000               	movlw	0
  7052     167B  00C2               	movwf	___fldiv@a+2
  7053     167C  3000               	movlw	0
  7054     167D  00C1               	movwf	___fldiv@a+1
  7055     167E  3000               	movlw	0
  7056     167F  00C0               	movwf	___fldiv@a
  7057     1680                     l2366:
  7058     1680  17C2               	bsf	___fldiv@a+2,7
  7059     1681                     l2368:
  7060     1681  01C3               	clrf	___fldiv@a+3
  7061     1682  2E8B               	goto	l538
  7062     1683                     l2370:
  7063     1683  3000               	movlw	0
  7064     1684  00C3               	movwf	___fldiv@a+3
  7065     1685  3000               	movlw	0
  7066     1686  00C2               	movwf	___fldiv@a+2
  7067     1687  3000               	movlw	0
  7068     1688  00C1               	movwf	___fldiv@a+1
  7069     1689  3000               	movlw	0
  7070     168A  00C0               	movwf	___fldiv@a
  7071     168B                     l538:
  7072     168B  0843               	movf	___fldiv@a+3,w
  7073     168C  0442               	iorwf	___fldiv@a+2,w
  7074     168D  0441               	iorwf	___fldiv@a+1,w
  7075     168E  0440               	iorwf	___fldiv@a,w
  7076     168F  1D03               	skipz
  7077     1690  2E92               	goto	u3301
  7078     1691  2E93               	goto	u3300
  7079     1692                     u3301:
  7080     1692  2EAA               	goto	l2380
  7081     1693                     u3300:
  7082     1693                     l2372:
  7083     1693  3000               	movlw	0
  7084     1694  00C7               	movwf	___fldiv@b+3
  7085     1695  3000               	movlw	0
  7086     1696  00C6               	movwf	___fldiv@b+2
  7087     1697  3000               	movlw	0
  7088     1698  00C5               	movwf	___fldiv@b+1
  7089     1699  3000               	movlw	0
  7090     169A  00C4               	movwf	___fldiv@b
  7091     169B  3080               	movlw	128
  7092     169C  04C6               	iorwf	___fldiv@b+2,f
  7093     169D  307F               	movlw	127
  7094     169E  04C7               	iorwf	___fldiv@b+3,f
  7095     169F                     l2374:
  7096     169F  0851               	movf	___fldiv@sign,w
  7097     16A0  04C7               	iorwf	___fldiv@b+3,f
  7098     16A1                     l2376:
  7099     16A1  0847               	movf	___fldiv@b+3,w
  7100     16A2  00C3               	movwf	?___fldiv+3
  7101     16A3  0846               	movf	___fldiv@b+2,w
  7102     16A4  00C2               	movwf	?___fldiv+2
  7103     16A5  0845               	movf	___fldiv@b+1,w
  7104     16A6  00C1               	movwf	?___fldiv+1
  7105     16A7  0844               	movf	___fldiv@b,w
  7106     16A8  00C0               	movwf	?___fldiv
  7107     16A9  2FFF               	goto	l540
  7108     16AA                     l2380:
  7109     16AA  0858               	movf	___fldiv@bexp,w
  7110     16AB  1D03               	btfss	3,2
  7111     16AC  2EAE               	goto	u3311
  7112     16AD  2EAF               	goto	u3310
  7113     16AE                     u3311:
  7114     16AE  2EB8               	goto	l2386
  7115     16AF                     u3310:
  7116     16AF                     l2382:
  7117     16AF  3000               	movlw	0
  7118     16B0  00C3               	movwf	?___fldiv+3
  7119     16B1  3000               	movlw	0
  7120     16B2  00C2               	movwf	?___fldiv+2
  7121     16B3  3000               	movlw	0
  7122     16B4  00C1               	movwf	?___fldiv+1
  7123     16B5  3000               	movlw	0
  7124     16B6  00C0               	movwf	?___fldiv
  7125     16B7  2FFF               	goto	l540
  7126     16B8                     l2386:
  7127     16B8  0858               	movf	___fldiv@bexp,w
  7128     16B9  00C8               	movwf	??___fldiv
  7129     16BA  01C9               	clrf	??___fldiv+1
  7130     16BB  0849               	movf	??___fldiv+1,w
  7131     16BC  00CB               	movwf	??___fldiv+3
  7132     16BD  0859               	movf	___fldiv@aexp,w
  7133     16BE  0248               	subwf	??___fldiv,w
  7134     16BF  00CA               	movwf	??___fldiv+2
  7135     16C0  1C03               	skipc
  7136     16C1  03CB               	decf	??___fldiv+3,f
  7137     16C2  084A               	movf	??___fldiv+2,w
  7138     16C3  3E7F               	addlw	127
  7139     16C4  00D2               	movwf	___fldiv@new_exp
  7140     16C5  084B               	movf	??___fldiv+3,w
  7141     16C6  1803               	skipnc
  7142     16C7  3E01               	addlw	1
  7143     16C8  3E00               	addlw	0
  7144     16C9  00D3               	movwf	___fldiv@new_exp+1
  7145     16CA                     l2388:
  7146     16CA  0847               	movf	___fldiv@b+3,w
  7147     16CB  00D0               	movwf	___fldiv@rem+3
  7148     16CC  0846               	movf	___fldiv@b+2,w
  7149     16CD  00CF               	movwf	___fldiv@rem+2
  7150     16CE  0845               	movf	___fldiv@b+1,w
  7151     16CF  00CE               	movwf	___fldiv@rem+1
  7152     16D0  0844               	movf	___fldiv@b,w
  7153     16D1  00CD               	movwf	___fldiv@rem
  7154     16D2                     l2390:
  7155     16D2  3000               	movlw	0
  7156     16D3  00C7               	movwf	___fldiv@b+3
  7157     16D4  3000               	movlw	0
  7158     16D5  00C6               	movwf	___fldiv@b+2
  7159     16D6  3000               	movlw	0
  7160     16D7  00C5               	movwf	___fldiv@b+1
  7161     16D8  3000               	movlw	0
  7162     16D9  00C4               	movwf	___fldiv@b
  7163     16DA                     l2392:
  7164     16DA  3000               	movlw	0
  7165     16DB  00D7               	movwf	___fldiv@grs+3
  7166     16DC  3000               	movlw	0
  7167     16DD  00D6               	movwf	___fldiv@grs+2
  7168     16DE  3000               	movlw	0
  7169     16DF  00D5               	movwf	___fldiv@grs+1
  7170     16E0  3000               	movlw	0
  7171     16E1  00D4               	movwf	___fldiv@grs
  7172     16E2                     l2394:
  7173     16E2  01D9               	clrf	___fldiv@aexp
  7174     16E3  2F2C               	goto	l2414
  7175     16E4                     l2396:
  7176     16E4  0859               	movf	___fldiv@aexp,w
  7177     16E5  1903               	btfsc	3,2
  7178     16E6  2EE8               	goto	u3321
  7179     16E7  2EE9               	goto	u3320
  7180     16E8                     u3321:
  7181     16E8  2F09               	goto	l2406
  7182     16E9                     u3320:
  7183     16E9                     l2398:
  7184     16E9  3001               	movlw	1
  7185     16EA  00C8               	movwf	??___fldiv
  7186     16EB                     u3335:
  7187     16EB  1003               	clrc
  7188     16EC  0DCD               	rlf	___fldiv@rem,f
  7189     16ED  0DCE               	rlf	___fldiv@rem+1,f
  7190     16EE  0DCF               	rlf	___fldiv@rem+2,f
  7191     16EF  0DD0               	rlf	___fldiv@rem+3,f
  7192     16F0  0BC8               	decfsz	??___fldiv,f
  7193     16F1  2EEB               	goto	u3335
  7194     16F2  3001               	movlw	1
  7195     16F3  00C8               	movwf	??___fldiv
  7196     16F4                     u3345:
  7197     16F4  1003               	clrc
  7198     16F5  0DC4               	rlf	___fldiv@b,f
  7199     16F6  0DC5               	rlf	___fldiv@b+1,f
  7200     16F7  0DC6               	rlf	___fldiv@b+2,f
  7201     16F8  0DC7               	rlf	___fldiv@b+3,f
  7202     16F9  0BC8               	decfsz	??___fldiv,f
  7203     16FA  2EF4               	goto	u3345
  7204     16FB                     l2400:
  7205     16FB  1FD7               	btfss	___fldiv@grs+3,7
  7206     16FC  2EFE               	goto	u3351
  7207     16FD  2EFF               	goto	u3350
  7208     16FE                     u3351:
  7209     16FE  2F00               	goto	l2404
  7210     16FF                     u3350:
  7211     16FF                     l2402:
  7212     16FF  1444               	bsf	___fldiv@b,0
  7213     1700                     l2404:
  7214     1700  3001               	movlw	1
  7215     1701  00C8               	movwf	??___fldiv
  7216     1702                     u3365:
  7217     1702  1003               	clrc
  7218     1703  0DD4               	rlf	___fldiv@grs,f
  7219     1704  0DD5               	rlf	___fldiv@grs+1,f
  7220     1705  0DD6               	rlf	___fldiv@grs+2,f
  7221     1706  0DD7               	rlf	___fldiv@grs+3,f
  7222     1707  0BC8               	decfsz	??___fldiv,f
  7223     1708  2F02               	goto	u3365
  7224     1709                     l2406:
  7225     1709  0843               	movf	___fldiv@a+3,w
  7226     170A  0250               	subwf	___fldiv@rem+3,w
  7227     170B  1D03               	skipz
  7228     170C  2F17               	goto	u3375
  7229     170D  0842               	movf	___fldiv@a+2,w
  7230     170E  024F               	subwf	___fldiv@rem+2,w
  7231     170F  1D03               	skipz
  7232     1710  2F17               	goto	u3375
  7233     1711  0841               	movf	___fldiv@a+1,w
  7234     1712  024E               	subwf	___fldiv@rem+1,w
  7235     1713  1D03               	skipz
  7236     1714  2F17               	goto	u3375
  7237     1715  0840               	movf	___fldiv@a,w
  7238     1716  024D               	subwf	___fldiv@rem,w
  7239     1717                     u3375:
  7240     1717  1C03               	skipc
  7241     1718  2F1A               	goto	u3371
  7242     1719  2F1B               	goto	u3370
  7243     171A                     u3371:
  7244     171A  2F2A               	goto	l2412
  7245     171B                     u3370:
  7246     171B                     l2408:
  7247     171B  1757               	bsf	___fldiv@grs+3,6
  7248     171C                     l2410:
  7249     171C  0840               	movf	___fldiv@a,w
  7250     171D  02CD               	subwf	___fldiv@rem,f
  7251     171E  0841               	movf	___fldiv@a+1,w
  7252     171F  1C03               	skipc
  7253     1720  0F41               	incfsz	___fldiv@a+1,w
  7254     1721  02CE               	subwf	___fldiv@rem+1,f
  7255     1722  0842               	movf	___fldiv@a+2,w
  7256     1723  1C03               	skipc
  7257     1724  0F42               	incfsz	___fldiv@a+2,w
  7258     1725  02CF               	subwf	___fldiv@rem+2,f
  7259     1726  0843               	movf	___fldiv@a+3,w
  7260     1727  1C03               	skipc
  7261     1728  0F43               	incfsz	___fldiv@a+3,w
  7262     1729  02D0               	subwf	___fldiv@rem+3,f
  7263     172A                     l2412:
  7264     172A  3001               	movlw	1
  7265     172B  07D9               	addwf	___fldiv@aexp,f
  7266     172C                     l2414:
  7267     172C  301A               	movlw	26
  7268     172D  0259               	subwf	___fldiv@aexp,w
  7269     172E  1C03               	skipc
  7270     172F  2F31               	goto	u3381
  7271     1730  2F32               	goto	u3380
  7272     1731                     u3381:
  7273     1731  2EE4               	goto	l2396
  7274     1732                     u3380:
  7275     1732                     l2416:
  7276     1732  0850               	movf	___fldiv@rem+3,w
  7277     1733  044F               	iorwf	___fldiv@rem+2,w
  7278     1734  044E               	iorwf	___fldiv@rem+1,w
  7279     1735  044D               	iorwf	___fldiv@rem,w
  7280     1736  1903               	skipnz
  7281     1737  2F39               	goto	u3391
  7282     1738  2F3A               	goto	u3390
  7283     1739                     u3391:
  7284     1739  2F59               	goto	l2430
  7285     173A                     u3390:
  7286     173A                     l2418:
  7287     173A  1454               	bsf	___fldiv@grs,0
  7288     173B  2F59               	goto	l2430
  7289     173C                     l2420:
  7290     173C  3001               	movlw	1
  7291     173D  00C8               	movwf	??___fldiv
  7292     173E                     u3405:
  7293     173E  1003               	clrc
  7294     173F  0DC4               	rlf	___fldiv@b,f
  7295     1740  0DC5               	rlf	___fldiv@b+1,f
  7296     1741  0DC6               	rlf	___fldiv@b+2,f
  7297     1742  0DC7               	rlf	___fldiv@b+3,f
  7298     1743  0BC8               	decfsz	??___fldiv,f
  7299     1744  2F3E               	goto	u3405
  7300     1745                     l2422:
  7301     1745  1FD7               	btfss	___fldiv@grs+3,7
  7302     1746  2F48               	goto	u3411
  7303     1747  2F49               	goto	u3410
  7304     1748                     u3411:
  7305     1748  2F4A               	goto	l2426
  7306     1749                     u3410:
  7307     1749                     l2424:
  7308     1749  1444               	bsf	___fldiv@b,0
  7309     174A                     l2426:
  7310     174A  3001               	movlw	1
  7311     174B  00C8               	movwf	??___fldiv
  7312     174C                     u3425:
  7313     174C  1003               	clrc
  7314     174D  0DD4               	rlf	___fldiv@grs,f
  7315     174E  0DD5               	rlf	___fldiv@grs+1,f
  7316     174F  0DD6               	rlf	___fldiv@grs+2,f
  7317     1750  0DD7               	rlf	___fldiv@grs+3,f
  7318     1751  0BC8               	decfsz	??___fldiv,f
  7319     1752  2F4C               	goto	u3425
  7320     1753                     l2428:
  7321     1753  30FF               	movlw	255
  7322     1754  07D2               	addwf	___fldiv@new_exp,f
  7323     1755  1803               	skipnc
  7324     1756  0AD3               	incf	___fldiv@new_exp+1,f
  7325     1757  30FF               	movlw	255
  7326     1758  07D3               	addwf	___fldiv@new_exp+1,f
  7327     1759                     l2430:
  7328     1759  1FC6               	btfss	___fldiv@b+2,7
  7329     175A  2F5C               	goto	u3431
  7330     175B  2F5D               	goto	u3430
  7331     175C                     u3431:
  7332     175C  2F3C               	goto	l2420
  7333     175D                     u3430:
  7334     175D                     l2432:
  7335     175D  01D9               	clrf	___fldiv@aexp
  7336     175E                     l2434:
  7337     175E  1FD7               	btfss	___fldiv@grs+3,7
  7338     175F  2F61               	goto	u3441
  7339     1760  2F62               	goto	u3440
  7340     1761                     u3441:
  7341     1761  2F7E               	goto	l2442
  7342     1762                     u3440:
  7343     1762                     l2436:
  7344     1762  30FF               	movlw	255
  7345     1763  0554               	andwf	___fldiv@grs,w
  7346     1764  00C8               	movwf	??___fldiv
  7347     1765  30FF               	movlw	255
  7348     1766  0555               	andwf	___fldiv@grs+1,w
  7349     1767  00C9               	movwf	??___fldiv+1
  7350     1768  30FF               	movlw	255
  7351     1769  0556               	andwf	___fldiv@grs+2,w
  7352     176A  00CA               	movwf	??___fldiv+2
  7353     176B  307F               	movlw	127
  7354     176C  0557               	andwf	___fldiv@grs+3,w
  7355     176D  00CB               	movwf	??___fldiv+3
  7356     176E  084B               	movf	??___fldiv+3,w
  7357     176F  044A               	iorwf	??___fldiv+2,w
  7358     1770  0449               	iorwf	??___fldiv+1,w
  7359     1771  0448               	iorwf	??___fldiv,w
  7360     1772  1903               	skipnz
  7361     1773  2F75               	goto	u3451
  7362     1774  2F76               	goto	u3450
  7363     1775                     u3451:
  7364     1775  2F79               	goto	l554
  7365     1776                     u3450:
  7366     1776                     l2438:
  7367     1776  3001               	movlw	1
  7368     1777  00D9               	movwf	___fldiv@aexp
  7369     1778  2F7E               	goto	l2442
  7370     1779                     l554:
  7371     1779  1C44               	btfss	___fldiv@b,0
  7372     177A  2F7C               	goto	u3461
  7373     177B  2F7D               	goto	u3460
  7374     177C                     u3461:
  7375     177C  2F7E               	goto	l2442
  7376     177D                     u3460:
  7377     177D  2F76               	goto	l2438
  7378     177E                     l2442:
  7379     177E  0859               	movf	___fldiv@aexp,w
  7380     177F  1903               	btfsc	3,2
  7381     1780  2F82               	goto	u3471
  7382     1781  2F83               	goto	u3470
  7383     1782                     u3471:
  7384     1782  2FB4               	goto	l2452
  7385     1783                     u3470:
  7386     1783                     l2444:
  7387     1783  3001               	movlw	1
  7388     1784  07C4               	addwf	___fldiv@b,f
  7389     1785  3000               	movlw	0
  7390     1786  1803               	skipnc
  7391     1787  3001               	movlw	1
  7392     1788  07C5               	addwf	___fldiv@b+1,f
  7393     1789  3000               	movlw	0
  7394     178A  1803               	skipnc
  7395     178B  3001               	movlw	1
  7396     178C  07C6               	addwf	___fldiv@b+2,f
  7397     178D  3000               	movlw	0
  7398     178E  1803               	skipnc
  7399     178F  3001               	movlw	1
  7400     1790  07C7               	addwf	___fldiv@b+3,f
  7401     1791                     l2446:
  7402     1791  1C47               	btfss	___fldiv@b+3,0
  7403     1792  2F94               	goto	u3481
  7404     1793  2F95               	goto	u3480
  7405     1794                     u3481:
  7406     1794  2FB4               	goto	l2452
  7407     1795                     u3480:
  7408     1795                     l2448:
  7409     1795  0844               	movf	___fldiv@b,w
  7410     1796  00C8               	movwf	??___fldiv
  7411     1797  0845               	movf	___fldiv@b+1,w
  7412     1798  00C9               	movwf	??___fldiv+1
  7413     1799  0846               	movf	___fldiv@b+2,w
  7414     179A  00CA               	movwf	??___fldiv+2
  7415     179B  0847               	movf	___fldiv@b+3,w
  7416     179C  00CB               	movwf	??___fldiv+3
  7417     179D  3001               	movlw	1
  7418     179E  00CC               	movwf	??___fldiv+4
  7419     179F                     u3495:
  7420     179F  0D4B               	rlf	??___fldiv+3,w
  7421     17A0  0CCB               	rrf	??___fldiv+3,f
  7422     17A1  0CCA               	rrf	??___fldiv+2,f
  7423     17A2  0CC9               	rrf	??___fldiv+1,f
  7424     17A3  0CC8               	rrf	??___fldiv,f
  7425     17A4                     u3490:
  7426     17A4  0BCC               	decfsz	??___fldiv+4,f
  7427     17A5  2F9F               	goto	u3495
  7428     17A6  084B               	movf	??___fldiv+3,w
  7429     17A7  00C7               	movwf	___fldiv@b+3
  7430     17A8  084A               	movf	??___fldiv+2,w
  7431     17A9  00C6               	movwf	___fldiv@b+2
  7432     17AA  0849               	movf	??___fldiv+1,w
  7433     17AB  00C5               	movwf	___fldiv@b+1
  7434     17AC  0848               	movf	??___fldiv,w
  7435     17AD  00C4               	movwf	___fldiv@b
  7436     17AE                     l2450:
  7437     17AE  3001               	movlw	1
  7438     17AF  07D2               	addwf	___fldiv@new_exp,f
  7439     17B0  1803               	skipnc
  7440     17B1  0AD3               	incf	___fldiv@new_exp+1,f
  7441     17B2  3000               	movlw	0
  7442     17B3  07D3               	addwf	___fldiv@new_exp+1,f
  7443     17B4                     l2452:
  7444     17B4  0853               	movf	___fldiv@new_exp+1,w
  7445     17B5  3A80               	xorlw	128
  7446     17B6  00FF               	movwf	btemp+1
  7447     17B7  3080               	movlw	128
  7448     17B8  027F               	subwf	btemp+1,w
  7449     17B9  1D03               	skipz
  7450     17BA  2FBD               	goto	u3505
  7451     17BB  30FF               	movlw	255
  7452     17BC  0252               	subwf	___fldiv@new_exp,w
  7453     17BD                     u3505:
  7454     17BD  1C03               	skipc
  7455     17BE  2FC0               	goto	u3501
  7456     17BF  2FC1               	goto	u3500
  7457     17C0                     u3501:
  7458     17C0  2FCF               	goto	l2456
  7459     17C1                     u3500:
  7460     17C1                     l2454:
  7461     17C1  30FF               	movlw	255
  7462     17C2  1283               	bcf	3,5	;RP0=0, select bank0
  7463     17C3  1303               	bcf	3,6	;RP1=0, select bank0
  7464     17C4  00D2               	movwf	___fldiv@new_exp
  7465     17C5  3000               	movlw	0
  7466     17C6  00D3               	movwf	___fldiv@new_exp+1
  7467     17C7  3000               	movlw	0
  7468     17C8  00C7               	movwf	___fldiv@b+3
  7469     17C9  3000               	movlw	0
  7470     17CA  00C6               	movwf	___fldiv@b+2
  7471     17CB  3000               	movlw	0
  7472     17CC  00C5               	movwf	___fldiv@b+1
  7473     17CD  3000               	movlw	0
  7474     17CE  00C4               	movwf	___fldiv@b
  7475     17CF                     l2456:
  7476     17CF  1283               	bcf	3,5	;RP0=0, select bank0
  7477     17D0  1303               	bcf	3,6	;RP1=0, select bank0
  7478     17D1  0853               	movf	___fldiv@new_exp+1,w
  7479     17D2  3A80               	xorlw	128
  7480     17D3  00FF               	movwf	btemp+1
  7481     17D4  3080               	movlw	128
  7482     17D5  027F               	subwf	btemp+1,w
  7483     17D6  1D03               	skipz
  7484     17D7  2FDA               	goto	u3515
  7485     17D8  3001               	movlw	1
  7486     17D9  0252               	subwf	___fldiv@new_exp,w
  7487     17DA                     u3515:
  7488     17DA  1803               	skipnc
  7489     17DB  2FDD               	goto	u3511
  7490     17DC  2FDE               	goto	u3510
  7491     17DD                     u3511:
  7492     17DD  2FEB               	goto	l560
  7493     17DE                     u3510:
  7494     17DE                     l2458:
  7495     17DE  1283               	bcf	3,5	;RP0=0, select bank0
  7496     17DF  1303               	bcf	3,6	;RP1=0, select bank0
  7497     17E0  01D2               	clrf	___fldiv@new_exp
  7498     17E1  01D3               	clrf	___fldiv@new_exp+1
  7499     17E2                     l2460:
  7500     17E2  3000               	movlw	0
  7501     17E3  00C7               	movwf	___fldiv@b+3
  7502     17E4  3000               	movlw	0
  7503     17E5  00C6               	movwf	___fldiv@b+2
  7504     17E6  3000               	movlw	0
  7505     17E7  00C5               	movwf	___fldiv@b+1
  7506     17E8  3000               	movlw	0
  7507     17E9  00C4               	movwf	___fldiv@b
  7508     17EA                     l2462:
  7509     17EA  01D1               	clrf	___fldiv@sign
  7510     17EB                     l560:
  7511     17EB  1283               	bcf	3,5	;RP0=0, select bank0
  7512     17EC  1303               	bcf	3,6	;RP1=0, select bank0
  7513     17ED  0852               	movf	___fldiv@new_exp,w
  7514     17EE  00D8               	movwf	___fldiv@bexp
  7515     17EF                     l2464:
  7516     17EF  1C58               	btfss	___fldiv@bexp,0
  7517     17F0  2FF2               	goto	u3521
  7518     17F1  2FF3               	goto	u3520
  7519     17F2                     u3521:
  7520     17F2  2FF5               	goto	l2468
  7521     17F3                     u3520:
  7522     17F3                     l2466:
  7523     17F3  17C6               	bsf	___fldiv@b+2,7
  7524     17F4  2FF7               	goto	l562
  7525     17F5                     l2468:
  7526     17F5  307F               	movlw	127
  7527     17F6  05C6               	andwf	___fldiv@b+2,f
  7528     17F7                     l562:
  7529     17F7  0858               	movf	___fldiv@bexp,w
  7530     17F8  00C8               	movwf	??___fldiv
  7531     17F9  1003               	clrc
  7532     17FA  0C48               	rrf	??___fldiv,w
  7533     17FB  00C7               	movwf	___fldiv@b+3
  7534     17FC  0851               	movf	___fldiv@sign,w
  7535     17FD  04C7               	iorwf	___fldiv@b+3,f
  7536     17FE  2EA1               	goto	l2376
  7537     17FF                     l540:
  7538     17FF  0008               	return
  7539     1800                     __end_of___fldiv:
  7540                           
  7541                           	psect	text25
  7542     1EA5                     __ptext25:	
  7543 ;; *************** function _read_adc *****************
  7544 ;; Defined at:
  7545 ;;		line 87 in file "newmain.c"
  7546 ;; Parameters:    Size  Location     Type
  7547 ;;		None
  7548 ;; Auto vars:     Size  Location     Type
  7549 ;;		None
  7550 ;; Return value:  Size  Location     Type
  7551 ;;                  2    2[COMMON] unsigned int 
  7552 ;; Registers used:
  7553 ;;		wreg
  7554 ;; Tracked objects:
  7555 ;;		On entry : 0/0
  7556 ;;		On exit  : 0/0
  7557 ;;		Unchanged: 0/0
  7558 ;; Data sizes:     COMMON   BANK0   BANK1   BANK3   BANK2
  7559 ;;      Params:         2       0       0       0       0
  7560 ;;      Locals:         0       0       0       0       0
  7561 ;;      Temps:          1       0       0       0       0
  7562 ;;      Totals:         3       0       0       0       0
  7563 ;;Total ram usage:        3 bytes
  7564 ;; Hardware stack levels used: 1
  7565 ;; Hardware stack levels required when called: 1
  7566 ;; This function calls:
  7567 ;;		Nothing
  7568 ;; This function is called by:
  7569 ;;		_main
  7570 ;; This function uses a non-reentrant model
  7571 ;;
  7572                           
  7573     1EA5                     _read_adc:	
  7574                           ;psect for function _read_adc
  7575                           
  7576     1EA5                     l3072:	
  7577                           ;incstack = 0
  7578                           ; Regs used in _read_adc: [wreg]
  7579                           
  7580                           
  7581                           ;newmain.c: 88:     _delay((unsigned long)((20)*(20000000/4000000.0)));
  7582     1EA5  3021               	movlw	33
  7583     1EA6  00F4               	movwf	??_read_adc
  7584     1EA7                     u5887:
  7585     1EA7  0BF4               	decfsz	??_read_adc,f
  7586     1EA8  2EA7               	goto	u5887
  7587     1EA9                     l3074:
  7588                           
  7589                           ;newmain.c: 89:     ADCON0bits.GO_nDONE = 1;
  7590     1EA9  1283               	bcf	3,5	;RP0=0, select bank0
  7591     1EAA  1303               	bcf	3,6	;RP1=0, select bank0
  7592     1EAB  151F               	bsf	31,2	;volatile
  7593     1EAC                     l69:	
  7594                           ;newmain.c: 90:     while (ADCON0bits.GO_nDONE);
  7595                           
  7596     1EAC  191F               	btfsc	31,2	;volatile
  7597     1EAD  2EAF               	goto	u4701
  7598     1EAE  2EB0               	goto	u4700
  7599     1EAF                     u4701:
  7600     1EAF  2EAC               	goto	l69
  7601     1EB0                     u4700:
  7602     1EB0                     l3076:
  7603                           
  7604                           ;newmain.c: 91:     return ((ADRESH << 8) + ADRESL);
  7605     1EB0  081E               	movf	30,w	;volatile
  7606     1EB1  00F3               	movwf	?_read_adc+1
  7607     1EB2  1683               	bsf	3,5	;RP0=1, select bank1
  7608     1EB3  1303               	bcf	3,6	;RP1=0, select bank1
  7609     1EB4  081E               	movf	30,w	;volatile
  7610     1EB5  00F2               	movwf	?_read_adc
  7611     1EB6                     l72:
  7612     1EB6  0008               	return
  7613     1EB7                     __end_of_read_adc:
  7614                           
  7615                           	psect	text26
  7616     1F86                     __ptext26:	
  7617 ;; *************** function _lcd_string *****************
  7618 ;; Defined at:
  7619 ;;		line 154 in file "newmain.c"
  7620 ;; Parameters:    Size  Location     Type
  7621 ;;  str             2    5[COMMON] PTR const unsigned char 
  7622 ;;		 -> buffer(16), STR_1(8), 
  7623 ;; Auto vars:     Size  Location     Type
  7624 ;;		None
  7625 ;; Return value:  Size  Location     Type
  7626 ;;                  1    wreg      void 
  7627 ;; Registers used:
  7628 ;;		wreg, fsr0l, fsr0h, status,2, status,0, btemp+1, pclath, cstack
  7629 ;; Tracked objects:
  7630 ;;		On entry : 0/0
  7631 ;;		On exit  : 0/0
  7632 ;;		Unchanged: 0/0
  7633 ;; Data sizes:     COMMON   BANK0   BANK1   BANK3   BANK2
  7634 ;;      Params:         2       0       0       0       0
  7635 ;;      Locals:         0       0       0       0       0
  7636 ;;      Temps:          0       0       0       0       0
  7637 ;;      Totals:         2       0       0       0       0
  7638 ;;Total ram usage:        2 bytes
  7639 ;; Hardware stack levels used: 1
  7640 ;; Hardware stack levels required when called: 2
  7641 ;; This function calls:
  7642 ;;		_lcd_data
  7643 ;; This function is called by:
  7644 ;;		_main
  7645 ;; This function uses a non-reentrant model
  7646 ;;
  7647                           
  7648     1F86                     _lcd_string:	
  7649                           ;psect for function _lcd_string
  7650                           
  7651     1F86                     l3064:	
  7652                           ;incstack = 0
  7653                           ; Regs used in _lcd_string: [wreg-fsr0h+status,2+status,0+btemp+1+pclath+cstack]
  7654                           
  7655                           
  7656                           ;newmain.c: 155:     while (*str) {
  7657     1F86  2F9B               	goto	l3070
  7658     1F87                     l3066:
  7659                           
  7660                           ;newmain.c: 156:         lcd_data(*str++);
  7661     1F87  0876               	movf	lcd_string@str+1,w
  7662     1F88  00FF               	movwf	btemp+1
  7663     1F89  0875               	movf	lcd_string@str,w
  7664     1F8A  0084               	movwf	4
  7665     1F8B  160A  158A  2000  160A  158A  	fcall	stringtab
  7666     1F90  160A  118A  2339  160A  158A  	fcall	_lcd_data
  7667     1F95                     l3068:
  7668     1F95  3001               	movlw	1
  7669     1F96  07F5               	addwf	lcd_string@str,f
  7670     1F97  1803               	skipnc
  7671     1F98  0AF6               	incf	lcd_string@str+1,f
  7672     1F99  3000               	movlw	0
  7673     1F9A  07F6               	addwf	lcd_string@str+1,f
  7674     1F9B                     l3070:
  7675                           
  7676                           ;newmain.c: 155:     while (*str) {
  7677     1F9B  0876               	movf	lcd_string@str+1,w
  7678     1F9C  1283               	bcf	3,5	;RP0=0, select bank0
  7679     1F9D  1303               	bcf	3,6	;RP1=0, select bank0
  7680     1F9E  00FF               	movwf	btemp+1
  7681     1F9F  0875               	movf	lcd_string@str,w
  7682     1FA0  0084               	movwf	4
  7683     1FA1  160A  158A  2000  160A  158A  	fcall	stringtab
  7684     1FA6  3A00               	xorlw	0
  7685     1FA7  1D03               	skipz
  7686     1FA8  2FAA               	goto	u4691
  7687     1FA9  2FAB               	goto	u4690
  7688     1FAA                     u4691:
  7689     1FAA  2F87               	goto	l3066
  7690     1FAB                     u4690:
  7691     1FAB                     l90:
  7692     1FAB  0008               	return
  7693     1FAC                     __end_of_lcd_string:
  7694                           
  7695                           	psect	text27
  7696     1339                     __ptext27:	
  7697 ;; *************** function _lcd_data *****************
  7698 ;; Defined at:
  7699 ;;		line 134 in file "newmain.c"
  7700 ;; Parameters:    Size  Location     Type
  7701 ;;  data            1    wreg     unsigned char 
  7702 ;; Auto vars:     Size  Location     Type
  7703 ;;  data            1    4[COMMON] unsigned char 
  7704 ;; Return value:  Size  Location     Type
  7705 ;;                  1    wreg      void 
  7706 ;; Registers used:
  7707 ;;		wreg, status,2, status,0
  7708 ;; Tracked objects:
  7709 ;;		On entry : 0/0
  7710 ;;		On exit  : 0/0
  7711 ;;		Unchanged: 0/0
  7712 ;; Data sizes:     COMMON   BANK0   BANK1   BANK3   BANK2
  7713 ;;      Params:         0       0       0       0       0
  7714 ;;      Locals:         1       0       0       0       0
  7715 ;;      Temps:          2       0       0       0       0
  7716 ;;      Totals:         3       0       0       0       0
  7717 ;;Total ram usage:        3 bytes
  7718 ;; Hardware stack levels used: 1
  7719 ;; Hardware stack levels required when called: 1
  7720 ;; This function calls:
  7721 ;;		Nothing
  7722 ;; This function is called by:
  7723 ;;		_lcd_string
  7724 ;; This function uses a non-reentrant model
  7725 ;;
  7726                           
  7727     1339                     _lcd_data:	
  7728                           ;psect for function _lcd_data
  7729                           
  7730                           
  7731                           ;incstack = 0
  7732                           ; Regs used in _lcd_data: [wreg+status,2+status,0]
  7733                           ;lcd_data@data stored from wreg
  7734     1339  00F4               	movwf	lcd_data@data
  7735     133A                     l3014:
  7736                           
  7737                           ;newmain.c: 135:     PORTDbits.RD4 = (data >> 4) & 0x01;
  7738     133A  0874               	movf	lcd_data@data,w
  7739     133B  00F2               	movwf	??_lcd_data
  7740     133C  3004               	movlw	4
  7741     133D                     u4615:
  7742     133D  1003               	clrc
  7743     133E  0CF2               	rrf	??_lcd_data,f
  7744     133F  3EFF               	addlw	-1
  7745     1340  1D03               	skipz
  7746     1341  2B3D               	goto	u4615
  7747     1342  0872               	movf	??_lcd_data,w
  7748     1343  3901               	andlw	1
  7749     1344  00F3               	movwf	??_lcd_data+1
  7750     1345  0EF3               	swapf	??_lcd_data+1,f
  7751     1346  1283               	bcf	3,5	;RP0=0, select bank0
  7752     1347  1303               	bcf	3,6	;RP1=0, select bank0
  7753     1348  0808               	movf	8,w	;volatile
  7754     1349  0673               	xorwf	??_lcd_data+1,w
  7755     134A  39EF               	andlw	-17
  7756     134B  0673               	xorwf	??_lcd_data+1,w
  7757     134C  0088               	movwf	8	;volatile
  7758                           
  7759                           ;newmain.c: 136:     PORTDbits.RD5 = (data >> 5) & 0x01;
  7760     134D  0874               	movf	lcd_data@data,w
  7761     134E  00F2               	movwf	??_lcd_data
  7762     134F  3005               	movlw	5
  7763     1350                     u4625:
  7764     1350  1003               	clrc
  7765     1351  0CF2               	rrf	??_lcd_data,f
  7766     1352  3EFF               	addlw	-1
  7767     1353  1D03               	skipz
  7768     1354  2B50               	goto	u4625
  7769     1355  0872               	movf	??_lcd_data,w
  7770     1356  3901               	andlw	1
  7771     1357  00F3               	movwf	??_lcd_data+1
  7772     1358  0EF3               	swapf	??_lcd_data+1,f
  7773     1359  0DF3               	rlf	??_lcd_data+1,f
  7774     135A  0808               	movf	8,w	;volatile
  7775     135B  0673               	xorwf	??_lcd_data+1,w
  7776     135C  39DF               	andlw	-33
  7777     135D  0673               	xorwf	??_lcd_data+1,w
  7778     135E  0088               	movwf	8	;volatile
  7779                           
  7780                           ;newmain.c: 137:     PORTDbits.RD6 = (data >> 6) & 0x01;
  7781     135F  0874               	movf	lcd_data@data,w
  7782     1360  00F2               	movwf	??_lcd_data
  7783     1361  3006               	movlw	6
  7784     1362                     u4635:
  7785     1362  1003               	clrc
  7786     1363  0CF2               	rrf	??_lcd_data,f
  7787     1364  3EFF               	addlw	-1
  7788     1365  1D03               	skipz
  7789     1366  2B62               	goto	u4635
  7790     1367  0872               	movf	??_lcd_data,w
  7791     1368  3901               	andlw	1
  7792     1369  00F3               	movwf	??_lcd_data+1
  7793     136A  0EF3               	swapf	??_lcd_data+1,f
  7794     136B  0DF3               	rlf	??_lcd_data+1,f
  7795     136C  0DF3               	rlf	??_lcd_data+1,f
  7796     136D  0808               	movf	8,w	;volatile
  7797     136E  0673               	xorwf	??_lcd_data+1,w
  7798     136F  39BF               	andlw	-65
  7799     1370  0673               	xorwf	??_lcd_data+1,w
  7800     1371  0088               	movwf	8	;volatile
  7801                           
  7802                           ;newmain.c: 138:     PORTDbits.RD7 = (data >> 7) & 0x01;
  7803     1372  0874               	movf	lcd_data@data,w
  7804     1373  00F2               	movwf	??_lcd_data
  7805     1374  3007               	movlw	7
  7806     1375                     u4645:
  7807     1375  1003               	clrc
  7808     1376  0CF2               	rrf	??_lcd_data,f
  7809     1377  3EFF               	addlw	-1
  7810     1378  1D03               	skipz
  7811     1379  2B75               	goto	u4645
  7812     137A  0872               	movf	??_lcd_data,w
  7813     137B  3901               	andlw	1
  7814     137C  00F3               	movwf	??_lcd_data+1
  7815     137D  0CF3               	rrf	??_lcd_data+1,f
  7816     137E  0CF3               	rrf	??_lcd_data+1,f
  7817     137F  0808               	movf	8,w	;volatile
  7818     1380  0673               	xorwf	??_lcd_data+1,w
  7819     1381  397F               	andlw	-129
  7820     1382  0673               	xorwf	??_lcd_data+1,w
  7821     1383  0088               	movwf	8	;volatile
  7822     1384                     l3016:
  7823                           
  7824                           ;newmain.c: 139:     PORTEbits.RE0 = 1;
  7825     1384  1409               	bsf	9,0	;volatile
  7826     1385                     l3018:
  7827                           
  7828                           ;newmain.c: 140:     PORTEbits.RE1 = 1;
  7829     1385  1489               	bsf	9,1	;volatile
  7830     1386                     l3020:
  7831                           
  7832                           ;newmain.c: 141:     _delay((unsigned long)((2)*(20000000/4000.0)));
  7833     1386  300D               	movlw	13
  7834     1387  00F3               	movwf	??_lcd_data+1
  7835     1388  30FB               	movlw	251
  7836     1389  00F2               	movwf	??_lcd_data
  7837     138A                     u5897:
  7838     138A  0BF2               	decfsz	??_lcd_data,f
  7839     138B  2B8A               	goto	u5897
  7840     138C  0BF3               	decfsz	??_lcd_data+1,f
  7841     138D  2B8A               	goto	u5897
  7842     138E  2B8F               	nop2
  7843     138F                     l3022:
  7844                           
  7845                           ;newmain.c: 142:     PORTEbits.RE1 = 0;
  7846     138F  1283               	bcf	3,5	;RP0=0, select bank0
  7847     1390  1303               	bcf	3,6	;RP1=0, select bank0
  7848     1391  1089               	bcf	9,1	;volatile
  7849     1392                     l3024:
  7850                           
  7851                           ;newmain.c: 144:     PORTDbits.RD4 = data & 0x01;
  7852     1392  0874               	movf	lcd_data@data,w
  7853     1393  3901               	andlw	1
  7854     1394  00F2               	movwf	??_lcd_data
  7855     1395  0EF2               	swapf	??_lcd_data,f
  7856     1396  0808               	movf	8,w	;volatile
  7857     1397  0672               	xorwf	??_lcd_data,w
  7858     1398  39EF               	andlw	-17
  7859     1399  0672               	xorwf	??_lcd_data,w
  7860     139A  0088               	movwf	8	;volatile
  7861     139B                     l3026:
  7862                           
  7863                           ;newmain.c: 145:     PORTDbits.RD5 = (data >> 1) & 0x01;
  7864     139B  0874               	movf	lcd_data@data,w
  7865     139C  00F2               	movwf	??_lcd_data
  7866     139D  1003               	clrc
  7867     139E  0C72               	rrf	??_lcd_data,w
  7868     139F  3901               	andlw	1
  7869     13A0  00F3               	movwf	??_lcd_data+1
  7870     13A1  0EF3               	swapf	??_lcd_data+1,f
  7871     13A2  0DF3               	rlf	??_lcd_data+1,f
  7872     13A3  0808               	movf	8,w	;volatile
  7873     13A4  0673               	xorwf	??_lcd_data+1,w
  7874     13A5  39DF               	andlw	-33
  7875     13A6  0673               	xorwf	??_lcd_data+1,w
  7876     13A7  0088               	movwf	8	;volatile
  7877     13A8                     l3028:
  7878                           
  7879                           ;newmain.c: 146:     PORTDbits.RD6 = (data >> 2) & 0x01;
  7880     13A8  0874               	movf	lcd_data@data,w
  7881     13A9  00F2               	movwf	??_lcd_data
  7882     13AA  3002               	movlw	2
  7883     13AB                     u4655:
  7884     13AB  1003               	clrc
  7885     13AC  0CF2               	rrf	??_lcd_data,f
  7886     13AD  3EFF               	addlw	-1
  7887     13AE  1D03               	skipz
  7888     13AF  2BAB               	goto	u4655
  7889     13B0  0872               	movf	??_lcd_data,w
  7890     13B1  3901               	andlw	1
  7891     13B2  00F3               	movwf	??_lcd_data+1
  7892     13B3  0EF3               	swapf	??_lcd_data+1,f
  7893     13B4  0DF3               	rlf	??_lcd_data+1,f
  7894     13B5  0DF3               	rlf	??_lcd_data+1,f
  7895     13B6  0808               	movf	8,w	;volatile
  7896     13B7  0673               	xorwf	??_lcd_data+1,w
  7897     13B8  39BF               	andlw	-65
  7898     13B9  0673               	xorwf	??_lcd_data+1,w
  7899     13BA  0088               	movwf	8	;volatile
  7900     13BB                     l3030:
  7901                           
  7902                           ;newmain.c: 147:     PORTDbits.RD7 = (data >> 3) & 0x01;
  7903     13BB  0874               	movf	lcd_data@data,w
  7904     13BC  00F2               	movwf	??_lcd_data
  7905     13BD  3003               	movlw	3
  7906     13BE                     u4665:
  7907     13BE  1003               	clrc
  7908     13BF  0CF2               	rrf	??_lcd_data,f
  7909     13C0  3EFF               	addlw	-1
  7910     13C1  1D03               	skipz
  7911     13C2  2BBE               	goto	u4665
  7912     13C3  0872               	movf	??_lcd_data,w
  7913     13C4  3901               	andlw	1
  7914     13C5  00F3               	movwf	??_lcd_data+1
  7915     13C6  0CF3               	rrf	??_lcd_data+1,f
  7916     13C7  0CF3               	rrf	??_lcd_data+1,f
  7917     13C8  0808               	movf	8,w	;volatile
  7918     13C9  0673               	xorwf	??_lcd_data+1,w
  7919     13CA  397F               	andlw	-129
  7920     13CB  0673               	xorwf	??_lcd_data+1,w
  7921     13CC  0088               	movwf	8	;volatile
  7922     13CD                     l3032:
  7923                           
  7924                           ;newmain.c: 148:     PORTEbits.RE1 = 1;
  7925     13CD  1489               	bsf	9,1	;volatile
  7926     13CE                     l3034:
  7927                           
  7928                           ;newmain.c: 149:     _delay((unsigned long)((2)*(20000000/4000.0)));
  7929     13CE  300D               	movlw	13
  7930     13CF  00F3               	movwf	??_lcd_data+1
  7931     13D0  30FB               	movlw	251
  7932     13D1  00F2               	movwf	??_lcd_data
  7933     13D2                     u5907:
  7934     13D2  0BF2               	decfsz	??_lcd_data,f
  7935     13D3  2BD2               	goto	u5907
  7936     13D4  0BF3               	decfsz	??_lcd_data+1,f
  7937     13D5  2BD2               	goto	u5907
  7938     13D6  2BD7               	nop2
  7939     13D7                     l3036:
  7940                           
  7941                           ;newmain.c: 150:     PORTEbits.RE1 = 0;
  7942     13D7  1283               	bcf	3,5	;RP0=0, select bank0
  7943     13D8  1303               	bcf	3,6	;RP1=0, select bank0
  7944     13D9  1089               	bcf	9,1	;volatile
  7945     13DA                     l84:
  7946     13DA  0008               	return
  7947     13DB                     __end_of_lcd_data:
  7948                           
  7949                           	psect	text28
  7950     1EB7                     __ptext28:	
  7951 ;; *************** function _lcd_set_cursor *****************
  7952 ;; Defined at:
  7953 ;;		line 161 in file "newmain.c"
  7954 ;; Parameters:    Size  Location     Type
  7955 ;;  row             1    wreg     unsigned char 
  7956 ;;  col             1    5[COMMON] unsigned char 
  7957 ;; Auto vars:     Size  Location     Type
  7958 ;;  row             1    6[COMMON] unsigned char 
  7959 ;;  pos             1    7[COMMON] unsigned char 
  7960 ;; Return value:  Size  Location     Type
  7961 ;;                  1    wreg      void 
  7962 ;; Registers used:
  7963 ;;		wreg, status,2, status,0, pclath, cstack
  7964 ;; Tracked objects:
  7965 ;;		On entry : 0/0
  7966 ;;		On exit  : 0/0
  7967 ;;		Unchanged: 0/0
  7968 ;; Data sizes:     COMMON   BANK0   BANK1   BANK3   BANK2
  7969 ;;      Params:         1       0       0       0       0
  7970 ;;      Locals:         2       0       0       0       0
  7971 ;;      Temps:          0       0       0       0       0
  7972 ;;      Totals:         3       0       0       0       0
  7973 ;;Total ram usage:        3 bytes
  7974 ;; Hardware stack levels used: 1
  7975 ;; Hardware stack levels required when called: 2
  7976 ;; This function calls:
  7977 ;;		_lcd_command
  7978 ;; This function is called by:
  7979 ;;		_main
  7980 ;; This function uses a non-reentrant model
  7981 ;;
  7982                           
  7983     1EB7                     _lcd_set_cursor:	
  7984                           ;psect for function _lcd_set_cursor
  7985                           
  7986                           
  7987                           ;incstack = 0
  7988                           ; Regs used in _lcd_set_cursor: [wreg+status,2+status,0+pclath+cstack]
  7989                           ;lcd_set_cursor@row stored from wreg
  7990     1EB7  00F6               	movwf	lcd_set_cursor@row
  7991     1EB8                     l3056:
  7992                           
  7993                           ;newmain.c: 162:     unsigned char pos;;newmain.c: 163:     if (row == 0)
  7994     1EB8  0876               	movf	lcd_set_cursor@row,w
  7995     1EB9  1D03               	btfss	3,2
  7996     1EBA  2EBC               	goto	u4681
  7997     1EBB  2EBD               	goto	u4680
  7998     1EBC                     u4681:
  7999     1EBC  2EC1               	goto	l3060
  8000     1EBD                     u4680:
  8001     1EBD                     l3058:
  8002                           
  8003                           ;newmain.c: 164:         pos = 0x80 + col;
  8004     1EBD  0875               	movf	lcd_set_cursor@col,w
  8005     1EBE  3E80               	addlw	128
  8006     1EBF  00F7               	movwf	lcd_set_cursor@pos
  8007     1EC0  2EC4               	goto	l3062
  8008     1EC1                     l3060:
  8009                           
  8010                           ;newmain.c: 166:         pos = 0xC0 + col;
  8011     1EC1  0875               	movf	lcd_set_cursor@col,w
  8012     1EC2  3EC0               	addlw	192
  8013     1EC3  00F7               	movwf	lcd_set_cursor@pos
  8014     1EC4                     l3062:
  8015                           
  8016                           ;newmain.c: 167:     lcd_command(pos);
  8017     1EC4  0877               	movf	lcd_set_cursor@pos,w
  8018     1EC5  160A  118A  2297  160A  158A  	fcall	_lcd_command
  8019     1ECA                     l95:
  8020     1ECA  0008               	return
  8021     1ECB                     __end_of_lcd_set_cursor:
  8022                           
  8023                           	psect	text29
  8024     1038                     __ptext29:	
  8025 ;; *************** function _lcd_initialise *****************
  8026 ;; Defined at:
  8027 ;;		line 103 in file "newmain.c"
  8028 ;; Parameters:    Size  Location     Type
  8029 ;;		None
  8030 ;; Auto vars:     Size  Location     Type
  8031 ;;		None
  8032 ;; Return value:  Size  Location     Type
  8033 ;;                  1    wreg      void 
  8034 ;; Registers used:
  8035 ;;		wreg, status,2, status,0, pclath, cstack
  8036 ;; Tracked objects:
  8037 ;;		On entry : 0/0
  8038 ;;		On exit  : 0/0
  8039 ;;		Unchanged: 0/0
  8040 ;; Data sizes:     COMMON   BANK0   BANK1   BANK3   BANK2
  8041 ;;      Params:         0       0       0       0       0
  8042 ;;      Locals:         0       0       0       0       0
  8043 ;;      Temps:          2       0       0       0       0
  8044 ;;      Totals:         2       0       0       0       0
  8045 ;;Total ram usage:        2 bytes
  8046 ;; Hardware stack levels used: 1
  8047 ;; Hardware stack levels required when called: 2
  8048 ;; This function calls:
  8049 ;;		_lcd_command
  8050 ;; This function is called by:
  8051 ;;		_main
  8052 ;; This function uses a non-reentrant model
  8053 ;;
  8054                           
  8055     1038                     _lcd_initialise:	
  8056                           ;psect for function _lcd_initialise
  8057                           
  8058     1038                     l3048:	
  8059                           ;incstack = 0
  8060                           ; Regs used in _lcd_initialise: [wreg+status,2+status,0+pclath+cstack]
  8061                           
  8062                           
  8063                           ;newmain.c: 104:     lcd_command(0x33);
  8064     1038  3033               	movlw	51
  8065     1039  160A  118A  2297  160A  118A  	fcall	_lcd_command
  8066                           
  8067                           ;newmain.c: 105:     lcd_command(0x32);
  8068     103E  3032               	movlw	50
  8069     103F  160A  118A  2297  160A  118A  	fcall	_lcd_command
  8070                           
  8071                           ;newmain.c: 106:     lcd_command(0x28);
  8072     1044  3028               	movlw	40
  8073     1045  160A  118A  2297  160A  118A  	fcall	_lcd_command
  8074                           
  8075                           ;newmain.c: 107:     lcd_command(0x0C);
  8076     104A  300C               	movlw	12
  8077     104B  160A  118A  2297  160A  118A  	fcall	_lcd_command
  8078                           
  8079                           ;newmain.c: 108:     lcd_command(0x06);
  8080     1050  3006               	movlw	6
  8081     1051  160A  118A  2297  160A  118A  	fcall	_lcd_command
  8082                           
  8083                           ;newmain.c: 109:     lcd_command(0x01);
  8084     1056  3001               	movlw	1
  8085     1057  160A  118A  2297  160A  118A  	fcall	_lcd_command
  8086     105C                     l3050:
  8087                           
  8088                           ;newmain.c: 110:     _delay((unsigned long)((2)*(20000000/4000.0)));
  8089     105C  300D               	movlw	13
  8090     105D  00F6               	movwf	??_lcd_initialise+1
  8091     105E  30FB               	movlw	251
  8092     105F  00F5               	movwf	??_lcd_initialise
  8093     1060                     u5917:
  8094     1060  0BF5               	decfsz	??_lcd_initialise,f
  8095     1061  2860               	goto	u5917
  8096     1062  0BF6               	decfsz	??_lcd_initialise+1,f
  8097     1063  2860               	goto	u5917
  8098     1064  2865               	nop2
  8099     1065                     l78:
  8100     1065  0008               	return
  8101     1066                     __end_of_lcd_initialise:
  8102                           
  8103                           	psect	text30
  8104     1297                     __ptext30:	
  8105 ;; *************** function _lcd_command *****************
  8106 ;; Defined at:
  8107 ;;		line 114 in file "newmain.c"
  8108 ;; Parameters:    Size  Location     Type
  8109 ;;  cmd             1    wreg     unsigned char 
  8110 ;; Auto vars:     Size  Location     Type
  8111 ;;  cmd             1    4[COMMON] unsigned char 
  8112 ;; Return value:  Size  Location     Type
  8113 ;;                  1    wreg      void 
  8114 ;; Registers used:
  8115 ;;		wreg, status,2, status,0
  8116 ;; Tracked objects:
  8117 ;;		On entry : 0/0
  8118 ;;		On exit  : 0/0
  8119 ;;		Unchanged: 0/0
  8120 ;; Data sizes:     COMMON   BANK0   BANK1   BANK3   BANK2
  8121 ;;      Params:         0       0       0       0       0
  8122 ;;      Locals:         1       0       0       0       0
  8123 ;;      Temps:          2       0       0       0       0
  8124 ;;      Totals:         3       0       0       0       0
  8125 ;;Total ram usage:        3 bytes
  8126 ;; Hardware stack levels used: 1
  8127 ;; Hardware stack levels required when called: 1
  8128 ;; This function calls:
  8129 ;;		Nothing
  8130 ;; This function is called by:
  8131 ;;		_lcd_initialise
  8132 ;;		_lcd_set_cursor
  8133 ;; This function uses a non-reentrant model
  8134 ;;
  8135                           
  8136     1297                     _lcd_command:	
  8137                           ;psect for function _lcd_command
  8138                           
  8139                           
  8140                           ;incstack = 0
  8141                           ; Regs used in _lcd_command: [wreg+status,2+status,0]
  8142                           ;lcd_command@cmd stored from wreg
  8143     1297  00F4               	movwf	lcd_command@cmd
  8144     1298                     l2990:
  8145                           
  8146                           ;newmain.c: 115:     PORTDbits.RD4 = (cmd >> 4) & 0x01;
  8147     1298  0874               	movf	lcd_command@cmd,w
  8148     1299  00F2               	movwf	??_lcd_command
  8149     129A  3004               	movlw	4
  8150     129B                     u4555:
  8151     129B  1003               	clrc
  8152     129C  0CF2               	rrf	??_lcd_command,f
  8153     129D  3EFF               	addlw	-1
  8154     129E  1D03               	skipz
  8155     129F  2A9B               	goto	u4555
  8156     12A0  0872               	movf	??_lcd_command,w
  8157     12A1  3901               	andlw	1
  8158     12A2  00F3               	movwf	??_lcd_command+1
  8159     12A3  0EF3               	swapf	??_lcd_command+1,f
  8160     12A4  1283               	bcf	3,5	;RP0=0, select bank0
  8161     12A5  1303               	bcf	3,6	;RP1=0, select bank0
  8162     12A6  0808               	movf	8,w	;volatile
  8163     12A7  0673               	xorwf	??_lcd_command+1,w
  8164     12A8  39EF               	andlw	-17
  8165     12A9  0673               	xorwf	??_lcd_command+1,w
  8166     12AA  0088               	movwf	8	;volatile
  8167                           
  8168                           ;newmain.c: 116:     PORTDbits.RD5 = (cmd >> 5) & 0x01;
  8169     12AB  0874               	movf	lcd_command@cmd,w
  8170     12AC  00F2               	movwf	??_lcd_command
  8171     12AD  3005               	movlw	5
  8172     12AE                     u4565:
  8173     12AE  1003               	clrc
  8174     12AF  0CF2               	rrf	??_lcd_command,f
  8175     12B0  3EFF               	addlw	-1
  8176     12B1  1D03               	skipz
  8177     12B2  2AAE               	goto	u4565
  8178     12B3  0872               	movf	??_lcd_command,w
  8179     12B4  3901               	andlw	1
  8180     12B5  00F3               	movwf	??_lcd_command+1
  8181     12B6  0EF3               	swapf	??_lcd_command+1,f
  8182     12B7  0DF3               	rlf	??_lcd_command+1,f
  8183     12B8  0808               	movf	8,w	;volatile
  8184     12B9  0673               	xorwf	??_lcd_command+1,w
  8185     12BA  39DF               	andlw	-33
  8186     12BB  0673               	xorwf	??_lcd_command+1,w
  8187     12BC  0088               	movwf	8	;volatile
  8188                           
  8189                           ;newmain.c: 117:     PORTDbits.RD6 = (cmd >> 6) & 0x01;
  8190     12BD  0874               	movf	lcd_command@cmd,w
  8191     12BE  00F2               	movwf	??_lcd_command
  8192     12BF  3006               	movlw	6
  8193     12C0                     u4575:
  8194     12C0  1003               	clrc
  8195     12C1  0CF2               	rrf	??_lcd_command,f
  8196     12C2  3EFF               	addlw	-1
  8197     12C3  1D03               	skipz
  8198     12C4  2AC0               	goto	u4575
  8199     12C5  0872               	movf	??_lcd_command,w
  8200     12C6  3901               	andlw	1
  8201     12C7  00F3               	movwf	??_lcd_command+1
  8202     12C8  0EF3               	swapf	??_lcd_command+1,f
  8203     12C9  0DF3               	rlf	??_lcd_command+1,f
  8204     12CA  0DF3               	rlf	??_lcd_command+1,f
  8205     12CB  0808               	movf	8,w	;volatile
  8206     12CC  0673               	xorwf	??_lcd_command+1,w
  8207     12CD  39BF               	andlw	-65
  8208     12CE  0673               	xorwf	??_lcd_command+1,w
  8209     12CF  0088               	movwf	8	;volatile
  8210                           
  8211                           ;newmain.c: 118:     PORTDbits.RD7 = (cmd >> 7) & 0x01;
  8212     12D0  0874               	movf	lcd_command@cmd,w
  8213     12D1  00F2               	movwf	??_lcd_command
  8214     12D2  3007               	movlw	7
  8215     12D3                     u4585:
  8216     12D3  1003               	clrc
  8217     12D4  0CF2               	rrf	??_lcd_command,f
  8218     12D5  3EFF               	addlw	-1
  8219     12D6  1D03               	skipz
  8220     12D7  2AD3               	goto	u4585
  8221     12D8  0872               	movf	??_lcd_command,w
  8222     12D9  3901               	andlw	1
  8223     12DA  00F3               	movwf	??_lcd_command+1
  8224     12DB  0CF3               	rrf	??_lcd_command+1,f
  8225     12DC  0CF3               	rrf	??_lcd_command+1,f
  8226     12DD  0808               	movf	8,w	;volatile
  8227     12DE  0673               	xorwf	??_lcd_command+1,w
  8228     12DF  397F               	andlw	-129
  8229     12E0  0673               	xorwf	??_lcd_command+1,w
  8230     12E1  0088               	movwf	8	;volatile
  8231     12E2                     l2992:
  8232                           
  8233                           ;newmain.c: 119:     PORTEbits.RE0 = 0;
  8234     12E2  1009               	bcf	9,0	;volatile
  8235     12E3                     l2994:
  8236                           
  8237                           ;newmain.c: 120:     PORTEbits.RE1 = 1;
  8238     12E3  1489               	bsf	9,1	;volatile
  8239     12E4                     l2996:
  8240                           
  8241                           ;newmain.c: 121:     _delay((unsigned long)((2)*(20000000/4000.0)));
  8242     12E4  300D               	movlw	13
  8243     12E5  00F3               	movwf	??_lcd_command+1
  8244     12E6  30FB               	movlw	251
  8245     12E7  00F2               	movwf	??_lcd_command
  8246     12E8                     u5927:
  8247     12E8  0BF2               	decfsz	??_lcd_command,f
  8248     12E9  2AE8               	goto	u5927
  8249     12EA  0BF3               	decfsz	??_lcd_command+1,f
  8250     12EB  2AE8               	goto	u5927
  8251     12EC  2AED               	nop2
  8252     12ED                     l2998:
  8253                           
  8254                           ;newmain.c: 122:     PORTEbits.RE1 = 0;
  8255     12ED  1283               	bcf	3,5	;RP0=0, select bank0
  8256     12EE  1303               	bcf	3,6	;RP1=0, select bank0
  8257     12EF  1089               	bcf	9,1	;volatile
  8258     12F0                     l3000:
  8259                           
  8260                           ;newmain.c: 124:     PORTDbits.RD4 = cmd & 0x01;
  8261     12F0  0874               	movf	lcd_command@cmd,w
  8262     12F1  3901               	andlw	1
  8263     12F2  00F2               	movwf	??_lcd_command
  8264     12F3  0EF2               	swapf	??_lcd_command,f
  8265     12F4  0808               	movf	8,w	;volatile
  8266     12F5  0672               	xorwf	??_lcd_command,w
  8267     12F6  39EF               	andlw	-17
  8268     12F7  0672               	xorwf	??_lcd_command,w
  8269     12F8  0088               	movwf	8	;volatile
  8270     12F9                     l3002:
  8271                           
  8272                           ;newmain.c: 125:     PORTDbits.RD5 = (cmd >> 1) & 0x01;
  8273     12F9  0874               	movf	lcd_command@cmd,w
  8274     12FA  00F2               	movwf	??_lcd_command
  8275     12FB  1003               	clrc
  8276     12FC  0C72               	rrf	??_lcd_command,w
  8277     12FD  3901               	andlw	1
  8278     12FE  00F3               	movwf	??_lcd_command+1
  8279     12FF  0EF3               	swapf	??_lcd_command+1,f
  8280     1300  0DF3               	rlf	??_lcd_command+1,f
  8281     1301  0808               	movf	8,w	;volatile
  8282     1302  0673               	xorwf	??_lcd_command+1,w
  8283     1303  39DF               	andlw	-33
  8284     1304  0673               	xorwf	??_lcd_command+1,w
  8285     1305  0088               	movwf	8	;volatile
  8286     1306                     l3004:
  8287                           
  8288                           ;newmain.c: 126:     PORTDbits.RD6 = (cmd >> 2) & 0x01;
  8289     1306  0874               	movf	lcd_command@cmd,w
  8290     1307  00F2               	movwf	??_lcd_command
  8291     1308  3002               	movlw	2
  8292     1309                     u4595:
  8293     1309  1003               	clrc
  8294     130A  0CF2               	rrf	??_lcd_command,f
  8295     130B  3EFF               	addlw	-1
  8296     130C  1D03               	skipz
  8297     130D  2B09               	goto	u4595
  8298     130E  0872               	movf	??_lcd_command,w
  8299     130F  3901               	andlw	1
  8300     1310  00F3               	movwf	??_lcd_command+1
  8301     1311  0EF3               	swapf	??_lcd_command+1,f
  8302     1312  0DF3               	rlf	??_lcd_command+1,f
  8303     1313  0DF3               	rlf	??_lcd_command+1,f
  8304     1314  0808               	movf	8,w	;volatile
  8305     1315  0673               	xorwf	??_lcd_command+1,w
  8306     1316  39BF               	andlw	-65
  8307     1317  0673               	xorwf	??_lcd_command+1,w
  8308     1318  0088               	movwf	8	;volatile
  8309     1319                     l3006:
  8310                           
  8311                           ;newmain.c: 127:     PORTDbits.RD7 = (cmd >> 3) & 0x01;
  8312     1319  0874               	movf	lcd_command@cmd,w
  8313     131A  00F2               	movwf	??_lcd_command
  8314     131B  3003               	movlw	3
  8315     131C                     u4605:
  8316     131C  1003               	clrc
  8317     131D  0CF2               	rrf	??_lcd_command,f
  8318     131E  3EFF               	addlw	-1
  8319     131F  1D03               	skipz
  8320     1320  2B1C               	goto	u4605
  8321     1321  0872               	movf	??_lcd_command,w
  8322     1322  3901               	andlw	1
  8323     1323  00F3               	movwf	??_lcd_command+1
  8324     1324  0CF3               	rrf	??_lcd_command+1,f
  8325     1325  0CF3               	rrf	??_lcd_command+1,f
  8326     1326  0808               	movf	8,w	;volatile
  8327     1327  0673               	xorwf	??_lcd_command+1,w
  8328     1328  397F               	andlw	-129
  8329     1329  0673               	xorwf	??_lcd_command+1,w
  8330     132A  0088               	movwf	8	;volatile
  8331     132B                     l3008:
  8332                           
  8333                           ;newmain.c: 128:     PORTEbits.RE1 = 1;
  8334     132B  1489               	bsf	9,1	;volatile
  8335     132C                     l3010:
  8336                           
  8337                           ;newmain.c: 129:     _delay((unsigned long)((2)*(20000000/4000.0)));
  8338     132C  300D               	movlw	13
  8339     132D  00F3               	movwf	??_lcd_command+1
  8340     132E  30FB               	movlw	251
  8341     132F  00F2               	movwf	??_lcd_command
  8342     1330                     u5937:
  8343     1330  0BF2               	decfsz	??_lcd_command,f
  8344     1331  2B30               	goto	u5937
  8345     1332  0BF3               	decfsz	??_lcd_command+1,f
  8346     1333  2B30               	goto	u5937
  8347     1334  2B35               	nop2
  8348     1335                     l3012:
  8349                           
  8350                           ;newmain.c: 130:     PORTEbits.RE1 = 0;
  8351     1335  1283               	bcf	3,5	;RP0=0, select bank0
  8352     1336  1303               	bcf	3,6	;RP1=0, select bank0
  8353     1337  1089               	bcf	9,1	;volatile
  8354     1338                     l81:
  8355     1338  0008               	return
  8356     1339                     __end_of_lcd_command:
  8357                           
  8358                           	psect	text31
  8359     1E86                     __ptext31:	
  8360 ;; *************** function _configurar_interrupcoes *****************
  8361 ;; Defined at:
  8362 ;;		line 95 in file "newmain.c"
  8363 ;; Parameters:    Size  Location     Type
  8364 ;;		None
  8365 ;; Auto vars:     Size  Location     Type
  8366 ;;		None
  8367 ;; Return value:  Size  Location     Type
  8368 ;;                  1    wreg      void 
  8369 ;; Registers used:
  8370 ;;		None
  8371 ;; Tracked objects:
  8372 ;;		On entry : 0/0
  8373 ;;		On exit  : 0/0
  8374 ;;		Unchanged: 0/0
  8375 ;; Data sizes:     COMMON   BANK0   BANK1   BANK3   BANK2
  8376 ;;      Params:         0       0       0       0       0
  8377 ;;      Locals:         0       0       0       0       0
  8378 ;;      Temps:          0       0       0       0       0
  8379 ;;      Totals:         0       0       0       0       0
  8380 ;;Total ram usage:        0 bytes
  8381 ;; Hardware stack levels used: 1
  8382 ;; Hardware stack levels required when called: 1
  8383 ;; This function calls:
  8384 ;;		Nothing
  8385 ;; This function is called by:
  8386 ;;		_main
  8387 ;; This function uses a non-reentrant model
  8388 ;;
  8389                           
  8390     1E86                     _configurar_interrupcoes:	
  8391                           ;psect for function _configurar_interrupcoes
  8392                           
  8393     1E86                     l3054:	
  8394                           ;incstack = 0
  8395                           ; Regs used in _configurar_interrupcoes: []
  8396                           
  8397                           
  8398                           ;newmain.c: 96:     INTCONbits.GIE = 1;
  8399     1E86  178B               	bsf	11,7	;volatile
  8400                           
  8401                           ;newmain.c: 97:     INTCONbits.INTE = 1;
  8402     1E87  160B               	bsf	11,4	;volatile
  8403                           
  8404                           ;newmain.c: 98:     OPTION_REGbits.INTEDG = 1;
  8405     1E88  1683               	bsf	3,5	;RP0=1, select bank1
  8406     1E89  1303               	bcf	3,6	;RP1=0, select bank1
  8407     1E8A  1701               	bsf	1,6	;volatile
  8408                           
  8409                           ;newmain.c: 99:     INTCONbits.INTF = 0;
  8410     1E8B  108B               	bcf	11,1	;volatile
  8411     1E8C                     l75:
  8412     1E8C  0008               	return
  8413     1E8D                     __end_of_configurar_interrupcoes:
  8414                           
  8415                           	psect	text32
  8416     07F7                     __ptext32:	
  8417 ;; *************** function _adc_initialise *****************
  8418 ;; Defined at:
  8419 ;;		line 81 in file "newmain.c"
  8420 ;; Parameters:    Size  Location     Type
  8421 ;;		None
  8422 ;; Auto vars:     Size  Location     Type
  8423 ;;		None
  8424 ;; Return value:  Size  Location     Type
  8425 ;;                  1    wreg      void 
  8426 ;; Registers used:
  8427 ;;		None
  8428 ;; Tracked objects:
  8429 ;;		On entry : 0/0
  8430 ;;		On exit  : 0/0
  8431 ;;		Unchanged: 0/0
  8432 ;; Data sizes:     COMMON   BANK0   BANK1   BANK3   BANK2
  8433 ;;      Params:         0       0       0       0       0
  8434 ;;      Locals:         0       0       0       0       0
  8435 ;;      Temps:          0       0       0       0       0
  8436 ;;      Totals:         0       0       0       0       0
  8437 ;;Total ram usage:        0 bytes
  8438 ;; Hardware stack levels used: 1
  8439 ;; Hardware stack levels required when called: 1
  8440 ;; This function calls:
  8441 ;;		Nothing
  8442 ;; This function is called by:
  8443 ;;		_main
  8444 ;; This function uses a non-reentrant model
  8445 ;;
  8446                           
  8447     07F7                     _adc_initialise:	
  8448                           ;psect for function _adc_initialise
  8449                           
  8450     07F7                     l3052:	
  8451                           ;incstack = 0
  8452                           ; Regs used in _adc_initialise: []
  8453                           
  8454                           
  8455                           ;newmain.c: 82:     ADCON0 = 0b10011001;
  8456     07F7  3099               	movlw	153
  8457     07F8  1283               	bcf	3,5	;RP0=0, select bank0
  8458     07F9  1303               	bcf	3,6	;RP1=0, select bank0
  8459     07FA  009F               	movwf	31	;volatile
  8460                           
  8461                           ;newmain.c: 83:     ADCON1 = 0b10000010;
  8462     07FB  3082               	movlw	130
  8463     07FC  1683               	bsf	3,5	;RP0=1, select bank1
  8464     07FD  1303               	bcf	3,6	;RP1=0, select bank1
  8465     07FE  009F               	movwf	31	;volatile
  8466     07FF                     l66:
  8467     07FF  0008               	return
  8468     0800                     __end_of_adc_initialise:
  8469                           
  8470                           	psect	text33
  8471     0800                     __ptext33:	
  8472 ;; *************** function ___xxtofl *****************
  8473 ;; Defined at:
  8474 ;;		line 10 in file "C:\Program Files\Microchip\xc8\v2.50\pic\sources\c99\common\xxtofl.c"
  8475 ;; Parameters:    Size  Location     Type
  8476 ;;  sign            1    wreg     unsigned char 
  8477 ;;  val             4    2[COMMON] long 
  8478 ;; Auto vars:     Size  Location     Type
  8479 ;;  sign            1    0[BANK0 ] unsigned char 
  8480 ;;  arg             4    2[BANK0 ] unsigned long 
  8481 ;;  exp             1    1[BANK0 ] unsigned char 
  8482 ;; Return value:  Size  Location     Type
  8483 ;;                  4    2[COMMON] unsigned char 
  8484 ;; Registers used:
  8485 ;;		wreg, status,2, status,0
  8486 ;; Tracked objects:
  8487 ;;		On entry : 0/0
  8488 ;;		On exit  : 0/0
  8489 ;;		Unchanged: 0/0
  8490 ;; Data sizes:     COMMON   BANK0   BANK1   BANK3   BANK2
  8491 ;;      Params:         4       0       0       0       0
  8492 ;;      Locals:         0       6       0       0       0
  8493 ;;      Temps:          4       0       0       0       0
  8494 ;;      Totals:         8       6       0       0       0
  8495 ;;Total ram usage:       14 bytes
  8496 ;; Hardware stack levels used: 1
  8497 ;; Hardware stack levels required when called: 1
  8498 ;; This function calls:
  8499 ;;		Nothing
  8500 ;; This function is called by:
  8501 ;;		_main
  8502 ;; This function uses a non-reentrant model
  8503 ;;
  8504                           
  8505     0800                     ___xxtofl:	
  8506                           ;psect for function ___xxtofl
  8507                           
  8508                           
  8509                           ;incstack = 0
  8510                           ; Regs used in ___xxtofl: [wreg+status,2+status,0]
  8511                           ;___xxtofl@sign stored from wreg
  8512     0800  1283               	bcf	3,5	;RP0=0, select bank0
  8513     0801  1303               	bcf	3,6	;RP1=0, select bank0
  8514     0802  00A0               	movwf	___xxtofl@sign
  8515     0803                     l3094:
  8516     0803  0820               	movf	___xxtofl@sign,w
  8517     0804  1903               	btfsc	3,2
  8518     0805  2807               	goto	u4711
  8519     0806  2808               	goto	u4710
  8520     0807                     u4711:
  8521     0807  281C               	goto	l3100
  8522     0808                     u4710:
  8523     0808                     l3096:
  8524     0808  1FF5               	btfss	___xxtofl@val+3,7
  8525     0809  280B               	goto	u4721
  8526     080A  280C               	goto	u4720
  8527     080B                     u4721:
  8528     080B  281C               	goto	l3100
  8529     080C                     u4720:
  8530     080C                     l3098:
  8531     080C  0972               	comf	___xxtofl@val,w
  8532     080D  00A2               	movwf	___xxtofl@arg
  8533     080E  0973               	comf	___xxtofl@val+1,w
  8534     080F  00A3               	movwf	___xxtofl@arg+1
  8535     0810  0974               	comf	___xxtofl@val+2,w
  8536     0811  00A4               	movwf	___xxtofl@arg+2
  8537     0812  0975               	comf	___xxtofl@val+3,w
  8538     0813  00A5               	movwf	___xxtofl@arg+3
  8539     0814  0AA2               	incf	___xxtofl@arg,f
  8540     0815  1903               	skipnz
  8541     0816  0AA3               	incf	___xxtofl@arg+1,f
  8542     0817  1903               	skipnz
  8543     0818  0AA4               	incf	___xxtofl@arg+2,f
  8544     0819  1903               	skipnz
  8545     081A  0AA5               	incf	___xxtofl@arg+3,f
  8546     081B  2824               	goto	l622
  8547     081C                     l3100:
  8548     081C  0875               	movf	___xxtofl@val+3,w
  8549     081D  00A5               	movwf	___xxtofl@arg+3
  8550     081E  0874               	movf	___xxtofl@val+2,w
  8551     081F  00A4               	movwf	___xxtofl@arg+2
  8552     0820  0873               	movf	___xxtofl@val+1,w
  8553     0821  00A3               	movwf	___xxtofl@arg+1
  8554     0822  0872               	movf	___xxtofl@val,w
  8555     0823  00A2               	movwf	___xxtofl@arg
  8556     0824                     l622:
  8557     0824  0875               	movf	___xxtofl@val+3,w
  8558     0825  0474               	iorwf	___xxtofl@val+2,w
  8559     0826  0473               	iorwf	___xxtofl@val+1,w
  8560     0827  0472               	iorwf	___xxtofl@val,w
  8561     0828  1D03               	skipz
  8562     0829  282B               	goto	u4731
  8563     082A  282C               	goto	u4730
  8564     082B                     u4731:
  8565     082B  2835               	goto	l623
  8566     082C                     u4730:
  8567     082C                     l3102:
  8568     082C  3000               	movlw	0
  8569     082D  00F5               	movwf	?___xxtofl+3
  8570     082E  3000               	movlw	0
  8571     082F  00F4               	movwf	?___xxtofl+2
  8572     0830  3000               	movlw	0
  8573     0831  00F3               	movwf	?___xxtofl+1
  8574     0832  3000               	movlw	0
  8575     0833  00F2               	movwf	?___xxtofl
  8576     0834  28B5               	goto	l624
  8577     0835                     l623:
  8578     0835  3096               	movlw	150
  8579     0836  00A1               	movwf	___xxtofl@exp
  8580     0837  2843               	goto	l3108
  8581     0838                     l3106:
  8582     0838  3001               	movlw	1
  8583     0839  07A1               	addwf	___xxtofl@exp,f
  8584     083A  3001               	movlw	1
  8585     083B                     u4745:
  8586     083B  1003               	clrc
  8587     083C  0CA5               	rrf	___xxtofl@arg+3,f
  8588     083D  0CA4               	rrf	___xxtofl@arg+2,f
  8589     083E  0CA3               	rrf	___xxtofl@arg+1,f
  8590     083F  0CA2               	rrf	___xxtofl@arg,f
  8591     0840  3EFF               	addlw	-1
  8592     0841  1D03               	skipz
  8593     0842  283B               	goto	u4745
  8594     0843                     l3108:
  8595     0843  30FE               	movlw	254
  8596     0844  0525               	andwf	___xxtofl@arg+3,w
  8597     0845  1D03               	btfss	3,2
  8598     0846  2848               	goto	u4751
  8599     0847  2849               	goto	u4750
  8600     0848                     u4751:
  8601     0848  2838               	goto	l3106
  8602     0849                     u4750:
  8603     0849  2863               	goto	l628
  8604     084A                     l3110:
  8605     084A  3001               	movlw	1
  8606     084B  07A1               	addwf	___xxtofl@exp,f
  8607     084C                     l3112:
  8608     084C  3001               	movlw	1
  8609     084D  07A2               	addwf	___xxtofl@arg,f
  8610     084E  3000               	movlw	0
  8611     084F  1803               	skipnc
  8612     0850  3001               	movlw	1
  8613     0851  07A3               	addwf	___xxtofl@arg+1,f
  8614     0852  3000               	movlw	0
  8615     0853  1803               	skipnc
  8616     0854  3001               	movlw	1
  8617     0855  07A4               	addwf	___xxtofl@arg+2,f
  8618     0856  3000               	movlw	0
  8619     0857  1803               	skipnc
  8620     0858  3001               	movlw	1
  8621     0859  07A5               	addwf	___xxtofl@arg+3,f
  8622     085A                     l3114:
  8623     085A  3001               	movlw	1
  8624     085B                     u4765:
  8625     085B  1003               	clrc
  8626     085C  0CA5               	rrf	___xxtofl@arg+3,f
  8627     085D  0CA4               	rrf	___xxtofl@arg+2,f
  8628     085E  0CA3               	rrf	___xxtofl@arg+1,f
  8629     085F  0CA2               	rrf	___xxtofl@arg,f
  8630     0860  3EFF               	addlw	-1
  8631     0861  1D03               	skipz
  8632     0862  285B               	goto	u4765
  8633     0863                     l628:
  8634     0863  30FF               	movlw	255
  8635     0864  0525               	andwf	___xxtofl@arg+3,w
  8636     0865  1D03               	btfss	3,2
  8637     0866  2868               	goto	u4771
  8638     0867  2869               	goto	u4770
  8639     0868                     u4771:
  8640     0868  284A               	goto	l3110
  8641     0869                     u4770:
  8642     0869  2875               	goto	l3118
  8643     086A                     l3116:
  8644     086A  3001               	movlw	1
  8645     086B  02A1               	subwf	___xxtofl@exp,f
  8646     086C  3001               	movlw	1
  8647     086D  00F6               	movwf	??___xxtofl
  8648     086E                     u4785:
  8649     086E  1003               	clrc
  8650     086F  0DA2               	rlf	___xxtofl@arg,f
  8651     0870  0DA3               	rlf	___xxtofl@arg+1,f
  8652     0871  0DA4               	rlf	___xxtofl@arg+2,f
  8653     0872  0DA5               	rlf	___xxtofl@arg+3,f
  8654     0873  0BF6               	decfsz	??___xxtofl,f
  8655     0874  286E               	goto	u4785
  8656     0875                     l3118:
  8657     0875  1BA4               	btfsc	___xxtofl@arg+2,7
  8658     0876  2878               	goto	u4791
  8659     0877  2879               	goto	u4790
  8660     0878                     u4791:
  8661     0878  287F               	goto	l635
  8662     0879                     u4790:
  8663     0879                     l3120:
  8664     0879  3002               	movlw	2
  8665     087A  0221               	subwf	___xxtofl@exp,w
  8666     087B  1803               	skipnc
  8667     087C  287E               	goto	u4801
  8668     087D  287F               	goto	u4800
  8669     087E                     u4801:
  8670     087E  286A               	goto	l3116
  8671     087F                     u4800:
  8672     087F                     l635:
  8673     087F  1821               	btfsc	___xxtofl@exp,0
  8674     0880  2882               	goto	u4811
  8675     0881  2883               	goto	u4810
  8676     0882                     u4811:
  8677     0882  288B               	goto	l636
  8678     0883                     u4810:
  8679     0883                     l3122:
  8680     0883  30FF               	movlw	255
  8681     0884  05A2               	andwf	___xxtofl@arg,f
  8682     0885  30FF               	movlw	255
  8683     0886  05A3               	andwf	___xxtofl@arg+1,f
  8684     0887  307F               	movlw	127
  8685     0888  05A4               	andwf	___xxtofl@arg+2,f
  8686     0889  30FF               	movlw	255
  8687     088A  05A5               	andwf	___xxtofl@arg+3,f
  8688     088B                     l636:
  8689     088B  1003               	clrc
  8690     088C  0CA1               	rrf	___xxtofl@exp,f
  8691     088D                     l3124:
  8692     088D  0821               	movf	___xxtofl@exp,w
  8693     088E  00F6               	movwf	??___xxtofl
  8694     088F  01F7               	clrf	??___xxtofl+1
  8695     0890  01F8               	clrf	??___xxtofl+2
  8696     0891  01F9               	clrf	??___xxtofl+3
  8697     0892  3018               	movlw	24
  8698     0893                     u4825:
  8699     0893  1003               	clrc
  8700     0894  0DF6               	rlf	??___xxtofl,f
  8701     0895  0DF7               	rlf	??___xxtofl+1,f
  8702     0896  0DF8               	rlf	??___xxtofl+2,f
  8703     0897  0DF9               	rlf	??___xxtofl+3,f
  8704     0898                     u4820:
  8705     0898  3EFF               	addlw	-1
  8706     0899  1D03               	skipz
  8707     089A  2893               	goto	u4825
  8708     089B  0876               	movf	??___xxtofl,w
  8709     089C  04A2               	iorwf	___xxtofl@arg,f
  8710     089D  0877               	movf	??___xxtofl+1,w
  8711     089E  04A3               	iorwf	___xxtofl@arg+1,f
  8712     089F  0878               	movf	??___xxtofl+2,w
  8713     08A0  04A4               	iorwf	___xxtofl@arg+2,f
  8714     08A1  0879               	movf	??___xxtofl+3,w
  8715     08A2  04A5               	iorwf	___xxtofl@arg+3,f
  8716     08A3                     l3126:
  8717     08A3  0820               	movf	___xxtofl@sign,w
  8718     08A4  1903               	btfsc	3,2
  8719     08A5  28A7               	goto	u4831
  8720     08A6  28A8               	goto	u4830
  8721     08A7                     u4831:
  8722     08A7  28AD               	goto	l3132
  8723     08A8                     u4830:
  8724     08A8                     l3128:
  8725     08A8  1FF5               	btfss	___xxtofl@val+3,7
  8726     08A9  28AB               	goto	u4841
  8727     08AA  28AC               	goto	u4840
  8728     08AB                     u4841:
  8729     08AB  28AD               	goto	l3132
  8730     08AC                     u4840:
  8731     08AC                     l3130:
  8732     08AC  17A5               	bsf	___xxtofl@arg+3,7
  8733     08AD                     l3132:
  8734     08AD  0825               	movf	___xxtofl@arg+3,w
  8735     08AE  00F5               	movwf	?___xxtofl+3
  8736     08AF  0824               	movf	___xxtofl@arg+2,w
  8737     08B0  00F4               	movwf	?___xxtofl+2
  8738     08B1  0823               	movf	___xxtofl@arg+1,w
  8739     08B2  00F3               	movwf	?___xxtofl+1
  8740     08B3  0822               	movf	___xxtofl@arg,w
  8741     08B4  00F2               	movwf	?___xxtofl
  8742     08B5                     l624:
  8743     08B5  0008               	return
  8744     08B6                     __end_of___xxtofl:
  8745                           
  8746                           	psect	text34
  8747     1E95                     __ptext34:	
  8748 ;; *************** function _isr *****************
  8749 ;; Defined at:
  8750 ;;		line 43 in file "newmain.c"
  8751 ;; Parameters:    Size  Location     Type
  8752 ;;		None
  8753 ;; Auto vars:     Size  Location     Type
  8754 ;;		None
  8755 ;; Return value:  Size  Location     Type
  8756 ;;                  1    wreg      void 
  8757 ;; Registers used:
  8758 ;;		None
  8759 ;; Tracked objects:
  8760 ;;		On entry : 0/0
  8761 ;;		On exit  : 0/0
  8762 ;;		Unchanged: 0/0
  8763 ;; Data sizes:     COMMON   BANK0   BANK1   BANK3   BANK2
  8764 ;;      Params:         0       0       0       0       0
  8765 ;;      Locals:         0       0       0       0       0
  8766 ;;      Temps:          2       0       0       0       0
  8767 ;;      Totals:         2       0       0       0       0
  8768 ;;Total ram usage:        2 bytes
  8769 ;; Hardware stack levels used: 1
  8770 ;; This function calls:
  8771 ;;		Nothing
  8772 ;; This function is called by:
  8773 ;;		Interrupt level 1
  8774 ;; This function uses a non-reentrant model
  8775 ;;
  8776                           
  8777     1E95                     _isr:	
  8778                           ;psect for function _isr
  8779                           
  8780     1E95                     i1l3136:
  8781                           
  8782                           ;newmain.c: 44:     if (INTCONbits.INTF) {
  8783     1E95  1C8B               	btfss	11,1	;volatile
  8784     1E96  2E98               	goto	u485_21
  8785     1E97  2E99               	goto	u485_20
  8786     1E98                     u485_21:
  8787     1E98  2E9E               	goto	i1l54
  8788     1E99                     u485_20:
  8789     1E99                     i1l3138:
  8790                           
  8791                           ;newmain.c: 45:         INTCONbits.INTF = 0;
  8792     1E99  108B               	bcf	11,1	;volatile
  8793                           
  8794                           ;newmain.c: 46:         atualizar_LCD = 1;
  8795     1E9A  3001               	movlw	1
  8796     1E9B  1683               	bsf	3,5	;RP0=1, select bank3
  8797     1E9C  1703               	bsf	3,6	;RP1=1, select bank3
  8798     1E9D  0098               	movwf	_atualizar_LCD^(0+384)	;volatile
  8799     1E9E                     i1l54:
  8800     1E9E  0871               	movf	??_isr+1,w
  8801     1E9F  008A               	movwf	10
  8802     1EA0  0E70               	swapf	??_isr,w
  8803     1EA1  0083               	movwf	3
  8804     1EA2  0EFE               	swapf	btemp,f
  8805     1EA3  0E7E               	swapf	btemp,w
  8806     1EA4  0009               	retfie
  8807     1EA5                     __end_of_isr:
  8808     0002                     ___latbits      equ	2
  8809     007E                     btemp           set	126	;btemp
  8810     007E                     wtemp0          set	126
  8811                           
  8812                           	psect	intentry
  8813     0004                     __pintentry:	
  8814                           ;incstack = 0
  8815 ;; hardware stack exceeded
  8816                           ; Regs used in _isr: []
  8817                           
  8818     0004                     interrupt_function:
  8819     007E                     saved_w         set	btemp
  8820     0004  00FE               	movwf	btemp
  8821     0005  0E03               	swapf	3,w
  8822     0006  00F0               	movwf	??_isr
  8823     0007  080A               	movf	10,w
  8824     0008  00F1               	movwf	??_isr+1
  8825     0009  160A  158A  2E95   	ljmp	_isr
  8826                           
  8827                           	psect	config
  8828                           
  8829                           ;Config register CONFIG @ 0x2007
  8830                           ;	Oscillator Selection bits
  8831                           ;	FOSC = HS, HS oscillator
  8832                           ;	Watchdog Timer Enable bit
  8833                           ;	WDTE = OFF, WDT disabled
  8834                           ;	Power-up Timer Enable bit
  8835                           ;	PWRTE = OFF, PWRT disabled
  8836                           ;	FLASH Program Memory Code Protection bits
  8837                           ;	CP = OFF, Code protection off
  8838                           ;	Brown-out Reset Enable bit
  8839                           ;	BOREN = OFF, BOR disabled
  8840                           ;	Low Voltage In-Circuit Serial Programming Enable bit
  8841                           ;	LVP = OFF, RB3 is digital I/O, HV on MCLR must be used for programming
  8842                           ;	Data EE Memory Code Protection
  8843                           ;	CPD = OFF, Code Protection off
  8844                           ;	FLASH Program Memory Write Enable
  8845                           ;	WRT = OFF, Unprotected program memory may not be written to by EECON control
  8846                           ;	In-Circuit Debugger Mode bit
  8847                           ;	DEBUG = 0x1, unprogrammed default
  8848     2007                     	org	8199
  8849     2007  3D3A               	dw	15674
  8850                           
  8851                           	psect	text6_split_1
  8852     002B                     u5640:
  8853     002B                     l3490:
  8854     002B  086E               	movf	(_prec+1)^(0+128),w
  8855     002C  00AE               	movwf	(efgtoa@p+1)^(0+128)
  8856     002D  086D               	movf	_prec^(0+128),w
  8857     002E  00AD               	movwf	efgtoa@p^(0+128)
  8858     002F  2834               	goto	l702
  8859     0030                     l3492:
  8860     0030  3006               	movlw	6
  8861     0031  00AD               	movwf	efgtoa@p^(0+128)
  8862     0032  3000               	movlw	0
  8863     0033  00AE               	movwf	(efgtoa@p^(0+128)+1)
  8864     0034                     l702:
  8865                           
  8866                           ;C:\Program Files\Microchip\xc8\v2.50\pic\sources\c99\common\doprnt.c: 697:     };C:\Pro
      +                          gram Files\Microchip\xc8\v2.50\pic\sources\c99\common\doprnt.c: 711:     m = p;
  8867     0034  082E               	movf	(efgtoa@p+1)^(0+128),w
  8868     0035  00B9               	movwf	(efgtoa@m+1)^(0+128)
  8869     0036  082D               	movf	efgtoa@p^(0+128),w
  8870     0037  00B8               	movwf	efgtoa@m^(0+128)
  8871                           
  8872                           ;C:\Program Files\Microchip\xc8\v2.50\pic\sources\c99\common\doprnt.c: 715:  {;C:\Progra
      +                          m Files\Microchip\xc8\v2.50\pic\sources\c99\common\doprnt.c: 716:         ++m;
  8873     0038  3001               	movlw	1
  8874     0039  07B8               	addwf	efgtoa@m^(0+128),f
  8875     003A  1803               	skipnc
  8876     003B  0AB9               	incf	(efgtoa@m+1)^(0+128),f
  8877     003C  3000               	movlw	0
  8878     003D  07B9               	addwf	(efgtoa@m+1)^(0+128),f
  8879     003E                     l3494:
  8880                           
  8881                           ;C:\Program Files\Microchip\xc8\v2.50\pic\sources\c99\common\doprnt.c: 717:     };C:\Pro
      +                          gram Files\Microchip\xc8\v2.50\pic\sources\c99\common\doprnt.c: 721:     if (nmode == 'f
      +                          ') {
  8882     003E  3066               	movlw	102
  8883     003F  0635               	xorwf	efgtoa@nmode^(0+128),w
  8884     0040  1D03               	btfss	3,2
  8885     0041  2843               	goto	u5651
  8886     0042  2844               	goto	u5650
  8887     0043                     u5651:
  8888     0043  285E               	goto	l3506
  8889     0044                     u5650:
  8890     0044                     l3496:
  8891                           
  8892                           ;C:\Program Files\Microchip\xc8\v2.50\pic\sources\c99\common\doprnt.c: 722:         if (
      +                          e < 0) {
  8893     0044  1FBB               	btfss	(efgtoa@e+1)^(0+128),7
  8894     0045  2847               	goto	u5661
  8895     0046  2848               	goto	u5660
  8896     0047                     u5661:
  8897     0047  2852               	goto	l3502
  8898     0048                     u5660:
  8899     0048                     l3498:
  8900                           
  8901                           ;C:\Program Files\Microchip\xc8\v2.50\pic\sources\c99\common\doprnt.c: 723:             
      +                          u.f = 1.0;
  8902     0048  303F               	movlw	63
  8903     0049  00D6               	movwf	(efgtoa@u+3)^(0+128)
  8904     004A  3080               	movlw	128
  8905     004B  00D5               	movwf	(efgtoa@u+2)^(0+128)
  8906     004C  3000               	movlw	0
  8907     004D  00D4               	movwf	(efgtoa@u+1)^(0+128)
  8908     004E  3000               	movlw	0
  8909     004F  00D3               	movwf	efgtoa@u^(0+128)
  8910     0050                     l3500:
  8911                           
  8912                           ;C:\Program Files\Microchip\xc8\v2.50\pic\sources\c99\common\doprnt.c: 724:             
      +                          e = 0;
  8913     0050  01BA               	clrf	efgtoa@e^(0+128)
  8914     0051  01BB               	clrf	(efgtoa@e+1)^(0+128)
  8915     0052                     l3502:
  8916                           
  8917                           ;C:\Program Files\Microchip\xc8\v2.50\pic\sources\c99\common\doprnt.c: 726:         if (
      +                          !(mode == 'g')) {
  8918     0052  3067               	movlw	103
  8919     0053  0634               	xorwf	efgtoa@mode^(0+128),w
  8920     0054  1903               	btfsc	3,2
  8921     0055  2857               	goto	u5671
  8922     0056  2858               	goto	u5670
  8923     0057                     u5671:
  8924     0057  285E               	goto	l3506
  8925     0058                     u5670:
  8926     0058                     l3504:
  8927                           
  8928                           ;C:\Program Files\Microchip\xc8\v2.50\pic\sources\c99\common\doprnt.c: 727:             
      +                          m += e;
  8929     0058  083A               	movf	efgtoa@e^(0+128),w
  8930     0059  07B8               	addwf	efgtoa@m^(0+128),f
  8931     005A  1803               	skipnc
  8932     005B  0AB9               	incf	(efgtoa@m+1)^(0+128),f
  8933     005C  083B               	movf	(efgtoa@e+1)^(0+128),w
  8934     005D  07B9               	addwf	(efgtoa@m+1)^(0+128),f
  8935     005E                     l3506:
  8936                           
  8937                           ;C:\Program Files\Microchip\xc8\v2.50\pic\sources\c99\common\doprnt.c: 733:     i = 0;
  8938     005E  01C2               	clrf	efgtoa@i^(0+128)
  8939     005F  01C3               	clrf	(efgtoa@i+1)^(0+128)
  8940     0060                     l3508:
  8941                           
  8942                           ;C:\Program Files\Microchip\xc8\v2.50\pic\sources\c99\common\doprnt.c: 734:     h = g.f;
  8943     0060  0850               	movf	(efgtoa@g+3)^(0+128),w
  8944     0061  00C7               	movwf	(efgtoa@h+3)^(0+128)
  8945     0062  084F               	movf	(efgtoa@g+2)^(0+128),w
  8946     0063  00C6               	movwf	(efgtoa@h+2)^(0+128)
  8947     0064  084E               	movf	(efgtoa@g+1)^(0+128),w
  8948     0065  00C5               	movwf	(efgtoa@h+1)^(0+128)
  8949     0066  084D               	movf	efgtoa@g^(0+128),w
  8950     0067  00C4               	movwf	efgtoa@h^(0+128)
  8951     0068                     l3510:
  8952                           
  8953                           ;C:\Program Files\Microchip\xc8\v2.50\pic\sources\c99\common\doprnt.c: 735:     ou = u;
  8954     0068  0856               	movf	(efgtoa@u+3)^(0+128),w
  8955     0069  00C1               	movwf	(efgtoa@ou+3)^(0+128)
  8956     006A  0855               	movf	(efgtoa@u+2)^(0+128),w
  8957     006B  00C0               	movwf	(efgtoa@ou+2)^(0+128)
  8958     006C  0854               	movf	(efgtoa@u+1)^(0+128),w
  8959     006D  00BF               	movwf	(efgtoa@ou+1)^(0+128)
  8960     006E  0853               	movf	efgtoa@u^(0+128),w
  8961     006F  00BE               	movwf	efgtoa@ou^(0+128)
  8962                           
  8963                           ;C:\Program Files\Microchip\xc8\v2.50\pic\sources\c99\common\doprnt.c: 736:     while (i
      +                           < m) {
  8964     0070  2997               	goto	l3522
  8965     0071                     l3512:
  8966                           
  8967                           ;C:\Program Files\Microchip\xc8\v2.50\pic\sources\c99\common\doprnt.c: 737:         l = 
      +                          floorf(h/u.f);
  8968     0071  1683               	bsf	3,5	;RP0=1, select bank1
  8969     0072  1303               	bcf	3,6	;RP1=0, select bank1
  8970     0073  0856               	movf	(efgtoa@u+3)^(0+128),w
  8971     0074  1283               	bcf	3,5	;RP0=0, select bank0
  8972     0075  1303               	bcf	3,6	;RP1=0, select bank0
  8973     0076  00C3               	movwf	___fldiv@a+3
  8974     0077  1683               	bsf	3,5	;RP0=1, select bank1
  8975     0078  1303               	bcf	3,6	;RP1=0, select bank1
  8976     0079  0855               	movf	(efgtoa@u+2)^(0+128),w
  8977     007A  1283               	bcf	3,5	;RP0=0, select bank0
  8978     007B  1303               	bcf	3,6	;RP1=0, select bank0
  8979     007C  00C2               	movwf	___fldiv@a+2
  8980     007D  1683               	bsf	3,5	;RP0=1, select bank1
  8981     007E  1303               	bcf	3,6	;RP1=0, select bank1
  8982     007F  0854               	movf	(efgtoa@u+1)^(0+128),w
  8983     0080  1283               	bcf	3,5	;RP0=0, select bank0
  8984     0081  1303               	bcf	3,6	;RP1=0, select bank0
  8985     0082  00C1               	movwf	___fldiv@a+1
  8986     0083  1683               	bsf	3,5	;RP0=1, select bank1
  8987     0084  1303               	bcf	3,6	;RP1=0, select bank1
  8988     0085  0853               	movf	efgtoa@u^(0+128),w
  8989     0086  1283               	bcf	3,5	;RP0=0, select bank0
  8990     0087  1303               	bcf	3,6	;RP1=0, select bank0
  8991     0088  00C0               	movwf	___fldiv@a
  8992     0089  1683               	bsf	3,5	;RP0=1, select bank1
  8993     008A  1303               	bcf	3,6	;RP1=0, select bank1
  8994     008B  0847               	movf	(efgtoa@h+3)^(0+128),w
  8995     008C  1283               	bcf	3,5	;RP0=0, select bank0
  8996     008D  1303               	bcf	3,6	;RP1=0, select bank0
  8997     008E  00C7               	movwf	___fldiv@b+3
  8998     008F  1683               	bsf	3,5	;RP0=1, select bank1
  8999     0090  1303               	bcf	3,6	;RP1=0, select bank1
  9000     0091  0846               	movf	(efgtoa@h+2)^(0+128),w
  9001     0092  1283               	bcf	3,5	;RP0=0, select bank0
  9002     0093  1303               	bcf	3,6	;RP1=0, select bank0
  9003     0094  00C6               	movwf	___fldiv@b+2
  9004     0095  1683               	bsf	3,5	;RP0=1, select bank1
  9005     0096  1303               	bcf	3,6	;RP1=0, select bank1
  9006     0097  0845               	movf	(efgtoa@h+1)^(0+128),w
  9007     0098  1283               	bcf	3,5	;RP0=0, select bank0
  9008     0099  1303               	bcf	3,6	;RP1=0, select bank0
  9009     009A  00C5               	movwf	___fldiv@b+1
  9010     009B  1683               	bsf	3,5	;RP0=1, select bank1
  9011     009C  1303               	bcf	3,6	;RP1=0, select bank1
  9012     009D  0844               	movf	efgtoa@h^(0+128),w
  9013     009E  1283               	bcf	3,5	;RP0=0, select bank0
  9014     009F  1303               	bcf	3,6	;RP1=0, select bank0
  9015     00A0  00C4               	movwf	___fldiv@b
  9016     00A1  160A  118A  2636  120A  118A  	fcall	___fldiv
  9017     00A6  1283               	bcf	3,5	;RP0=0, select bank0
  9018     00A7  1303               	bcf	3,6	;RP1=0, select bank0
  9019     00A8  0843               	movf	?___fldiv+3,w
  9020     00A9  00DD               	movwf	floorf@x+3
  9021     00AA  0842               	movf	?___fldiv+2,w
  9022     00AB  00DC               	movwf	floorf@x+2
  9023     00AC  0841               	movf	?___fldiv+1,w
  9024     00AD  00DB               	movwf	floorf@x+1
  9025     00AE  0840               	movf	?___fldiv,w
  9026     00AF  00DA               	movwf	floorf@x
  9027     00B0  120A  158A  20B6  120A  118A  	fcall	_floorf
  9028     00B5  1283               	bcf	3,5	;RP0=0, select bank0
  9029     00B6  1303               	bcf	3,6	;RP1=0, select bank0
  9030     00B7  085D               	movf	?_floorf+3,w
  9031     00B8  1683               	bsf	3,5	;RP0=1, select bank1
  9032     00B9  1303               	bcf	3,6	;RP1=0, select bank1
  9033     00BA  00CB               	movwf	(efgtoa@l+3)^(0+128)
  9034     00BB  1283               	bcf	3,5	;RP0=0, select bank0
  9035     00BC  1303               	bcf	3,6	;RP1=0, select bank0
  9036     00BD  085C               	movf	?_floorf+2,w
  9037     00BE  1683               	bsf	3,5	;RP0=1, select bank1
  9038     00BF  1303               	bcf	3,6	;RP1=0, select bank1
  9039     00C0  00CA               	movwf	(efgtoa@l+2)^(0+128)
  9040     00C1  1283               	bcf	3,5	;RP0=0, select bank0
  9041     00C2  1303               	bcf	3,6	;RP1=0, select bank0
  9042     00C3  085B               	movf	?_floorf+1,w
  9043     00C4  1683               	bsf	3,5	;RP0=1, select bank1
  9044     00C5  1303               	bcf	3,6	;RP1=0, select bank1
  9045     00C6  00C9               	movwf	(efgtoa@l+1)^(0+128)
  9046     00C7  1283               	bcf	3,5	;RP0=0, select bank0
  9047     00C8  1303               	bcf	3,6	;RP1=0, select bank0
  9048     00C9  085A               	movf	?_floorf,w
  9049     00CA  1683               	bsf	3,5	;RP0=1, select bank1
  9050     00CB  1303               	bcf	3,6	;RP1=0, select bank1
  9051     00CC  00C8               	movwf	efgtoa@l^(0+128)
  9052     00CD                     l3514:
  9053                           
  9054                           ;C:\Program Files\Microchip\xc8\v2.50\pic\sources\c99\common\doprnt.c: 738:         d = 
      +                          (int)l;
  9055     00CD  084B               	movf	(efgtoa@l+3)^(0+128),w
  9056     00CE  00F5               	movwf	___fltol@f1+3
  9057     00CF  084A               	movf	(efgtoa@l+2)^(0+128),w
  9058     00D0  00F4               	movwf	___fltol@f1+2
  9059     00D1  0849               	movf	(efgtoa@l+1)^(0+128),w
  9060     00D2  00F3               	movwf	___fltol@f1+1
  9061     00D3  0848               	movf	efgtoa@l^(0+128),w
  9062     00D4  00F2               	movwf	___fltol@f1
  9063     00D5  160A  118A  20F4  120A  118A  	fcall	___fltol
  9064     00DA  0873               	movf	?___fltol+1,w
  9065     00DB  1683               	bsf	3,5	;RP0=1, select bank1
  9066     00DC  1303               	bcf	3,6	;RP1=0, select bank1
  9067     00DD  00B7               	movwf	(efgtoa@d+1)^(0+128)
  9068     00DE  0872               	movf	?___fltol,w
  9069     00DF  00B6               	movwf	efgtoa@d^(0+128)
  9070     00E0                     l3516:
  9071                           
  9072                           ;C:\Program Files\Microchip\xc8\v2.50\pic\sources\c99\common\doprnt.c: 739:         h -=
      +                           l*u.f;
  9073     00E0  0856               	movf	(efgtoa@u+3)^(0+128),w
  9074     00E1  1283               	bcf	3,5	;RP0=0, select bank0
  9075     00E2  1303               	bcf	3,6	;RP1=0, select bank0
  9076     00E3  00AD               	movwf	___flmul@a+3
  9077     00E4  1683               	bsf	3,5	;RP0=1, select bank1
  9078     00E5  1303               	bcf	3,6	;RP1=0, select bank1
  9079     00E6  0855               	movf	(efgtoa@u+2)^(0+128),w
  9080     00E7  1283               	bcf	3,5	;RP0=0, select bank0
  9081     00E8  1303               	bcf	3,6	;RP1=0, select bank0
  9082     00E9  00AC               	movwf	___flmul@a+2
  9083     00EA  1683               	bsf	3,5	;RP0=1, select bank1
  9084     00EB  1303               	bcf	3,6	;RP1=0, select bank1
  9085     00EC  0854               	movf	(efgtoa@u+1)^(0+128),w
  9086     00ED  1283               	bcf	3,5	;RP0=0, select bank0
  9087     00EE  1303               	bcf	3,6	;RP1=0, select bank0
  9088     00EF  00AB               	movwf	___flmul@a+1
  9089     00F0  1683               	bsf	3,5	;RP0=1, select bank1
  9090     00F1  1303               	bcf	3,6	;RP1=0, select bank1
  9091     00F2  0853               	movf	efgtoa@u^(0+128),w
  9092     00F3  1283               	bcf	3,5	;RP0=0, select bank0
  9093     00F4  1303               	bcf	3,6	;RP1=0, select bank0
  9094     00F5  00AA               	movwf	___flmul@a
  9095     00F6  1683               	bsf	3,5	;RP0=1, select bank1
  9096     00F7  1303               	bcf	3,6	;RP1=0, select bank1
  9097     00F8  084B               	movf	(efgtoa@l+3)^(0+128),w
  9098     00F9  1283               	bcf	3,5	;RP0=0, select bank0
  9099     00FA  1303               	bcf	3,6	;RP1=0, select bank0
  9100     00FB  00A9               	movwf	___flmul@b+3
  9101     00FC  1683               	bsf	3,5	;RP0=1, select bank1
  9102     00FD  1303               	bcf	3,6	;RP1=0, select bank1
  9103     00FE  084A               	movf	(efgtoa@l+2)^(0+128),w
  9104     00FF  1283               	bcf	3,5	;RP0=0, select bank0
  9105     0100  1303               	bcf	3,6	;RP1=0, select bank0
  9106     0101  00A8               	movwf	___flmul@b+2
  9107     0102  1683               	bsf	3,5	;RP0=1, select bank1
  9108     0103  1303               	bcf	3,6	;RP1=0, select bank1
  9109     0104  0849               	movf	(efgtoa@l+1)^(0+128),w
  9110     0105  1283               	bcf	3,5	;RP0=0, select bank0
  9111     0106  1303               	bcf	3,6	;RP1=0, select bank0
  9112     0107  00A7               	movwf	___flmul@b+1
  9113     0108  1683               	bsf	3,5	;RP0=1, select bank1
  9114     0109  1303               	bcf	3,6	;RP1=0, select bank1
  9115     010A  0848               	movf	efgtoa@l^(0+128),w
  9116     010B  1283               	bcf	3,5	;RP0=0, select bank0
  9117     010C  1303               	bcf	3,6	;RP1=0, select bank0
  9118     010D  00A6               	movwf	___flmul@b
  9119     010E  120A  158A  24BE  120A  118A  	fcall	___flmul
  9120     0113  1283               	bcf	3,5	;RP0=0, select bank0
  9121     0114  1303               	bcf	3,6	;RP1=0, select bank0
  9122     0115  0829               	movf	?___flmul+3,w
  9123     0116  00C3               	movwf	___flsub@a+3
  9124     0117  0828               	movf	?___flmul+2,w
  9125     0118  00C2               	movwf	___flsub@a+2
  9126     0119  0827               	movf	?___flmul+1,w
  9127     011A  00C1               	movwf	___flsub@a+1
  9128     011B  0826               	movf	?___flmul,w
  9129     011C  00C0               	movwf	___flsub@a
  9130     011D  1683               	bsf	3,5	;RP0=1, select bank1
  9131     011E  1303               	bcf	3,6	;RP1=0, select bank1
  9132     011F  0847               	movf	(efgtoa@h+3)^(0+128),w
  9133     0120  1283               	bcf	3,5	;RP0=0, select bank0
  9134     0121  1303               	bcf	3,6	;RP1=0, select bank0
  9135     0122  00C7               	movwf	___flsub@b+3
  9136     0123  1683               	bsf	3,5	;RP0=1, select bank1
  9137     0124  1303               	bcf	3,6	;RP1=0, select bank1
  9138     0125  0846               	movf	(efgtoa@h+2)^(0+128),w
  9139     0126  1283               	bcf	3,5	;RP0=0, select bank0
  9140     0127  1303               	bcf	3,6	;RP1=0, select bank0
  9141     0128  00C6               	movwf	___flsub@b+2
  9142     0129  1683               	bsf	3,5	;RP0=1, select bank1
  9143     012A  1303               	bcf	3,6	;RP1=0, select bank1
  9144     012B  0845               	movf	(efgtoa@h+1)^(0+128),w
  9145     012C  1283               	bcf	3,5	;RP0=0, select bank0
  9146     012D  1303               	bcf	3,6	;RP1=0, select bank0
  9147     012E  00C5               	movwf	___flsub@b+1
  9148     012F  1683               	bsf	3,5	;RP0=1, select bank1
  9149     0130  1303               	bcf	3,6	;RP1=0, select bank1
  9150     0131  0844               	movf	efgtoa@h^(0+128),w
  9151     0132  1283               	bcf	3,5	;RP0=0, select bank0
  9152     0133  1303               	bcf	3,6	;RP1=0, select bank0
  9153     0134  00C4               	movwf	___flsub@b
  9154     0135  160A  158A  273D  120A  118A  	fcall	___flsub
  9155     013A  1283               	bcf	3,5	;RP0=0, select bank0
  9156     013B  1303               	bcf	3,6	;RP1=0, select bank0
  9157     013C  0843               	movf	?___flsub+3,w
  9158     013D  1683               	bsf	3,5	;RP0=1, select bank1
  9159     013E  1303               	bcf	3,6	;RP1=0, select bank1
  9160     013F  00C7               	movwf	(efgtoa@h+3)^(0+128)
  9161     0140  1283               	bcf	3,5	;RP0=0, select bank0
  9162     0141  1303               	bcf	3,6	;RP1=0, select bank0
  9163     0142  0842               	movf	?___flsub+2,w
  9164     0143  1683               	bsf	3,5	;RP0=1, select bank1
  9165     0144  1303               	bcf	3,6	;RP1=0, select bank1
  9166     0145  00C6               	movwf	(efgtoa@h+2)^(0+128)
  9167     0146  1283               	bcf	3,5	;RP0=0, select bank0
  9168     0147  1303               	bcf	3,6	;RP1=0, select bank0
  9169     0148  0841               	movf	?___flsub+1,w
  9170     0149  1683               	bsf	3,5	;RP0=1, select bank1
  9171     014A  1303               	bcf	3,6	;RP1=0, select bank1
  9172     014B  00C5               	movwf	(efgtoa@h+1)^(0+128)
  9173     014C  1283               	bcf	3,5	;RP0=0, select bank0
  9174     014D  1303               	bcf	3,6	;RP1=0, select bank0
  9175     014E  0840               	movf	?___flsub,w
  9176     014F  1683               	bsf	3,5	;RP0=1, select bank1
  9177     0150  1303               	bcf	3,6	;RP1=0, select bank1
  9178     0151  00C4               	movwf	efgtoa@h^(0+128)
  9179     0152                     l3518:
  9180                           
  9181                           ;C:\Program Files\Microchip\xc8\v2.50\pic\sources\c99\common\doprnt.c: 740:         u.f 
      +                          = u.f/10.0;
  9182     0152  3041               	movlw	65
  9183     0153  1283               	bcf	3,5	;RP0=0, select bank0
  9184     0154  1303               	bcf	3,6	;RP1=0, select bank0
  9185     0155  00C3               	movwf	___fldiv@a+3
  9186     0156  3020               	movlw	32
  9187     0157  00C2               	movwf	___fldiv@a+2
  9188     0158  3000               	movlw	0
  9189     0159  00C1               	movwf	___fldiv@a+1
  9190     015A  3000               	movlw	0
  9191     015B  00C0               	movwf	___fldiv@a
  9192     015C  1683               	bsf	3,5	;RP0=1, select bank1
  9193     015D  1303               	bcf	3,6	;RP1=0, select bank1
  9194     015E  0856               	movf	(efgtoa@u+3)^(0+128),w
  9195     015F  1283               	bcf	3,5	;RP0=0, select bank0
  9196     0160  1303               	bcf	3,6	;RP1=0, select bank0
  9197     0161  00C7               	movwf	___fldiv@b+3
  9198     0162  1683               	bsf	3,5	;RP0=1, select bank1
  9199     0163  1303               	bcf	3,6	;RP1=0, select bank1
  9200     0164  0855               	movf	(efgtoa@u+2)^(0+128),w
  9201     0165  1283               	bcf	3,5	;RP0=0, select bank0
  9202     0166  1303               	bcf	3,6	;RP1=0, select bank0
  9203     0167  00C6               	movwf	___fldiv@b+2
  9204     0168  1683               	bsf	3,5	;RP0=1, select bank1
  9205     0169  1303               	bcf	3,6	;RP1=0, select bank1
  9206     016A  0854               	movf	(efgtoa@u+1)^(0+128),w
  9207     016B  1283               	bcf	3,5	;RP0=0, select bank0
  9208     016C  1303               	bcf	3,6	;RP1=0, select bank0
  9209     016D  00C5               	movwf	___fldiv@b+1
  9210     016E  1683               	bsf	3,5	;RP0=1, select bank1
  9211     016F  1303               	bcf	3,6	;RP1=0, select bank1
  9212     0170  0853               	movf	efgtoa@u^(0+128),w
  9213     0171  1283               	bcf	3,5	;RP0=0, select bank0
  9214     0172  1303               	bcf	3,6	;RP1=0, select bank0
  9215     0173  00C4               	movwf	___fldiv@b
  9216     0174  160A  118A  2636  120A  118A  	fcall	___fldiv
  9217     0179  1283               	bcf	3,5	;RP0=0, select bank0
  9218     017A  1303               	bcf	3,6	;RP1=0, select bank0
  9219     017B  0843               	movf	?___fldiv+3,w
  9220     017C  1683               	bsf	3,5	;RP0=1, select bank1
  9221     017D  1303               	bcf	3,6	;RP1=0, select bank1
  9222     017E  00D6               	movwf	(efgtoa@u+3)^(0+128)
  9223     017F  1283               	bcf	3,5	;RP0=0, select bank0
  9224     0180  1303               	bcf	3,6	;RP1=0, select bank0
  9225     0181  0842               	movf	?___fldiv+2,w
  9226     0182  1683               	bsf	3,5	;RP0=1, select bank1
  9227     0183  1303               	bcf	3,6	;RP1=0, select bank1
  9228     0184  00D5               	movwf	(efgtoa@u+2)^(0+128)
  9229     0185  1283               	bcf	3,5	;RP0=0, select bank0
  9230     0186  1303               	bcf	3,6	;RP1=0, select bank0
  9231     0187  0841               	movf	?___fldiv+1,w
  9232     0188  1683               	bsf	3,5	;RP0=1, select bank1
  9233     0189  1303               	bcf	3,6	;RP1=0, select bank1
  9234     018A  00D4               	movwf	(efgtoa@u+1)^(0+128)
  9235     018B  1283               	bcf	3,5	;RP0=0, select bank0
  9236     018C  1303               	bcf	3,6	;RP1=0, select bank0
  9237     018D  0840               	movf	?___fldiv,w
  9238     018E  1683               	bsf	3,5	;RP0=1, select bank1
  9239     018F  1303               	bcf	3,6	;RP1=0, select bank1
  9240     0190  00D3               	movwf	efgtoa@u^(0+128)
  9241     0191                     l3520:
  9242                           
  9243                           ;C:\Program Files\Microchip\xc8\v2.50\pic\sources\c99\common\doprnt.c: 741:         ++i;
  9244     0191  3001               	movlw	1
  9245     0192  07C2               	addwf	efgtoa@i^(0+128),f
  9246     0193  1803               	skipnc
  9247     0194  0AC3               	incf	(efgtoa@i+1)^(0+128),f
  9248     0195  3000               	movlw	0
  9249     0196  07C3               	addwf	(efgtoa@i+1)^(0+128),f
  9250     0197                     l3522:
  9251                           
  9252                           ;C:\Program Files\Microchip\xc8\v2.50\pic\sources\c99\common\doprnt.c: 736:     while (i
      +                           < m) {
  9253     0197  0843               	movf	(efgtoa@i+1)^(0+128),w
  9254     0198  3A80               	xorlw	128
  9255     0199  00A7               	movwf	??_efgtoa^(0+128)
  9256     019A  0839               	movf	(efgtoa@m+1)^(0+128),w
  9257     019B  3A80               	xorlw	128
  9258     019C  0227               	subwf	??_efgtoa^(0+128),w
  9259     019D  1D03               	skipz
  9260     019E  29A1               	goto	u5685
  9261     019F  0838               	movf	efgtoa@m^(0+128),w
  9262     01A0  0242               	subwf	efgtoa@i^(0+128),w
  9263     01A1                     u5685:
  9264     01A1  1C03               	skipc
  9265     01A2  29A4               	goto	u5681
  9266     01A3  29A5               	goto	u5680
  9267     01A4                     u5681:
  9268     01A4  2871               	goto	l3512
  9269     01A5                     u5680:
  9270     01A5                     l3524:
  9271                           
  9272                           ;C:\Program Files\Microchip\xc8\v2.50\pic\sources\c99\common\doprnt.c: 745:     l = u.f*
      +                          5.0;
  9273     01A5  3040               	movlw	64
  9274     01A6  1283               	bcf	3,5	;RP0=0, select bank0
  9275     01A7  1303               	bcf	3,6	;RP1=0, select bank0
  9276     01A8  00A9               	movwf	___flmul@b+3
  9277     01A9  30A0               	movlw	160
  9278     01AA  00A8               	movwf	___flmul@b+2
  9279     01AB  3000               	movlw	0
  9280     01AC  00A7               	movwf	___flmul@b+1
  9281     01AD  3000               	movlw	0
  9282     01AE  00A6               	movwf	___flmul@b
  9283     01AF  1683               	bsf	3,5	;RP0=1, select bank1
  9284     01B0  1303               	bcf	3,6	;RP1=0, select bank1
  9285     01B1  0856               	movf	(efgtoa@u+3)^(0+128),w
  9286     01B2  1283               	bcf	3,5	;RP0=0, select bank0
  9287     01B3  1303               	bcf	3,6	;RP1=0, select bank0
  9288     01B4  00AD               	movwf	___flmul@a+3
  9289     01B5  1683               	bsf	3,5	;RP0=1, select bank1
  9290     01B6  1303               	bcf	3,6	;RP1=0, select bank1
  9291     01B7  0855               	movf	(efgtoa@u+2)^(0+128),w
  9292     01B8  1283               	bcf	3,5	;RP0=0, select bank0
  9293     01B9  1303               	bcf	3,6	;RP1=0, select bank0
  9294     01BA  00AC               	movwf	___flmul@a+2
  9295     01BB  1683               	bsf	3,5	;RP0=1, select bank1
  9296     01BC  1303               	bcf	3,6	;RP1=0, select bank1
  9297     01BD  0854               	movf	(efgtoa@u+1)^(0+128),w
  9298     01BE  1283               	bcf	3,5	;RP0=0, select bank0
  9299     01BF  1303               	bcf	3,6	;RP1=0, select bank0
  9300     01C0  00AB               	movwf	___flmul@a+1
  9301     01C1  1683               	bsf	3,5	;RP0=1, select bank1
  9302     01C2  1303               	bcf	3,6	;RP1=0, select bank1
  9303     01C3  0853               	movf	efgtoa@u^(0+128),w
  9304     01C4  1283               	bcf	3,5	;RP0=0, select bank0
  9305     01C5  1303               	bcf	3,6	;RP1=0, select bank0
  9306     01C6  00AA               	movwf	___flmul@a
  9307     01C7  120A  158A  24BE  120A  118A  	fcall	___flmul
  9308     01CC  1283               	bcf	3,5	;RP0=0, select bank0
  9309     01CD  1303               	bcf	3,6	;RP1=0, select bank0
  9310     01CE  0829               	movf	?___flmul+3,w
  9311     01CF  1683               	bsf	3,5	;RP0=1, select bank1
  9312     01D0  1303               	bcf	3,6	;RP1=0, select bank1
  9313     01D1  00CB               	movwf	(efgtoa@l+3)^(0+128)
  9314     01D2  1283               	bcf	3,5	;RP0=0, select bank0
  9315     01D3  1303               	bcf	3,6	;RP1=0, select bank0
  9316     01D4  0828               	movf	?___flmul+2,w
  9317     01D5  1683               	bsf	3,5	;RP0=1, select bank1
  9318     01D6  1303               	bcf	3,6	;RP1=0, select bank1
  9319     01D7  00CA               	movwf	(efgtoa@l+2)^(0+128)
  9320     01D8  1283               	bcf	3,5	;RP0=0, select bank0
  9321     01D9  1303               	bcf	3,6	;RP1=0, select bank0
  9322     01DA  0827               	movf	?___flmul+1,w
  9323     01DB  1683               	bsf	3,5	;RP0=1, select bank1
  9324     01DC  1303               	bcf	3,6	;RP1=0, select bank1
  9325     01DD  00C9               	movwf	(efgtoa@l+1)^(0+128)
  9326     01DE  1283               	bcf	3,5	;RP0=0, select bank0
  9327     01DF  1303               	bcf	3,6	;RP1=0, select bank0
  9328     01E0  0826               	movf	?___flmul,w
  9329     01E1  1683               	bsf	3,5	;RP0=1, select bank1
  9330     01E2  1303               	bcf	3,6	;RP1=0, select bank1
  9331     01E3  00C8               	movwf	efgtoa@l^(0+128)
  9332     01E4                     l3526:
  9333                           
  9334                           ;C:\Program Files\Microchip\xc8\v2.50\pic\sources\c99\common\doprnt.c: 746:     if (h < 
      +                          l) {
  9335     01E4  0847               	movf	(efgtoa@h+3)^(0+128),w
  9336     01E5  1283               	bcf	3,5	;RP0=0, select bank0
  9337     01E6  1303               	bcf	3,6	;RP1=0, select bank0
  9338     01E7  00C3               	movwf	___flge@ff1+3
  9339     01E8  1683               	bsf	3,5	;RP0=1, select bank1
  9340     01E9  1303               	bcf	3,6	;RP1=0, select bank1
  9341     01EA  0846               	movf	(efgtoa@h+2)^(0+128),w
  9342     01EB  1283               	bcf	3,5	;RP0=0, select bank0
  9343     01EC  1303               	bcf	3,6	;RP1=0, select bank0
  9344     01ED  00C2               	movwf	___flge@ff1+2
  9345     01EE  1683               	bsf	3,5	;RP0=1, select bank1
  9346     01EF  1303               	bcf	3,6	;RP1=0, select bank1
  9347     01F0  0845               	movf	(efgtoa@h+1)^(0+128),w
  9348     01F1  1283               	bcf	3,5	;RP0=0, select bank0
  9349     01F2  1303               	bcf	3,6	;RP1=0, select bank0
  9350     01F3  00C1               	movwf	___flge@ff1+1
  9351     01F4  1683               	bsf	3,5	;RP0=1, select bank1
  9352     01F5  1303               	bcf	3,6	;RP1=0, select bank1
  9353     01F6  0844               	movf	efgtoa@h^(0+128),w
  9354     01F7  1283               	bcf	3,5	;RP0=0, select bank0
  9355     01F8  1303               	bcf	3,6	;RP1=0, select bank0
  9356     01F9  00C0               	movwf	___flge@ff1
  9357     01FA  1683               	bsf	3,5	;RP0=1, select bank1
  9358     01FB  1303               	bcf	3,6	;RP1=0, select bank1
  9359     01FC  084B               	movf	(efgtoa@l+3)^(0+128),w
  9360     01FD  1283               	bcf	3,5	;RP0=0, select bank0
  9361     01FE  1303               	bcf	3,6	;RP1=0, select bank0
  9362     01FF  00C7               	movwf	___flge@ff2+3
  9363     0200  1683               	bsf	3,5	;RP0=1, select bank1
  9364     0201  1303               	bcf	3,6	;RP1=0, select bank1
  9365     0202  084A               	movf	(efgtoa@l+2)^(0+128),w
  9366     0203  1283               	bcf	3,5	;RP0=0, select bank0
  9367     0204  1303               	bcf	3,6	;RP1=0, select bank0
  9368     0205  00C6               	movwf	___flge@ff2+2
  9369     0206  1683               	bsf	3,5	;RP0=1, select bank1
  9370     0207  1303               	bcf	3,6	;RP1=0, select bank1
  9371     0208  0849               	movf	(efgtoa@l+1)^(0+128),w
  9372     0209  1283               	bcf	3,5	;RP0=0, select bank0
  9373     020A  1303               	bcf	3,6	;RP1=0, select bank0
  9374     020B  00C5               	movwf	___flge@ff2+1
  9375     020C  1683               	bsf	3,5	;RP0=1, select bank1
  9376     020D  1303               	bcf	3,6	;RP1=0, select bank1
  9377     020E  0848               	movf	efgtoa@l^(0+128),w
  9378     020F  1283               	bcf	3,5	;RP0=0, select bank0
  9379     0210  1303               	bcf	3,6	;RP1=0, select bank0
  9380     0211  00C4               	movwf	___flge@ff2
  9381     0212  160A  118A  23DB  120A  118A  	fcall	___flge
  9382     0217  1803               	btfsc	3,0
  9383     0218  2A1A               	goto	u5691
  9384     0219  2A1B               	goto	u5690
  9385     021A                     u5691:
  9386     021A  2A26               	goto	l3530
  9387     021B                     u5690:
  9388     021B                     l3528:
  9389                           
  9390                           ;C:\Program Files\Microchip\xc8\v2.50\pic\sources\c99\common\doprnt.c: 747:         l = 
      +                          0.0;
  9391     021B  3000               	movlw	0
  9392     021C  1683               	bsf	3,5	;RP0=1, select bank1
  9393     021D  1303               	bcf	3,6	;RP1=0, select bank1
  9394     021E  00CB               	movwf	(efgtoa@l+3)^(0+128)
  9395     021F  3000               	movlw	0
  9396     0220  00CA               	movwf	(efgtoa@l+2)^(0+128)
  9397     0221  3000               	movlw	0
  9398     0222  00C9               	movwf	(efgtoa@l+1)^(0+128)
  9399     0223  3000               	movlw	0
  9400     0224  00C8               	movwf	efgtoa@l^(0+128)
  9401                           
  9402                           ;C:\Program Files\Microchip\xc8\v2.50\pic\sources\c99\common\doprnt.c: 748:     } else {
  9403     0225  2A4F               	goto	l3536
  9404     0226                     l3530:
  9405                           
  9406                           ;C:\Program Files\Microchip\xc8\v2.50\pic\sources\c99\common\doprnt.c: 750:         if (
      +                          (h == l) && !(d % 2)) {
  9407     0226  1683               	bsf	3,5	;RP0=1, select bank1
  9408     0227  1303               	bcf	3,6	;RP1=0, select bank1
  9409     0228  0847               	movf	(efgtoa@h+3)^(0+128),w
  9410     0229  00F5               	movwf	___fleq@ff1+3
  9411     022A  0846               	movf	(efgtoa@h+2)^(0+128),w
  9412     022B  00F4               	movwf	___fleq@ff1+2
  9413     022C  0845               	movf	(efgtoa@h+1)^(0+128),w
  9414     022D  00F3               	movwf	___fleq@ff1+1
  9415     022E  0844               	movf	efgtoa@h^(0+128),w
  9416     022F  00F2               	movwf	___fleq@ff1
  9417     0230  084B               	movf	(efgtoa@l+3)^(0+128),w
  9418     0231  00F9               	movwf	___fleq@ff2+3
  9419     0232  084A               	movf	(efgtoa@l+2)^(0+128),w
  9420     0233  00F8               	movwf	___fleq@ff2+2
  9421     0234  0849               	movf	(efgtoa@l+1)^(0+128),w
  9422     0235  00F7               	movwf	___fleq@ff2+1
  9423     0236  0848               	movf	efgtoa@l^(0+128),w
  9424     0237  00F6               	movwf	___fleq@ff2
  9425     0238  160A  118A  20A4  120A  118A  	fcall	___fleq
  9426     023D  1C03               	btfss	3,0
  9427     023E  2A40               	goto	u5701
  9428     023F  2A41               	goto	u5700
  9429     0240                     u5701:
  9430     0240  2A4F               	goto	l3536
  9431     0241                     u5700:
  9432     0241                     l3532:
  9433     0241  1683               	bsf	3,5	;RP0=1, select bank1
  9434     0242  1303               	bcf	3,6	;RP1=0, select bank1
  9435     0243  1836               	btfsc	efgtoa@d^(0+128),0
  9436     0244  2A46               	goto	u5711
  9437     0245  2A47               	goto	u5710
  9438     0246                     u5711:
  9439     0246  2A4F               	goto	l3536
  9440     0247                     u5710:
  9441     0247                     l3534:
  9442                           
  9443                           ;C:\Program Files\Microchip\xc8\v2.50\pic\sources\c99\common\doprnt.c: 751:             
      +                          l = 0.0;
  9444     0247  3000               	movlw	0
  9445     0248  00CB               	movwf	(efgtoa@l+3)^(0+128)
  9446     0249  3000               	movlw	0
  9447     024A  00CA               	movwf	(efgtoa@l+2)^(0+128)
  9448     024B  3000               	movlw	0
  9449     024C  00C9               	movwf	(efgtoa@l+1)^(0+128)
  9450     024D  3000               	movlw	0
  9451     024E  00C8               	movwf	efgtoa@l^(0+128)
  9452     024F                     l3536:
  9453                           
  9454                           ;C:\Program Files\Microchip\xc8\v2.50\pic\sources\c99\common\doprnt.c: 756:     h = g.f 
      +                          + l;
  9455     024F  1683               	bsf	3,5	;RP0=1, select bank1
  9456     0250  1303               	bcf	3,6	;RP1=0, select bank1
  9457     0251  084B               	movf	(efgtoa@l+3)^(0+128),w
  9458     0252  00F5               	movwf	___fladd@b+3
  9459     0253  084A               	movf	(efgtoa@l+2)^(0+128),w
  9460     0254  00F4               	movwf	___fladd@b+2
  9461     0255  0849               	movf	(efgtoa@l+1)^(0+128),w
  9462     0256  00F3               	movwf	___fladd@b+1
  9463     0257  0848               	movf	efgtoa@l^(0+128),w
  9464     0258  00F2               	movwf	___fladd@b
  9465     0259  0850               	movf	(efgtoa@g+3)^(0+128),w
  9466     025A  00F9               	movwf	___fladd@a+3
  9467     025B  084F               	movf	(efgtoa@g+2)^(0+128),w
  9468     025C  00F8               	movwf	___fladd@a+2
  9469     025D  084E               	movf	(efgtoa@g+1)^(0+128),w
  9470     025E  00F7               	movwf	___fladd@a+1
  9471     025F  084D               	movf	efgtoa@g^(0+128),w
  9472     0260  00F6               	movwf	___fladd@a
  9473     0261  120A  118A  254E  120A  118A  	fcall	___fladd
  9474     0266  0875               	movf	?___fladd+3,w
  9475     0267  1683               	bsf	3,5	;RP0=1, select bank1
  9476     0268  1303               	bcf	3,6	;RP1=0, select bank1
  9477     0269  00C7               	movwf	(efgtoa@h+3)^(0+128)
  9478     026A  0874               	movf	?___fladd+2,w
  9479     026B  00C6               	movwf	(efgtoa@h+2)^(0+128)
  9480     026C  0873               	movf	?___fladd+1,w
  9481     026D  00C5               	movwf	(efgtoa@h+1)^(0+128)
  9482     026E  0872               	movf	?___fladd,w
  9483     026F  00C4               	movwf	efgtoa@h^(0+128)
  9484     0270                     l3538:
  9485                           
  9486                           ;C:\Program Files\Microchip\xc8\v2.50\pic\sources\c99\common\doprnt.c: 758:  if (h >= (o
      +                          u.f*10.0)) {
  9487     0270  0847               	movf	(efgtoa@h+3)^(0+128),w
  9488     0271  1283               	bcf	3,5	;RP0=0, select bank0
  9489     0272  1303               	bcf	3,6	;RP1=0, select bank0
  9490     0273  00C3               	movwf	___flge@ff1+3
  9491     0274  1683               	bsf	3,5	;RP0=1, select bank1
  9492     0275  1303               	bcf	3,6	;RP1=0, select bank1
  9493     0276  0846               	movf	(efgtoa@h+2)^(0+128),w
  9494     0277  1283               	bcf	3,5	;RP0=0, select bank0
  9495     0278  1303               	bcf	3,6	;RP1=0, select bank0
  9496     0279  00C2               	movwf	___flge@ff1+2
  9497     027A  1683               	bsf	3,5	;RP0=1, select bank1
  9498     027B  1303               	bcf	3,6	;RP1=0, select bank1
  9499     027C  0845               	movf	(efgtoa@h+1)^(0+128),w
  9500     027D  1283               	bcf	3,5	;RP0=0, select bank0
  9501     027E  1303               	bcf	3,6	;RP1=0, select bank0
  9502     027F  00C1               	movwf	___flge@ff1+1
  9503     0280  1683               	bsf	3,5	;RP0=1, select bank1
  9504     0281  1303               	bcf	3,6	;RP1=0, select bank1
  9505     0282  0844               	movf	efgtoa@h^(0+128),w
  9506     0283  1283               	bcf	3,5	;RP0=0, select bank0
  9507     0284  1303               	bcf	3,6	;RP1=0, select bank0
  9508     0285  00C0               	movwf	___flge@ff1
  9509     0286  3041               	movlw	65
  9510     0287  00A9               	movwf	___flmul@b+3
  9511     0288  3020               	movlw	32
  9512     0289  00A8               	movwf	___flmul@b+2
  9513     028A  3000               	movlw	0
  9514     028B  00A7               	movwf	___flmul@b+1
  9515     028C  3000               	movlw	0
  9516     028D  00A6               	movwf	___flmul@b
  9517     028E  1683               	bsf	3,5	;RP0=1, select bank1
  9518     028F  1303               	bcf	3,6	;RP1=0, select bank1
  9519     0290  0841               	movf	(efgtoa@ou+3)^(0+128),w
  9520     0291  1283               	bcf	3,5	;RP0=0, select bank0
  9521     0292  1303               	bcf	3,6	;RP1=0, select bank0
  9522     0293  00AD               	movwf	___flmul@a+3
  9523     0294  1683               	bsf	3,5	;RP0=1, select bank1
  9524     0295  1303               	bcf	3,6	;RP1=0, select bank1
  9525     0296  0840               	movf	(efgtoa@ou+2)^(0+128),w
  9526     0297  1283               	bcf	3,5	;RP0=0, select bank0
  9527     0298  1303               	bcf	3,6	;RP1=0, select bank0
  9528     0299  00AC               	movwf	___flmul@a+2
  9529     029A  1683               	bsf	3,5	;RP0=1, select bank1
  9530     029B  1303               	bcf	3,6	;RP1=0, select bank1
  9531     029C  083F               	movf	(efgtoa@ou+1)^(0+128),w
  9532     029D  1283               	bcf	3,5	;RP0=0, select bank0
  9533     029E  1303               	bcf	3,6	;RP1=0, select bank0
  9534     029F  00AB               	movwf	___flmul@a+1
  9535     02A0  1683               	bsf	3,5	;RP0=1, select bank1
  9536     02A1  1303               	bcf	3,6	;RP1=0, select bank1
  9537     02A2  083E               	movf	efgtoa@ou^(0+128),w
  9538     02A3  1283               	bcf	3,5	;RP0=0, select bank0
  9539     02A4  1303               	bcf	3,6	;RP1=0, select bank0
  9540     02A5  00AA               	movwf	___flmul@a
  9541     02A6  120A  158A  24BE  120A  118A  	fcall	___flmul
  9542     02AB  1283               	bcf	3,5	;RP0=0, select bank0
  9543     02AC  1303               	bcf	3,6	;RP1=0, select bank0
  9544     02AD  0829               	movf	?___flmul+3,w
  9545     02AE  00C7               	movwf	___flge@ff2+3
  9546     02AF  0828               	movf	?___flmul+2,w
  9547     02B0  00C6               	movwf	___flge@ff2+2
  9548     02B1  0827               	movf	?___flmul+1,w
  9549     02B2  00C5               	movwf	___flge@ff2+1
  9550     02B3  0826               	movf	?___flmul,w
  9551     02B4  00C4               	movwf	___flge@ff2
  9552     02B5  160A  118A  23DB  120A  118A  	fcall	___flge
  9553     02BA  1C03               	btfss	3,0
  9554     02BB  2ABD               	goto	u5721
  9555     02BC  2ABE               	goto	u5720
  9556     02BD                     u5721:
  9557     02BD  2B11               	goto	l712
  9558     02BE                     u5720:
  9559     02BE                     l3540:
  9560                           
  9561                           ;C:\Program Files\Microchip\xc8\v2.50\pic\sources\c99\common\doprnt.c: 759:   e++;
  9562     02BE  3001               	movlw	1
  9563     02BF  1683               	bsf	3,5	;RP0=1, select bank1
  9564     02C0  1303               	bcf	3,6	;RP1=0, select bank1
  9565     02C1  07BA               	addwf	efgtoa@e^(0+128),f
  9566     02C2  1803               	skipnc
  9567     02C3  0ABB               	incf	(efgtoa@e+1)^(0+128),f
  9568     02C4  3000               	movlw	0
  9569     02C5  07BB               	addwf	(efgtoa@e+1)^(0+128),f
  9570     02C6                     l3542:
  9571                           
  9572                           ;C:\Program Files\Microchip\xc8\v2.50\pic\sources\c99\common\doprnt.c: 760:   ou.f *= 10
      +                          .0;
  9573     02C6  3041               	movlw	65
  9574     02C7  1283               	bcf	3,5	;RP0=0, select bank0
  9575     02C8  1303               	bcf	3,6	;RP1=0, select bank0
  9576     02C9  00A9               	movwf	___flmul@b+3
  9577     02CA  3020               	movlw	32
  9578     02CB  00A8               	movwf	___flmul@b+2
  9579     02CC  3000               	movlw	0
  9580     02CD  00A7               	movwf	___flmul@b+1
  9581     02CE  3000               	movlw	0
  9582     02CF  00A6               	movwf	___flmul@b
  9583     02D0  1683               	bsf	3,5	;RP0=1, select bank1
  9584     02D1  1303               	bcf	3,6	;RP1=0, select bank1
  9585     02D2  0841               	movf	(efgtoa@ou+3)^(0+128),w
  9586     02D3  1283               	bcf	3,5	;RP0=0, select bank0
  9587     02D4  1303               	bcf	3,6	;RP1=0, select bank0
  9588     02D5  00AD               	movwf	___flmul@a+3
  9589     02D6  1683               	bsf	3,5	;RP0=1, select bank1
  9590     02D7  1303               	bcf	3,6	;RP1=0, select bank1
  9591     02D8  0840               	movf	(efgtoa@ou+2)^(0+128),w
  9592     02D9  1283               	bcf	3,5	;RP0=0, select bank0
  9593     02DA  1303               	bcf	3,6	;RP1=0, select bank0
  9594     02DB  00AC               	movwf	___flmul@a+2
  9595     02DC  1683               	bsf	3,5	;RP0=1, select bank1
  9596     02DD  1303               	bcf	3,6	;RP1=0, select bank1
  9597     02DE  083F               	movf	(efgtoa@ou+1)^(0+128),w
  9598     02DF  1283               	bcf	3,5	;RP0=0, select bank0
  9599     02E0  1303               	bcf	3,6	;RP1=0, select bank0
  9600     02E1  00AB               	movwf	___flmul@a+1
  9601     02E2  1683               	bsf	3,5	;RP0=1, select bank1
  9602     02E3  1303               	bcf	3,6	;RP1=0, select bank1
  9603     02E4  083E               	movf	efgtoa@ou^(0+128),w
  9604     02E5  1283               	bcf	3,5	;RP0=0, select bank0
  9605     02E6  1303               	bcf	3,6	;RP1=0, select bank0
  9606     02E7  00AA               	movwf	___flmul@a
  9607     02E8  120A  158A  24BE  120A  118A  	fcall	___flmul
  9608     02ED  1283               	bcf	3,5	;RP0=0, select bank0
  9609     02EE  1303               	bcf	3,6	;RP1=0, select bank0
  9610     02EF  0829               	movf	?___flmul+3,w
  9611     02F0  1683               	bsf	3,5	;RP0=1, select bank1
  9612     02F1  1303               	bcf	3,6	;RP1=0, select bank1
  9613     02F2  00C1               	movwf	(efgtoa@ou+3)^(0+128)
  9614     02F3  1283               	bcf	3,5	;RP0=0, select bank0
  9615     02F4  1303               	bcf	3,6	;RP1=0, select bank0
  9616     02F5  0828               	movf	?___flmul+2,w
  9617     02F6  1683               	bsf	3,5	;RP0=1, select bank1
  9618     02F7  1303               	bcf	3,6	;RP1=0, select bank1
  9619     02F8  00C0               	movwf	(efgtoa@ou+2)^(0+128)
  9620     02F9  1283               	bcf	3,5	;RP0=0, select bank0
  9621     02FA  1303               	bcf	3,6	;RP1=0, select bank0
  9622     02FB  0827               	movf	?___flmul+1,w
  9623     02FC  1683               	bsf	3,5	;RP0=1, select bank1
  9624     02FD  1303               	bcf	3,6	;RP1=0, select bank1
  9625     02FE  00BF               	movwf	(efgtoa@ou+1)^(0+128)
  9626     02FF  1283               	bcf	3,5	;RP0=0, select bank0
  9627     0300  1303               	bcf	3,6	;RP1=0, select bank0
  9628     0301  0826               	movf	?___flmul,w
  9629     0302  1683               	bsf	3,5	;RP0=1, select bank1
  9630     0303  1303               	bcf	3,6	;RP1=0, select bank1
  9631     0304  00BE               	movwf	efgtoa@ou^(0+128)
  9632     0305                     l3544:
  9633                           
  9634                           ;C:\Program Files\Microchip\xc8\v2.50\pic\sources\c99\common\doprnt.c: 762:   if (nmode 
      +                          == 'f') {
  9635     0305  3066               	movlw	102
  9636     0306  0635               	xorwf	efgtoa@nmode^(0+128),w
  9637     0307  1D03               	btfss	3,2
  9638     0308  2B0A               	goto	u5731
  9639     0309  2B0B               	goto	u5730
  9640     030A                     u5731:
  9641     030A  2B11               	goto	l712
  9642     030B                     u5730:
  9643     030B                     l3546:
  9644                           
  9645                           ;C:\Program Files\Microchip\xc8\v2.50\pic\sources\c99\common\doprnt.c: 764:    m++;
  9646     030B  3001               	movlw	1
  9647     030C  07B8               	addwf	efgtoa@m^(0+128),f
  9648     030D  1803               	skipnc
  9649     030E  0AB9               	incf	(efgtoa@m+1)^(0+128),f
  9650     030F  3000               	movlw	0
  9651     0310  07B9               	addwf	(efgtoa@m+1)^(0+128),f
  9652     0311                     l712:	
  9653                           ;C:\Program Files\Microchip\xc8\v2.50\pic\sources\c99\common\doprnt.c: 767:  }
  9654                           
  9655                           
  9656                           ;C:\Program Files\Microchip\xc8\v2.50\pic\sources\c99\common\doprnt.c: 770:     u = ou;
  9657     0311  1683               	bsf	3,5	;RP0=1, select bank1
  9658     0312  1303               	bcf	3,6	;RP1=0, select bank1
  9659     0313  0841               	movf	(efgtoa@ou+3)^(0+128),w
  9660     0314  00D6               	movwf	(efgtoa@u+3)^(0+128)
  9661     0315  0840               	movf	(efgtoa@ou+2)^(0+128),w
  9662     0316  00D5               	movwf	(efgtoa@u+2)^(0+128)
  9663     0317  083F               	movf	(efgtoa@ou+1)^(0+128),w
  9664     0318  00D4               	movwf	(efgtoa@u+1)^(0+128)
  9665     0319  083E               	movf	efgtoa@ou^(0+128),w
  9666     031A  00D3               	movwf	efgtoa@u^(0+128)
  9667                           
  9668                           ;C:\Program Files\Microchip\xc8\v2.50\pic\sources\c99\common\doprnt.c: 774:  ne = e;
  9669     031B  083B               	movf	(efgtoa@e+1)^(0+128),w
  9670     031C  00AC               	movwf	(efgtoa@ne+1)^(0+128)
  9671     031D  083A               	movf	efgtoa@e^(0+128),w
  9672     031E  00AB               	movwf	efgtoa@ne^(0+128)
  9673     031F                     l3548:
  9674                           
  9675                           ;C:\Program Files\Microchip\xc8\v2.50\pic\sources\c99\common\doprnt.c: 776:     pp = 0;
  9676     031F  01B3               	clrf	efgtoa@pp^(0+128)
  9677     0320                     l3550:
  9678                           
  9679                           ;C:\Program Files\Microchip\xc8\v2.50\pic\sources\c99\common\doprnt.c: 777:     t = 0;
  9680     0320  01AF               	clrf	efgtoa@t^(0+128)
  9681     0321  01B0               	clrf	(efgtoa@t+1)^(0+128)
  9682     0322                     l3552:
  9683                           
  9684                           ;C:\Program Files\Microchip\xc8\v2.50\pic\sources\c99\common\doprnt.c: 778:     i = 0;
  9685     0322  01C2               	clrf	efgtoa@i^(0+128)
  9686     0323  01C3               	clrf	(efgtoa@i+1)^(0+128)
  9687                           
  9688                           ;C:\Program Files\Microchip\xc8\v2.50\pic\sources\c99\common\doprnt.c: 779:     while ((
      +                          i < m) && (n < (80 - 5))) {
  9689     0324  2CC3               	goto	l3596
  9690     0325                     l3554:
  9691                           
  9692                           ;C:\Program Files\Microchip\xc8\v2.50\pic\sources\c99\common\doprnt.c: 780:         l = 
      +                          floorf(h/u.f);
  9693     0325  1683               	bsf	3,5	;RP0=1, select bank1
  9694     0326  1303               	bcf	3,6	;RP1=0, select bank1
  9695     0327  0856               	movf	(efgtoa@u+3)^(0+128),w
  9696     0328  1283               	bcf	3,5	;RP0=0, select bank0
  9697     0329  1303               	bcf	3,6	;RP1=0, select bank0
  9698     032A  00C3               	movwf	___fldiv@a+3
  9699     032B  1683               	bsf	3,5	;RP0=1, select bank1
  9700     032C  1303               	bcf	3,6	;RP1=0, select bank1
  9701     032D  0855               	movf	(efgtoa@u+2)^(0+128),w
  9702     032E  1283               	bcf	3,5	;RP0=0, select bank0
  9703     032F  1303               	bcf	3,6	;RP1=0, select bank0
  9704     0330  00C2               	movwf	___fldiv@a+2
  9705     0331  1683               	bsf	3,5	;RP0=1, select bank1
  9706     0332  1303               	bcf	3,6	;RP1=0, select bank1
  9707     0333  0854               	movf	(efgtoa@u+1)^(0+128),w
  9708     0334  1283               	bcf	3,5	;RP0=0, select bank0
  9709     0335  1303               	bcf	3,6	;RP1=0, select bank0
  9710     0336  00C1               	movwf	___fldiv@a+1
  9711     0337  1683               	bsf	3,5	;RP0=1, select bank1
  9712     0338  1303               	bcf	3,6	;RP1=0, select bank1
  9713     0339  0853               	movf	efgtoa@u^(0+128),w
  9714     033A  1283               	bcf	3,5	;RP0=0, select bank0
  9715     033B  1303               	bcf	3,6	;RP1=0, select bank0
  9716     033C  00C0               	movwf	___fldiv@a
  9717     033D  1683               	bsf	3,5	;RP0=1, select bank1
  9718     033E  1303               	bcf	3,6	;RP1=0, select bank1
  9719     033F  0847               	movf	(efgtoa@h+3)^(0+128),w
  9720     0340  1283               	bcf	3,5	;RP0=0, select bank0
  9721     0341  1303               	bcf	3,6	;RP1=0, select bank0
  9722     0342  00C7               	movwf	___fldiv@b+3
  9723     0343  1683               	bsf	3,5	;RP0=1, select bank1
  9724     0344  1303               	bcf	3,6	;RP1=0, select bank1
  9725     0345  0846               	movf	(efgtoa@h+2)^(0+128),w
  9726     0346  1283               	bcf	3,5	;RP0=0, select bank0
  9727     0347  1303               	bcf	3,6	;RP1=0, select bank0
  9728     0348  00C6               	movwf	___fldiv@b+2
  9729     0349  1683               	bsf	3,5	;RP0=1, select bank1
  9730     034A  1303               	bcf	3,6	;RP1=0, select bank1
  9731     034B  0845               	movf	(efgtoa@h+1)^(0+128),w
  9732     034C  1283               	bcf	3,5	;RP0=0, select bank0
  9733     034D  1303               	bcf	3,6	;RP1=0, select bank0
  9734     034E  00C5               	movwf	___fldiv@b+1
  9735     034F  1683               	bsf	3,5	;RP0=1, select bank1
  9736     0350  1303               	bcf	3,6	;RP1=0, select bank1
  9737     0351  0844               	movf	efgtoa@h^(0+128),w
  9738     0352  1283               	bcf	3,5	;RP0=0, select bank0
  9739     0353  1303               	bcf	3,6	;RP1=0, select bank0
  9740     0354  00C4               	movwf	___fldiv@b
  9741     0355  160A  118A  2636  120A  118A  	fcall	___fldiv
  9742     035A  1283               	bcf	3,5	;RP0=0, select bank0
  9743     035B  1303               	bcf	3,6	;RP1=0, select bank0
  9744     035C  0843               	movf	?___fldiv+3,w
  9745     035D  00DD               	movwf	floorf@x+3
  9746     035E  0842               	movf	?___fldiv+2,w
  9747     035F  00DC               	movwf	floorf@x+2
  9748     0360  0841               	movf	?___fldiv+1,w
  9749     0361  00DB               	movwf	floorf@x+1
  9750     0362  0840               	movf	?___fldiv,w
  9751     0363  00DA               	movwf	floorf@x
  9752     0364  120A  158A  20B6  120A  118A  	fcall	_floorf
  9753     0369  1283               	bcf	3,5	;RP0=0, select bank0
  9754     036A  1303               	bcf	3,6	;RP1=0, select bank0
  9755     036B  085D               	movf	?_floorf+3,w
  9756     036C  1683               	bsf	3,5	;RP0=1, select bank1
  9757     036D  1303               	bcf	3,6	;RP1=0, select bank1
  9758     036E  00CB               	movwf	(efgtoa@l+3)^(0+128)
  9759     036F  1283               	bcf	3,5	;RP0=0, select bank0
  9760     0370  1303               	bcf	3,6	;RP1=0, select bank0
  9761     0371  085C               	movf	?_floorf+2,w
  9762     0372  1683               	bsf	3,5	;RP0=1, select bank1
  9763     0373  1303               	bcf	3,6	;RP1=0, select bank1
  9764     0374  00CA               	movwf	(efgtoa@l+2)^(0+128)
  9765     0375  1283               	bcf	3,5	;RP0=0, select bank0
  9766     0376  1303               	bcf	3,6	;RP1=0, select bank0
  9767     0377  085B               	movf	?_floorf+1,w
  9768     0378  1683               	bsf	3,5	;RP0=1, select bank1
  9769     0379  1303               	bcf	3,6	;RP1=0, select bank1
  9770     037A  00C9               	movwf	(efgtoa@l+1)^(0+128)
  9771     037B  1283               	bcf	3,5	;RP0=0, select bank0
  9772     037C  1303               	bcf	3,6	;RP1=0, select bank0
  9773     037D  085A               	movf	?_floorf,w
  9774     037E  1683               	bsf	3,5	;RP0=1, select bank1
  9775     037F  1303               	bcf	3,6	;RP1=0, select bank1
  9776     0380  00C8               	movwf	efgtoa@l^(0+128)
  9777                           
  9778                           ;C:\Program Files\Microchip\xc8\v2.50\pic\sources\c99\common\doprnt.c: 781:         d = 
      +                          (int)l > 9 ? 9 : (int)l;
  9779     0381  084B               	movf	(efgtoa@l+3)^(0+128),w
  9780     0382  00F5               	movwf	___fltol@f1+3
  9781     0383  084A               	movf	(efgtoa@l+2)^(0+128),w
  9782     0384  00F4               	movwf	___fltol@f1+2
  9783     0385  0849               	movf	(efgtoa@l+1)^(0+128),w
  9784     0386  00F3               	movwf	___fltol@f1+1
  9785     0387  0848               	movf	efgtoa@l^(0+128),w
  9786     0388  00F2               	movwf	___fltol@f1
  9787     0389  160A  118A  20F4  120A  118A  	fcall	___fltol
  9788     038E  0873               	movf	?___fltol+1,w
  9789     038F  3A80               	xorlw	128
  9790     0390  00FF               	movwf	btemp+1
  9791     0391  3080               	movlw	128
  9792     0392  027F               	subwf	btemp+1,w
  9793     0393  1D03               	skipz
  9794     0394  2B97               	goto	u5745
  9795     0395  300A               	movlw	10
  9796     0396  0272               	subwf	?___fltol,w
  9797     0397                     u5745:
  9798     0397  1803               	skipnc
  9799     0398  2B9A               	goto	u5741
  9800     0399  2B9B               	goto	u5740
  9801     039A                     u5741:
  9802     039A  2BB1               	goto	l3558
  9803     039B                     u5740:
  9804     039B                     l3556:
  9805     039B  1683               	bsf	3,5	;RP0=1, select bank1
  9806     039C  1303               	bcf	3,6	;RP1=0, select bank1
  9807     039D  084B               	movf	(efgtoa@l+3)^(0+128),w
  9808     039E  00F5               	movwf	___fltol@f1+3
  9809     039F  084A               	movf	(efgtoa@l+2)^(0+128),w
  9810     03A0  00F4               	movwf	___fltol@f1+2
  9811     03A1  0849               	movf	(efgtoa@l+1)^(0+128),w
  9812     03A2  00F3               	movwf	___fltol@f1+1
  9813     03A3  0848               	movf	efgtoa@l^(0+128),w
  9814     03A4  00F2               	movwf	___fltol@f1
  9815     03A5  160A  118A  20F4  120A  118A  	fcall	___fltol
  9816     03AA  0873               	movf	?___fltol+1,w
  9817     03AB  1683               	bsf	3,5	;RP0=1, select bank1
  9818     03AC  1303               	bcf	3,6	;RP1=0, select bank1
  9819     03AD  00B7               	movwf	(efgtoa@d+1)^(0+128)
  9820     03AE  0872               	movf	?___fltol,w
  9821     03AF  00B6               	movwf	efgtoa@d^(0+128)
  9822     03B0  2BB7               	goto	l3560
  9823     03B1                     l3558:
  9824     03B1  3009               	movlw	9
  9825     03B2  1683               	bsf	3,5	;RP0=1, select bank1
  9826     03B3  1303               	bcf	3,6	;RP1=0, select bank1
  9827     03B4  00B6               	movwf	efgtoa@d^(0+128)
  9828     03B5  3000               	movlw	0
  9829     03B6  00B7               	movwf	(efgtoa@d^(0+128)+1)
  9830     03B7                     l3560:
  9831                           
  9832                           ;C:\Program Files\Microchip\xc8\v2.50\pic\sources\c99\common\doprnt.c: 792:   {;C:\Progr
      +                          am Files\Microchip\xc8\v2.50\pic\sources\c99\common\doprnt.c: 793:             if (!pp &
      +                          & (ne < 0)) {
  9833     03B7  0833               	movf	efgtoa@pp^(0+128),w
  9834     03B8  1D03               	btfss	3,2
  9835     03B9  2BBB               	goto	u5751
  9836     03BA  2BBC               	goto	u5750
  9837     03BB                     u5751:
  9838     03BB  2BED               	goto	l3580
  9839     03BC                     u5750:
  9840     03BC                     l3562:
  9841     03BC  1FAC               	btfss	(efgtoa@ne+1)^(0+128),7
  9842     03BD  2BBF               	goto	u5761
  9843     03BE  2BC0               	goto	u5760
  9844     03BF                     u5761:
  9845     03BF  2BED               	goto	l3580
  9846     03C0                     u5760:
  9847     03C0                     l3564:
  9848                           
  9849                           ;C:\Program Files\Microchip\xc8\v2.50\pic\sources\c99\common\doprnt.c: 794:             
      +                              dbuf[n++] = '.';
  9850     03C0  0851               	movf	efgtoa@n^(0+128),w
  9851     03C1  3E10               	addlw	(low (_dbuf| (0+256)))& (0+255)
  9852     03C2  0084               	movwf	4
  9853     03C3  302E               	movlw	46
  9854     03C4  1783               	bsf	3,7	;select IRP bank2
  9855     03C5  0080               	movwf	0
  9856     03C6                     l3566:
  9857     03C6  3001               	movlw	1
  9858     03C7  07D1               	addwf	efgtoa@n^(0+128),f
  9859     03C8  1803               	skipnc
  9860     03C9  0AD2               	incf	(efgtoa@n+1)^(0+128),f
  9861     03CA  3000               	movlw	0
  9862     03CB  07D2               	addwf	(efgtoa@n+1)^(0+128),f
  9863     03CC                     l3568:
  9864                           
  9865                           ;C:\Program Files\Microchip\xc8\v2.50\pic\sources\c99\common\doprnt.c: 795:             
      +                              --w;
  9866     03CC  30FF               	movlw	255
  9867     03CD  07BC               	addwf	efgtoa@w^(0+128),f
  9868     03CE  1803               	skipnc
  9869     03CF  0ABD               	incf	(efgtoa@w+1)^(0+128),f
  9870     03D0  30FF               	movlw	255
  9871     03D1  07BD               	addwf	(efgtoa@w+1)^(0+128),f
  9872     03D2                     l3570:
  9873                           
  9874                           ;C:\Program Files\Microchip\xc8\v2.50\pic\sources\c99\common\doprnt.c: 796:             
      +                              pp = 1;
  9875     03D2  3001               	movlw	1
  9876     03D3  00B3               	movwf	efgtoa@pp^(0+128)
  9877     03D4  2BED               	goto	l3580
  9878     03D5                     l3572:
  9879                           
  9880                           ;C:\Program Files\Microchip\xc8\v2.50\pic\sources\c99\common\doprnt.c: 799:             
      +                              dbuf[n++] = '0';
  9881     03D5  0851               	movf	efgtoa@n^(0+128),w
  9882     03D6  3E10               	addlw	(low (_dbuf| (0+256)))& (0+255)
  9883     03D7  0084               	movwf	4
  9884     03D8  3030               	movlw	48
  9885     03D9  1783               	bsf	3,7	;select IRP bank2
  9886     03DA  0080               	movwf	0
  9887     03DB                     l3574:
  9888     03DB  3001               	movlw	1
  9889     03DC  07D1               	addwf	efgtoa@n^(0+128),f
  9890     03DD  1803               	skipnc
  9891     03DE  0AD2               	incf	(efgtoa@n+1)^(0+128),f
  9892     03DF  3000               	movlw	0
  9893     03E0  07D2               	addwf	(efgtoa@n+1)^(0+128),f
  9894     03E1                     l3576:
  9895                           
  9896                           ;C:\Program Files\Microchip\xc8\v2.50\pic\sources\c99\common\doprnt.c: 800:             
      +                              --w;
  9897     03E1  30FF               	movlw	255
  9898     03E2  07BC               	addwf	efgtoa@w^(0+128),f
  9899     03E3  1803               	skipnc
  9900     03E4  0ABD               	incf	(efgtoa@w+1)^(0+128),f
  9901     03E5  30FF               	movlw	255
  9902     03E6  07BD               	addwf	(efgtoa@w+1)^(0+128),f
  9903     03E7                     l3578:
  9904                           
  9905                           ;C:\Program Files\Microchip\xc8\v2.50\pic\sources\c99\common\doprnt.c: 801:             
      +                              --t;
  9906     03E7  30FF               	movlw	255
  9907     03E8  07AF               	addwf	efgtoa@t^(0+128),f
  9908     03E9  1803               	skipnc
  9909     03EA  0AB0               	incf	(efgtoa@t+1)^(0+128),f
  9910     03EB  30FF               	movlw	255
  9911     03EC  07B0               	addwf	(efgtoa@t+1)^(0+128),f
  9912     03ED                     l3580:
  9913                           
  9914                           ;C:\Program Files\Microchip\xc8\v2.50\pic\sources\c99\common\doprnt.c: 798:             
      +                          while (t) {
  9915     03ED  082F               	movf	efgtoa@t^(0+128),w
  9916     03EE  0430               	iorwf	(efgtoa@t+1)^(0+128),w
  9917     03EF  1D03               	btfss	3,2
  9918     03F0  2BF2               	goto	u5771
  9919     03F1  2BF3               	goto	u5770
  9920     03F2                     u5771:
  9921     03F2  2BD5               	goto	l3572
  9922     03F3                     u5770:
  9923     03F3                     l3582:
  9924                           
  9925                           ;C:\Program Files\Microchip\xc8\v2.50\pic\sources\c99\common\doprnt.c: 803:             
      +                          dbuf[n++] = (char)((int)'0' + d);
  9926     03F3  0851               	movf	efgtoa@n^(0+128),w
  9927     03F4  3E10               	addlw	(low (_dbuf| (0+256)))& (0+255)
  9928     03F5  0084               	movwf	4
  9929     03F6  0836               	movf	efgtoa@d^(0+128),w
  9930     03F7  3E30               	addlw	48
  9931     03F8  1783               	bsf	3,7	;select IRP bank2
  9932     03F9  0080               	movwf	0
  9933     03FA                     l3584:
  9934     03FA  3001               	movlw	1
  9935     03FB  07D1               	addwf	efgtoa@n^(0+128),f
  9936     03FC  1803               	skipnc
  9937     03FD  0AD2               	incf	(efgtoa@n+1)^(0+128),f
  9938     03FE  3000               	movlw	0
  9939     03FF  07D2               	addwf	(efgtoa@n+1)^(0+128),f
  9940     0400                     l3586:
  9941                           
  9942                           ;C:\Program Files\Microchip\xc8\v2.50\pic\sources\c99\common\doprnt.c: 804:             
      +                          --w;
  9943     0400  30FF               	movlw	255
  9944     0401  07BC               	addwf	efgtoa@w^(0+128),f
  9945     0402  1803               	skipnc
  9946     0403  0ABD               	incf	(efgtoa@w+1)^(0+128),f
  9947     0404  30FF               	movlw	255
  9948     0405  07BD               	addwf	(efgtoa@w+1)^(0+128),f
  9949     0406                     l3588:
  9950                           
  9951                           ;C:\Program Files\Microchip\xc8\v2.50\pic\sources\c99\common\doprnt.c: 805:         };C:
      +                          \Program Files\Microchip\xc8\v2.50\pic\sources\c99\common\doprnt.c: 806:         h -= l*
      +                          u.f;
  9952     0406  0856               	movf	(efgtoa@u+3)^(0+128),w
  9953     0407  1283               	bcf	3,5	;RP0=0, select bank0
  9954     0408  1303               	bcf	3,6	;RP1=0, select bank0
  9955     0409  00AD               	movwf	___flmul@a+3
  9956     040A  1683               	bsf	3,5	;RP0=1, select bank1
  9957     040B  1303               	bcf	3,6	;RP1=0, select bank1
  9958     040C  0855               	movf	(efgtoa@u+2)^(0+128),w
  9959     040D  1283               	bcf	3,5	;RP0=0, select bank0
  9960     040E  1303               	bcf	3,6	;RP1=0, select bank0
  9961     040F  00AC               	movwf	___flmul@a+2
  9962     0410  1683               	bsf	3,5	;RP0=1, select bank1
  9963     0411  1303               	bcf	3,6	;RP1=0, select bank1
  9964     0412  0854               	movf	(efgtoa@u+1)^(0+128),w
  9965     0413  1283               	bcf	3,5	;RP0=0, select bank0
  9966     0414  1303               	bcf	3,6	;RP1=0, select bank0
  9967     0415  00AB               	movwf	___flmul@a+1
  9968     0416  1683               	bsf	3,5	;RP0=1, select bank1
  9969     0417  1303               	bcf	3,6	;RP1=0, select bank1
  9970     0418  0853               	movf	efgtoa@u^(0+128),w
  9971     0419  1283               	bcf	3,5	;RP0=0, select bank0
  9972     041A  1303               	bcf	3,6	;RP1=0, select bank0
  9973     041B  00AA               	movwf	___flmul@a
  9974     041C  1683               	bsf	3,5	;RP0=1, select bank1
  9975     041D  1303               	bcf	3,6	;RP1=0, select bank1
  9976     041E  084B               	movf	(efgtoa@l+3)^(0+128),w
  9977     041F  1283               	bcf	3,5	;RP0=0, select bank0
  9978     0420  1303               	bcf	3,6	;RP1=0, select bank0
  9979     0421  00A9               	movwf	___flmul@b+3
  9980     0422  1683               	bsf	3,5	;RP0=1, select bank1
  9981     0423  1303               	bcf	3,6	;RP1=0, select bank1
  9982     0424  084A               	movf	(efgtoa@l+2)^(0+128),w
  9983     0425  1283               	bcf	3,5	;RP0=0, select bank0
  9984     0426  1303               	bcf	3,6	;RP1=0, select bank0
  9985     0427  00A8               	movwf	___flmul@b+2
  9986     0428  1683               	bsf	3,5	;RP0=1, select bank1
  9987     0429  1303               	bcf	3,6	;RP1=0, select bank1
  9988     042A  0849               	movf	(efgtoa@l+1)^(0+128),w
  9989     042B  1283               	bcf	3,5	;RP0=0, select bank0
  9990     042C  1303               	bcf	3,6	;RP1=0, select bank0
  9991     042D  00A7               	movwf	___flmul@b+1
  9992     042E  1683               	bsf	3,5	;RP0=1, select bank1
  9993     042F  1303               	bcf	3,6	;RP1=0, select bank1
  9994     0430  0848               	movf	efgtoa@l^(0+128),w
  9995     0431  1283               	bcf	3,5	;RP0=0, select bank0
  9996     0432  1303               	bcf	3,6	;RP1=0, select bank0
  9997     0433  00A6               	movwf	___flmul@b
  9998     0434  120A  158A  24BE  120A  118A  	fcall	___flmul
  9999     0439  1283               	bcf	3,5	;RP0=0, select bank0
 10000     043A  1303               	bcf	3,6	;RP1=0, select bank0
 10001     043B  0829               	movf	?___flmul+3,w
 10002     043C  00C3               	movwf	___flsub@a+3
 10003     043D  0828               	movf	?___flmul+2,w
 10004     043E  00C2               	movwf	___flsub@a+2
 10005     043F  0827               	movf	?___flmul+1,w
 10006     0440  00C1               	movwf	___flsub@a+1
 10007     0441  0826               	movf	?___flmul,w
 10008     0442  00C0               	movwf	___flsub@a
 10009     0443  1683               	bsf	3,5	;RP0=1, select bank1
 10010     0444  1303               	bcf	3,6	;RP1=0, select bank1
 10011     0445  0847               	movf	(efgtoa@h+3)^(0+128),w
 10012     0446  1283               	bcf	3,5	;RP0=0, select bank0
 10013     0447  1303               	bcf	3,6	;RP1=0, select bank0
 10014     0448  00C7               	movwf	___flsub@b+3
 10015     0449  1683               	bsf	3,5	;RP0=1, select bank1
 10016     044A  1303               	bcf	3,6	;RP1=0, select bank1
 10017     044B  0846               	movf	(efgtoa@h+2)^(0+128),w
 10018     044C  1283               	bcf	3,5	;RP0=0, select bank0
 10019     044D  1303               	bcf	3,6	;RP1=0, select bank0
 10020     044E  00C6               	movwf	___flsub@b+2
 10021     044F  1683               	bsf	3,5	;RP0=1, select bank1
 10022     0450  1303               	bcf	3,6	;RP1=0, select bank1
 10023     0451  0845               	movf	(efgtoa@h+1)^(0+128),w
 10024     0452  1283               	bcf	3,5	;RP0=0, select bank0
 10025     0453  1303               	bcf	3,6	;RP1=0, select bank0
 10026     0454  00C5               	movwf	___flsub@b+1
 10027     0455  1683               	bsf	3,5	;RP0=1, select bank1
 10028     0456  1303               	bcf	3,6	;RP1=0, select bank1
 10029     0457  0844               	movf	efgtoa@h^(0+128),w
 10030     0458  1283               	bcf	3,5	;RP0=0, select bank0
 10031     0459  1303               	bcf	3,6	;RP1=0, select bank0
 10032     045A  00C4               	movwf	___flsub@b
 10033     045B  160A  158A  273D  120A  118A  	fcall	___flsub
 10034     0460  1283               	bcf	3,5	;RP0=0, select bank0
 10035     0461  1303               	bcf	3,6	;RP1=0, select bank0
 10036     0462  0843               	movf	?___flsub+3,w
 10037     0463  1683               	bsf	3,5	;RP0=1, select bank1
 10038     0464  1303               	bcf	3,6	;RP1=0, select bank1
 10039     0465  00C7               	movwf	(efgtoa@h+3)^(0+128)
 10040     0466  1283               	bcf	3,5	;RP0=0, select bank0
 10041     0467  1303               	bcf	3,6	;RP1=0, select bank0
 10042     0468  0842               	movf	?___flsub+2,w
 10043     0469  1683               	bsf	3,5	;RP0=1, select bank1
 10044     046A  1303               	bcf	3,6	;RP1=0, select bank1
 10045     046B  00C6               	movwf	(efgtoa@h+2)^(0+128)
 10046     046C  1283               	bcf	3,5	;RP0=0, select bank0
 10047     046D  1303               	bcf	3,6	;RP1=0, select bank0
 10048     046E  0841               	movf	?___flsub+1,w
 10049     046F  1683               	bsf	3,5	;RP0=1, select bank1
 10050     0470  1303               	bcf	3,6	;RP1=0, select bank1
 10051     0471  00C5               	movwf	(efgtoa@h+1)^(0+128)
 10052     0472  1283               	bcf	3,5	;RP0=0, select bank0
 10053     0473  1303               	bcf	3,6	;RP1=0, select bank0
 10054     0474  0840               	movf	?___flsub,w
 10055     0475  1683               	bsf	3,5	;RP0=1, select bank1
 10056     0476  1303               	bcf	3,6	;RP1=0, select bank1
 10057     0477  00C4               	movwf	efgtoa@h^(0+128)
 10058     0478                     l3590:
 10059                           
 10060                           ;C:\Program Files\Microchip\xc8\v2.50\pic\sources\c99\common\doprnt.c: 807:         u.f 
      +                          = u.f/10.0;
 10061     0478  3041               	movlw	65
 10062     0479  1283               	bcf	3,5	;RP0=0, select bank0
 10063     047A  1303               	bcf	3,6	;RP1=0, select bank0
 10064     047B  00C3               	movwf	___fldiv@a+3
 10065     047C  3020               	movlw	32
 10066     047D  00C2               	movwf	___fldiv@a+2
 10067     047E  3000               	movlw	0
 10068     047F  00C1               	movwf	___fldiv@a+1
 10069     0480  3000               	movlw	0
 10070     0481  00C0               	movwf	___fldiv@a
 10071     0482  1683               	bsf	3,5	;RP0=1, select bank1
 10072     0483  1303               	bcf	3,6	;RP1=0, select bank1
 10073     0484  0856               	movf	(efgtoa@u+3)^(0+128),w
 10074     0485  1283               	bcf	3,5	;RP0=0, select bank0
 10075     0486  1303               	bcf	3,6	;RP1=0, select bank0
 10076     0487  00C7               	movwf	___fldiv@b+3
 10077     0488  1683               	bsf	3,5	;RP0=1, select bank1
 10078     0489  1303               	bcf	3,6	;RP1=0, select bank1
 10079     048A  0855               	movf	(efgtoa@u+2)^(0+128),w
 10080     048B  1283               	bcf	3,5	;RP0=0, select bank0
 10081     048C  1303               	bcf	3,6	;RP1=0, select bank0
 10082     048D  00C6               	movwf	___fldiv@b+2
 10083     048E  1683               	bsf	3,5	;RP0=1, select bank1
 10084     048F  1303               	bcf	3,6	;RP1=0, select bank1
 10085     0490  0854               	movf	(efgtoa@u+1)^(0+128),w
 10086     0491  1283               	bcf	3,5	;RP0=0, select bank0
 10087     0492  1303               	bcf	3,6	;RP1=0, select bank0
 10088     0493  00C5               	movwf	___fldiv@b+1
 10089     0494  1683               	bsf	3,5	;RP0=1, select bank1
 10090     0495  1303               	bcf	3,6	;RP1=0, select bank1
 10091     0496  0853               	movf	efgtoa@u^(0+128),w
 10092     0497  1283               	bcf	3,5	;RP0=0, select bank0
 10093     0498  1303               	bcf	3,6	;RP1=0, select bank0
 10094     0499  00C4               	movwf	___fldiv@b
 10095     049A  160A  118A  2636  120A  118A  	fcall	___fldiv
 10096     049F  1283               	bcf	3,5	;RP0=0, select bank0
 10097     04A0  1303               	bcf	3,6	;RP1=0, select bank0
 10098     04A1  0843               	movf	?___fldiv+3,w
 10099     04A2  1683               	bsf	3,5	;RP0=1, select bank1
 10100     04A3  1303               	bcf	3,6	;RP1=0, select bank1
 10101     04A4  00D6               	movwf	(efgtoa@u+3)^(0+128)
 10102     04A5  1283               	bcf	3,5	;RP0=0, select bank0
 10103     04A6  1303               	bcf	3,6	;RP1=0, select bank0
 10104     04A7  0842               	movf	?___fldiv+2,w
 10105     04A8  1683               	bsf	3,5	;RP0=1, select bank1
 10106     04A9  1303               	bcf	3,6	;RP1=0, select bank1
 10107     04AA  00D5               	movwf	(efgtoa@u+2)^(0+128)
 10108     04AB  1283               	bcf	3,5	;RP0=0, select bank0
 10109     04AC  1303               	bcf	3,6	;RP1=0, select bank0
 10110     04AD  0841               	movf	?___fldiv+1,w
 10111     04AE  1683               	bsf	3,5	;RP0=1, select bank1
 10112     04AF  1303               	bcf	3,6	;RP1=0, select bank1
 10113     04B0  00D4               	movwf	(efgtoa@u+1)^(0+128)
 10114     04B1  1283               	bcf	3,5	;RP0=0, select bank0
 10115     04B2  1303               	bcf	3,6	;RP1=0, select bank0
 10116     04B3  0840               	movf	?___fldiv,w
 10117     04B4  1683               	bsf	3,5	;RP0=1, select bank1
 10118     04B5  1303               	bcf	3,6	;RP1=0, select bank1
 10119     04B6  00D3               	movwf	efgtoa@u^(0+128)
 10120     04B7                     l3592:
 10121                           
 10122                           ;C:\Program Files\Microchip\xc8\v2.50\pic\sources\c99\common\doprnt.c: 808:         --ne
      +                          ;
 10123     04B7  30FF               	movlw	255
 10124     04B8  07AB               	addwf	efgtoa@ne^(0+128),f
 10125     04B9  1803               	skipnc
 10126     04BA  0AAC               	incf	(efgtoa@ne+1)^(0+128),f
 10127     04BB  30FF               	movlw	255
 10128     04BC  07AC               	addwf	(efgtoa@ne+1)^(0+128),f
 10129     04BD                     l3594:
 10130                           
 10131                           ;C:\Program Files\Microchip\xc8\v2.50\pic\sources\c99\common\doprnt.c: 809:         ++i;
 10132     04BD  3001               	movlw	1
 10133     04BE  07C2               	addwf	efgtoa@i^(0+128),f
 10134     04BF  1803               	skipnc
 10135     04C0  0AC3               	incf	(efgtoa@i+1)^(0+128),f
 10136     04C1  3000               	movlw	0
 10137     04C2  07C3               	addwf	(efgtoa@i+1)^(0+128),f
 10138     04C3                     l3596:
 10139                           
 10140                           ;C:\Program Files\Microchip\xc8\v2.50\pic\sources\c99\common\doprnt.c: 779:     while ((
      +                          i < m) && (n < (80 - 5))) {
 10141     04C3  0843               	movf	(efgtoa@i+1)^(0+128),w
 10142     04C4  3A80               	xorlw	128
 10143     04C5  00A7               	movwf	??_efgtoa^(0+128)
 10144     04C6  0839               	movf	(efgtoa@m+1)^(0+128),w
 10145     04C7  3A80               	xorlw	128
 10146     04C8  0227               	subwf	??_efgtoa^(0+128),w
 10147     04C9  1D03               	skipz
 10148     04CA  2CCD               	goto	u5785
 10149     04CB  0838               	movf	efgtoa@m^(0+128),w
 10150     04CC  0242               	subwf	efgtoa@i^(0+128),w
 10151     04CD                     u5785:
 10152     04CD  1803               	skipnc
 10153     04CE  2CD0               	goto	u5781
 10154     04CF  2CD1               	goto	u5780
 10155     04D0                     u5781:
 10156     04D0  2CE0               	goto	l3600
 10157     04D1                     u5780:
 10158     04D1                     l3598:
 10159     04D1  1683               	bsf	3,5	;RP0=1, select bank1
 10160     04D2  1303               	bcf	3,6	;RP1=0, select bank1
 10161     04D3  0852               	movf	(efgtoa@n+1)^(0+128),w
 10162     04D4  3A80               	xorlw	128
 10163     04D5  00FF               	movwf	btemp+1
 10164     04D6  3080               	movlw	128
 10165     04D7  027F               	subwf	btemp+1,w
 10166     04D8  1D03               	skipz
 10167     04D9  2CDC               	goto	u5795
 10168     04DA  304B               	movlw	75
 10169     04DB  0251               	subwf	efgtoa@n^(0+128),w
 10170     04DC                     u5795:
 10171     04DC  1C03               	skipc
 10172     04DD  2CDF               	goto	u5791
 10173     04DE  2CE0               	goto	u5790
 10174     04DF                     u5791:
 10175     04DF  2B25               	goto	l3554
 10176     04E0                     u5790:
 10177     04E0                     l3600:
 10178                           
 10179                           ;C:\Program Files\Microchip\xc8\v2.50\pic\sources\c99\common\doprnt.c: 816:  i = sizeof(
      +                          dbuf) - 1;
 10180     04E0  304F               	movlw	79
 10181     04E1  1683               	bsf	3,5	;RP0=1, select bank1
 10182     04E2  1303               	bcf	3,6	;RP1=0, select bank1
 10183     04E3  00C2               	movwf	efgtoa@i^(0+128)
 10184     04E4  3000               	movlw	0
 10185     04E5  00C3               	movwf	(efgtoa@i^(0+128)+1)
 10186     04E6                     l3602:
 10187                           
 10188                           ;C:\Program Files\Microchip\xc8\v2.50\pic\sources\c99\common\doprnt.c: 817:     dbuf[i] 
      +                          = '\0';
 10189     04E6  0842               	movf	efgtoa@i^(0+128),w
 10190     04E7  3E10               	addlw	(low (_dbuf| (0+256)))& (0+255)
 10191     04E8  0084               	movwf	4
 10192     04E9  1783               	bsf	3,7	;select IRP bank2
 10193     04EA  0180               	clrf	0
 10194     04EB                     l3604:
 10195                           
 10196                           ;C:\Program Files\Microchip\xc8\v2.50\pic\sources\c99\common\doprnt.c: 848:  memcpy(&dbu
      +                          f[i-n], &dbuf[0], (size_t)n);
 10197     04EB  3010               	movlw	(low (_dbuf| (0+256)))& (0+255)
 10198     04EC  00A7               	movwf	??_efgtoa^(0+128)
 10199     04ED  0851               	movf	efgtoa@n^(0+128),w
 10200     04EE  02A7               	subwf	??_efgtoa^(0+128),f
 10201     04EF  0842               	movf	efgtoa@i^(0+128),w
 10202     04F0  0727               	addwf	??_efgtoa^(0+128),w
 10203     04F1  00F2               	movwf	memcpy@d1
 10204     04F2  3010               	movlw	(low (_dbuf| (0+256)))& (0+255)
 10205     04F3  00F3               	movwf	memcpy@s1
 10206     04F4  0852               	movf	(efgtoa@n+1)^(0+128),w
 10207     04F5  00F5               	movwf	memcpy@n+1
 10208     04F6  0851               	movf	efgtoa@n^(0+128),w
 10209     04F7  00F4               	movwf	memcpy@n
 10210     04F8  160A  158A  26F9  120A  118A  	fcall	_memcpy
 10211     04FD                     l3606:
 10212                           
 10213                           ;C:\Program Files\Microchip\xc8\v2.50\pic\sources\c99\common\doprnt.c: 849:  n = i-n;
 10214     04FD  1683               	bsf	3,5	;RP0=1, select bank1
 10215     04FE  1303               	bcf	3,6	;RP1=0, select bank1
 10216     04FF  0851               	movf	efgtoa@n^(0+128),w
 10217     0500  0242               	subwf	efgtoa@i^(0+128),w
 10218     0501  00D1               	movwf	efgtoa@n^(0+128)
 10219     0502  0852               	movf	(efgtoa@n+1)^(0+128),w
 10220     0503  1C03               	skipc
 10221     0504  0A52               	incf	(efgtoa@n+1)^(0+128),w
 10222     0505  0243               	subwf	(efgtoa@i+1)^(0+128),w
 10223     0506  00D2               	movwf	(efgtoa@n+1)^(0+128)
 10224     0507                     l3608:
 10225                           
 10226                           ;C:\Program Files\Microchip\xc8\v2.50\pic\sources\c99\common\doprnt.c: 850:  i = sign ==
      +                           0 ? 0 : 1;
 10227     0507  084C               	movf	efgtoa@sign^(0+128),w
 10228     0508  1D03               	btfss	3,2
 10229     0509  2D0B               	goto	u5801
 10230     050A  2D0D               	goto	u5800
 10231     050B                     u5801:
 10232     050B  3001               	movlw	1
 10233     050C  2D0E               	goto	u5810
 10234     050D                     u5800:
 10235     050D  3000               	movlw	0
 10236     050E                     u5810:
 10237     050E  00A7               	movwf	??_efgtoa^(0+128)
 10238     050F  01A8               	clrf	(??_efgtoa^(0+128)+1)
 10239     0510  0827               	movf	??_efgtoa^(0+128),w
 10240     0511  00C2               	movwf	efgtoa@i^(0+128)
 10241     0512  0828               	movf	(??_efgtoa+1)^(0+128),w
 10242     0513  00C3               	movwf	(efgtoa@i+1)^(0+128)
 10243     0514                     l3610:
 10244                           
 10245                           ;C:\Program Files\Microchip\xc8\v2.50\pic\sources\c99\common\doprnt.c: 861:  if (sign) {
 10246     0514  084C               	movf	efgtoa@sign^(0+128),w
 10247     0515  1903               	btfsc	3,2
 10248     0516  2D18               	goto	u5821
 10249     0517  2D19               	goto	u5820
 10250     0518                     u5821:
 10251     0518  2D25               	goto	l3614
 10252     0519                     u5820:
 10253     0519                     l3612:
 10254                           
 10255                           ;C:\Program Files\Microchip\xc8\v2.50\pic\sources\c99\common\doprnt.c: 862:   dbuf[--n] 
      +                          = sign;
 10256     0519  30FF               	movlw	255
 10257     051A  07D1               	addwf	efgtoa@n^(0+128),f
 10258     051B  1803               	skipnc
 10259     051C  0AD2               	incf	(efgtoa@n+1)^(0+128),f
 10260     051D  30FF               	movlw	255
 10261     051E  07D2               	addwf	(efgtoa@n+1)^(0+128),f
 10262     051F  0851               	movf	efgtoa@n^(0+128),w
 10263     0520  3E10               	addlw	(low (_dbuf| (0+256)))& (0+255)
 10264     0521  0084               	movwf	4
 10265     0522  084C               	movf	efgtoa@sign^(0+128),w
 10266     0523  1783               	bsf	3,7	;select IRP bank2
 10267     0524  0080               	movwf	0
 10268     0525                     l3614:
 10269                           
 10270                           ;C:\Program Files\Microchip\xc8\v2.50\pic\sources\c99\common\doprnt.c: 864:  w -= i;
 10271     0525  0842               	movf	efgtoa@i^(0+128),w
 10272     0526  02BC               	subwf	efgtoa@w^(0+128),f
 10273     0527  0843               	movf	(efgtoa@i+1)^(0+128),w
 10274     0528  1C03               	skipc
 10275     0529  03BD               	decf	(efgtoa@w+1)^(0+128),f
 10276     052A  02BD               	subwf	(efgtoa@w+1)^(0+128),f
 10277     052B                     l3616:
 10278                           
 10279                           ;C:\Program Files\Microchip\xc8\v2.50\pic\sources\c99\common\doprnt.c: 867:     return (
      +                          void) pad(fp, &dbuf[n], w);
 10280     052B  0820               	movf	efgtoa@fp^(0+128),w
 10281     052C  1283               	bcf	3,5	;RP0=0, select bank0
 10282     052D  1303               	bcf	3,6	;RP1=0, select bank0
 10283     052E  00AE               	movwf	pad@fp
 10284     052F  1683               	bsf	3,5	;RP0=1, select bank1
 10285     0530  1303               	bcf	3,6	;RP1=0, select bank1
 10286     0531  0821               	movf	(efgtoa@fp+1)^(0+128),w
 10287     0532  1283               	bcf	3,5	;RP0=0, select bank0
 10288     0533  1303               	bcf	3,6	;RP1=0, select bank0
 10289     0534  00AF               	movwf	pad@fp+1
 10290     0535  1683               	bsf	3,5	;RP0=1, select bank1
 10291     0536  1303               	bcf	3,6	;RP1=0, select bank1
 10292     0537  0851               	movf	efgtoa@n^(0+128),w
 10293     0538  3E10               	addlw	(low (_dbuf| (0+256)))& (0+255)
 10294     0539  1283               	bcf	3,5	;RP0=0, select bank0
 10295     053A  1303               	bcf	3,6	;RP1=0, select bank0
 10296     053B  00B0               	movwf	pad@buf
 10297     053C  1683               	bsf	3,5	;RP0=1, select bank1
 10298     053D  1303               	bcf	3,6	;RP1=0, select bank1
 10299     053E  083D               	movf	(efgtoa@w+1)^(0+128),w
 10300     053F  1283               	bcf	3,5	;RP0=0, select bank0
 10301     0540  1303               	bcf	3,6	;RP1=0, select bank0
 10302     0541  00B2               	movwf	pad@p+1
 10303     0542  1683               	bsf	3,5	;RP0=1, select bank1
 10304     0543  1303               	bcf	3,6	;RP1=0, select bank1
 10305     0544  083C               	movf	efgtoa@w^(0+128),w
 10306     0545  1283               	bcf	3,5	;RP0=0, select bank0
 10307     0546  1303               	bcf	3,6	;RP1=0, select bank0
 10308     0547  00B1               	movwf	pad@p
 10309     0548  160A  118A  2066  120A  118A  	fcall	_pad
 10310     054D                     l686:
 10311     054D  0008               	return
 10312     054E                     __end_of_efgtoa:

Data Sizes:
    Strings     26
    Constant    0
    Data        0
    BSS         110
    Persistent  0
    Stack       0

Auto Spaces:
    Space          Size  Autos    Used
    COMMON           14     10      12
    BANK0            80     80      80
    BANK1            80     77      80
    BANK3            96     18      43
    BANK2            96      0      80

Pointer List with Targets:

    efgtoa@fp	PTR struct _IO_FILE size(2) Largest target is 11
		 -> sprintf@f(BANK3[11]), 

    f$.$buffer	PTR unsigned char  size(2) Largest target is 16
		 -> buffer(BANK3[16]), 

    f$.$source	PTR const unsigned char  size(1) Largest target is 0

    fputc@fp	PTR struct _IO_FILE size(2) Largest target is 11
		 -> sprintf@f(BANK3[11]), 

    fputc@fp$.$buffer	PTR unsigned char  size(2) Largest target is 16
		 -> buffer(BANK3[16]), 

    fputc@fp$.$source	PTR const unsigned char  size(1) Largest target is 0

    fputs@fp	PTR struct _IO_FILE size(2) Largest target is 11
		 -> sprintf@f(BANK3[11]), 

    fputs@s	PTR const unsigned char  size(1) Largest target is 80
		 -> dbuf(BANK2[80]), 

    lcd_string@str	PTR const unsigned char  size(2) Largest target is 16
		 -> buffer(BANK3[16]), STR_1(CODE[8]), 

    memcpy@d	PTR unsigned char  size(1) Largest target is 80
		 -> dbuf(BANK2[80]), 

    memcpy@d1	PTR void  size(1) Largest target is 80
		 -> dbuf(BANK2[80]), 

    memcpy@s	PTR const unsigned char  size(1) Largest target is 80
		 -> dbuf(BANK2[80]), 

    memcpy@s1	PTR const void  size(1) Largest target is 80
		 -> dbuf(BANK2[80]), 

    pad@buf	PTR unsigned char  size(1) Largest target is 80
		 -> dbuf(BANK2[80]), 

    pad@fp	PTR struct _IO_FILE size(2) Largest target is 11
		 -> sprintf@f(BANK3[11]), 

    read_prec_or_width@ap	PTR PTR void [1] size(1) Largest target is 1
		 -> sprintf@ap(BANK3[1]), 

    read_prec_or_width@fmt	PTR PTR const unsigned char  size(1) Largest target is 1
		 -> vfprintf@cfmt(BANK1[1]), 

    S718$buffer	PTR unsigned char  size(2) Largest target is 16
		 -> buffer(BANK3[16]), 

    S718$source	PTR const unsigned char  size(1) Largest target is 0

    sp__memcpy	PTR void  size(1) Largest target is 80
		 -> dbuf(BANK2[80]), 

    sp__strcpy	PTR unsigned char  size(1) Largest target is 80
		 -> dbuf(BANK2[80]), 

    sprintf@ap	PTR void [1] size(1) Largest target is 2
		 -> ?_sprintf(BANK1[2]), 

    sprintf@fmt	PTR const unsigned char  size(1) Largest target is 10
		 -> STR_2(CODE[10]), 

    sprintf@s	PTR unsigned char  size(1) Largest target is 16
		 -> buffer(BANK3[16]), 

    strcpy@d	PTR unsigned char  size(1) Largest target is 80
		 -> dbuf(BANK2[80]), 

    strcpy@dest	PTR unsigned char  size(1) Largest target is 80
		 -> dbuf(BANK2[80]), 

    strcpy@src	PTR const unsigned char  size(1) Largest target is 4
		 -> STR_3(CODE[4]), STR_6(CODE[4]), 

    vfpfcnvrt@ap	PTR PTR void  size(1) Largest target is 1
		 -> sprintf@ap(BANK3[1]), 

    vfpfcnvrt@cp	PTR unsigned char  size(1) Largest target is 10
		 -> STR_2(CODE[10]), 

    vfpfcnvrt@fmt	PTR PTR unsigned char  size(1) Largest target is 1
		 -> vfprintf@cfmt(BANK1[1]), 

    vfpfcnvrt@fp	PTR struct _IO_FILE size(2) Largest target is 11
		 -> sprintf@f(BANK3[11]), 

    vfprintf@ap	PTR PTR void  size(1) Largest target is 1
		 -> sprintf@ap(BANK3[1]), 

    vfprintf@cfmt	PTR unsigned char  size(1) Largest target is 10
		 -> STR_2(CODE[10]), 

    vfprintf@fmt	PTR const unsigned char  size(1) Largest target is 10
		 -> STR_2(CODE[10]), 

    vfprintf@fp	PTR struct _IO_FILE size(2) Largest target is 11
		 -> sprintf@f(BANK3[11]), 


Critical Paths under _main in COMMON

    _main->___xxtofl
    _vfpfcnvrt->_read_prec_or_width
    _read_prec_or_width->___wmul
    _efgtoa->___fladd
    _efgtoa->___fleq
    _efgtoa->___fltol
    _efgtoa->_pad
    _pad->_fputs
    _fputs->_fputc
    ___flsub->___fladd
    ___flmul->___xxtofl
    ___fldiv->___xxtofl
    _lcd_string->_lcd_data
    _lcd_set_cursor->_lcd_command
    _lcd_initialise->_lcd_command

Critical Paths under _isr in COMMON

    None.

Critical Paths under _main in BANK0

    _vfprintf->_vfpfcnvrt
    _efgtoa->_floorf
    _pad->_fputs
    _fputs->_fputc
    _floorf->___fldiv
    ___flsub->___flmul
    ___flmul->___xxtofl
    ___flge->___flmul
    ___fldiv->___flmul

Critical Paths under _isr in BANK0

    None.

Critical Paths under _main in BANK1

    _main->_sprintf
    _sprintf->_vfprintf
    _vfprintf->_vfpfcnvrt
    _vfpfcnvrt->_efgtoa

Critical Paths under _isr in BANK1

    None.

Critical Paths under _main in BANK3

    _main->_sprintf

Critical Paths under _isr in BANK3

    None.

Critical Paths under _main in BANK2

    None.

Critical Paths under _isr in BANK2

    None.

Call Graph Tables:

 ---------------------------------------------------------------------------------
 (Depth) Function   	        Calls       Base Space   Used Autos Params    Refs
 ---------------------------------------------------------------------------------
 (0) _main                                                 6     6      0   19892
                                             12 BANK3      6     6      0
                            ___fldiv
                            ___flmul
                           ___xxtofl
                     _adc_initialise
            _configurar_interrupcoes
                     _lcd_initialise
                     _lcd_set_cursor
                         _lcd_string
                           _read_adc
                            _sprintf
 ---------------------------------------------------------------------------------
 (1) _sprintf                                             21    15      6   15041
                                             70 BANK1      7     1      6
                                              0 BANK3     12    12      0
                           _vfprintf
 ---------------------------------------------------------------------------------
 (2) _vfprintf                                             5     1      4   14717
                                             65 BANK1      5     1      4
                          _vfpfcnvrt
 ---------------------------------------------------------------------------------
 (3) _vfpfcnvrt                                           13     9      4   14490
                                             78 BANK0      2     2      0
                                             55 BANK1     10     6      4
                             _efgtoa
                              _fputc
                 _read_prec_or_width
 ---------------------------------------------------------------------------------
 (4) _read_prec_or_width                                   5     3      2     276
                                              8 COMMON     2     0      2
                                              0 BANK0      3     3      0
                             ___wmul
 ---------------------------------------------------------------------------------
 (5) ___wmul                                               6     2      4      94
                                              2 COMMON     6     2      4
 ---------------------------------------------------------------------------------
 (4) _efgtoa                                              56    49      7   13239
                                              0 BANK1     55    48      7
                            ___fladd
                            ___fldiv
                             ___fleq
                             ___flge
                            ___flmul
                            ___flneg
                            ___flsub
                            ___fltol
                      ___fpclassifyf
                             _floorf
                               _labs
                             _memcpy
                                _pad
                             _strcpy
 ---------------------------------------------------------------------------------
 (6) _strcpy                                               3     1      2      77
                                              2 COMMON     3     1      2
 ---------------------------------------------------------------------------------
 (5) _pad                                                  8     3      5     832
                                              9 COMMON     1     1      0
                                             14 BANK0      7     2      5
                              _fputc
                              _fputs
 ---------------------------------------------------------------------------------
 (6) _fputs                                                8     5      3     378
                                              6 COMMON     3     0      3
                                              9 BANK0      5     5      0
                              _fputc
 ---------------------------------------------------------------------------------
 (4) _fputc                                               13     9      4     232
                                              2 COMMON     4     0      4
                                              0 BANK0      9     9      0
                              _putch
 ---------------------------------------------------------------------------------
 (5) _putch                                                1     1      0       0
 ---------------------------------------------------------------------------------
 (5) _memcpy                                               7     3      4     146
                                              2 COMMON     7     3      4
 ---------------------------------------------------------------------------------
 (5) _labs                                                 4     0      4      69
                                              2 COMMON     4     0      4
 ---------------------------------------------------------------------------------
 (5) _floorf                                              20    16      4     340
                                             58 BANK0     20    16      4
                            ___fldiv (ARG)
 ---------------------------------------------------------------------------------
 (5) ___fpclassifyf                                       16    12      4     201
                                              2 COMMON     4     0      4
                                              0 BANK0     12    12      0
 ---------------------------------------------------------------------------------
 (5) ___fltol                                             10     6      4     346
                                              2 COMMON     8     4      4
                                              0 BANK0      2     2      0
 ---------------------------------------------------------------------------------
 (5) ___flsub                                              8     0      8    2039
                                             32 BANK0      8     0      8
                            ___fladd
                            ___flmul (ARG)
 ---------------------------------------------------------------------------------
 (6) ___fladd                                             20    12      8    1990
                                              2 COMMON     8     0      8
                                              0 BANK0     12    12      0
 ---------------------------------------------------------------------------------
 (5) ___flneg                                              4     0      4      46
                                              2 COMMON     4     0      4
 ---------------------------------------------------------------------------------
 (5) ___flmul                                             26    18      8    2470
                                              6 BANK0     26    18      8
                          __Umul8_16
                           ___xxtofl (ARG)
 ---------------------------------------------------------------------------------
 (6) __Umul8_16                                            9     7      2     232
                                              2 COMMON     4     2      2
                                              0 BANK0      5     5      0
 ---------------------------------------------------------------------------------
 (5) ___flge                                              12     4      8     192
                                             32 BANK0     12     4      8
                            ___flmul (ARG)
 ---------------------------------------------------------------------------------
 (5) ___fleq                                              12     4      8      94
                                              2 COMMON     8     0      8
                                              0 BANK0      4     4      0
 ---------------------------------------------------------------------------------
 (5) ___fldiv                                             26    18      8    1134
                                             32 BANK0     26    18      8
                            ___flmul (ARG)
                           ___xxtofl (ARG)
 ---------------------------------------------------------------------------------
 (1) _read_adc                                             3     1      2       0
                                              2 COMMON     3     1      2
 ---------------------------------------------------------------------------------
 (1) _lcd_string                                           2     0      2     279
                                              5 COMMON     2     0      2
                           _lcd_data
 ---------------------------------------------------------------------------------
 (2) _lcd_data                                             3     3      0     232
                                              2 COMMON     3     3      0
 ---------------------------------------------------------------------------------
 (1) _lcd_set_cursor                                       3     2      1     331
                                              5 COMMON     3     2      1
                        _lcd_command
 ---------------------------------------------------------------------------------
 (1) _lcd_initialise                                       2     2      0     232
                                              5 COMMON     2     2      0
                        _lcd_command
 ---------------------------------------------------------------------------------
 (2) _lcd_command                                          3     3      0     232
                                              2 COMMON     3     3      0
 ---------------------------------------------------------------------------------
 (1) _configurar_interrupcoes                              0     0      0       0
 ---------------------------------------------------------------------------------
 (1) _adc_initialise                                       0     0      0       0
 ---------------------------------------------------------------------------------
 (1) ___xxtofl                                            14    10      4     337
                                              2 COMMON     8     4      4
                                              0 BANK0      6     6      0
 ---------------------------------------------------------------------------------
 Estimated maximum stack depth 6
 ---------------------------------------------------------------------------------
 (Depth) Function   	        Calls       Base Space   Used Autos Params    Refs
 ---------------------------------------------------------------------------------
 (9) _isr                                                  2     2      0       0
                                              0 COMMON     2     2      0
 ---------------------------------------------------------------------------------
 Estimated maximum stack depth 9
 ---------------------------------------------------------------------------------

 Call Graph Graphs:

 _main (ROOT)
   ___fldiv
     ___flmul (ARG)
       __Umul8_16
       ___xxtofl (ARG)
     ___xxtofl (ARG)
   ___flmul
   ___xxtofl
   _adc_initialise
   _configurar_interrupcoes
   _lcd_initialise
     _lcd_command
   _lcd_set_cursor
     _lcd_command
   _lcd_string
     _lcd_data
   _read_adc
   _sprintf
     _vfprintf
       _vfpfcnvrt
         _efgtoa
           ___fladd
           ___fldiv
           ___fleq
           ___flge
             ___flmul (ARG)
           ___flmul
           ___flneg
           ___flsub
             ___fladd
             ___flmul (ARG)
           ___fltol
           ___fpclassifyf
           _floorf
             ___fldiv (ARG)
           _labs
           _memcpy
           _pad
             _fputc
               _putch
             _fputs
               _fputc
           _strcpy
         _fputc
         _read_prec_or_width
           ___wmul

 _isr (ROOT)

Address spaces:
Name               Size   Autos  Total    Usage
BITCOMMON           14      0       0      0.0%
BITBANK0            80      0       0      0.0%
BITBANK1            80      0       0      0.0%
BITBANK3            96      0       0      0.0%
BITBANK2            96      0       0      0.0%
COMMON              14     10      12     85.7%
BANK0               80     80      80    100.0%
BANK1               80     77      80    100.0%
BANK3               96     18      43     44.8%
BANK2               96      0      80     83.3%
STACK                0      0       0      0.0%
DATA                 0      0     297      0.0%


Microchip Technology PIC Macro Assembler V2.50 build 20240725155939 
Symbol Table                                                                                   Tue Feb 11 14:40:27 2025

                   ___fldiv@aexp 0059                     ___fldiv@bexp 0058                                pc 0002  
                   lcd_data@data 0074                     ___fldiv@sign 0051                               l72 1EB6  
                             l81 1338                               l66 07FF                               l90 1FAB  
                             l75 1E8C                               l84 13DA                               l69 1EAC  
                             l78 1065                               l95 1ECA                               fsr 0004  
            ___wmul@multiplicand 0074              __Umul8_16@word_mpld 0022                              l181 1F6D  
                            l350 10C2                              l351 10DE                              l503 06F0  
                            l183 1F85                              l513 0737                              l362 1465  
                            l371 100C                              l507 0714                              l540 17FF  
                            l356 10F3                              l524 0793                              l516 0773  
                            l525 079D                              l622 0824                              l382 1154  
                            l702 0034                              l623 0835                              l367 147E  
                            l359 13F9                              l375 1169                              l624 08B5  
                            l560 17EB                              l528 1F60                              l712 0311  
                            l385 1169                              l562 17F7                              l554 1779  
                            l538 168B                              l482 05AB                              l635 087F  
                            l811 1296                              l636 088B                              l628 0863  
                            l644 1037                              l477 057A                              l590 0FF5  
                            l486 062A                              l822 0003                              l495 079D  
                            l671 106E                              l735 07F6                              l584 0F71  
                            l488 0605                              l744 1594                              l578 0FFF  
                            l762 1F3C                              l819 1FFF                              l675 10A3  
                            l683 0A2D                              l755 1635                              l772 11F6  
                            l828 1EF8                              l597 1FC2                              l686 054D  
                            l599 1FD4                              l783 09BC                              l793 1EDF  
                            l778 0903                              l779 09C4                              l796 1F0B  
                            l799 1F19                              _pad 1066                              _isr 1E95  
                            fsr0 0004                              indf 0000                     ___flmul@aexp 0034  
                   ___flmul@bexp 0039                     ___flmul@sign 0033                     ___flmul@temp 003E  
                   ___flmul@prod 003A                  ?_lcd_set_cursor 0075                     ___fltol@exp1 0021  
                           l2000 11F7                             l2010 1256                             l2002 11FD  
                           l2100 0609                             l2020 0558                             l2004 1203  
                           l2110 0620                             l2102 0610                             l2030 056F  
                           l2022 055C                             l2014 054E                             l2006 120A  
                           l3000 12F0                             l2200 078A                             l2120 063C  
                           l2104 0612                             l2112 0622                             l2040 0584  
                           l2032 0570                             l2024 055D                             l2016 0552  
                           l2008 1224                             l3010 132C                             l3002 12F9  
                           l2210 079C                             l2202 078B                             l2130 0664  
                           l2122 0653                             l2114 062E                             l2106 0616  
                           l2050 0593                             l2042 0585                             l2026 0562  
                           l2034 0572                             l2018 0554                             l3100 081C  
                           l3012 1335                             l3004 1306                             l3020 1386  
                           l2204 078F                             l2140 068B                             l2132 0668  
                           l2124 0657                             l2116 0633                             l2108 0617  
                           l2060 05B1                             l2052 0598                             l2044 0589  
                           l2036 057C                             l2028 0567                             l3110 084A  
                           l3102 082C                             l3006 1319                             l3030 13BB  
                           l3022 138F                             l3014 133A                             l2206 0791  
                           l2142 06C9                             l2150 06E2                             l2134 0669  
                           l2126 065B                             l2070 05BD                             l2062 05B5  
                           l2054 05A0                             l2046 058D                             l2038 057E  
                           l3120 0879                             l3112 084C                             l3008 132B  
                           l3032 13CD                             l3024 1392                             l3016 1384  
                           l2400 16FB                             l2208 0798                             l2160 070F  
                           l2152 06F8                             l2144 06CB                             l2136 0672  
                           l2128 0662                             l2080 05C7                             l2072 05BF  
                           l2064 05B7                             l2056 05A1                             l2048 058E  
                           l3200 111B                             l2240 1F74                             l3130 08AC  
                           l3122 0883                             l3114 085A                             l3106 0838  
                           l3050 105C                             l3034 13CE                             l3026 139B  
                           l3018 1385                             l2410 171C                             l2402 16FF  
                           l2330 1636                             l2250 10BA                             l2170 0723  
                           l2162 0713                             l2154 06FD                             l2146 06CE  
                           l2138 0675                             l2090 05D1                             l2082 05C9  
                           l2074 05C1                             l2066 05B9                             l2058 05A3  
                           l3202 111C                             l2242 1F7B                             l2234 1F61  
                           l3132 08AD                             l3124 088D                             l3116 086A  
                           l3108 0843                             l3052 07F7                             l3060 1EC1  
                           l3036 13D7                             l3028 13A8                             l2420 173C  
                           l2412 172A                             l2404 1700                             l2340 1645  
                           l2332 163A                             l2252 10D6                             l2260 13DB  
                           l3300 0E4E                             l2180 0734                             l2164 0718  
                           l2172 0725                             l2148 06D3                             l2092 05D3  
                           l2084 05CB                             l2076 05C3                             l2068 05BB  
                           l2324 1F3D                             l3204 1124                             l2244 1F81  
                           l2236 1F63                             l3126 08A3                             l3118 0875  
                           l3054 1E86                             l3062 1EC4                             l3070 1F9B  
                           l2422 1745                             l2430 1759                             l2406 1709  
                           l2414 172C                             l2342 164A                             l2350 165A  
                           l2334 163C                             l2254 10F0                             l2270 143D  
                           l2262 13F1                             l3310 0EF5                             l3302 0E6B  
                           l3230 0CC2                             l2190 0753                             l2166 071C  
                           l2158 0706                             l2174 0729                             l2086 05CD  
                           l2078 05C5                             l2094 05D5                             l2326 1F41  
                           l3222 1149                             l3214 1132                             l3206 1126  
                           l2238 1F67                             l3128 08A8                             l3048 1038  
                           l3056 1EB8                             l3064 1F86                             l3072 1EA5  
                           l2432 175D                             l2424 1749                             l2416 1732  
                           l2408 171B                             l2360 166E                             l2352 1662  
                           l2344 164F                             l2336 1640                             l2256 10F2  
                           l2248 10A4                             l2272 1441                             l2264 140D  
                           l3320 0F41                             l3312 0F1D                             l3304 0E96  
                           l3240 0CD2                             l3232 0CC4                             l2280 1002  
                           l2192 0771                             l2184 073C                             l2176 072A  
                           l2168 071E                             l2096 05D6                             l2088 05CF  
                           l3224 1159                             l3208 112A                             l3216 1142  
                           l3058 1EBD                             l3066 1F87                             l3074 1EA9  
                           l2450 17AE                             l2442 177E                             l2434 175E  
                           l2426 174A                             l2418 173A                             l2362 1673  
                           l2370 1683                             l2354 1665                             l2346 1657  
                           l2338 1644                             l2274 147B                             l2266 1415  
                           l3170 1FAF                             l3330 0F56                             l3322 0F42  
                           l3314 0F26                             l3306 0EA4                             l3250 0CEC  
                           l3242 0CD7                             l3234 0CC8                             l2282 100A  
                           l2194 0778                             l2186 0741                             l2178 072E  
                           l2098 05ED                             l3226 115E                             l3402 11F2  
                           l3410 09D0                             l3068 1F95                             l3076 1EB0  
                           l2460 17E2                             l2444 1783                             l2452 17B4  
                           l2436 1762                             l2428 1753                             l2372 1693  
                           l2380 16AA                             l2364 1678                             l2356 1669  
                           l2348 1658                             l2276 147D                             l2268 1419  
                           l3180 1FD0                             l3172 1FB1                             l3340 0F7B  
                           l3332 0F5A                             l3324 0F4B                             l3316 0F34  
                           l3308 0ECF                             l3260 0CFF                             l3252 0CF0  
                           l3244 0CDF                             l3236 0CCC                             l3228 0CBE  
                           l2284 100C                             l2196 077D                             l2188 074F  
                           l2700 1F05                             l3500 0050                             l3420 0A1A  
                           l3412 09F7                             l3094 0803                             l2462 17EA  
                           l2454 17C1                             l2446 1791                             l2438 1776  
                           l2390 16D2                             l2382 16AF                             l2374 169F  
                           l2366 1680                             l2358 166D                             l3174 1FB8  
                           l3350 0FB9                             l3342 0F89                             l3334 0F6E  
                           l3318 0F3D                             l3326 0F51                             l3270 0D1B  
                           l3262 0D07                             l3254 0CF4                             l3246 0CE1  
                           l3238 0CCD                             l2198 0785                             l3190 1FF2  
                           l3510 0068                             l3502 0052                             l3430 0A42  
                           l3422 0A1F                             l3414 09FB                             l3406 09C5  
                           l3096 0808                             l2464 17EF                             l2456 17CF  
                           l2448 1795                             l2392 16DA                             l2376 16A1  
                           l2368 1681                             l3176 1FBC                             l3360 0FEB  
                           l3352 0FC4                             l3344 0F8D                             l3328 0F55  
                           l3280 0D5A                             l3264 0D09                             l3256 0CF5  
                           l3248 0CE9                             l3192 10F4                             l3184 1FD5  
                           l3600 04E0                             l3520 0191                             l3512 0071  
                           l3504 0058                             l3432 0A49                             l3424 0A24  
                           l3416 0A12                             l3408 09C8                             l3098 080C  
                           l2466 17F3                             l2458 17DE                             l2394 16E2  
                           l2386 16B8                             l3178 1FCB                             l3362 0FEF  
                           l3354 0FD3                             l3346 0FA6                             l3338 0F76  
                           l3290 0DE1                             l3282 0D76                             l3274 0D24  
                           l3266 0D11                             l3258 0CFA                             l3194 10FF  
                           l3186 1FDA                             l3370 1066                             l3610 0514  
                           l3602 04E6                             l3530 0226                             l3514 00CD  
                           l3522 0197                             l3506 005E                             l3434 0A59  
                           l3442 0A8B                             l3426 0A29                             l3418 0A16  
                           l2468 17F5                             l2396 16E4                             l2388 16CA  
                           l3364 0FF0                             l3356 0FDD                             l3348 0FAC  
                           l3292 0DEF                             l3284 0DA0                             l3276 0D32  
                           l3268 0D16                             l2660 1ED0                             l3188 1FEA  
                           l3380 1096                             l3372 106C                             l2652 1EE0  
                           l3612 0519                             l3604 04EB                             l3540 02BE  
                           l3532 0241                             l3524 01A5                             l3516 00E0  
                           l3508 0060                             l3460 0ACE                             l3444 0AA0  
                           l3436 0A63                             l3428 0A2F                             l3620 1545  
                           l3700 147F                             l2398 16E9                             l3366 0FF7  
                           l3358 0FDF                             l3294 0E0C                             l3286 0DBC  
                           l3278 0D3F                             l3198 1108                             l3390 11C0  
                           l3382 116A                             l2670 0902                             l3374 1071  
                           l2654 1EE2                             l3614 0525                             l3606 04FD  
                           l3550 0320                             l3542 02C6                             l3534 0247  
                           l3526 01E4                             l3518 0152                             l3470 0B73  
                           l3446 0AA7                             l3438 0A6B                             l3630 1570  
                           l3622 1556                             l3710 1490                             l3702 1483  
                           l3296 0E1A                             l3288 0DD8                             l3392 11C5  
                           l3384 118A                             l2680 0951                             l2672 0909  
                           l2664 08B6                             l2656 1ECB                             l3376 1080  
                           l3616 052B                             l3608 0507                             l3560 03B7  
                           l3552 0322                             l3544 0305                             l3536 024F  
                           l3528 021B                             l3480 0C3A                             l3472 0BAC  
                           l3464 0AE8                             l3448 0AB7                             l3456 0AC2  
                           l2920 07B1                             l3640 1597                             l3632 1574  
                           l3624 155A                             l3720 14AD                             l3712 1495  
                           l3704 1485                             l3298 0E37                             l3386 11A1  
                           l2690 09B4                             l2682 0968                             l2674 0923  
                           l2666 08D6                             l2658 1ECF                             l3378 1088  
                           l3570 03D2                             l3562 03BC                             l3554 0325  
                           l3546 030B                             l3538 0270                             l3490 002B  
                           l3474 0BEA                             l3466 0AF8                             l3458 0ACC  
                           l2930 07F2                             l2922 07B5                             l3650 15C7  
                           l3634 1583                             l3626 155E                             l3722 14B8  
                           l3714 149C                             l3706 1486                             l3388 11A7  
                           l3396 11CA                             l2684 0979                             l2668 08F5  
                           l3572 03D5                             l3564 03C0                             l3580 03ED  
                           l3556 039B                             l3548 031F                             l3492 0030  
                           l3476 0BF5                             l3484 0C77                             l3468 0B37  
                           l2924 07C5                             l2916 079E                             l3644 1599  
                           l3636 1588                             l3628 1562                             l3724 150E  
                           l3716 14A5                             l3708 148B                             l3398 11D0  
                           l2686 0992                             l2678 0938                             l2694 1EF9  
                           l3590 0478                             l3582 03F3                             l3574 03DB  
                           l3566 03C6                             l3558 03B1                             l3494 003E  
                           l3478 0C34                             l3486 0CB0                             l2926 07DC  
                           l2918 07A2                             l3654 15DD                             l3646 15A4  
                           l3638 1591                             l3670 1618                             l3726 1515  
                           l3718 14AC                             ?_pad 002E                             l2688 099B  
                           l2696 1EFE                             l3592 04B7                             l3584 03FA  
                           l3576 03E1                             l3568 03CC                             l3496 0044  
                           l3488 0CB6                             l2928 07E1                             l3664 1605  
                           l3656 15E5                             l3648 15B1                             l3680 1F2C  
                           l3728 1538                             l2698 1F03                             l3594 04BD  
                           l3586 0400                             l3578 03E7                             l3498 0048  
                           l3658 15EB                             l3666 1610                             l3682 1F3A  
                           l3690 1019                             l3588 0406                             l3596 04C3  
                           l3676 1F1A                             l3692 101B                             l2990 1298  
                           l3598 04D1                             l3678 1F1F                             l3694 101D  
                           l3686 100D                             l2992 12E2                             l3696 102C  
                           l3688 1011                             l2994 12E3                             l2996 12E4  
                           l2998 12ED                             ?_isr 0070                             STR_1 181A  
                           STR_2 1810                             STR_3 1822        ??_configurar_interrupcoes 0072  
                           STR_6 1826                             u3100 1441                             u3020 1F81  
                           u3101 1440                             u3021 1F80                             u3005 1F6E  
                           u3030 10BA                             u3031 10B9                             u3111 1450  
                           u3015 1F75                             u3040 10D6                             u3120 147B  
                           u3112 1451                             u4000 1EF8                             u3041 10D5  
                           u3121 147A                             u3113 1456                             u4001 1EF7  
                           u3050 10F0                             u3114 1457                             u3130 100A  
                           u4010 1ECF                             u3051 10EF                             u3115 145C  
                           u3131 1009                             u4011 1ECE                             u3300 1693  
                           u3116 145D                             u3060 13F1                             u2500 0562  
                           u4100 0987                             u4020 08E4                             u3301 1692  
                           u3125 1477                             u3061 13F0                             u2501 0561  
                           u3310 16AF                             u3070 140D                             u2510 0567  
                           u4110 0992                             u4030 0902                             u3311 16AE  
                           u3055 10EC                             u3071 140C                             u2511 0566  
                           u4111 0991                             u4031 0901                             u3320 16E9  
                           u3240 1644                             u3080 1419                             u2600 05F7  
                           u2520 0584                             u5000 115E                             u4120 09A9  
                           u4040 0909                             u2440 11FD                             u3321 16E8  
                           u3241 1643                             u3081 1418                             u2521 0583  
                           u5001 115D                             u4105 0982                             u4041 0908  
                           u4025 08DF                             u2441 11FC                             u3410 1749  
                           u3250 164A                             u5010 0CCC                             u2610 0609  
                           u2530 058D                             u4130 09B4                             u4050 0919  
                           u2450 1203                             u3411 1748                             u3251 1649  
                           u3091 1428                             u5011 0CCB                             u2611 0608  
                           u2531 058C                             u4131 09B3                             u4035 08FE  
                           u2451 1202                             u3500 17C1                             u3260 164F  
                           u3092 1429                             u5020 0CD2                             u2700 0668  
                           u2620 0616                             u2540 0593                             u4060 0937  
                           u4140 1F19                             u2460 1224                             u3501 17C0  
                           u3405 173E                             u3261 164E                             u3093 142E  
                           u5101 0D84                             u5021 0CD1                             u2701 0667  
                           u2621 0615                             u2541 0592                             u4125 09A4  
                           u4061 0936                             u4141 1F18                             u2461 1223  
                           u3510 17DE                             u3430 175D                             u3350 16FF  
                           u3270 166D                             u3094 142F                             u5102 0D8B  
                           u5030 0CD7                             u2550 0598                             u4070 0946  
                           u2470 1256                             u3511 17DD                             u3431 175C  
                           u3351 16FE                             u3335 16EB                             u3271 166C  
                           u3095 1434                             u5111 0DAE                             u5103 0D92  
                           u5031 0CD6                             u2551 0597                             u4055 0914  
                           u2471 1255                             u3520 17F3                             u3440 1762  
                           u3280 1673                             u3096 1435                             u5200 0EDB  
                           u5112 0DB5                             u5040 0CF4                             u2800 0718  
                           u2720 068B                             u2640 062A                             u2560 05B1  
                           u4080 0951                             u2480 1279                             u3521 17F2  
                           u3505 17BD                             u3441 1761                             u3425 174C  
                           u3345 16F4                             u3281 1672                             u5121 0DCA  
                           u5113 0DBC                             u5041 0CF3                             u2801 0717  
                           u2721 068A                             u2641 0629                             u2561 05B0  
                           u4081 0950                             u3450 1776                             u3370 171B  
                           u3290 1678                             u5122 0DD1                             u5050 0CFA  
                           u2810 0723                             u2650 062E                             u2570 05B5  
                           u2490 055C                             u3515 17DA                             u3451 1775  
                           u3371 171A                             u3291 1677                             u5211 0EE7  
                           u5123 0DD8                             u5051 0CF9                             u2811 0722  
                           u2731 06A2                             u2723 0687                             u2715 066B  
                           u2651 062D                             u2635 0619                             u2571 05B4  
                           u2491 055B                             u4091 095A                             u4075 0941  
                           u2475 1252                             u3460 177D                             u3380 1732  
                           u5300 0F6E                             u5220 0F03                             u5212 0EEE  
                           u5060 0CFF                             u2900 0778                             u2820 0729  
                           u2740 06B6                             u2732 06A3                             u2660 0633  
                           u2580 05ED                             u4092 0961                             u4500 07B1  
                           u3461 177C                             u3381 1731                             u3365 1702  
                           u5301 0F6D                             u5213 0EF5                             u5205 0ED6  
                           u5141 0DFE                             u5061 0CFE                             u2901 0777  
                           u2821 0728                             u2741 06B7                             u2733 06A8  
                           u2661 0632                             u2581 05EC                             u4093 0968  
                           u4501 07B0                             u3470 1783                             u3390 173A  
                           u5310 0F75                             u5142 0E05                             u5070 0D16  
                           u2910 077D                             u2830 072E                             u2750 06D3  
                           u2742 06BC                             u2734 06A9                             u2590 05F6  
                           u4510 07F2                             u3471 1782                             u3391 1739  
                           u3375 1717                             u5311 0F74                             u5231 0F0F  
                           u5151 0E29                             u5143 0E0C                             u5135 0DDA  
                           u5071 0D15                             u2911 077C                             u2831 072D  
                           u2751 06D2                             u2743 06BD                             u2735 06AE  
                           u2671 0645                             u2591 05F4                             u4511 07F1  
                           u3480 1795                             u5320 0F7B                             u5232 0F16  
                           u5152 0E30                             u5080 0D1B                             u2920 078A  
                           u2840 0734                             u2760 06F8                             u2736 06AF  
                           u2680 0657                             u2672 064C                             u5400 1198  
                           u3481 1794                             u5321 0F7A                             u5233 0F1D  
                           u5225 0EFE                             u5153 0E37                             u5081 0D1A  
                           u2921 0789                             u2841 0733                             u2761 06F7  
                           u2681 0656                             u2673 0653                             u2585 05E9  
                           u3490 17A4                             u5330 0F8D                             u2930 078F  
                           u2850 073B                             u2770 06FD                             u2690 065B  
                           u5410 11A7                             u5331 0F8C                             u5171 0E5D  
                           u5091 0D68                             u2931 078E                             u2851 073A  
                           u2771 06FC                             u2691 065A                             u5411 11A6  
                           u4700 1EB0                             u5340 0F9C                             u5260 0F41  
                           u5172 0E64                             u5092 0D6F                             u2940 079C  
                           u2860 0741                             u5420 11B5                             u5500 0A24  
                           u4605 131C                             u4701 1EAF                             u5261 0F40  
                           u5245 0F1F                             u5181 0E88                             u5173 0E6B  
                           u5165 0E39                             u5093 0D76                             u2941 079B  
                           u2861 0740                             u5405 1193                             u5501 0A23  
                           u4710 0808                             u5350 0FB9                             u5182 0E8F  
                           u2870 0753                             u2790 0713                             u5430 11C0  
                           u5510 0A42                             u4711 0807                             u4615 133D  
                           u3495 179F                             u5351 0FB8                             u5255 0F36  
                           u5191 0EB3                             u5183 0E96                             u2871 0752  
                           u2791 0712                             u5431 11BF                             u5511 0A41  
                           u4800 087F                             u4720 080C                             u5360 0FD3  
                           u5280 0F55                             u5192 0EBA                             u2880 0762  
                           u5440 11D0                             u5600 0BEA                             u5520 0A49  
                           u4801 087E                             u4721 080B                             u4625 1350  
                           u5361 0FD2                             u5345 0F97                             u5281 0F54  
                           u5193 0EC1                             u2785 0708                             u5441 11CF  
                           u5425 11B0                             u5601 0BE9                             u5521 0A48  
                           u4810 0883                             u4730 082C                             u5370 0FEF  
                           u5290 0F5A                             u2890 0771                             u5450 11DE  
                           u5530 0AA0                             u4811 0882                             u4731 082B  
                           u4555 129B                             u4635 1362                             u5371 0FEE  
                           u5355 0FB5                             u5291 0F59                             u5275 0F44  
                           u2891 0770                             u5611 0C49                             u5603 0BE6  
                           u5531 0A9F                             u4820 0898                             u5460 11EA  
                           u4900 1FFF                             u5380 106C                             u5700 0241  
                           u5620 0C76                             u5612 0C4A                             u5540 0AA7  
                           u4565 12AE                             u4645 1375                             u5365 0FCF  
                           u2885 075D                             u5461 11E8                             u4901 1FFE  
                           u5381 106B                             u5701 0240                             u5621 0C75  
                           u5613 0C4F                             u5541 0AA6                             i1l54 1E9E  
                           u4830 08A8                             u4750 0849                             u4910 10FF  
                           u5470 11EB                             u5390 1096                             u5710 0247  
                           u5630 0CB0                             u5614 0C50                             u5550 0AE7  
                           u2990 1F67                             u4831 08A7                             u4751 0848  
                           u4575 12C0                             u4655 13AB                             u4911 10FE  
                           u5455 11D9                             u5391 1095                             u5711 0246  
                           u5631 0CAF                             u5623 0C72                             u5615 0C55  
                           u5551 0AE6                             u2991 1F66                             u4840 08AC  
                           u4680 1EBD                             u4920 1116                             u5800 050D  
                           u5720 02BE                             u5640 002B                             u5616 0C56  
                           u5480 09F7                             u4841 08AB                             u4825 0893  
                           u4745 083B                             u4585 12D3                             u4681 1EBC  
                           u4665 13BE                             u5801 050B                             u5721 02BD  
                           u5641 0CBB                             u5561 0B46                             u5481 09F6  
                           u4770 0869                             u4690 1FAB                             u4930 112A  
                           u5810 050E                             u5730 030B                             u5650 0044  
                           u5570 0B73                             u5562 0B47                             u5490 0A1F  
                           u4771 0868                             u4595 1309                             u4691 1FAA  
                           u4931 1129                             u5395 1092                             u5731 030A  
                           u5651 0043                             u5571 0B72                             u5563 0B4C  
                           u5491 0A1E                             u4940 1131                             u5820 0519  
                           u5740 039B                             u5660 0048                             u5580 0BAC  
                           u5564 0B4D                             u4765 085B                             u4941 1130  
                           u4925 1111                             u5821 0518                             u5741 039A  
                           u5661 0047                             u5581 0BAB                             u5573 0B6F  
                           u5565 0B52                             u4790 0879                             u4870 1FBC  
                           u5750 03BC                             u5670 0058                             u5566 0B53  
                           u5830 1556                             u4791 0878                             u4871 1FBB  
                           u5751 03BB                             u5671 0057                             u5591 0BBD  
                           u5831 1555                             u4960 1141                             u5760 03C0  
                           u5680 01A5                             u5592 0BBE                             u5840 1570  
                           u4785 086E                             u4961 1140                             u5761 03BF  
                           u5745 0397                             u5681 01A4                             u5593 0BC3  
                           u5841 156F                             u4890 1FD0                             u4970 1148  
                           u5770 03F3                             u5690 021B                             u5594 0BC4  
                           u5850 15B0                             u5907 13D2                             u4891 1FCF  
                           u4971 1147                             u4955 1133                             u5771 03F2  
                           u5691 021A                             u5595 0BC9                             u5851 15AF  
                           u5780 04D1                             u5596 0BCA                             u5860 1F3A  
                           u5917 1060                             u4885 1FC3                             u5781 04D0  
                           u5685 01A1                             u5861 1F39                             u4990 1159  
                           u5790 04E0                             u5870 14AC                             u5927 12E8  
                           u4991 1158                             u5791 04DF                             u5871 14AB  
                           u5937 1330                             u4985 114B                             u5785 04CD  
                           u5795 04DC                             u5887 1EA7                             u5897 138A  
                           _dbuf 0110                             _labs 1ECB                             _main 147F  
                           _prec 00ED                             pad@i 0033                             pad@p 0031  
                           btemp 007E                    ___fpclassifyf 116A                             start 000C  
                ___fldiv@new_exp 0052                      main@voltage 01B5                    _atualizar_LCD 0198  
                          ??_pad 0079                            ??_isr 0070                    ___fltol@sign1 0020  
                          ?_labs 0072                  __end_of___fladd 079E                            ?_main 0070  
                __end_of___fldiv 1800                  __end_of___flneg 100D                  __end_of___flmul 1000  
                __end_of___flsub 1F61                  __end_of___fltol 116A                     vfpfcnvrt@fmt 00D9  
                          _TRISA 0085                            _TRISD 0088                            _TRISE 0089  
                          _flags 00EF              read_prec_or_width@c 0020              read_prec_or_width@n 0021  
                          _fputc 11F7                            _fputs 1FD5                            labs@a 0072  
                          pad@fp 002E                            _width 007A                            _putch 0003  
                          pclath 000A                            status 0003                            wtemp0 007E  
                __end_of_sprintf 1038                   ?___fpclassifyf 0072                    main@adc_value 01B9  
                __initialization 000F                     __end_of_labs 1EE0                     __end_of_main 1545  
__end_of_configurar_interrupcoes 1E8D                           ??_labs 0076                           ??_main 007A  
                 lcd_command@cmd 0074       __end_of_read_prec_or_width 07F7                           _ADCON0 001F  
                         _ADCON1 009F                           ?_fputc 0072                           ?_fputs 0076  
                         _ADRESH 001E                           _ADRESL 009E                           ?_putch 0070  
                         i1l3136 1E95                           i1l3138 1E99                           u485_20 1E99  
                         u485_21 1E98                 __end_of___xxtofl 08B6                 __end_of_lcd_data 13DB  
                   vfprintf@cfmt 00E5                           ___flge 13DB                           ___fleq 10A4  
                      ??___fladd 0020                           ___wmul 1F61                        ??___fldiv 0048  
                      ??___flneg 0076                        ??___flmul 002E                        ??___flsub 007A  
                      ??___fltol 0076                           _efgtoa 09C5                           _buffer 0199  
                         _floorf 08B6                           _memcpy 1EF9             read_prec_or_width@ap 0079  
               __end_of_read_adc 1EB7                           pad@buf 0030                           _strcpy 1EE0  
                         fputc@c 0072                           fputs@c 002B                           fputs@i 002C  
                         fputs@s 0076                  ___fpclassifyf@e 0026                  ___fpclassifyf@u 0028  
                ___fpclassifyf@x 0072                           saved_w 007E                           putch@c 0070  
               __end_of_vfprintf 1F3D                 ??_lcd_initialise 0075                        ??_sprintf 00EC  
                     ___flge@ff1 0040                       ___flge@ff2 0044                  ??___fpclassifyf 0020  
                   ___xxtofl@arg 0022                    lcd_string@str 0075                     ___xxtofl@exp 0021  
                   ___xxtofl@val 0072                       ___fleq@ff1 0072                       ___fleq@ff2 0076  
        __end_of__initialization 0027                       ___flneg@f1 0072                       ___fltol@f1 0072  
                 __pcstackCOMMON 0070                    __end_of_fputc 1297                    __end_of_fputs 2000  
                  __end_of_putch 0004                 ??_lcd_set_cursor 0076                   _OPTION_REGbits 0081  
                        ??_fputc 0020                          ??_fputs 0029                          ??_putch 0072  
                     __pbssBANK1 00ED                       __pbssBANK2 0110                       __pbssBANK3 0190  
              __end_of__Umul8_16 1FD5                       _efgtoa$843 00B1                       __pmaintext 147F  
                        ?___flge 0040                          ?___fleq 0072                          ?___wmul 0072  
                     __pintentry 0004                          ?_efgtoa 00A0                          ?_floorf 005A  
                        ?_memcpy 0072                          ?_strcpy 0072                        ?___xxtofl 0072  
                      ?_lcd_data 0070                       _lcd_string 1F86                       __stringtab 1800  
                      ?_read_adc 0072                   _adc_initialise 07F7                          ___fladd 054E  
                        ___fldiv 1636                          ___flneg 1002                          ___flmul 0CBE  
                        ___flsub 1F3D                          ___fltol 10F4                        ?_vfprintf 00E1  
                        __ptext1 100D                          __ptext2 1F1A                          __ptext3 1545  
                        __ptext4 079E                          __ptext5 1F61                          __ptext6 09C5  
                        __ptext7 1EE0                          __ptext8 1066                          __ptext9 1FD5  
          read_prec_or_width@fmt 0078                       ??___xxtofl 0076         ?_configurar_interrupcoes 0070  
                        efgtoa@c 00A6                          efgtoa@d 00B6                          efgtoa@e 00BA  
                        efgtoa@f 00A2                          efgtoa@g 00CD                          efgtoa@h 00C4  
                        efgtoa@i 00C2                          efgtoa@l 00C8                          efgtoa@m 00B8  
                        efgtoa@n 00D1                          efgtoa@p 00AD                          efgtoa@t 00AF  
                        efgtoa@u 00D3                          efgtoa@w 00BC                       ??_lcd_data 0072  
                        _sprintf 100D                          clrloop0 1E8E             end_of_initialization 0027  
                        floorf@e 0068                          floorf@m 0064                          floorf@u 006A  
                        floorf@x 005A                          memcpy@d 0077                          memcpy@n 0074  
                        memcpy@s 0078                          fputc@fp 0074                       ??_read_adc 0074  
                        fputs@fp 0077               _read_prec_or_width 079E           __end_of_adc_initialise 0800  
              __end_of_vfpfcnvrt 1636                       efgtoa@mode 00B4                       efgtoa@sign 00CC  
            ?_read_prec_or_width 0078                          psplit$0 130032                 vfpfcnvrt@convarg 00DB  
                     ??_vfprintf 007A                          strcpy@d 0074                        _PORTDbits 0008  
                      _PORTEbits 0009                      ___fladd@grs 002B                    ___xxtofl@sign 0020  
                      _TRISBbits 0086             ??_read_prec_or_width 007A                      ___fldiv@grs 0054  
                    ___fldiv@rem 004D                      ?_lcd_string 0075                      ___flmul@grs 0035  
                  ??_lcd_command 0072                  ?_adc_initialise 0070                   __end_of___flge 147F  
                 __end_of___fleq 10F4                      vfpfcnvrt@ap 00DA                      vfpfcnvrt@cp 00E0  
                    vfpfcnvrt@fp 00D7                   __end_of___wmul 1F86                   __end_of_efgtoa 054E  
                 __end_of_floorf 09C5                   __end_of_memcpy 1F1A                       floorf@F521 0190  
                 __end_of_strcpy 1EF9              start_initialization 000F                      __end_of_pad 10A4  
                    __end_of_isr 1EA5                pnum$text6_split_1 0032            __end_of___fpclassifyf 11F7  
                    vfprintf@fmt 00E3                         ??___flge 0048                         ??___fleq 0020  
                       ??___wmul 0076              __end_of_lcd_command 1339                         ??_efgtoa 00A7  
                      __Umul8_16 1FAC                         ??_floorf 005E                         ??_memcpy 0076  
                       ??_strcpy 0074                        ___fladd@a 0076                        ___fladd@b 0072  
                      ___fldiv@a 0040                        ___fldiv@b 0044                        ___flmul@a 002A  
                      ___flmul@b 0026                      __pbssCOMMON 007A                        ___flsub@a 0040  
                      ___flsub@b 0044                        ___latbits 0002                    __pcstackBANK0 0020  
                  __pcstackBANK1 00A0                    __pcstackBANK3 01A9                         ?___fladd 0072  
                       ?___fldiv 0040                         ?___flneg 0072                         ?___flmul 0026  
                       ?___flsub 0040                         ?___fltol 0072                       ?__Umul8_16 0072  
                      __pstrings 1800                         ?_sprintf 00E6                interrupt_function 0004  
                 ___wmul@product 0076                        clear_ram0 1E8D                      _lcd_command 1297  
                      _vfpfcnvrt 1545                       _ADCON0bits 001F                      __stringbase 180F  
              ___wmul@multiplier 0072                     ??_lcd_string 0077                       vfpfcnvrt@c 00DF  
               ??_adc_initialise 0072                        memcpy@tmp 0076                       vfprintf@ap 00E4  
                     vfprintf@fp 00E1                      ??__Umul8_16 0074                       ?_vfpfcnvrt 00D7  
             __end_of_lcd_string 1FAC               __end_of__stringtab 1810               ___fpclassifyf@F465 0194  
                     sprintf@fmt 00E7                         ___xxtofl 0800                         __ptext10 11F7  
                       __ptext11 0003                         __ptext20 0CBE                         __ptext12 1EF9  
                       __ptext21 1FAC                         __ptext13 1ECB                         __ptext30 1297  
                       __ptext22 13DB                         __ptext14 08B6                         __ptext31 1E86  
                       __ptext23 10A4                         __ptext15 116A                         __ptext32 07F7  
                       __ptext24 1636                         __ptext16 10F4                         __ptext33 0800  
                       __ptext25 1EA5                         __ptext17 1F3D                         __ptext34 1E95  
                       __ptext26 1F86                         __ptext18 054E                         __ptext27 1339  
                       __ptext19 1002                         __ptext28 1EB7                         __ptext29 1038  
                       _lcd_data 1339                       strcpy@dest 0072                         _read_adc 1EA5  
                      pnum$text6 0013                   _lcd_initialise 1038                         efgtoa@fp 00A0  
                       efgtoa@ne 00AB                         efgtoa@pp 00B3                         efgtoa@ou 00BE  
                       _vfprintf 1F1A                       _INTCONbits 000B                         memcpy@d1 0072  
                       memcpy@s1 0073                         intlevel1 0000                   _lcd_set_cursor 1EB7  
              lcd_set_cursor@col 0075                        sprintf@ap 01A9                lcd_set_cursor@pos 0077  
              lcd_set_cursor@row 0076           __end_of_lcd_initialise 1066          _configurar_interrupcoes 1E86  
                      strcpy@src 0073                        stringcode 180A                      efgtoa@nmode 00B5  
                    ??_vfpfcnvrt 006E           __Umul8_16@multiplicand 0072                         sprintf@f 01AA  
                       sprintf@s 00E6                         stringdir 180A                         stringtab 1800  
         __end_of_lcd_set_cursor 1ECB                    ___fladd@signs 0028                     ___fladd@aexp 0029  
                   ___fladd@bexp 002A                  ?_lcd_initialise 0070             __Umul8_16@multiplier 0024  
                   ?_lcd_command 0070                __Umul8_16@product 0020  
