

Microchip MPLAB XC8 Assembler V2.50 build 20240725155939 
                                                                                               Mon Dec 16 15:27:31 2024

Microchip MPLAB XC8 C Compiler v2.50 (Free license) build 20240725155939 Og1 
     1                           	processor	16F877
     2                           	pagewidth 120
     3                           	opt	flic
     4                           	psect	strings,global,class=STRING,space=0,delta=2,noexec
     5                           	psect	cinit,global,class=CODE,space=0,merge=1,delta=2
     6                           	psect	bssBANK1,global,class=BANK1,space=1,delta=1,noexec
     7                           	psect	bssBANK3,global,class=BANK3,space=1,delta=1,noexec
     8                           	psect	bssBANK2,global,class=BANK2,space=1,delta=1,noexec
     9                           	psect	clrtext,global,class=CODE,space=0,delta=2
    10                           	psect	cstackBANK3,global,class=BANK3,space=1,delta=1,noexec
    11                           	psect	cstackBANK1,global,class=BANK1,space=1,delta=1,noexec
    12                           	psect	cstackCOMMON,global,class=COMMON,space=1,delta=1,noexec
    13                           	psect	cstackBANK0,global,class=BANK0,space=1,delta=1,noexec
    14                           	psect	maintext,global,class=CODE,space=0,split=1,delta=2
    15                           	psect	text1,local,class=CODE,space=0,merge=1,delta=2,group=3
    16                           	psect	text2,local,class=CODE,space=0,merge=1,delta=2,group=1
    17                           	psect	text3,local,class=CODE,space=0,merge=1,delta=2,group=1
    18                           	psect	text4,local,class=CODE,space=0,merge=1,delta=2,group=1
    19                           	psect	text5,local,class=CODE,space=0,merge=1,delta=2,group=2
    20                           	psect	text6,local,class=CODE,space=0,merge=1,delta=2,group=2
    21                           	psect	text7,local,class=CODE,space=0,merge=1,delta=2,group=1
    22                           	psect	text8,local,class=CODE,space=0,merge=1,delta=2,group=2
    23                           	psect	text9,local,class=CODE,space=0,merge=1,delta=2,group=1
    24                           	psect	text10,local,class=CODE,space=0,merge=1,delta=2,group=3
    25                           	psect	text11,local,class=CODE,space=0,merge=1,delta=2,group=1
    26                           	psect	text12,local,class=CODE,space=0,merge=1,delta=2,group=3
    27                           	psect	text13,local,class=CODE,space=0,merge=1,delta=2,group=3
    28                           	psect	text14,local,class=CODE,space=0,merge=1,delta=2,group=3
    29                           	psect	text15,local,class=CODE,space=0,merge=1,delta=2,group=3
    30                           	psect	text16,local,class=CODE,space=0,merge=1,delta=2,group=3
    31                           	psect	text17,local,class=CODE,space=0,merge=1,delta=2,group=3
    32                           	psect	text18,local,class=CODE,space=0,merge=1,delta=2,group=3
    33                           	psect	text19,local,class=CODE,space=0,merge=1,delta=2,group=2
    34                           	psect	text20,local,class=CODE,space=0,merge=1,delta=2,group=2
    35                           	psect	text21,local,class=CODE,space=0,merge=1,delta=2,group=2
    36                           	psect	text22,local,class=CODE,space=0,merge=1,delta=2,group=2
    37                           	psect	text23,local,class=CODE,space=0,merge=1,delta=2,group=2
    38                           	psect	text24,local,class=CODE,space=0,merge=1,delta=2,group=2
    39                           	psect	text25,local,class=CODE,space=0,merge=1,delta=2,group=2
    40                           	psect	text26,local,class=CODE,space=0,merge=1,delta=2,group=2
    41                           	psect	text27,local,class=CODE,space=0,merge=1,delta=2,group=2
    42                           	psect	text28,local,class=CODE,space=0,merge=1,delta=2
    43                           	psect	text29,local,class=CODE,space=0,merge=1,delta=2
    44                           	psect	text30,local,class=CODE,space=0,merge=1,delta=2
    45                           	psect	text31,local,class=CODE,space=0,merge=1,delta=2
    46                           	psect	text32,local,class=CODE,space=0,merge=1,delta=2
    47                           	psect	text33,local,class=CODE,space=0,merge=1,delta=2
    48                           	psect	text34,local,class=CODE,space=0,merge=1,delta=2,group=2
    49                           	psect	config,global,abs,ovrld,class=CONFIG,space=4,delta=2,noexec
    50                           	psect	text9_split_1,local,class=CODE,space=0,merge=1,delta=2
    51                           	dabs	1,0x7E,2
    52     0000                     
    53                           ; Generated 12/10/2023 GMT
    54                           ; 
    55                           ; Copyright © 2023, Microchip Technology Inc. and its subsidiaries ("Microchip")
    56                           ; All rights reserved.
    57                           ; 
    58                           ; This software is developed by Microchip Technology Inc. and its subsidiaries ("Microch
      +                          ip").
    59                           ; 
    60                           ; Redistribution and use in source and binary forms, with or without modification, are
    61                           ; permitted provided that the following conditions are met:
    62                           ; 
    63                           ;     1. Redistributions of source code must retain the above copyright notice, this lis
      +                          t of
    64                           ;        conditions and the following disclaimer.
    65                           ; 
    66                           ;     2. Redistributions in binary form must reproduce the above copyright notice, this 
      +                          list
    67                           ;        of conditions and the following disclaimer in the documentation and/or other
    68                           ;        materials provided with the distribution. Publication is not required when
    69                           ;        this file is used in an embedded application.
    70                           ; 
    71                           ;     3. Microchip's name may not be used to endorse or promote products derived from th
      +                          is
    72                           ;        software without specific prior written permission.
    73                           ; 
    74                           ; THIS SOFTWARE IS PROVIDED BY MICROCHIP "AS IS" AND ANY EXPRESS OR IMPLIED WARRANTIES,
    75                           ; INCLUDING, BUT NOT LIMITED TO, THE IMPLIED WARRANTIES OF MERCHANTABILITY AND FITNESS F
      +                          OR
    76                           ; PURPOSE ARE DISCLAIMED.  IN NO EVENT SHALL MICROCHIP BE LIABLE FOR ANY DIRECT, INDIREC
      +                          T,
    77                           ; INCIDENTAL, SPECIAL, EXEMPLARY, OR CONSEQUENTIAL DAMAGES (INCLUDING BUT NOT LIMITED TO
    78                           ; PROCUREMENT OF SUBSTITUTE GOODS OR SERVICES; LOSS OF USE, DATA OR PROFITS; OR BUSINESS
    79                           ; INTERRUPTION) HOWSOEVER CAUSED AND ON ANY THEORY OF LIABILITY, WHETHER IN CONTRACT, ST
      +                          RICT
    80                           ; LIABILITY, OR TORT (INCLUDING NEGLIGENCE OR OTHERWISE) ARISING IN ANY WAY OUT OF THE U
      +                          SE OF
    81                           ; THIS SOFTWARE, EVEN IF ADVISED OF THE POSSIBILITY OF SUCH DAMAGE.
    82                           ; 
    83                           ; 
    84                           ; Code-generator required, PIC16F877 Definitions
    85                           ; 
    86                           ; SFR Addresses
    87     0004                     fsr             equ	4
    88     0004                     fsr0            equ	4
    89     0000                     indf            equ	0
    90     0000                     indf0           equ	0
    91     0002                     pc              equ	2
    92     0002                     pcl             equ	2
    93     000A                     pclath          equ	10
    94     0003                     status          equ	3
    95     0000                     INDF            equ	0	;# 
    96     0001                     TMR0            equ	1	;# 
    97     0002                     PCL             equ	2	;# 
    98     0003                     STATUS          equ	3	;# 
    99     0004                     FSR             equ	4	;# 
   100     0005                     PORTA           equ	5	;# 
   101     0006                     PORTB           equ	6	;# 
   102     0007                     PORTC           equ	7	;# 
   103     0008                     PORTD           equ	8	;# 
   104     0009                     PORTE           equ	9	;# 
   105     000A                     PCLATH          equ	10	;# 
   106     000B                     INTCON          equ	11	;# 
   107     000C                     PIR1            equ	12	;# 
   108     000D                     PIR2            equ	13	;# 
   109     000E                     TMR1            equ	14	;# 
   110     000E                     TMR1L           equ	14	;# 
   111     000F                     TMR1H           equ	15	;# 
   112     0010                     T1CON           equ	16	;# 
   113     0011                     TMR2            equ	17	;# 
   114     0012                     T2CON           equ	18	;# 
   115     0013                     SSPBUF          equ	19	;# 
   116     0014                     SSPCON          equ	20	;# 
   117     0015                     CCPR1           equ	21	;# 
   118     0015                     CCPR1L          equ	21	;# 
   119     0016                     CCPR1H          equ	22	;# 
   120     0017                     CCP1CON         equ	23	;# 
   121     0018                     RCSTA           equ	24	;# 
   122     0019                     TXREG           equ	25	;# 
   123     001A                     RCREG           equ	26	;# 
   124     001B                     CCPR2           equ	27	;# 
   125     001B                     CCPR2L          equ	27	;# 
   126     001C                     CCPR2H          equ	28	;# 
   127     001D                     CCP2CON         equ	29	;# 
   128     001E                     ADRESH          equ	30	;# 
   129     001F                     ADCON0          equ	31	;# 
   130     0081                     OPTION_REG      equ	129	;# 
   131     0085                     TRISA           equ	133	;# 
   132     0086                     TRISB           equ	134	;# 
   133     0087                     TRISC           equ	135	;# 
   134     0088                     TRISD           equ	136	;# 
   135     0089                     TRISE           equ	137	;# 
   136     008C                     PIE1            equ	140	;# 
   137     008D                     PIE2            equ	141	;# 
   138     008E                     PCON            equ	142	;# 
   139     0091                     SSPCON2         equ	145	;# 
   140     0092                     PR2             equ	146	;# 
   141     0093                     SSPADD          equ	147	;# 
   142     0094                     SSPSTAT         equ	148	;# 
   143     0098                     TXSTA           equ	152	;# 
   144     0099                     SPBRG           equ	153	;# 
   145     009E                     ADRESL          equ	158	;# 
   146     009F                     ADCON1          equ	159	;# 
   147     010C                     EEDATA          equ	268	;# 
   148     010D                     EEADR           equ	269	;# 
   149     010E                     EEDATH          equ	270	;# 
   150     010F                     EEADRH          equ	271	;# 
   151     018C                     EECON1          equ	396	;# 
   152     018D                     EECON2          equ	397	;# 
   153     0000                     INDF            equ	0	;# 
   154     0001                     TMR0            equ	1	;# 
   155     0002                     PCL             equ	2	;# 
   156     0003                     STATUS          equ	3	;# 
   157     0004                     FSR             equ	4	;# 
   158     0005                     PORTA           equ	5	;# 
   159     0006                     PORTB           equ	6	;# 
   160     0007                     PORTC           equ	7	;# 
   161     0008                     PORTD           equ	8	;# 
   162     0009                     PORTE           equ	9	;# 
   163     000A                     PCLATH          equ	10	;# 
   164     000B                     INTCON          equ	11	;# 
   165     000C                     PIR1            equ	12	;# 
   166     000D                     PIR2            equ	13	;# 
   167     000E                     TMR1            equ	14	;# 
   168     000E                     TMR1L           equ	14	;# 
   169     000F                     TMR1H           equ	15	;# 
   170     0010                     T1CON           equ	16	;# 
   171     0011                     TMR2            equ	17	;# 
   172     0012                     T2CON           equ	18	;# 
   173     0013                     SSPBUF          equ	19	;# 
   174     0014                     SSPCON          equ	20	;# 
   175     0015                     CCPR1           equ	21	;# 
   176     0015                     CCPR1L          equ	21	;# 
   177     0016                     CCPR1H          equ	22	;# 
   178     0017                     CCP1CON         equ	23	;# 
   179     0018                     RCSTA           equ	24	;# 
   180     0019                     TXREG           equ	25	;# 
   181     001A                     RCREG           equ	26	;# 
   182     001B                     CCPR2           equ	27	;# 
   183     001B                     CCPR2L          equ	27	;# 
   184     001C                     CCPR2H          equ	28	;# 
   185     001D                     CCP2CON         equ	29	;# 
   186     001E                     ADRESH          equ	30	;# 
   187     001F                     ADCON0          equ	31	;# 
   188     0081                     OPTION_REG      equ	129	;# 
   189     0085                     TRISA           equ	133	;# 
   190     0086                     TRISB           equ	134	;# 
   191     0087                     TRISC           equ	135	;# 
   192     0088                     TRISD           equ	136	;# 
   193     0089                     TRISE           equ	137	;# 
   194     008C                     PIE1            equ	140	;# 
   195     008D                     PIE2            equ	141	;# 
   196     008E                     PCON            equ	142	;# 
   197     0091                     SSPCON2         equ	145	;# 
   198     0092                     PR2             equ	146	;# 
   199     0093                     SSPADD          equ	147	;# 
   200     0094                     SSPSTAT         equ	148	;# 
   201     0098                     TXSTA           equ	152	;# 
   202     0099                     SPBRG           equ	153	;# 
   203     009E                     ADRESL          equ	158	;# 
   204     009F                     ADCON1          equ	159	;# 
   205     010C                     EEDATA          equ	268	;# 
   206     010D                     EEADR           equ	269	;# 
   207     010E                     EEDATH          equ	270	;# 
   208     010F                     EEADRH          equ	271	;# 
   209     018C                     EECON1          equ	396	;# 
   210     018D                     EECON2          equ	397	;# 
   211     0009                     _PORTEbits      set	9
   212     0008                     _PORTD          set	8
   213     001E                     _ADRESH         set	30
   214     001F                     _ADCON0bits     set	31
   215     001F                     _ADCON0         set	31
   216     009E                     _ADRESL         set	158
   217     009F                     _ADCON1         set	159
   218     0085                     _TRISA          set	133
   219     0088                     _TRISD          set	136
   220     0089                     _TRISE          set	137
   221                           
   222                           	psect	strings
   223     1800                     __pstrings:
   224     1800                     stringtab:
   225     1800                     __stringtab:
   226     1800                     stringcode:	
   227                           ;	String table - string pointers are 1 byte each
   228                           
   229     1800                     stringdir:
   230     1800  3018               	movlw	high stringdir
   231     1801  008A               	movwf	10
   232     1802  0804               	movf	4,w
   233     1803  0A84               	incf	4,f
   234     1804  0782               	addwf	2,f
   235     1805                     __stringbase:
   236     1805  3400               	retlw	0
   237     1806                     __end_of__stringtab:
   238     1806                     STR_2:
   239     1806  3456               	retlw	86	;'V'
   240     1807  343A               	retlw	58	;':'
   241     1808  3420               	retlw	32	;' '
   242     1809  3425               	retlw	37	;'%'
   243     180A  342E               	retlw	46	;'.'
   244     180B  3432               	retlw	50	;'2'
   245     180C  3466               	retlw	102	;'f'
   246     180D  3420               	retlw	32	;' '
   247     180E  3456               	retlw	86	;'V'
   248     180F  3400               	retlw	0
   249     1810                     STR_1:
   250     1810  3441               	retlw	65	;'A'
   251     1811  3444               	retlw	68	;'D'
   252     1812  3443               	retlw	67	;'C'
   253     1813  343A               	retlw	58	;':'
   254     1814  3420               	retlw	32	;' '
   255     1815  3425               	retlw	37	;'%'
   256     1816  3430               	retlw	48	;'0'
   257     1817  3434               	retlw	52	;'4'
   258     1818  3475               	retlw	117	;'u'
   259     1819  3400               	retlw	0
   260     181A                     STR_3:
   261     181A  3469               	retlw	105	;'i'
   262     181B  346E               	retlw	110	;'n'
   263     181C  3466               	retlw	102	;'f'
   264     181D  3400               	retlw	0
   265     181E                     STR_6:
   266     181E  346E               	retlw	110	;'n'
   267     181F  3461               	retlw	97	;'a'
   268     1820  346E               	retlw	110	;'n'
   269     1821  3400               	retlw	0
   270     181E                     STR_7           equ	STR_6
   271     181E                     STR_8           equ	STR_6
   272     181A                     STR_4           equ	STR_3
   273     181A                     STR_5           equ	STR_3
   274                           
   275                           	psect	cinit
   276     07E4                     start_initialization:	
   277                           ; #config settings
   278                           
   279     07E4                     __initialization:
   280                           
   281                           ; Clear objects allocated to BANK1
   282     07E4  1683               	bsf	3,5	;RP0=1, select bank1
   283     07E5  1303               	bcf	3,6	;RP1=0, select bank1
   284     07E6  01EB               	clrf	__pbssBANK1& (0+127)
   285     07E7  01EC               	clrf	(__pbssBANK1+1)& (0+127)
   286     07E8  01ED               	clrf	(__pbssBANK1+2)& (0+127)
   287     07E9  01EE               	clrf	(__pbssBANK1+3)& (0+127)
   288     07EA  01EF               	clrf	(__pbssBANK1+4)& (0+127)
   289                           
   290                           ; Clear objects allocated to BANK3
   291     07EB  1783               	bsf	3,7	;select IRP bank2
   292     07EC  3090               	movlw	low __pbssBANK3
   293     07ED  0084               	movwf	4
   294     07EE  30A8               	movlw	low (__pbssBANK3+24)
   295     07EF  160A  158A  25D1  120A  118A  	fcall	clear_ram0
   296                           
   297                           ; Clear objects allocated to BANK2
   298     07F4  3010               	movlw	low __pbssBANK2
   299     07F5  0084               	movwf	4
   300     07F6  3060               	movlw	low (__pbssBANK2+80)
   301     07F7  160A  158A  25D1  120A  118A  	fcall	clear_ram0
   302     07FC                     end_of_initialization:	
   303                           ;End of C runtime variable initialization code
   304                           
   305     07FC                     __end_of__initialization:
   306     07FC  0183               	clrf	3
   307     07FD  160A  118A  2B84   	ljmp	_main	;jump to C main() function
   308                           
   309                           	psect	bssBANK1
   310     00EB                     __pbssBANK1:
   311     00EB                     _width:
   312     00EB                     	ds	2
   313     00ED                     _prec:
   314     00ED                     	ds	2
   315     00EF                     _flags:
   316     00EF                     	ds	1
   317                           
   318                           	psect	bssBANK3
   319     0190                     __pbssBANK3:
   320     0190                     floorf@F521:
   321     0190                     	ds	4
   322     0194                     ___fpclassifyf@F465:
   323     0194                     	ds	4
   324     0198                     _buffer:
   325     0198                     	ds	16
   326                           
   327                           	psect	bssBANK2
   328     0110                     __pbssBANK2:
   329     0110                     _dbuf:
   330     0110                     	ds	80
   331                           
   332                           	psect	clrtext
   333     1DD1                     clear_ram0:	
   334                           ;	Called with FSR containing the base address, and
   335                           ;	W with the last address+1
   336                           
   337     1DD1  0064               	clrwdt	;clear the watchdog before getting into this loop
   338     1DD2                     clrloop0:
   339     1DD2  0180               	clrf	0	;clear RAM location pointed to by FSR
   340     1DD3  0A84               	incf	4,f	;increment pointer
   341     1DD4  0604               	xorwf	4,w	;XOR with final address
   342     1DD5  1903               	btfsc	3,2	;have we reached the end yet?
   343     1DD6  3400               	retlw	0	;all done for this memory range, return
   344     1DD7  0604               	xorwf	4,w	;XOR again to restore value
   345     1DD8  2DD2               	goto	clrloop0	;do the next byte
   346                           
   347                           	psect	cstackBANK3
   348     01A8                     __pcstackBANK3:
   349     01A8                     sprintf@ap:
   350                           
   351                           ; 1 bytes @ 0x0
   352     01A8                     	ds	1
   353     01A9                     sprintf@f:
   354                           
   355                           ; 11 bytes @ 0x1
   356     01A9                     	ds	11
   357     01B4                     main@voltage:
   358                           
   359                           ; 4 bytes @ 0xC
   360     01B4                     	ds	4
   361     01B8                     main@adc_value:
   362                           
   363                           ; 2 bytes @ 0x10
   364     01B8                     	ds	2
   365                           
   366                           	psect	cstackBANK1
   367     00A0                     __pcstackBANK1:
   368     00A0                     ??_efgtoa:
   369                           
   370                           ; 1 bytes @ 0x0
   371     00A0                     	ds	4
   372     00A4                     efgtoa@ne:
   373                           
   374                           ; 2 bytes @ 0x4
   375     00A4                     	ds	2
   376     00A6                     efgtoa@p:
   377                           
   378                           ; 2 bytes @ 0x6
   379     00A6                     	ds	2
   380     00A8                     efgtoa@t:
   381                           
   382                           ; 2 bytes @ 0x8
   383     00A8                     	ds	2
   384     00AA                     _efgtoa$714:
   385                           
   386                           ; 2 bytes @ 0xA
   387     00AA                     	ds	2
   388     00AC                     efgtoa@pp:
   389                           
   390                           ; 1 bytes @ 0xC
   391     00AC                     	ds	1
   392     00AD                     efgtoa@mode:
   393                           
   394                           ; 1 bytes @ 0xD
   395     00AD                     	ds	1
   396     00AE                     efgtoa@nmode:
   397                           
   398                           ; 1 bytes @ 0xE
   399     00AE                     	ds	1
   400     00AF                     efgtoa@d:
   401                           
   402                           ; 2 bytes @ 0xF
   403     00AF                     	ds	2
   404     00B1                     efgtoa@m:
   405                           
   406                           ; 2 bytes @ 0x11
   407     00B1                     	ds	2
   408     00B3                     efgtoa@e:
   409                           
   410                           ; 2 bytes @ 0x13
   411     00B3                     	ds	2
   412     00B5                     efgtoa@w:
   413                           
   414                           ; 2 bytes @ 0x15
   415     00B5                     	ds	2
   416     00B7                     efgtoa@ou:
   417                           
   418                           ; 4 bytes @ 0x17
   419     00B7                     	ds	4
   420     00BB                     efgtoa@h:
   421                           
   422                           ; 4 bytes @ 0x1B
   423     00BB                     	ds	4
   424     00BF                     efgtoa@l:
   425                           
   426                           ; 4 bytes @ 0x1F
   427     00BF                     	ds	4
   428     00C3                     efgtoa@i:
   429                           
   430                           ; 2 bytes @ 0x23
   431     00C3                     	ds	2
   432     00C5                     efgtoa@sign:
   433                           
   434                           ; 1 bytes @ 0x25
   435     00C5                     	ds	1
   436     00C6                     efgtoa@g:
   437                           
   438                           ; 4 bytes @ 0x26
   439     00C6                     	ds	4
   440     00CA                     efgtoa@n:
   441                           
   442                           ; 2 bytes @ 0x2A
   443     00CA                     	ds	2
   444     00CC                     efgtoa@u:
   445                           
   446                           ; 4 bytes @ 0x2C
   447     00CC                     	ds	4
   448     00D0                     ?_vfpfcnvrt:
   449     00D0                     vfpfcnvrt@fp:	
   450                           ; 1 bytes @ 0x30
   451                           
   452                           
   453                           ; 2 bytes @ 0x30
   454     00D0                     	ds	2
   455     00D2                     vfpfcnvrt@fmt:
   456                           
   457                           ; 1 bytes @ 0x32
   458     00D2                     	ds	1
   459     00D3                     vfpfcnvrt@ap:
   460                           
   461                           ; 1 bytes @ 0x33
   462     00D3                     	ds	1
   463     00D4                     ??_vfpfcnvrt:
   464                           
   465                           ; 1 bytes @ 0x34
   466     00D4                     	ds	2
   467     00D6                     vfpfcnvrt@done:
   468                           
   469                           ; 1 bytes @ 0x36
   470     00D6                     	ds	1
   471     00D7                     vfpfcnvrt@convarg:
   472                           
   473                           ; 4 bytes @ 0x37
   474     00D7                     	ds	4
   475     00DB                     vfpfcnvrt@c:
   476                           
   477                           ; 1 bytes @ 0x3B
   478     00DB                     	ds	1
   479     00DC                     vfpfcnvrt@cp:
   480                           
   481                           ; 1 bytes @ 0x3C
   482     00DC                     	ds	1
   483     00DD                     ?_vfprintf:
   484     00DD                     vfprintf@fp:	
   485                           ; 2 bytes @ 0x3D
   486                           
   487                           
   488                           ; 2 bytes @ 0x3D
   489     00DD                     	ds	2
   490     00DF                     vfprintf@fmt:
   491                           
   492                           ; 1 bytes @ 0x3F
   493     00DF                     	ds	1
   494     00E0                     vfprintf@ap:
   495                           
   496                           ; 1 bytes @ 0x40
   497     00E0                     	ds	1
   498     00E1                     ?_sprintf:
   499     00E1                     sprintf@s:	
   500                           ; 2 bytes @ 0x41
   501                           
   502                           
   503                           ; 1 bytes @ 0x41
   504     00E1                     	ds	1
   505     00E2                     sprintf@fmt:
   506                           
   507                           ; 1 bytes @ 0x42
   508     00E2                     	ds	5
   509     00E7                     ??_sprintf:
   510                           
   511                           ; 1 bytes @ 0x47
   512     00E7                     	ds	1
   513     00E8                     ??_main:
   514                           
   515                           ; 1 bytes @ 0x48
   516     00E8                     	ds	3
   517                           
   518                           	psect	cstackCOMMON
   519     0070                     __pcstackCOMMON:
   520     0070                     ?_lcd_initialise:
   521     0070                     ?_adc_initialise:	
   522                           ; 1 bytes @ 0x0
   523                           
   524     0070                     ?_lcd_command:	
   525                           ; 1 bytes @ 0x0
   526                           
   527     0070                     ?_strcpy:	
   528                           ; 1 bytes @ 0x0
   529                           
   530     0070                     ?_memcpy:	
   531                           ; 1 bytes @ 0x0
   532                           
   533     0070                     ?_putch:	
   534                           ; 1 bytes @ 0x0
   535                           
   536     0070                     ?_main:	
   537                           ; 1 bytes @ 0x0
   538                           
   539     0070                     ?_lcd_data:	
   540                           ; 1 bytes @ 0x0
   541                           
   542     0070                     ?___fleq:	
   543                           ; 1 bytes @ 0x0
   544                           
   545     0070                     ?_read_adc:	
   546                           ; 1 bit 
   547                           
   548     0070                     ?__Umul8_16:	
   549                           ; 2 bytes @ 0x0
   550                           
   551     0070                     ?_fputc:	
   552                           ; 2 bytes @ 0x0
   553                           
   554     0070                     ?___fpclassifyf:	
   555                           ; 2 bytes @ 0x0
   556                           
   557     0070                     ?___wmul:	
   558                           ; 2 bytes @ 0x0
   559                           
   560     0070                     ?___lwdiv:	
   561                           ; 2 bytes @ 0x0
   562                           
   563     0070                     ?___lwmod:	
   564                           ; 2 bytes @ 0x0
   565                           
   566     0070                     ?_labs:	
   567                           ; 2 bytes @ 0x0
   568                           
   569     0070                     ?___flneg:	
   570                           ; 4 bytes @ 0x0
   571                           
   572     0070                     ?___fltol:	
   573                           ; 4 bytes @ 0x0
   574                           
   575     0070                     ?___fladd:	
   576                           ; 4 bytes @ 0x0
   577                           
   578     0070                     ?___xxtofl:	
   579                           ; 4 bytes @ 0x0
   580                           
   581     0070                     __Umul8_16@multiplicand:	
   582                           ; 4 bytes @ 0x0
   583                           
   584     0070                     memcpy@d1:	
   585                           ; 1 bytes @ 0x0
   586                           
   587     0070                     putch@c:	
   588                           ; 1 bytes @ 0x0
   589                           
   590     0070                     strcpy@dest:	
   591                           ; 1 bytes @ 0x0
   592                           
   593     0070                     ___wmul@multiplier:	
   594                           ; 1 bytes @ 0x0
   595                           
   596     0070                     ___lwdiv@divisor:	
   597                           ; 2 bytes @ 0x0
   598                           
   599     0070                     ___lwmod@divisor:	
   600                           ; 2 bytes @ 0x0
   601                           
   602     0070                     fputc@c:	
   603                           ; 2 bytes @ 0x0
   604                           
   605     0070                     ___fleq@ff1:	
   606                           ; 2 bytes @ 0x0
   607                           
   608     0070                     ___flneg@f1:	
   609                           ; 4 bytes @ 0x0
   610                           
   611     0070                     ___fltol@f1:	
   612                           ; 4 bytes @ 0x0
   613                           
   614     0070                     ___fladd@b:	
   615                           ; 4 bytes @ 0x0
   616                           
   617     0070                     ___xxtofl@val:	
   618                           ; 4 bytes @ 0x0
   619                           
   620     0070                     ___fpclassifyf@x:	
   621                           ; 4 bytes @ 0x0
   622                           
   623     0070                     labs@a:	
   624                           ; 4 bytes @ 0x0
   625                           
   626     0070                     ??_adc_initialise:	
   627                           ; 4 bytes @ 0x0
   628                           
   629     0070                     ??_lcd_command:	
   630                           ; 1 bytes @ 0x0
   631                           
   632     0070                     ??_putch:	
   633                           ; 1 bytes @ 0x0
   634                           
   635     0070                     ??_lcd_data:	
   636                           ; 1 bytes @ 0x0
   637                           
   638                           
   639                           ; 1 bytes @ 0x0
   640     0070                     	ds	1
   641     0071                     memcpy@s1:
   642     0071                     strcpy@src:	
   643                           ; 1 bytes @ 0x1
   644                           
   645                           
   646                           ; 1 bytes @ 0x1
   647     0071                     	ds	1
   648     0072                     lcd_command@cmd:
   649     0072                     lcd_data@data:	
   650                           ; 1 bytes @ 0x2
   651                           
   652     0072                     strcpy@d:	
   653                           ; 1 bytes @ 0x2
   654                           
   655     0072                     ___wmul@multiplicand:	
   656                           ; 1 bytes @ 0x2
   657                           
   658     0072                     ___lwdiv@dividend:	
   659                           ; 2 bytes @ 0x2
   660                           
   661     0072                     ___lwmod@dividend:	
   662                           ; 2 bytes @ 0x2
   663                           
   664     0072                     memcpy@n:	
   665                           ; 2 bytes @ 0x2
   666                           
   667     0072                     fputc@fp:	
   668                           ; 2 bytes @ 0x2
   669                           
   670     0072                     ??_read_adc:	
   671                           ; 2 bytes @ 0x2
   672                           
   673     0072                     ??__Umul8_16:	
   674                           ; 1 bytes @ 0x2
   675                           
   676     0072                     ??_strcpy:	
   677                           ; 1 bytes @ 0x2
   678                           
   679                           
   680                           ; 1 bytes @ 0x2
   681     0072                     	ds	1
   682     0073                     ?_lcd_string:
   683     0073                     lcd_string@str:	
   684                           ; 1 bytes @ 0x3
   685                           
   686     0073                     ??_lcd_initialise:	
   687                           ; 1 bytes @ 0x3
   688                           
   689                           
   690                           ; 1 bytes @ 0x3
   691     0073                     	ds	1
   692     0074                     ___lwmod@counter:
   693     0074                     memcpy@tmp:	
   694                           ; 1 bytes @ 0x4
   695                           
   696     0074                     ___wmul@product:	
   697                           ; 1 bytes @ 0x4
   698                           
   699     0074                     ___lwdiv@quotient:	
   700                           ; 2 bytes @ 0x4
   701                           
   702     0074                     __Umul8_16@product:	
   703                           ; 2 bytes @ 0x4
   704                           
   705     0074                     ___fleq@ff2:	
   706                           ; 2 bytes @ 0x4
   707                           
   708     0074                     ___fladd@a:	
   709                           ; 4 bytes @ 0x4
   710                           
   711     0074                     ??_lcd_string:	
   712                           ; 4 bytes @ 0x4
   713                           
   714     0074                     ??_fputc:	
   715                           ; 1 bytes @ 0x4
   716                           
   717     0074                     ??___fpclassifyf:	
   718                           ; 1 bytes @ 0x4
   719                           
   720     0074                     ??_labs:	
   721                           ; 1 bytes @ 0x4
   722                           
   723     0074                     ??_memcpy:	
   724                           ; 1 bytes @ 0x4
   725                           
   726     0074                     ??___wmul:	
   727                           ; 1 bytes @ 0x4
   728                           
   729     0074                     ??___flneg:	
   730                           ; 1 bytes @ 0x4
   731                           
   732     0074                     ??___fltol:	
   733                           ; 1 bytes @ 0x4
   734                           
   735     0074                     ??___lwdiv:	
   736                           ; 1 bytes @ 0x4
   737                           
   738     0074                     ??___lwmod:	
   739                           ; 1 bytes @ 0x4
   740                           
   741     0074                     ??___xxtofl:	
   742                           ; 1 bytes @ 0x4
   743                           
   744                           
   745                           ; 1 bytes @ 0x4
   746     0074                     	ds	1
   747     0075                     memcpy@d:
   748                           
   749                           ; 1 bytes @ 0x5
   750     0075                     	ds	1
   751     0076                     ?_read_prec_or_width:
   752     0076                     ___lwdiv@counter:	
   753                           ; 2 bytes @ 0x6
   754                           
   755     0076                     read_prec_or_width@fmt:	
   756                           ; 1 bytes @ 0x6
   757                           
   758     0076                     memcpy@s:	
   759                           ; 1 bytes @ 0x6
   760                           
   761     0076                     __Umul8_16@word_mpld:	
   762                           ; 1 bytes @ 0x6
   763                           
   764                           
   765                           ; 2 bytes @ 0x6
   766     0076                     	ds	1
   767     0077                     read_prec_or_width@ap:
   768                           
   769                           ; 1 bytes @ 0x7
   770     0077                     	ds	1
   771     0078                     ___fltol@sign1:
   772     0078                     ___fladd@signs:	
   773                           ; 1 bytes @ 0x8
   774                           
   775     0078                     __Umul8_16@multiplier:	
   776                           ; 1 bytes @ 0x8
   777                           
   778     0078                     ___xxtofl@sign:	
   779                           ; 1 bytes @ 0x8
   780                           
   781     0078                     read_prec_or_width@c:	
   782                           ; 1 bytes @ 0x8
   783                           
   784     0078                     ??___fleq:	
   785                           ; 1 bytes @ 0x8
   786                           
   787     0078                     ??_read_prec_or_width:	
   788                           ; 1 bytes @ 0x8
   789                           
   790                           
   791                           ; 1 bytes @ 0x8
   792     0078                     	ds	1
   793     0079                     ___fltol@exp1:
   794     0079                     ___fladd@aexp:	
   795                           ; 1 bytes @ 0x9
   796                           
   797     0079                     ___xxtofl@exp:	
   798                           ; 1 bytes @ 0x9
   799                           
   800     0079                     read_prec_or_width@n:	
   801                           ; 1 bytes @ 0x9
   802                           
   803                           
   804                           ; 2 bytes @ 0x9
   805     0079                     	ds	1
   806     007A                     ___fladd@bexp:
   807     007A                     ___xxtofl@arg:	
   808                           ; 1 bytes @ 0xA
   809                           
   810                           
   811                           ; 4 bytes @ 0xA
   812     007A                     	ds	1
   813     007B                     ___fladd@grs:
   814                           
   815                           ; 1 bytes @ 0xB
   816     007B                     	ds	2
   817     007D                     ??_pad:
   818                           
   819                           ; 1 bytes @ 0xD
   820     007D                     	ds	1
   821     007E                     ??_vfprintf:
   822     007E                     ??___flsub:	
   823                           ; 1 bytes @ 0xE
   824                           
   825     007E                     ??_utoa:	
   826                           ; 1 bytes @ 0xE
   827                           
   828                           
   829                           	psect	cstackBANK0
   830     0020                     __pcstackBANK0:	
   831                           ; 1 bytes @ 0xE
   832                           
   833     0020                     ?_fputs:
   834     0020                     ?___flmul:	
   835                           ; 2 bytes @ 0x0
   836                           
   837     0020                     fputs@s:	
   838                           ; 4 bytes @ 0x0
   839                           
   840     0020                     ___fpclassifyf@e:	
   841                           ; 1 bytes @ 0x0
   842                           
   843     0020                     ___flmul@b:	
   844                           ; 2 bytes @ 0x0
   845                           
   846     0020                     ??___fladd:	
   847                           ; 4 bytes @ 0x0
   848                           
   849                           
   850                           ; 1 bytes @ 0x0
   851     0020                     	ds	1
   852     0021                     fputs@fp:
   853                           
   854                           ; 2 bytes @ 0x1
   855     0021                     	ds	1
   856     0022                     ___fpclassifyf@u:
   857                           
   858                           ; 4 bytes @ 0x2
   859     0022                     	ds	1
   860     0023                     ??_fputs:
   861                           
   862                           ; 1 bytes @ 0x3
   863     0023                     	ds	1
   864     0024                     ___flmul@a:
   865                           
   866                           ; 4 bytes @ 0x4
   867     0024                     	ds	1
   868     0025                     fputs@c:
   869                           
   870                           ; 1 bytes @ 0x5
   871     0025                     	ds	1
   872     0026                     fputs@i:
   873                           
   874                           ; 2 bytes @ 0x6
   875     0026                     	ds	2
   876     0028                     ?_pad:
   877     0028                     pad@fp:	
   878                           ; 1 bytes @ 0x8
   879                           
   880     0028                     ??___flmul:	
   881                           ; 2 bytes @ 0x8
   882                           
   883                           
   884                           ; 1 bytes @ 0x8
   885     0028                     	ds	2
   886     002A                     pad@buf:
   887                           
   888                           ; 1 bytes @ 0xA
   889     002A                     	ds	1
   890     002B                     pad@p:
   891                           
   892                           ; 2 bytes @ 0xB
   893     002B                     	ds	2
   894     002D                     ___flmul@sign:
   895     002D                     pad@i:	
   896                           ; 1 bytes @ 0xD
   897                           
   898                           
   899                           ; 2 bytes @ 0xD
   900     002D                     	ds	1
   901     002E                     ___flmul@grs:
   902                           
   903                           ; 4 bytes @ 0xE
   904     002E                     	ds	1
   905     002F                     ?_utoa:
   906     002F                     utoa@fp:	
   907                           ; 1 bytes @ 0xF
   908                           
   909                           
   910                           ; 2 bytes @ 0xF
   911     002F                     	ds	2
   912     0031                     utoa@d:
   913                           
   914                           ; 2 bytes @ 0x11
   915     0031                     	ds	1
   916     0032                     ___flmul@aexp:
   917                           
   918                           ; 1 bytes @ 0x12
   919     0032                     	ds	1
   920     0033                     ___flmul@bexp:
   921     0033                     utoa@p:	
   922                           ; 1 bytes @ 0x13
   923                           
   924                           
   925                           ; 2 bytes @ 0x13
   926     0033                     	ds	1
   927     0034                     ___flmul@prod:
   928                           
   929                           ; 4 bytes @ 0x14
   930     0034                     	ds	1
   931     0035                     utoa@w:
   932                           
   933                           ; 2 bytes @ 0x15
   934     0035                     	ds	2
   935     0037                     utoa@i:
   936                           
   937                           ; 2 bytes @ 0x17
   938     0037                     	ds	1
   939     0038                     ___flmul@temp:
   940                           
   941                           ; 2 bytes @ 0x18
   942     0038                     	ds	2
   943     003A                     ?___flge:
   944     003A                     ?___flsub:	
   945                           ; 1 bit 
   946                           
   947     003A                     ?___fldiv:	
   948                           ; 4 bytes @ 0x1A
   949                           
   950     003A                     ___flge@ff1:	
   951                           ; 4 bytes @ 0x1A
   952                           
   953     003A                     ___flsub@a:	
   954                           ; 4 bytes @ 0x1A
   955                           
   956     003A                     ___fldiv@a:	
   957                           ; 4 bytes @ 0x1A
   958                           
   959                           
   960                           ; 4 bytes @ 0x1A
   961     003A                     	ds	4
   962     003E                     ___flge@ff2:
   963     003E                     ___flsub@b:	
   964                           ; 4 bytes @ 0x1E
   965                           
   966     003E                     ___fldiv@b:	
   967                           ; 4 bytes @ 0x1E
   968                           
   969                           
   970                           ; 4 bytes @ 0x1E
   971     003E                     	ds	4
   972     0042                     ??___flge:
   973     0042                     ??___fldiv:	
   974                           ; 1 bytes @ 0x22
   975                           
   976                           
   977                           ; 1 bytes @ 0x22
   978     0042                     	ds	5
   979     0047                     ___fldiv@rem:
   980                           
   981                           ; 4 bytes @ 0x27
   982     0047                     	ds	4
   983     004B                     ___fldiv@sign:
   984                           
   985                           ; 1 bytes @ 0x2B
   986     004B                     	ds	1
   987     004C                     ___fldiv@new_exp:
   988                           
   989                           ; 2 bytes @ 0x2C
   990     004C                     	ds	2
   991     004E                     ___fldiv@grs:
   992                           
   993                           ; 4 bytes @ 0x2E
   994     004E                     	ds	4
   995     0052                     ___fldiv@bexp:
   996                           
   997                           ; 1 bytes @ 0x32
   998     0052                     	ds	1
   999     0053                     ___fldiv@aexp:
  1000                           
  1001                           ; 1 bytes @ 0x33
  1002     0053                     	ds	1
  1003     0054                     ?_floorf:
  1004     0054                     floorf@x:	
  1005                           ; 4 bytes @ 0x34
  1006                           
  1007                           
  1008                           ; 4 bytes @ 0x34
  1009     0054                     	ds	4
  1010     0058                     ??_floorf:
  1011                           
  1012                           ; 1 bytes @ 0x38
  1013     0058                     	ds	6
  1014     005E                     floorf@m:
  1015                           
  1016                           ; 4 bytes @ 0x3E
  1017     005E                     	ds	4
  1018     0062                     floorf@e:
  1019                           
  1020                           ; 2 bytes @ 0x42
  1021     0062                     	ds	2
  1022     0064                     floorf@u:
  1023                           
  1024                           ; 4 bytes @ 0x44
  1025     0064                     	ds	4
  1026     0068                     ?_efgtoa:
  1027     0068                     efgtoa@fp:	
  1028                           ; 1 bytes @ 0x48
  1029                           
  1030                           
  1031                           ; 2 bytes @ 0x48
  1032     0068                     	ds	2
  1033     006A                     efgtoa@f:
  1034                           
  1035                           ; 4 bytes @ 0x4A
  1036     006A                     	ds	4
  1037     006E                     efgtoa@c:
  1038                           
  1039                           ; 1 bytes @ 0x4E
  1040     006E                     	ds	1
  1041     006F                     vfprintf@cfmt:
  1042                           
  1043                           ; 1 bytes @ 0x4F
  1044     006F                     	ds	1
  1045                           
  1046                           	psect	maintext
  1047     1384                     __pmaintext:	
  1048 ;;
  1049 ;;Main: autosize = 0, tempsize = 3, incstack = 0, save=0
  1050 ;;
  1051 ;; *************** function _main *****************
  1052 ;; Defined at:
  1053 ;;		line 28 in file "atividade7.c"
  1054 ;; Parameters:    Size  Location     Type
  1055 ;;		None
  1056 ;; Auto vars:     Size  Location     Type
  1057 ;;  voltage         4   12[BANK3 ] float 
  1058 ;;  adc_value       2   16[BANK3 ] unsigned int 
  1059 ;; Return value:  Size  Location     Type
  1060 ;;                  1    wreg      void 
  1061 ;; Registers used:
  1062 ;;		wreg, fsr0l, fsr0h, status,2, status,0, btemp+1, pclath, cstack
  1063 ;; Tracked objects:
  1064 ;;		On entry : B00/0
  1065 ;;		On exit  : 0/0
  1066 ;;		Unchanged: 0/0
  1067 ;; Data sizes:     COMMON   BANK0   BANK1   BANK3   BANK2
  1068 ;;      Params:         0       0       0       0       0
  1069 ;;      Locals:         0       0       0       6       0
  1070 ;;      Temps:          0       0       3       0       0
  1071 ;;      Totals:         0       0       3       6       0
  1072 ;;Total ram usage:        9 bytes
  1073 ;; Hardware stack levels required when called: 8
  1074 ;; This function calls:
  1075 ;;		___fldiv
  1076 ;;		___flmul
  1077 ;;		___xxtofl
  1078 ;;		_adc_initialise
  1079 ;;		_lcd_command
  1080 ;;		_lcd_initialise
  1081 ;;		_lcd_string
  1082 ;;		_read_adc
  1083 ;;		_sprintf
  1084 ;; This function is called by:
  1085 ;;		Startup code after reset
  1086 ;; This function uses a non-reentrant model
  1087 ;;
  1088                           
  1089     1384                     _main:	
  1090                           ;psect for function _main
  1091                           
  1092     1384                     l3318:	
  1093                           ;incstack = 0
  1094                           ; Regs used in _main: [wreg-fsr0h+status,2+status,0+btemp+1+pclath+cstack]
  1095                           
  1096                           
  1097                           ;atividade7.c: 30: 
  1098     1384  1683               	bsf	3,5	;RP0=1, select bank1
  1099     1385  1303               	bcf	3,6	;RP1=0, select bank1
  1100     1386  0189               	clrf	9	;volatile
  1101                           
  1102                           ;atividade7.c: 31: 
  1103     1387  0188               	clrf	8	;volatile
  1104     1388                     l3320:
  1105                           
  1106                           ;atividade7.c: 32:         lcd_command(0xC0);
  1107     1388  30FF               	movlw	255
  1108     1389  0085               	movwf	5	;volatile
  1109     138A                     l3322:
  1110                           
  1111                           ;atividade7.c: 34:         lcd_string(buffer);
  1112     138A  160A  158A  2645  160A  118A  	fcall	_lcd_initialise
  1113     138F                     l3324:
  1114                           
  1115                           ;atividade7.c: 35: 
  1116     138F  160A  158A  25D9  160A  118A  	fcall	_adc_initialise
  1117     1394                     l3326:
  1118                           
  1119                           ;atividade7.c: 38: }
  1120     1394  160A  158A  25E2  160A  118A  	fcall	_read_adc
  1121     1399  0871               	movf	?_read_adc+1,w
  1122     139A  1683               	bsf	3,5	;RP0=1, select bank3
  1123     139B  1703               	bsf	3,6	;RP1=1, select bank3
  1124     139C  00B9               	movwf	(main@adc_value+1)^(0+384)
  1125     139D  0870               	movf	?_read_adc,w
  1126     139E  00B8               	movwf	main@adc_value^(0+384)
  1127     139F                     l3328:
  1128                           
  1129                           ;atividade7.c: 39: 
  1130     139F  3044               	movlw	68
  1131     13A0  1283               	bcf	3,5	;RP0=0, select bank0
  1132     13A1  1303               	bcf	3,6	;RP1=0, select bank0
  1133     13A2  00BD               	movwf	___fldiv@a+3
  1134     13A3  307F               	movlw	127
  1135     13A4  00BC               	movwf	___fldiv@a+2
  1136     13A5  30C0               	movlw	192
  1137     13A6  00BB               	movwf	___fldiv@a+1
  1138     13A7  3000               	movlw	0
  1139     13A8  00BA               	movwf	___fldiv@a
  1140     13A9  3040               	movlw	64
  1141     13AA  00A3               	movwf	___flmul@b+3
  1142     13AB  30A0               	movlw	160
  1143     13AC  00A2               	movwf	___flmul@b+2
  1144     13AD  3000               	movlw	0
  1145     13AE  00A1               	movwf	___flmul@b+1
  1146     13AF  3000               	movlw	0
  1147     13B0  00A0               	movwf	___flmul@b
  1148     13B1  1683               	bsf	3,5	;RP0=1, select bank3
  1149     13B2  1703               	bsf	3,6	;RP1=1, select bank3
  1150     13B3  0838               	movf	main@adc_value^(0+384),w
  1151     13B4  00F0               	movwf	___xxtofl@val
  1152     13B5  0839               	movf	(main@adc_value+1)^(0+384),w
  1153     13B6  00F1               	movwf	___xxtofl@val+1
  1154     13B7  01F2               	clrf	___xxtofl@val+2
  1155     13B8  01F3               	clrf	___xxtofl@val+3
  1156     13B9  3000               	movlw	0
  1157     13BA  160A  118A  22D0  160A  118A  	fcall	___xxtofl
  1158     13BF  0873               	movf	?___xxtofl+3,w
  1159     13C0  1283               	bcf	3,5	;RP0=0, select bank0
  1160     13C1  1303               	bcf	3,6	;RP1=0, select bank0
  1161     13C2  00A7               	movwf	___flmul@a+3
  1162     13C3  0872               	movf	?___xxtofl+2,w
  1163     13C4  00A6               	movwf	___flmul@a+2
  1164     13C5  0871               	movf	?___xxtofl+1,w
  1165     13C6  00A5               	movwf	___flmul@a+1
  1166     13C7  0870               	movf	?___xxtofl,w
  1167     13C8  00A4               	movwf	___flmul@a
  1168     13C9  120A  158A  24BE  160A  118A  	fcall	___flmul
  1169     13CE  1283               	bcf	3,5	;RP0=0, select bank0
  1170     13CF  1303               	bcf	3,6	;RP1=0, select bank0
  1171     13D0  0823               	movf	?___flmul+3,w
  1172     13D1  00C1               	movwf	___fldiv@b+3
  1173     13D2  0822               	movf	?___flmul+2,w
  1174     13D3  00C0               	movwf	___fldiv@b+2
  1175     13D4  0821               	movf	?___flmul+1,w
  1176     13D5  00BF               	movwf	___fldiv@b+1
  1177     13D6  0820               	movf	?___flmul,w
  1178     13D7  00BE               	movwf	___fldiv@b
  1179     13D8  120A  158A  2098  160A  118A  	fcall	___fldiv
  1180     13DD  1283               	bcf	3,5	;RP0=0, select bank0
  1181     13DE  1303               	bcf	3,6	;RP1=0, select bank0
  1182     13DF  083D               	movf	?___fldiv+3,w
  1183     13E0  1683               	bsf	3,5	;RP0=1, select bank3
  1184     13E1  1703               	bsf	3,6	;RP1=1, select bank3
  1185     13E2  00B7               	movwf	(main@voltage+3)^(0+384)
  1186     13E3  1283               	bcf	3,5	;RP0=0, select bank0
  1187     13E4  1303               	bcf	3,6	;RP1=0, select bank0
  1188     13E5  083C               	movf	?___fldiv+2,w
  1189     13E6  1683               	bsf	3,5	;RP0=1, select bank3
  1190     13E7  1703               	bsf	3,6	;RP1=1, select bank3
  1191     13E8  00B6               	movwf	(main@voltage+2)^(0+384)
  1192     13E9  1283               	bcf	3,5	;RP0=0, select bank0
  1193     13EA  1303               	bcf	3,6	;RP1=0, select bank0
  1194     13EB  083B               	movf	?___fldiv+1,w
  1195     13EC  1683               	bsf	3,5	;RP0=1, select bank3
  1196     13ED  1703               	bsf	3,6	;RP1=1, select bank3
  1197     13EE  00B5               	movwf	(main@voltage+1)^(0+384)
  1198     13EF  1283               	bcf	3,5	;RP0=0, select bank0
  1199     13F0  1303               	bcf	3,6	;RP1=0, select bank0
  1200     13F1  083A               	movf	?___fldiv,w
  1201     13F2  1683               	bsf	3,5	;RP0=1, select bank3
  1202     13F3  1703               	bsf	3,6	;RP1=1, select bank3
  1203     13F4  00B4               	movwf	main@voltage^(0+384)
  1204     13F5                     l3330:
  1205                           
  1206                           ;atividade7.c: 42:     ADCON0 = 0x0D;
  1207     13F5  3080               	movlw	128
  1208     13F6  160A  158A  25F4  160A  118A  	fcall	_lcd_command
  1209     13FB                     l3332:
  1210                           
  1211                           ;atividade7.c: 43: }
  1212     13FB  3098               	movlw	(low (_buffer| (0+256)))& (0+255)
  1213     13FC  1683               	bsf	3,5	;RP0=1, select bank1
  1214     13FD  1303               	bcf	3,6	;RP1=0, select bank1
  1215     13FE  00E1               	movwf	sprintf@s^(0+128)
  1216     13FF  300B               	movlw	(low ((STR_1-__stringbase)| (0+32768)))& (0+255)
  1217     1400  00E2               	movwf	sprintf@fmt^(0+128)
  1218     1401  1683               	bsf	3,5	;RP0=1, select bank3
  1219     1402  1703               	bsf	3,6	;RP1=1, select bank3
  1220     1403  0839               	movf	(main@adc_value+1)^(0+384),w
  1221     1404  1683               	bsf	3,5	;RP0=1, select bank1
  1222     1405  1303               	bcf	3,6	;RP1=0, select bank1
  1223     1406  00E4               	movwf	((?_sprintf+1)^(0+128)+2)
  1224     1407  1683               	bsf	3,5	;RP0=1, select bank3
  1225     1408  1703               	bsf	3,6	;RP1=1, select bank3
  1226     1409  0838               	movf	main@adc_value^(0+384),w
  1227     140A  1683               	bsf	3,5	;RP0=1, select bank1
  1228     140B  1303               	bcf	3,6	;RP1=0, select bank1
  1229     140C  00E3               	movwf	(?_sprintf^(0+128)+2)
  1230     140D  160A  118A  200B  160A  118A  	fcall	_sprintf
  1231     1412                     l3334:
  1232                           
  1233                           ;atividade7.c: 44: 
  1234     1412  3098               	movlw	(low (_buffer| (0+256)))& (0+255)
  1235     1413  00F3               	movwf	lcd_string@str
  1236     1414  160A  158A  261C  160A  118A  	fcall	_lcd_string
  1237     1419                     l3336:
  1238                           
  1239                           ;atividade7.c: 47:     ADCON0bits.GO_DONE = 1;
  1240     1419  30C0               	movlw	192
  1241     141A  160A  158A  25F4  160A  118A  	fcall	_lcd_command
  1242     141F                     l3338:
  1243                           
  1244                           ;atividade7.c: 48:     while (ADCON0bits.GO_DONE);
  1245     141F  3098               	movlw	(low (_buffer| (0+256)))& (0+255)
  1246     1420  1683               	bsf	3,5	;RP0=1, select bank1
  1247     1421  1303               	bcf	3,6	;RP1=0, select bank1
  1248     1422  00E1               	movwf	sprintf@s^(0+128)
  1249     1423  3001               	movlw	(low ((STR_2-__stringbase)| (0+32768)))& (0+255)
  1250     1424  00E2               	movwf	sprintf@fmt^(0+128)
  1251     1425  1683               	bsf	3,5	;RP0=1, select bank3
  1252     1426  1703               	bsf	3,6	;RP1=1, select bank3
  1253     1427  0837               	movf	(main@voltage+3)^(0+384),w
  1254     1428  1683               	bsf	3,5	;RP0=1, select bank1
  1255     1429  1303               	bcf	3,6	;RP1=0, select bank1
  1256     142A  00E6               	movwf	((?_sprintf+3)^(0+128)+2)
  1257     142B  1683               	bsf	3,5	;RP0=1, select bank3
  1258     142C  1703               	bsf	3,6	;RP1=1, select bank3
  1259     142D  0836               	movf	(main@voltage+2)^(0+384),w
  1260     142E  1683               	bsf	3,5	;RP0=1, select bank1
  1261     142F  1303               	bcf	3,6	;RP1=0, select bank1
  1262     1430  00E5               	movwf	((?_sprintf+2)^(0+128)+2)
  1263     1431  1683               	bsf	3,5	;RP0=1, select bank3
  1264     1432  1703               	bsf	3,6	;RP1=1, select bank3
  1265     1433  0835               	movf	(main@voltage+1)^(0+384),w
  1266     1434  1683               	bsf	3,5	;RP0=1, select bank1
  1267     1435  1303               	bcf	3,6	;RP1=0, select bank1
  1268     1436  00E4               	movwf	((?_sprintf+1)^(0+128)+2)
  1269     1437  1683               	bsf	3,5	;RP0=1, select bank3
  1270     1438  1703               	bsf	3,6	;RP1=1, select bank3
  1271     1439  0834               	movf	main@voltage^(0+384),w
  1272     143A  1683               	bsf	3,5	;RP0=1, select bank1
  1273     143B  1303               	bcf	3,6	;RP1=0, select bank1
  1274     143C  00E3               	movwf	(?_sprintf^(0+128)+2)
  1275     143D  160A  118A  200B  160A  118A  	fcall	_sprintf
  1276     1442                     l3340:
  1277                           
  1278                           ;atividade7.c: 49:     return ((unsigned int)ADRESH << 8) | ADRESL;
  1279     1442  3098               	movlw	(low (_buffer| (0+256)))& (0+255)
  1280     1443  00F3               	movwf	lcd_string@str
  1281     1444  160A  158A  261C  160A  118A  	fcall	_lcd_string
  1282     1449                     l3342:
  1283                           
  1284                           ;atividade7.c: 51: 
  1285     1449  300D               	movlw	13
  1286     144A  1683               	bsf	3,5	;RP0=1, select bank1
  1287     144B  1303               	bcf	3,6	;RP1=0, select bank1
  1288     144C  00EA               	movwf	(??_main^(0+128)+2)
  1289     144D  30AF               	movlw	175
  1290     144E  00E9               	movwf	(??_main^(0+128)+1)
  1291     144F  30B5               	movlw	181
  1292     1450  00E8               	movwf	??_main^(0+128)
  1293     1451                     u5137:
  1294     1451  0BE8               	decfsz	??_main^(0+128),f
  1295     1452  2C51               	goto	u5137
  1296     1453  0BE9               	decfsz	(??_main^(0+128)+1),f
  1297     1454  2C51               	goto	u5137
  1298     1455  0BEA               	decfsz	(??_main^(0+128)+2),f
  1299     1456  2C51               	goto	u5137
  1300     1457  2C58               	nop2
  1301     1458  2B94               	goto	l3326
  1302     1459  120A  118A  2800   	ljmp	start
  1303     145C                     __end_of_main:
  1304                           
  1305                           	psect	text1
  1306     100B                     __ptext1:	
  1307 ;; *************** function _sprintf *****************
  1308 ;; Defined at:
  1309 ;;		line 9 in file "C:\Program Files\Microchip\xc8\v2.50\pic\sources\c99\common\nf_sprintf.c"
  1310 ;; Parameters:    Size  Location     Type
  1311 ;;  s               1   65[BANK1 ] PTR unsigned char 
  1312 ;;		 -> buffer(16), 
  1313 ;;  fmt             1   66[BANK1 ] PTR const unsigned char 
  1314 ;;		 -> STR_2(10), STR_1(10), 
  1315 ;; Auto vars:     Size  Location     Type
  1316 ;;  f              11    1[BANK3 ] struct _IO_FILE
  1317 ;;  ret             2    0        int 
  1318 ;;  ap              1    0[BANK3 ] PTR void [1]
  1319 ;;		 -> ?_sprintf(2), 
  1320 ;; Return value:  Size  Location     Type
  1321 ;;                  2   65[BANK1 ] int 
  1322 ;; Registers used:
  1323 ;;		wreg, fsr0l, fsr0h, status,2, status,0, btemp+1, pclath, cstack
  1324 ;; Tracked objects:
  1325 ;;		On entry : 0/0
  1326 ;;		On exit  : 0/0
  1327 ;;		Unchanged: 0/0
  1328 ;; Data sizes:     COMMON   BANK0   BANK1   BANK3   BANK2
  1329 ;;      Params:         0       0       6       0       0
  1330 ;;      Locals:         0       0       0      12       0
  1331 ;;      Temps:          0       0       1       0       0
  1332 ;;      Totals:         0       0       7      12       0
  1333 ;;Total ram usage:       19 bytes
  1334 ;; Hardware stack levels used: 1
  1335 ;; Hardware stack levels required when called: 7
  1336 ;; This function calls:
  1337 ;;		_vfprintf
  1338 ;; This function is called by:
  1339 ;;		_main
  1340 ;; This function uses a non-reentrant model
  1341 ;;
  1342                           
  1343     100B                     _sprintf:	
  1344                           ;psect for function _sprintf
  1345                           
  1346     100B                     l3254:	
  1347                           ;incstack = 0
  1348                           ; Regs used in _sprintf: [wreg-fsr0h+status,2+status,0+btemp+1+pclath+cstack]
  1349                           
  1350     100B  30E3               	movlw	(low ((?_sprintf| 0+2)))& (0+255)
  1351     100C  1683               	bsf	3,5	;RP0=1, select bank3
  1352     100D  1703               	bsf	3,6	;RP1=1, select bank3
  1353     100E  00A8               	movwf	sprintf@ap^(0+384)
  1354     100F                     l3256:
  1355     100F  1683               	bsf	3,5	;RP0=1, select bank1
  1356     1010  1303               	bcf	3,6	;RP1=0, select bank1
  1357     1011  0861               	movf	sprintf@s^(0+128),w
  1358     1012  1683               	bsf	3,5	;RP0=1, select bank3
  1359     1013  1703               	bsf	3,6	;RP1=1, select bank3
  1360     1014  00A9               	movwf	sprintf@f^(0+384)
  1361     1015  3001               	movlw	1
  1362     1016  00AA               	movwf	(sprintf@f+1)^(0+384)
  1363     1017                     l3258:
  1364     1017  01AB               	clrf	(sprintf@f^(0+384)+2)
  1365     1018  01AC               	clrf	((sprintf@f+1)^(0+384)+2)
  1366     1019                     l3260:
  1367     1019  01B2               	clrf	(sprintf@f^(0+384)+9)
  1368     101A  01B3               	clrf	((sprintf@f+1)^(0+384)+9)
  1369     101B                     l3262:
  1370     101B  30A9               	movlw	low sprintf@f
  1371     101C  1683               	bsf	3,5	;RP0=1, select bank1
  1372     101D  1303               	bcf	3,6	;RP1=0, select bank1
  1373     101E  00DD               	movwf	vfprintf@fp^(0+128)
  1374     101F  3001               	movlw	high sprintf@f
  1375     1020  00DE               	movwf	(vfprintf@fp^(0+128)+1)
  1376     1021  0862               	movf	sprintf@fmt^(0+128),w
  1377     1022  00DF               	movwf	vfprintf@fmt^(0+128)
  1378     1023  30A8               	movlw	(low (sprintf@ap| (0+256)))& (0+255)
  1379     1024  00E0               	movwf	vfprintf@ap^(0+128)
  1380     1025  160A  158A  26E4  160A  118A  	fcall	_vfprintf
  1381     102A                     l3264:
  1382     102A  1683               	bsf	3,5	;RP0=1, select bank3
  1383     102B  1703               	bsf	3,6	;RP1=1, select bank3
  1384     102C  082B               	movf	(sprintf@f^(0+384)+2),w
  1385     102D  1683               	bsf	3,5	;RP0=1, select bank1
  1386     102E  1303               	bcf	3,6	;RP1=0, select bank1
  1387     102F  0761               	addwf	sprintf@s^(0+128),w
  1388     1030  00E7               	movwf	??_sprintf^(0+128)
  1389     1031  0867               	movf	??_sprintf^(0+128),w
  1390     1032  0084               	movwf	4
  1391     1033  1783               	bsf	3,7	;select IRP bank2
  1392     1034  0180               	clrf	0
  1393     1035                     l617:
  1394     1035  0008               	return
  1395     1036                     __end_of_sprintf:
  1396                           
  1397                           	psect	text2
  1398     1EE4                     __ptext2:	
  1399 ;; *************** function _vfprintf *****************
  1400 ;; Defined at:
  1401 ;;		line 1817 in file "C:\Program Files\Microchip\xc8\v2.50\pic\sources\c99\common\doprnt.c"
  1402 ;; Parameters:    Size  Location     Type
  1403 ;;  fp              2   61[BANK1 ] PTR struct _IO_FILE
  1404 ;;		 -> sprintf@f(11), 
  1405 ;;  fmt             1   63[BANK1 ] PTR const unsigned char 
  1406 ;;		 -> STR_2(10), STR_1(10), 
  1407 ;;  ap              1   64[BANK1 ] PTR PTR void 
  1408 ;;		 -> sprintf@ap(1), 
  1409 ;; Auto vars:     Size  Location     Type
  1410 ;;  cfmt            1   79[BANK0 ] PTR unsigned char 
  1411 ;;		 -> STR_2(10), STR_1(10), 
  1412 ;; Return value:  Size  Location     Type
  1413 ;;                  2   61[BANK1 ] int 
  1414 ;; Registers used:
  1415 ;;		wreg, fsr0l, fsr0h, status,2, status,0, btemp+1, pclath, cstack
  1416 ;; Tracked objects:
  1417 ;;		On entry : 0/0
  1418 ;;		On exit  : 0/0
  1419 ;;		Unchanged: 0/0
  1420 ;; Data sizes:     COMMON   BANK0   BANK1   BANK3   BANK2
  1421 ;;      Params:         0       0       4       0       0
  1422 ;;      Locals:         0       1       0       0       0
  1423 ;;      Temps:          0       0       0       0       0
  1424 ;;      Totals:         0       1       4       0       0
  1425 ;;Total ram usage:        5 bytes
  1426 ;; Hardware stack levels used: 1
  1427 ;; Hardware stack levels required when called: 6
  1428 ;; This function calls:
  1429 ;;		_vfpfcnvrt
  1430 ;; This function is called by:
  1431 ;;		_sprintf
  1432 ;; This function uses a non-reentrant model
  1433 ;;
  1434                           
  1435     1EE4                     _vfprintf:	
  1436                           ;psect for function _vfprintf
  1437                           
  1438     1EE4                     l3232:	
  1439                           ;incstack = 0
  1440 ;; using string table level
  1441                           ; Regs used in _vfprintf: [wreg-fsr0h+status,2+status,0+btemp+1+pclath+cstack]
  1442                           
  1443                           
  1444                           ;C:\Program Files\Microchip\xc8\v2.50\pic\sources\c99\common\doprnt.c: 1817: int vfprint
      +                          f(FILE *fp, const char *fmt, va_list ap);C:\Program Files\Microchip\xc8\v2.50\pic\source
      +                          s\c99\common\doprnt.c: 1818: {;C:\Program Files\Microchip\xc8\v2.50\pic\sources\c99\comm
      +                          on\doprnt.c: 1820:     char *cfmt;;C:\Program Files\Microchip\xc8\v2.50\pic\sources\c99\
      +                          common\doprnt.c: 1822:     cfmt = (char *)fmt;
  1445     1EE4  1683               	bsf	3,5	;RP0=1, select bank1
  1446     1EE5  1303               	bcf	3,6	;RP1=0, select bank1
  1447     1EE6  085F               	movf	vfprintf@fmt^(0+128),w
  1448     1EE7  1283               	bcf	3,5	;RP0=0, select bank0
  1449     1EE8  1303               	bcf	3,6	;RP1=0, select bank0
  1450     1EE9  00EF               	movwf	vfprintf@cfmt
  1451                           
  1452                           ;C:\Program Files\Microchip\xc8\v2.50\pic\sources\c99\common\doprnt.c: 1826:     while (
      +                          *cfmt) {
  1453     1EEA  2EFA               	goto	l3236
  1454     1EEB                     l3234:
  1455                           
  1456                           ;C:\Program Files\Microchip\xc8\v2.50\pic\sources\c99\common\doprnt.c: 1830:    vfpfcnvr
      +                          t(fp, &cfmt, ap);
  1457     1EEB  1683               	bsf	3,5	;RP0=1, select bank1
  1458     1EEC  1303               	bcf	3,6	;RP1=0, select bank1
  1459     1EED  085D               	movf	vfprintf@fp^(0+128),w
  1460     1EEE  00D0               	movwf	vfpfcnvrt@fp^(0+128)
  1461     1EEF  085E               	movf	(vfprintf@fp+1)^(0+128),w
  1462     1EF0  00D1               	movwf	(vfpfcnvrt@fp+1)^(0+128)
  1463     1EF1  306F               	movlw	(low (vfprintf@cfmt| 0))& (0+255)
  1464     1EF2  00D2               	movwf	vfpfcnvrt@fmt^(0+128)
  1465     1EF3  0860               	movf	vfprintf@ap^(0+128),w
  1466     1EF4  00D3               	movwf	vfpfcnvrt@ap^(0+128)
  1467     1EF5  160A  118A  2676  160A  158A  	fcall	_vfpfcnvrt
  1468     1EFA                     l3236:
  1469                           
  1470                           ;C:\Program Files\Microchip\xc8\v2.50\pic\sources\c99\common\doprnt.c: 1826:     while (
      +                          *cfmt) {
  1471     1EFA  1283               	bcf	3,5	;RP0=0, select bank0
  1472     1EFB  1303               	bcf	3,6	;RP1=0, select bank0
  1473     1EFC  086F               	movf	vfprintf@cfmt,w
  1474     1EFD  0084               	movwf	4
  1475     1EFE  160A  158A  2000  160A  158A  	fcall	stringdir
  1476     1F03  3A00               	xorlw	0
  1477     1F04  1D03               	skipz
  1478     1F05  2F07               	goto	u4961
  1479     1F06  2F08               	goto	u4960
  1480     1F07                     u4961:
  1481     1F07  2EEB               	goto	l3234
  1482     1F08                     u4960:
  1483     1F08                     l3238:
  1484                           
  1485                           ;C:\Program Files\Microchip\xc8\v2.50\pic\sources\c99\common\doprnt.c: 1835:  return 0;
  1486     1F08  1683               	bsf	3,5	;RP0=1, select bank1
  1487     1F09  1303               	bcf	3,6	;RP1=0, select bank1
  1488     1F0A  01DD               	clrf	?_vfprintf^(0+128)
  1489     1F0B  01DE               	clrf	(?_vfprintf+1)^(0+128)
  1490     1F0C                     l772:
  1491     1F0C  0008               	return
  1492     1F0D                     __end_of_vfprintf:
  1493                           
  1494                           	psect	text3
  1495     1676                     __ptext3:	
  1496 ;; *************** function _vfpfcnvrt *****************
  1497 ;; Defined at:
  1498 ;;		line 1177 in file "C:\Program Files\Microchip\xc8\v2.50\pic\sources\c99\common\doprnt.c"
  1499 ;; Parameters:    Size  Location     Type
  1500 ;;  fp              2   48[BANK1 ] PTR struct _IO_FILE
  1501 ;;		 -> sprintf@f(11), 
  1502 ;;  fmt             1   50[BANK1 ] PTR PTR unsigned char 
  1503 ;;		 -> vfprintf@cfmt(1), 
  1504 ;;  ap              1   51[BANK1 ] PTR PTR void 
  1505 ;;		 -> sprintf@ap(1), 
  1506 ;; Auto vars:     Size  Location     Type
  1507 ;;  convarg         4   55[BANK1 ] struct .
  1508 ;;  cp              1   60[BANK1 ] PTR unsigned char 
  1509 ;;		 -> STR_2(10), STR_1(10), 
  1510 ;;  c               1   59[BANK1 ] unsigned char 
  1511 ;;  done            1   54[BANK1 ] _Bool 
  1512 ;; Return value:  Size  Location     Type
  1513 ;;                  1    wreg      void 
  1514 ;; Registers used:
  1515 ;;		wreg, fsr0l, fsr0h, status,2, status,0, btemp+1, pclath, cstack
  1516 ;; Tracked objects:
  1517 ;;		On entry : 0/0
  1518 ;;		On exit  : 0/0
  1519 ;;		Unchanged: 0/0
  1520 ;; Data sizes:     COMMON   BANK0   BANK1   BANK3   BANK2
  1521 ;;      Params:         0       0       4       0       0
  1522 ;;      Locals:         0       0       7       0       0
  1523 ;;      Temps:          0       0       2       0       0
  1524 ;;      Totals:         0       0      13       0       0
  1525 ;;Total ram usage:       13 bytes
  1526 ;; Hardware stack levels used: 1
  1527 ;; Hardware stack levels required when called: 5
  1528 ;; This function calls:
  1529 ;;		_efgtoa
  1530 ;;		_fputc
  1531 ;;		_read_prec_or_width
  1532 ;;		_utoa
  1533 ;; This function is called by:
  1534 ;;		_vfprintf
  1535 ;; This function uses a non-reentrant model
  1536 ;;
  1537                           
  1538     1676                     _vfpfcnvrt:	
  1539                           ;psect for function _vfpfcnvrt
  1540                           
  1541     1676                     l3126:	
  1542                           ;incstack = 0
  1543 ;; using string table level
  1544                           ; Regs used in _vfpfcnvrt: [wreg-fsr0h+status,2+status,0+btemp+1+pclath+cstack]
  1545                           
  1546                           
  1547                           ;C:\Program Files\Microchip\xc8\v2.50\pic\sources\c99\common\doprnt.c: 1177: vfpfcnvrt(F
      +                          ILE *fp, char *fmt[], va_list ap);C:\Program Files\Microchip\xc8\v2.50\pic\sources\c99\c
      +                          ommon\doprnt.c: 1178: {;C:\Program Files\Microchip\xc8\v2.50\pic\sources\c99\common\dopr
      +                          nt.c: 1179:     char c, *cp;;C:\Program Files\Microchip\xc8\v2.50\pic\sources\c99\common
      +                          \doprnt.c: 1180:     _Bool done;;C:\Program Files\Microchip\xc8\v2.50\pic\sources\c99\co
      +                          mmon\doprnt.c: 1188:  } convarg;;C:\Program Files\Microchip\xc8\v2.50\pic\sources\c99\co
      +                          mmon\doprnt.c: 1201:     if ((*fmt)[0] == '%') {
  1548     1676  1683               	bsf	3,5	;RP0=1, select bank1
  1549     1677  1303               	bcf	3,6	;RP1=0, select bank1
  1550     1678  0852               	movf	vfpfcnvrt@fmt^(0+128),w
  1551     1679  0084               	movwf	4
  1552     167A  1383               	bcf	3,7	;select IRP bank0
  1553     167B  0800               	movf	0,w
  1554     167C  0084               	movwf	4
  1555     167D  160A  158A  2000  160A  118A  	fcall	stringdir
  1556     1682  3A25               	xorlw	37
  1557     1683  1D03               	skipz
  1558     1684  2E86               	goto	u4901
  1559     1685  2E87               	goto	u4900
  1560     1686                     u4901:
  1561     1686  2FE6               	goto	l3210
  1562     1687                     u4900:
  1563     1687                     l3128:
  1564                           
  1565                           ;C:\Program Files\Microchip\xc8\v2.50\pic\sources\c99\common\doprnt.c: 1202:         ++*
      +                          fmt;
  1566     1687  0852               	movf	vfpfcnvrt@fmt^(0+128),w
  1567     1688  0084               	movwf	4
  1568     1689  3001               	movlw	1
  1569     168A  0780               	addwf	0,f
  1570     168B                     l3130:
  1571                           
  1572                           ;C:\Program Files\Microchip\xc8\v2.50\pic\sources\c99\common\doprnt.c: 1204:         fla
      +                          gs = width = 0;
  1573     168B  01EB               	clrf	_width^(0+128)
  1574     168C  01EC               	clrf	(_width+1)^(0+128)
  1575     168D  3000               	movlw	0
  1576     168E  00EF               	movwf	_flags^(0+128)
  1577     168F                     l3132:
  1578                           
  1579                           ;C:\Program Files\Microchip\xc8\v2.50\pic\sources\c99\common\doprnt.c: 1205:         pre
      +                          c = -1;
  1580     168F  30FF               	movlw	255
  1581     1690  00ED               	movwf	_prec^(0+128)
  1582     1691  30FF               	movlw	255
  1583     1692  00EE               	movwf	(_prec^(0+128)+1)
  1584     1693                     l3134:
  1585                           
  1586                           ;C:\Program Files\Microchip\xc8\v2.50\pic\sources\c99\common\doprnt.c: 1209:         don
      +                          e = 0;
  1587     1693  01D6               	clrf	vfpfcnvrt@done^(0+128)
  1588                           
  1589                           ;C:\Program Files\Microchip\xc8\v2.50\pic\sources\c99\common\doprnt.c: 1210:         whi
      +                          le (!done) {
  1590     1694  2EAB               	goto	l3142
  1591     1695                     l738:	
  1592                           ;C:\Program Files\Microchip\xc8\v2.50\pic\sources\c99\common\doprnt.c: 1219:            
      +                               case '0' :
  1593                           
  1594                           
  1595                           ;C:\Program Files\Microchip\xc8\v2.50\pic\sources\c99\common\doprnt.c: 1220:            
      +                                   flags |= (1 << 1);
  1596     1695  14EF               	bsf	_flags^(0+128),1
  1597     1696                     l3136:
  1598                           
  1599                           ;C:\Program Files\Microchip\xc8\v2.50\pic\sources\c99\common\doprnt.c: 1221:            
      +                                   ++*fmt;
  1600     1696  0852               	movf	vfpfcnvrt@fmt^(0+128),w
  1601     1697  0084               	movwf	4
  1602     1698  3001               	movlw	1
  1603     1699  0780               	addwf	0,f
  1604                           
  1605                           ;C:\Program Files\Microchip\xc8\v2.50\pic\sources\c99\common\doprnt.c: 1222:            
      +                                   break;
  1606     169A  2EAB               	goto	l3142
  1607     169B                     l740:	
  1608                           ;C:\Program Files\Microchip\xc8\v2.50\pic\sources\c99\common\doprnt.c: 1242:            
      +                               default:
  1609                           
  1610                           
  1611                           ;C:\Program Files\Microchip\xc8\v2.50\pic\sources\c99\common\doprnt.c: 1243:            
      +                                   done = 1;
  1612     169B  3001               	movlw	1
  1613     169C  00D6               	movwf	vfpfcnvrt@done^(0+128)
  1614                           
  1615                           ;C:\Program Files\Microchip\xc8\v2.50\pic\sources\c99\common\doprnt.c: 1244:            
      +                                   break;
  1616     169D  2EAB               	goto	l3142
  1617     169E                     l3140:
  1618     169E  0852               	movf	vfpfcnvrt@fmt^(0+128),w
  1619     169F  0084               	movwf	4
  1620     16A0  0800               	movf	0,w
  1621     16A1  0084               	movwf	4
  1622     16A2  160A  158A  2000  160A  118A  	fcall	stringdir
  1623                           
  1624                           ; Switch size 1, requested type "simple"
  1625                           ; Number of cases is 1, Range of values is 48 to 48
  1626                           ; switch strategies available:
  1627                           ; Name         Instructions Cycles
  1628                           ; simple_byte            4     3 (average)
  1629                           ; direct_byte           14    11 (fixed)
  1630                           ; jumptable            263     9 (fixed)
  1631                           ;	Chosen strategy is simple_byte
  1632     16A7  3A30               	xorlw	48	; case 48
  1633     16A8  1903               	skipnz
  1634     16A9  2E95               	goto	l738
  1635     16AA  2E9B               	goto	l740
  1636     16AB                     l3142:
  1637                           
  1638                           ;C:\Program Files\Microchip\xc8\v2.50\pic\sources\c99\common\doprnt.c: 1210:         whi
      +                          le (!done) {
  1639     16AB  0856               	movf	vfpfcnvrt@done^(0+128),w
  1640     16AC  1903               	btfsc	3,2
  1641     16AD  2EAF               	goto	u4911
  1642     16AE  2EB0               	goto	u4910
  1643     16AF                     u4911:
  1644     16AF  2E9E               	goto	l3140
  1645     16B0                     u4910:
  1646     16B0                     l3144:
  1647                           
  1648                           ;C:\Program Files\Microchip\xc8\v2.50\pic\sources\c99\common\doprnt.c: 1256:   width = r
      +                          ead_prec_or_width(fmt, ap);
  1649     16B0  0852               	movf	vfpfcnvrt@fmt^(0+128),w
  1650     16B1  00F6               	movwf	read_prec_or_width@fmt
  1651     16B2  0853               	movf	vfpfcnvrt@ap^(0+128),w
  1652     16B3  00F7               	movwf	read_prec_or_width@ap
  1653     16B4  160A  118A  2036  160A  118A  	fcall	_read_prec_or_width
  1654     16B9  0877               	movf	?_read_prec_or_width+1,w
  1655     16BA  1683               	bsf	3,5	;RP0=1, select bank1
  1656     16BB  1303               	bcf	3,6	;RP1=0, select bank1
  1657     16BC  00EC               	movwf	(_width+1)^(0+128)
  1658     16BD  0876               	movf	?_read_prec_or_width,w
  1659     16BE  00EB               	movwf	_width^(0+128)
  1660     16BF                     l3146:
  1661                           
  1662                           ;C:\Program Files\Microchip\xc8\v2.50\pic\sources\c99\common\doprnt.c: 1257:   if (width
      +                           < 0) {
  1663     16BF  1FEC               	btfss	(_width+1)^(0+128),7
  1664     16C0  2EC2               	goto	u4921
  1665     16C1  2EC3               	goto	u4920
  1666     16C2                     u4921:
  1667     16C2  2EC9               	goto	l3152
  1668     16C3                     u4920:
  1669     16C3                     l3148:
  1670                           
  1671                           ;C:\Program Files\Microchip\xc8\v2.50\pic\sources\c99\common\doprnt.c: 1258:    flags |=
      +                           (1 << 0);
  1672     16C3  146F               	bsf	_flags^(0+128),0
  1673     16C4                     l3150:
  1674                           
  1675                           ;C:\Program Files\Microchip\xc8\v2.50\pic\sources\c99\common\doprnt.c: 1259:    width = 
      +                          -width;
  1676     16C4  09EB               	comf	_width^(0+128),f
  1677     16C5  09EC               	comf	(_width+1)^(0+128),f
  1678     16C6  0AEB               	incf	_width^(0+128),f
  1679     16C7  1903               	skipnz
  1680     16C8  0AEC               	incf	(_width+1)^(0+128),f
  1681     16C9                     l3152:
  1682                           
  1683                           ;C:\Program Files\Microchip\xc8\v2.50\pic\sources\c99\common\doprnt.c: 1265:         if 
      +                          ((*fmt)[0] == '.') {
  1684     16C9  0852               	movf	vfpfcnvrt@fmt^(0+128),w
  1685     16CA  0084               	movwf	4
  1686     16CB  1383               	bcf	3,7	;select IRP bank0
  1687     16CC  0800               	movf	0,w
  1688     16CD  0084               	movwf	4
  1689     16CE  160A  158A  2000  160A  118A  	fcall	stringdir
  1690     16D3  3A2E               	xorlw	46
  1691     16D4  1D03               	skipz
  1692     16D5  2ED7               	goto	u4931
  1693     16D6  2ED8               	goto	u4930
  1694     16D7                     u4931:
  1695     16D7  2EEB               	goto	l3158
  1696     16D8                     u4930:
  1697     16D8                     l3154:
  1698                           
  1699                           ;C:\Program Files\Microchip\xc8\v2.50\pic\sources\c99\common\doprnt.c: 1266:            
      +                           ++*fmt;
  1700     16D8  0852               	movf	vfpfcnvrt@fmt^(0+128),w
  1701     16D9  0084               	movwf	4
  1702     16DA  3001               	movlw	1
  1703     16DB  0780               	addwf	0,f
  1704     16DC                     l3156:
  1705                           
  1706                           ;C:\Program Files\Microchip\xc8\v2.50\pic\sources\c99\common\doprnt.c: 1267:    prec = r
      +                          ead_prec_or_width(fmt, ap);
  1707     16DC  0852               	movf	vfpfcnvrt@fmt^(0+128),w
  1708     16DD  00F6               	movwf	read_prec_or_width@fmt
  1709     16DE  0853               	movf	vfpfcnvrt@ap^(0+128),w
  1710     16DF  00F7               	movwf	read_prec_or_width@ap
  1711     16E0  160A  118A  2036  160A  118A  	fcall	_read_prec_or_width
  1712     16E5  0877               	movf	?_read_prec_or_width+1,w
  1713     16E6  1683               	bsf	3,5	;RP0=1, select bank1
  1714     16E7  1303               	bcf	3,6	;RP1=0, select bank1
  1715     16E8  00EE               	movwf	(_prec+1)^(0+128)
  1716     16E9  0876               	movf	?_read_prec_or_width,w
  1717     16EA  00ED               	movwf	_prec^(0+128)
  1718     16EB                     l3158:
  1719                           
  1720                           ;C:\Program Files\Microchip\xc8\v2.50\pic\sources\c99\common\doprnt.c: 1439:   if (0
  1721     16EB  0852               	movf	vfpfcnvrt@fmt^(0+128),w
  1722     16EC  0084               	movwf	4
  1723     16ED  1383               	bcf	3,7	;select IRP bank0
  1724     16EE  0800               	movf	0,w
  1725     16EF  00DC               	movwf	vfpfcnvrt@cp^(0+128)
  1726     16F0                     l3160:
  1727     16F0  085C               	movf	vfpfcnvrt@cp^(0+128),w
  1728     16F1  0084               	movwf	4
  1729     16F2  160A  158A  2000  160A  118A  	fcall	stringdir
  1730     16F7  3A75               	xorlw	117
  1731     16F8  1D03               	skipz
  1732     16F9  2EFB               	goto	u4941
  1733     16FA  2EFC               	goto	u4940
  1734     16FB                     u4941:
  1735     16FB  2F38               	goto	l3174
  1736     16FC                     u4940:
  1737     16FC                     l3162:
  1738                           
  1739                           ;C:\Program Files\Microchip\xc8\v2.50\pic\sources\c99\common\doprnt.c: 1452:     ) {;C:\
      +                          Program Files\Microchip\xc8\v2.50\pic\sources\c99\common\doprnt.c: 1495:    convarg.uint
      +                           = (vfpf_uint_t)(unsigned int)(*(unsigned int *)__va_arg(*(unsigned int **)ap, (unsigned
      +                           int)0));
  1740     16FC  0853               	movf	vfpfcnvrt@ap^(0+128),w
  1741     16FD  0084               	movwf	4
  1742     16FE  1783               	bsf	3,7	;select IRP bank2
  1743     16FF  0800               	movf	0,w
  1744     1700  00FF               	movwf	btemp+1
  1745     1701  3002               	movlw	2
  1746     1702  0780               	addwf	0,f
  1747     1703  087F               	movf	btemp+1,w
  1748     1704  0084               	movwf	4
  1749     1705  1383               	bcf	3,7	;select IRP bank0
  1750     1706  0800               	movf	0,w
  1751     1707  00D7               	movwf	vfpfcnvrt@convarg^(0+128)
  1752     1708  0A84               	incf	4,f
  1753     1709  0800               	movf	0,w
  1754     170A  00D8               	movwf	(vfpfcnvrt@convarg+1)^(0+128)
  1755     170B                     l3164:
  1756                           
  1757                           ;C:\Program Files\Microchip\xc8\v2.50\pic\sources\c99\common\doprnt.c: 1497:    *fmt = c
      +                          p+1;
  1758     170B  0852               	movf	vfpfcnvrt@fmt^(0+128),w
  1759     170C  0084               	movwf	4
  1760     170D  085C               	movf	vfpfcnvrt@cp^(0+128),w
  1761     170E  3E01               	addlw	1
  1762     170F  0080               	movwf	0
  1763                           
  1764                           ;C:\Program Files\Microchip\xc8\v2.50\pic\sources\c99\common\doprnt.c: 1498:    switch (
      +                          *cp) {
  1765     1710  2F2D               	goto	l3172
  1766     1711                     l3166:
  1767                           
  1768                           ;C:\Program Files\Microchip\xc8\v2.50\pic\sources\c99\common\doprnt.c: 1542:      return
      +                           (void) utoa(fp, convarg.uint);;	Return value of _vfpfcnvrt is never used
  1769     1711  0850               	movf	vfpfcnvrt@fp^(0+128),w
  1770     1712  1283               	bcf	3,5	;RP0=0, select bank0
  1771     1713  1303               	bcf	3,6	;RP1=0, select bank0
  1772     1714  00AF               	movwf	utoa@fp
  1773     1715  1683               	bsf	3,5	;RP0=1, select bank1
  1774     1716  1303               	bcf	3,6	;RP1=0, select bank1
  1775     1717  0851               	movf	(vfpfcnvrt@fp+1)^(0+128),w
  1776     1718  1283               	bcf	3,5	;RP0=0, select bank0
  1777     1719  1303               	bcf	3,6	;RP1=0, select bank0
  1778     171A  00B0               	movwf	utoa@fp+1
  1779     171B  1683               	bsf	3,5	;RP0=1, select bank1
  1780     171C  1303               	bcf	3,6	;RP1=0, select bank1
  1781     171D  0858               	movf	(vfpfcnvrt@convarg+1)^(0+128),w
  1782     171E  1283               	bcf	3,5	;RP0=0, select bank0
  1783     171F  1303               	bcf	3,6	;RP1=0, select bank0
  1784     1720  00B2               	movwf	utoa@d+1
  1785     1721  1683               	bsf	3,5	;RP0=1, select bank1
  1786     1722  1303               	bcf	3,6	;RP1=0, select bank1
  1787     1723  0857               	movf	vfpfcnvrt@convarg^(0+128),w
  1788     1724  1283               	bcf	3,5	;RP0=0, select bank0
  1789     1725  1303               	bcf	3,6	;RP1=0, select bank0
  1790     1726  00B1               	movwf	utoa@d
  1791     1727  160A  118A  2220  160A  118A  	fcall	_utoa
  1792     172C  2FFF               	goto	l749
  1793     172D                     l3172:
  1794     172D  085C               	movf	vfpfcnvrt@cp^(0+128),w
  1795     172E  0084               	movwf	4
  1796     172F  160A  158A  2000  160A  118A  	fcall	stringdir
  1797                           
  1798                           ; Switch size 1, requested type "simple"
  1799                           ; Number of cases is 1, Range of values is 117 to 117
  1800                           ; switch strategies available:
  1801                           ; Name         Instructions Cycles
  1802                           ; simple_byte            4     3 (average)
  1803                           ; direct_byte           14    11 (fixed)
  1804                           ; jumptable            263     9 (fixed)
  1805                           ;	Chosen strategy is simple_byte
  1806     1734  3A75               	xorlw	117	; case 117
  1807     1735  1903               	skipnz
  1808     1736  2F11               	goto	l3166
  1809     1737  2F38               	goto	l3174
  1810     1738                     l3174:
  1811                           
  1812                           ;C:\Program Files\Microchip\xc8\v2.50\pic\sources\c99\common\doprnt.c: 1689:   cp = *fmt
      +                          ;
  1813     1738  0852               	movf	vfpfcnvrt@fmt^(0+128),w
  1814     1739  0084               	movwf	4
  1815     173A  0800               	movf	0,w
  1816     173B  00DC               	movwf	vfpfcnvrt@cp^(0+128)
  1817     173C                     l3176:
  1818                           
  1819                           ;C:\Program Files\Microchip\xc8\v2.50\pic\sources\c99\common\doprnt.c: 1690:   c = *cp;
  1820     173C  085C               	movf	vfpfcnvrt@cp^(0+128),w
  1821     173D  0084               	movwf	4
  1822     173E  160A  158A  2000  160A  118A  	fcall	stringdir
  1823     1743  00DB               	movwf	vfpfcnvrt@c^(0+128)
  1824                           
  1825                           ;C:\Program Files\Microchip\xc8\v2.50\pic\sources\c99\common\doprnt.c: 1691:   switch(c)
      +                           {
  1826     1744  2F4D               	goto	l3184
  1827     1745                     l3178:
  1828                           
  1829                           ;C:\Program Files\Microchip\xc8\v2.50\pic\sources\c99\common\doprnt.c: 1695:     cp++;
  1830     1745  3001               	movlw	1
  1831     1746  07DC               	addwf	vfpfcnvrt@cp^(0+128),f
  1832                           
  1833                           ;C:\Program Files\Microchip\xc8\v2.50\pic\sources\c99\common\doprnt.c: 1696:     break;
  1834     1747  2F58               	goto	l3186
  1835     1748                     l755:	
  1836                           ;C:\Program Files\Microchip\xc8\v2.50\pic\sources\c99\common\doprnt.c: 1710:    case 'f'
      +                          :
  1837                           
  1838                           
  1839                           ;C:\Program Files\Microchip\xc8\v2.50\pic\sources\c99\common\doprnt.c: 1721:     c = 'l'
      +                          ;
  1840     1748  306C               	movlw	108
  1841     1749  00DB               	movwf	vfpfcnvrt@c^(0+128)
  1842                           
  1843                           ;C:\Program Files\Microchip\xc8\v2.50\pic\sources\c99\common\doprnt.c: 1722:     break;
  1844     174A  2F58               	goto	l3186
  1845     174B                     l3180:
  1846                           
  1847                           ;C:\Program Files\Microchip\xc8\v2.50\pic\sources\c99\common\doprnt.c: 1724:     c = 0;
  1848     174B  01DB               	clrf	vfpfcnvrt@c^(0+128)
  1849                           
  1850                           ;C:\Program Files\Microchip\xc8\v2.50\pic\sources\c99\common\doprnt.c: 1725:     break;
  1851     174C  2F58               	goto	l3186
  1852     174D                     l3184:
  1853     174D  085B               	movf	vfpfcnvrt@c^(0+128),w
  1854                           
  1855                           ; Switch size 1, requested type "simple"
  1856                           ; Number of cases is 3, Range of values is 76 to 108
  1857                           ; switch strategies available:
  1858                           ; Name         Instructions Cycles
  1859                           ; simple_byte           10     6 (average)
  1860                           ; direct_byte          110    11 (fixed)
  1861                           ; jumptable            263     9 (fixed)
  1862                           ;	Chosen strategy is simple_byte
  1863     174E  3A4C               	xorlw	76	; case 76
  1864     174F  1903               	skipnz
  1865     1750  2F45               	goto	l3178
  1866     1751  3A2A               	xorlw	42	; case 102
  1867     1752  1903               	skipnz
  1868     1753  2F48               	goto	l755
  1869     1754  3A0A               	xorlw	10	; case 108
  1870     1755  1903               	skipnz
  1871     1756  2F45               	goto	l3178
  1872     1757  2F4B               	goto	l3180
  1873     1758                     l3186:
  1874     1758  085C               	movf	vfpfcnvrt@cp^(0+128),w
  1875     1759  0084               	movwf	4
  1876     175A  160A  158A  2000  160A  118A  	fcall	stringdir
  1877     175F  3A66               	xorlw	102
  1878     1760  1D03               	skipz
  1879     1761  2F63               	goto	u4951
  1880     1762  2F64               	goto	u4950
  1881     1763                     u4951:
  1882     1763  2FDE               	goto	l3206
  1883     1764                     u4950:
  1884     1764  2F91               	goto	l3194
  1885     1765                     l3188:
  1886                           
  1887                           ;C:\Program Files\Microchip\xc8\v2.50\pic\sources\c99\common\doprnt.c: 1756:      convar
      +                          g.f = (long double)(*(double *)__va_arg(*(double **)ap, (double)0));
  1888     1765  0853               	movf	vfpfcnvrt@ap^(0+128),w
  1889     1766  0084               	movwf	4
  1890     1767  1783               	bsf	3,7	;select IRP bank2
  1891     1768  0800               	movf	0,w
  1892     1769  00FF               	movwf	btemp+1
  1893     176A  3004               	movlw	4
  1894     176B  0780               	addwf	0,f
  1895     176C  087F               	movf	btemp+1,w
  1896     176D  0084               	movwf	4
  1897     176E  1383               	bcf	3,7	;select IRP bank0
  1898     176F  0800               	movf	0,w
  1899     1770  00D7               	movwf	vfpfcnvrt@convarg^(0+128)
  1900     1771  0A84               	incf	4,f
  1901     1772  0800               	movf	0,w
  1902     1773  00D8               	movwf	(vfpfcnvrt@convarg+1)^(0+128)
  1903     1774  0A84               	incf	4,f
  1904     1775  0800               	movf	0,w
  1905     1776  00D9               	movwf	(vfpfcnvrt@convarg+2)^(0+128)
  1906     1777  0A84               	incf	4,f
  1907     1778  0800               	movf	0,w
  1908     1779  00DA               	movwf	(vfpfcnvrt@convarg+3)^(0+128)
  1909                           
  1910                           ;C:\Program Files\Microchip\xc8\v2.50\pic\sources\c99\common\doprnt.c: 1757:      break;
  1911     177A  2F99               	goto	l3196
  1912     177B                     l3190:
  1913                           
  1914                           ;C:\Program Files\Microchip\xc8\v2.50\pic\sources\c99\common\doprnt.c: 1759:      convar
      +                          g.f = (long double)(*(long double *)__va_arg(*(long double **)ap, (long double)0));
  1915     177B  0853               	movf	vfpfcnvrt@ap^(0+128),w
  1916     177C  0084               	movwf	4
  1917     177D  1783               	bsf	3,7	;select IRP bank2
  1918     177E  0800               	movf	0,w
  1919     177F  00FF               	movwf	btemp+1
  1920     1780  3004               	movlw	4
  1921     1781  0780               	addwf	0,f
  1922     1782  087F               	movf	btemp+1,w
  1923     1783  0084               	movwf	4
  1924     1784  1383               	bcf	3,7	;select IRP bank0
  1925     1785  0800               	movf	0,w
  1926     1786  00D7               	movwf	vfpfcnvrt@convarg^(0+128)
  1927     1787  0A84               	incf	4,f
  1928     1788  0800               	movf	0,w
  1929     1789  00D8               	movwf	(vfpfcnvrt@convarg+1)^(0+128)
  1930     178A  0A84               	incf	4,f
  1931     178B  0800               	movf	0,w
  1932     178C  00D9               	movwf	(vfpfcnvrt@convarg+2)^(0+128)
  1933     178D  0A84               	incf	4,f
  1934     178E  0800               	movf	0,w
  1935     178F  00DA               	movwf	(vfpfcnvrt@convarg+3)^(0+128)
  1936                           
  1937                           ;C:\Program Files\Microchip\xc8\v2.50\pic\sources\c99\common\doprnt.c: 1760:      break;
  1938     1790  2F99               	goto	l3196
  1939     1791                     l3194:
  1940     1791  085B               	movf	vfpfcnvrt@c^(0+128),w
  1941                           
  1942                           ; Switch size 1, requested type "simple"
  1943                           ; Number of cases is 2, Range of values is 76 to 108
  1944                           ; switch strategies available:
  1945                           ; Name         Instructions Cycles
  1946                           ; simple_byte            7     4 (average)
  1947                           ; direct_byte          110    11 (fixed)
  1948                           ; jumptable            263     9 (fixed)
  1949                           ;	Chosen strategy is simple_byte
  1950     1792  3A4C               	xorlw	76	; case 76
  1951     1793  1903               	skipnz
  1952     1794  2F7B               	goto	l3190
  1953     1795  3A20               	xorlw	32	; case 108
  1954     1796  1903               	skipnz
  1955     1797  2F65               	goto	l3188
  1956     1798  2F99               	goto	l3196
  1957     1799                     l3196:
  1958                           
  1959                           ;C:\Program Files\Microchip\xc8\v2.50\pic\sources\c99\common\doprnt.c: 1762:    *fmt = c
      +                          p+1;
  1960     1799  0852               	movf	vfpfcnvrt@fmt^(0+128),w
  1961     179A  0084               	movwf	4
  1962     179B  085C               	movf	vfpfcnvrt@cp^(0+128),w
  1963     179C  3E01               	addlw	1
  1964     179D  0080               	movwf	0
  1965                           
  1966                           ;C:\Program Files\Microchip\xc8\v2.50\pic\sources\c99\common\doprnt.c: 1763:    switch (
      +                          *cp) {
  1967     179E  2FD3               	goto	l3204
  1968     179F                     l3198:
  1969                           
  1970                           ;C:\Program Files\Microchip\xc8\v2.50\pic\sources\c99\common\doprnt.c: 1790:      return
      +                           (void) efgtoa(fp, convarg.f, *cp);;	Return value of _vfpfcnvrt is never used
  1971     179F  0850               	movf	vfpfcnvrt@fp^(0+128),w
  1972     17A0  1283               	bcf	3,5	;RP0=0, select bank0
  1973     17A1  1303               	bcf	3,6	;RP1=0, select bank0
  1974     17A2  00E8               	movwf	efgtoa@fp
  1975     17A3  1683               	bsf	3,5	;RP0=1, select bank1
  1976     17A4  1303               	bcf	3,6	;RP1=0, select bank1
  1977     17A5  0851               	movf	(vfpfcnvrt@fp+1)^(0+128),w
  1978     17A6  1283               	bcf	3,5	;RP0=0, select bank0
  1979     17A7  1303               	bcf	3,6	;RP1=0, select bank0
  1980     17A8  00E9               	movwf	efgtoa@fp+1
  1981     17A9  1683               	bsf	3,5	;RP0=1, select bank1
  1982     17AA  1303               	bcf	3,6	;RP1=0, select bank1
  1983     17AB  085A               	movf	(vfpfcnvrt@convarg+3)^(0+128),w
  1984     17AC  1283               	bcf	3,5	;RP0=0, select bank0
  1985     17AD  1303               	bcf	3,6	;RP1=0, select bank0
  1986     17AE  00ED               	movwf	efgtoa@f+3
  1987     17AF  1683               	bsf	3,5	;RP0=1, select bank1
  1988     17B0  1303               	bcf	3,6	;RP1=0, select bank1
  1989     17B1  0859               	movf	(vfpfcnvrt@convarg+2)^(0+128),w
  1990     17B2  1283               	bcf	3,5	;RP0=0, select bank0
  1991     17B3  1303               	bcf	3,6	;RP1=0, select bank0
  1992     17B4  00EC               	movwf	efgtoa@f+2
  1993     17B5  1683               	bsf	3,5	;RP0=1, select bank1
  1994     17B6  1303               	bcf	3,6	;RP1=0, select bank1
  1995     17B7  0858               	movf	(vfpfcnvrt@convarg+1)^(0+128),w
  1996     17B8  1283               	bcf	3,5	;RP0=0, select bank0
  1997     17B9  1303               	bcf	3,6	;RP1=0, select bank0
  1998     17BA  00EB               	movwf	efgtoa@f+1
  1999     17BB  1683               	bsf	3,5	;RP0=1, select bank1
  2000     17BC  1303               	bcf	3,6	;RP1=0, select bank1
  2001     17BD  0857               	movf	vfpfcnvrt@convarg^(0+128),w
  2002     17BE  1283               	bcf	3,5	;RP0=0, select bank0
  2003     17BF  1303               	bcf	3,6	;RP1=0, select bank0
  2004     17C0  00EA               	movwf	efgtoa@f
  2005     17C1  1683               	bsf	3,5	;RP0=1, select bank1
  2006     17C2  1303               	bcf	3,6	;RP1=0, select bank1
  2007     17C3  085C               	movf	vfpfcnvrt@cp^(0+128),w
  2008     17C4  0084               	movwf	4
  2009     17C5  160A  158A  2000  160A  118A  	fcall	stringdir
  2010     17CA  1283               	bcf	3,5	;RP0=0, select bank0
  2011     17CB  1303               	bcf	3,6	;RP1=0, select bank0
  2012     17CC  00EE               	movwf	efgtoa@c
  2013     17CD  160A  118A  245C  160A  118A  	fcall	_efgtoa
  2014     17D2  2FFF               	goto	l749
  2015     17D3                     l3204:
  2016     17D3  085C               	movf	vfpfcnvrt@cp^(0+128),w
  2017     17D4  0084               	movwf	4
  2018     17D5  160A  158A  2000  160A  118A  	fcall	stringdir
  2019                           
  2020                           ; Switch size 1, requested type "simple"
  2021                           ; Number of cases is 1, Range of values is 102 to 102
  2022                           ; switch strategies available:
  2023                           ; Name         Instructions Cycles
  2024                           ; simple_byte            4     3 (average)
  2025                           ; direct_byte           14    11 (fixed)
  2026                           ; jumptable            263     9 (fixed)
  2027                           ;	Chosen strategy is simple_byte
  2028     17DA  3A66               	xorlw	102	; case 102
  2029     17DB  1903               	skipnz
  2030     17DC  2F9F               	goto	l3198
  2031     17DD  2FDE               	goto	l3206
  2032     17DE                     l3206:
  2033                           
  2034                           ;C:\Program Files\Microchip\xc8\v2.50\pic\sources\c99\common\doprnt.c: 1806:         ++*
      +                          fmt;
  2035     17DE  1683               	bsf	3,5	;RP0=1, select bank1
  2036     17DF  1303               	bcf	3,6	;RP1=0, select bank1
  2037     17E0  0852               	movf	vfpfcnvrt@fmt^(0+128),w
  2038     17E1  0084               	movwf	4
  2039     17E2  3001               	movlw	1
  2040     17E3  1383               	bcf	3,7	;select IRP bank0
  2041     17E4  0780               	addwf	0,f
  2042     17E5  2FFF               	goto	l749
  2043     17E6                     l3210:
  2044                           
  2045                           ;C:\Program Files\Microchip\xc8\v2.50\pic\sources\c99\common\doprnt.c: 1811:     fputc((
      +                          int)(*fmt)[0], fp);
  2046     17E6  0852               	movf	vfpfcnvrt@fmt^(0+128),w
  2047     17E7  0084               	movwf	4
  2048     17E8  0800               	movf	0,w
  2049     17E9  0084               	movwf	4
  2050     17EA  160A  158A  2000  160A  118A  	fcall	stringdir
  2051     17EF  00D4               	movwf	??_vfpfcnvrt^(0+128)
  2052     17F0  01D5               	clrf	(??_vfpfcnvrt^(0+128)+1)
  2053     17F1  0854               	movf	??_vfpfcnvrt^(0+128),w
  2054     17F2  00F0               	movwf	fputc@c
  2055     17F3  0855               	movf	(??_vfpfcnvrt+1)^(0+128),w
  2056     17F4  00F1               	movwf	fputc@c+1
  2057     17F5  0850               	movf	vfpfcnvrt@fp^(0+128),w
  2058     17F6  00F2               	movwf	fputc@fp
  2059     17F7  0851               	movf	(vfpfcnvrt@fp+1)^(0+128),w
  2060     17F8  00F3               	movwf	fputc@fp+1
  2061     17F9  160A  118A  20E2  160A  118A  	fcall	_fputc
  2062     17FE  2FDE               	goto	l3206
  2063     17FF                     l749:
  2064     17FF  0008               	return
  2065     1800                     __end_of_vfpfcnvrt:
  2066                           
  2067                           	psect	text4
  2068     1220                     __ptext4:	
  2069 ;; *************** function _utoa *****************
  2070 ;; Defined at:
  2071 ;;		line 1001 in file "C:\Program Files\Microchip\xc8\v2.50\pic\sources\c99\common\doprnt.c"
  2072 ;; Parameters:    Size  Location     Type
  2073 ;;  fp              2   15[BANK0 ] PTR struct _IO_FILE
  2074 ;;		 -> sprintf@f(11), 
  2075 ;;  d               2   17[BANK0 ] unsigned int 
  2076 ;; Auto vars:     Size  Location     Type
  2077 ;;  i               2   23[BANK0 ] int 
  2078 ;;  w               2   21[BANK0 ] int 
  2079 ;;  p               2   19[BANK0 ] int 
  2080 ;; Return value:  Size  Location     Type
  2081 ;;                  1    wreg      void 
  2082 ;; Registers used:
  2083 ;;		wreg, fsr0l, fsr0h, status,2, status,0, btemp+1, pclath, cstack
  2084 ;; Tracked objects:
  2085 ;;		On entry : 0/0
  2086 ;;		On exit  : 0/0
  2087 ;;		Unchanged: 0/0
  2088 ;; Data sizes:     COMMON   BANK0   BANK1   BANK3   BANK2
  2089 ;;      Params:         0       4       0       0       0
  2090 ;;      Locals:         0       6       0       0       0
  2091 ;;      Temps:          0       0       0       0       0
  2092 ;;      Totals:         0      10       0       0       0
  2093 ;;Total ram usage:       10 bytes
  2094 ;; Hardware stack levels used: 1
  2095 ;; Hardware stack levels required when called: 4
  2096 ;; This function calls:
  2097 ;;		___lwdiv
  2098 ;;		___lwmod
  2099 ;;		_pad
  2100 ;; This function is called by:
  2101 ;;		_vfpfcnvrt
  2102 ;; This function uses a non-reentrant model
  2103 ;;
  2104                           
  2105     1220                     _utoa:	
  2106                           ;psect for function _utoa
  2107                           
  2108     1220                     l3072:	
  2109                           ;incstack = 0
  2110                           ; Regs used in _utoa: [wreg-fsr0h+status,2+status,0+btemp+1+pclath+cstack]
  2111                           
  2112                           
  2113                           ;C:\Program Files\Microchip\xc8\v2.50\pic\sources\c99\common\doprnt.c: 1001: static void
      +                           utoa(FILE *fp, vfpf_uint_t d);C:\Program Files\Microchip\xc8\v2.50\pic\sources\c99\comm
      +                          on\doprnt.c: 1002: {;C:\Program Files\Microchip\xc8\v2.50\pic\sources\c99\common\doprnt.
      +                          c: 1003:     int i, w;;C:\Program Files\Microchip\xc8\v2.50\pic\sources\c99\common\doprn
      +                          t.c: 1005:  int p;;C:\Program Files\Microchip\xc8\v2.50\pic\sources\c99\common\doprnt.c:
      +                           1013:     if (!(prec < 0)) {
  2114     1220  1683               	bsf	3,5	;RP0=1, select bank1
  2115     1221  1303               	bcf	3,6	;RP1=0, select bank1
  2116     1222  1BEE               	btfsc	(_prec+1)^(0+128),7
  2117     1223  2A25               	goto	u4811
  2118     1224  2A26               	goto	u4810
  2119     1225                     u4811:
  2120     1225  2A28               	goto	l3076
  2121     1226                     u4810:
  2122     1226                     l3074:
  2123                           
  2124                           ;C:\Program Files\Microchip\xc8\v2.50\pic\sources\c99\common\doprnt.c: 1014:         fla
      +                          gs &= ~(1 << 1);
  2125     1226  30FD               	movlw	253
  2126     1227  05EF               	andwf	_flags^(0+128),f
  2127     1228                     l3076:
  2128                           
  2129                           ;C:\Program Files\Microchip\xc8\v2.50\pic\sources\c99\common\doprnt.c: 1017:     p = (0 
      +                          <= prec) ? prec : 1;
  2130     1228  1FEE               	btfss	(_prec+1)^(0+128),7
  2131     1229  2A2B               	goto	u4821
  2132     122A  2A2C               	goto	u4820
  2133     122B                     u4821:
  2134     122B  2A33               	goto	l3080
  2135     122C                     u4820:
  2136     122C                     l3078:
  2137     122C  3001               	movlw	1
  2138     122D  1283               	bcf	3,5	;RP0=0, select bank0
  2139     122E  1303               	bcf	3,6	;RP1=0, select bank0
  2140     122F  00B3               	movwf	utoa@p
  2141     1230  3000               	movlw	0
  2142     1231  00B4               	movwf	utoa@p+1
  2143     1232  2A3D               	goto	l715
  2144     1233                     l3080:
  2145     1233  086E               	movf	(_prec+1)^(0+128),w
  2146     1234  1283               	bcf	3,5	;RP0=0, select bank0
  2147     1235  1303               	bcf	3,6	;RP1=0, select bank0
  2148     1236  00B4               	movwf	utoa@p+1
  2149     1237  1683               	bsf	3,5	;RP0=1, select bank1
  2150     1238  1303               	bcf	3,6	;RP1=0, select bank1
  2151     1239  086D               	movf	_prec^(0+128),w
  2152     123A  1283               	bcf	3,5	;RP0=0, select bank0
  2153     123B  1303               	bcf	3,6	;RP1=0, select bank0
  2154     123C  00B3               	movwf	utoa@p
  2155     123D                     l715:
  2156                           
  2157                           ;C:\Program Files\Microchip\xc8\v2.50\pic\sources\c99\common\doprnt.c: 1019:     w = wid
      +                          th;
  2158     123D  1683               	bsf	3,5	;RP0=1, select bank1
  2159     123E  1303               	bcf	3,6	;RP1=0, select bank1
  2160     123F  086C               	movf	(_width+1)^(0+128),w
  2161     1240  1283               	bcf	3,5	;RP0=0, select bank0
  2162     1241  1303               	bcf	3,6	;RP1=0, select bank0
  2163     1242  00B6               	movwf	utoa@w+1
  2164     1243  1683               	bsf	3,5	;RP0=1, select bank1
  2165     1244  1303               	bcf	3,6	;RP1=0, select bank1
  2166     1245  086B               	movf	_width^(0+128),w
  2167     1246  1283               	bcf	3,5	;RP0=0, select bank0
  2168     1247  1303               	bcf	3,6	;RP1=0, select bank0
  2169     1248  00B5               	movwf	utoa@w
  2170                           
  2171                           ;C:\Program Files\Microchip\xc8\v2.50\pic\sources\c99\common\doprnt.c: 1022:     i = siz
      +                          eof(dbuf) - 1;
  2172     1249  304F               	movlw	79
  2173     124A  00B7               	movwf	utoa@i
  2174     124B  3000               	movlw	0
  2175     124C  00B8               	movwf	utoa@i+1
  2176     124D                     l3082:
  2177                           
  2178                           ;C:\Program Files\Microchip\xc8\v2.50\pic\sources\c99\common\doprnt.c: 1023:     dbuf[i]
      +                           = '\0';
  2179     124D  1283               	bcf	3,5	;RP0=0, select bank2
  2180     124E  1703               	bsf	3,6	;RP1=1, select bank2
  2181     124F  01DF               	clrf	(_dbuf^(0+256)+79)
  2182                           
  2183                           ;C:\Program Files\Microchip\xc8\v2.50\pic\sources\c99\common\doprnt.c: 1024:     while (
      +                          i && (d != 0
  2184     1250  2A8E               	goto	l3094
  2185     1251                     l3084:
  2186                           
  2187                           ;C:\Program Files\Microchip\xc8\v2.50\pic\sources\c99\common\doprnt.c: 1033:     )) {;C:
      +                          \Program Files\Microchip\xc8\v2.50\pic\sources\c99\common\doprnt.c: 1034:         --i;
  2188     1251  30FF               	movlw	255
  2189     1252  1283               	bcf	3,5	;RP0=0, select bank0
  2190     1253  1303               	bcf	3,6	;RP1=0, select bank0
  2191     1254  07B7               	addwf	utoa@i,f
  2192     1255  1803               	skipnc
  2193     1256  0AB8               	incf	utoa@i+1,f
  2194     1257  30FF               	movlw	255
  2195     1258  07B8               	addwf	utoa@i+1,f
  2196     1259                     l3086:
  2197                           
  2198                           ;C:\Program Files\Microchip\xc8\v2.50\pic\sources\c99\common\doprnt.c: 1035:         dbu
      +                          f[i] = '0' + (d % 10);
  2199     1259  0837               	movf	utoa@i,w
  2200     125A  3E10               	addlw	(low (_dbuf| (0+256)))& (0+255)
  2201     125B  0084               	movwf	4
  2202     125C  300A               	movlw	10
  2203     125D  00F0               	movwf	___lwmod@divisor
  2204     125E  3000               	movlw	0
  2205     125F  00F1               	movwf	___lwmod@divisor+1
  2206     1260  0832               	movf	utoa@d+1,w
  2207     1261  00F3               	movwf	___lwmod@dividend+1
  2208     1262  0831               	movf	utoa@d,w
  2209     1263  00F2               	movwf	___lwmod@dividend
  2210     1264  160A  158A  2738  160A  118A  	fcall	___lwmod
  2211     1269  0870               	movf	?___lwmod,w
  2212     126A  3E30               	addlw	48
  2213     126B  1783               	bsf	3,7	;select IRP bank2
  2214     126C  0080               	movwf	0
  2215     126D                     l3088:
  2216                           
  2217                           ;C:\Program Files\Microchip\xc8\v2.50\pic\sources\c99\common\doprnt.c: 1037:         --p
      +                          ;
  2218     126D  30FF               	movlw	255
  2219     126E  1283               	bcf	3,5	;RP0=0, select bank0
  2220     126F  1303               	bcf	3,6	;RP1=0, select bank0
  2221     1270  07B3               	addwf	utoa@p,f
  2222     1271  1803               	skipnc
  2223     1272  0AB4               	incf	utoa@p+1,f
  2224     1273  30FF               	movlw	255
  2225     1274  07B4               	addwf	utoa@p+1,f
  2226     1275                     l3090:
  2227                           
  2228                           ;C:\Program Files\Microchip\xc8\v2.50\pic\sources\c99\common\doprnt.c: 1041:         --w
      +                          ;
  2229     1275  30FF               	movlw	255
  2230     1276  07B5               	addwf	utoa@w,f
  2231     1277  1803               	skipnc
  2232     1278  0AB6               	incf	utoa@w+1,f
  2233     1279  30FF               	movlw	255
  2234     127A  07B6               	addwf	utoa@w+1,f
  2235     127B                     l3092:
  2236                           
  2237                           ;C:\Program Files\Microchip\xc8\v2.50\pic\sources\c99\common\doprnt.c: 1042:         d =
      +                           d / 10;
  2238     127B  300A               	movlw	10
  2239     127C  00F0               	movwf	___lwdiv@divisor
  2240     127D  3000               	movlw	0
  2241     127E  00F1               	movwf	___lwdiv@divisor+1
  2242     127F  0832               	movf	utoa@d+1,w
  2243     1280  00F3               	movwf	___lwdiv@dividend+1
  2244     1281  0831               	movf	utoa@d,w
  2245     1282  00F2               	movwf	___lwdiv@dividend
  2246     1283  160A  158A  2770  160A  118A  	fcall	___lwdiv
  2247     1288  0871               	movf	?___lwdiv+1,w
  2248     1289  1283               	bcf	3,5	;RP0=0, select bank0
  2249     128A  1303               	bcf	3,6	;RP1=0, select bank0
  2250     128B  00B2               	movwf	utoa@d+1
  2251     128C  0870               	movf	?___lwdiv,w
  2252     128D  00B1               	movwf	utoa@d
  2253     128E                     l3094:
  2254                           
  2255                           ;C:\Program Files\Microchip\xc8\v2.50\pic\sources\c99\common\doprnt.c: 1024:     while (
      +                          i && (d != 0
  2256     128E  1303               	bcf	3,6	;RP1=0, select bank0
  2257     128F  0837               	movf	utoa@i,w
  2258     1290  0438               	iorwf	utoa@i+1,w
  2259     1291  1903               	btfsc	3,2
  2260     1292  2A94               	goto	u4831
  2261     1293  2A95               	goto	u4830
  2262     1294                     u4831:
  2263     1294  2ABD               	goto	l3104
  2264     1295                     u4830:
  2265     1295                     l3096:
  2266     1295  0831               	movf	utoa@d,w
  2267     1296  0432               	iorwf	utoa@d+1,w
  2268     1297  1D03               	btfss	3,2
  2269     1298  2A9A               	goto	u4841
  2270     1299  2A9B               	goto	u4840
  2271     129A                     u4841:
  2272     129A  2A51               	goto	l3084
  2273     129B                     u4840:
  2274     129B                     l3098:
  2275     129B  0834               	movf	utoa@p+1,w
  2276     129C  3A80               	xorlw	128
  2277     129D  00FF               	movwf	btemp+1
  2278     129E  3080               	movlw	128
  2279     129F  027F               	subwf	btemp+1,w
  2280     12A0  1D03               	skipz
  2281     12A1  2AA4               	goto	u4855
  2282     12A2  3001               	movlw	1
  2283     12A3  0233               	subwf	utoa@p,w
  2284     12A4                     u4855:
  2285     12A4  1803               	skipnc
  2286     12A5  2AA7               	goto	u4851
  2287     12A6  2AA8               	goto	u4850
  2288     12A7                     u4851:
  2289     12A7  2A51               	goto	l3084
  2290     12A8                     u4850:
  2291     12A8                     l3100:
  2292     12A8  1283               	bcf	3,5	;RP0=0, select bank0
  2293     12A9  1303               	bcf	3,6	;RP1=0, select bank0
  2294     12AA  0836               	movf	utoa@w+1,w
  2295     12AB  3A80               	xorlw	128
  2296     12AC  00FF               	movwf	btemp+1
  2297     12AD  3080               	movlw	128
  2298     12AE  027F               	subwf	btemp+1,w
  2299     12AF  1D03               	skipz
  2300     12B0  2AB3               	goto	u4865
  2301     12B1  3001               	movlw	1
  2302     12B2  0235               	subwf	utoa@w,w
  2303     12B3                     u4865:
  2304     12B3  1C03               	skipc
  2305     12B4  2AB6               	goto	u4861
  2306     12B5  2AB7               	goto	u4860
  2307     12B6                     u4861:
  2308     12B6  2ABD               	goto	l3104
  2309     12B7                     u4860:
  2310     12B7                     l3102:
  2311     12B7  1683               	bsf	3,5	;RP0=1, select bank1
  2312     12B8  1303               	bcf	3,6	;RP1=0, select bank1
  2313     12B9  18EF               	btfsc	_flags^(0+128),1
  2314     12BA  2ABC               	goto	u4871
  2315     12BB  2ABD               	goto	u4870
  2316     12BC                     u4871:
  2317     12BC  2A51               	goto	l3084
  2318     12BD                     u4870:
  2319     12BD                     l3104:
  2320                           
  2321                           ;C:\Program Files\Microchip\xc8\v2.50\pic\sources\c99\common\doprnt.c: 1046:     return 
      +                          (void) pad(fp, &dbuf[i], w);
  2322     12BD  1283               	bcf	3,5	;RP0=0, select bank0
  2323     12BE  1303               	bcf	3,6	;RP1=0, select bank0
  2324     12BF  082F               	movf	utoa@fp,w
  2325     12C0  00A8               	movwf	pad@fp
  2326     12C1  0830               	movf	utoa@fp+1,w
  2327     12C2  00A9               	movwf	pad@fp+1
  2328     12C3  0837               	movf	utoa@i,w
  2329     12C4  3E10               	addlw	(low (_dbuf| (0+256)))& (0+255)
  2330     12C5  00AA               	movwf	pad@buf
  2331     12C6  0836               	movf	utoa@w+1,w
  2332     12C7  00AC               	movwf	pad@p+1
  2333     12C8  0835               	movf	utoa@w,w
  2334     12C9  00AB               	movwf	pad@p
  2335     12CA  160A  118A  208B  160A  118A  	fcall	_pad
  2336     12CF                     l723:
  2337     12CF  0008               	return
  2338     12D0                     __end_of_utoa:
  2339                           
  2340                           	psect	text5
  2341     1F38                     __ptext5:	
  2342 ;; *************** function ___lwmod *****************
  2343 ;; Defined at:
  2344 ;;		line 5 in file "C:\Program Files\Microchip\xc8\v2.50\pic\sources\c99\common\lwmod.c"
  2345 ;; Parameters:    Size  Location     Type
  2346 ;;  divisor         2    0[COMMON] unsigned int 
  2347 ;;  dividend        2    2[COMMON] unsigned int 
  2348 ;; Auto vars:     Size  Location     Type
  2349 ;;  counter         1    4[COMMON] unsigned char 
  2350 ;; Return value:  Size  Location     Type
  2351 ;;                  2    0[COMMON] unsigned int 
  2352 ;; Registers used:
  2353 ;;		wreg, status,2, status,0
  2354 ;; Tracked objects:
  2355 ;;		On entry : 0/0
  2356 ;;		On exit  : 0/0
  2357 ;;		Unchanged: 0/0
  2358 ;; Data sizes:     COMMON   BANK0   BANK1   BANK3   BANK2
  2359 ;;      Params:         4       0       0       0       0
  2360 ;;      Locals:         1       0       0       0       0
  2361 ;;      Temps:          0       0       0       0       0
  2362 ;;      Totals:         5       0       0       0       0
  2363 ;;Total ram usage:        5 bytes
  2364 ;; Hardware stack levels used: 1
  2365 ;; This function calls:
  2366 ;;		Nothing
  2367 ;; This function is called by:
  2368 ;;		_utoa
  2369 ;; This function uses a non-reentrant model
  2370 ;;
  2371                           
  2372     1F38                     ___lwmod:	
  2373                           ;psect for function ___lwmod
  2374                           
  2375     1F38                     l2442:	
  2376                           ;incstack = 0
  2377                           ; Regs used in ___lwmod: [wreg+status,2+status,0]
  2378                           
  2379     1F38  0870               	movf	___lwmod@divisor,w
  2380     1F39  0471               	iorwf	___lwmod@divisor+1,w
  2381     1F3A  1903               	btfsc	3,2
  2382     1F3B  2F3D               	goto	u3441
  2383     1F3C  2F3E               	goto	u3440
  2384     1F3D                     u3441:
  2385     1F3D  2F6B               	goto	l2460
  2386     1F3E                     u3440:
  2387     1F3E                     l2444:
  2388     1F3E  3001               	movlw	1
  2389     1F3F  00F4               	movwf	___lwmod@counter
  2390     1F40  2F4A               	goto	l2450
  2391     1F41                     l2446:
  2392     1F41  3001               	movlw	1
  2393     1F42                     u3455:
  2394     1F42  1003               	clrc
  2395     1F43  0DF0               	rlf	___lwmod@divisor,f
  2396     1F44  0DF1               	rlf	___lwmod@divisor+1,f
  2397     1F45  3EFF               	addlw	-1
  2398     1F46  1D03               	skipz
  2399     1F47  2F42               	goto	u3455
  2400     1F48                     l2448:
  2401     1F48  3001               	movlw	1
  2402     1F49  07F4               	addwf	___lwmod@counter,f
  2403     1F4A                     l2450:
  2404     1F4A  1FF1               	btfss	___lwmod@divisor+1,7
  2405     1F4B  2F4D               	goto	u3461
  2406     1F4C  2F4E               	goto	u3460
  2407     1F4D                     u3461:
  2408     1F4D  2F41               	goto	l2446
  2409     1F4E                     u3460:
  2410     1F4E                     l2452:
  2411     1F4E  0871               	movf	___lwmod@divisor+1,w
  2412     1F4F  0273               	subwf	___lwmod@dividend+1,w
  2413     1F50  1D03               	skipz
  2414     1F51  2F54               	goto	u3475
  2415     1F52  0870               	movf	___lwmod@divisor,w
  2416     1F53  0272               	subwf	___lwmod@dividend,w
  2417     1F54                     u3475:
  2418     1F54  1C03               	skipc
  2419     1F55  2F57               	goto	u3471
  2420     1F56  2F58               	goto	u3470
  2421     1F57                     u3471:
  2422     1F57  2F5E               	goto	l2456
  2423     1F58                     u3470:
  2424     1F58                     l2454:
  2425     1F58  0870               	movf	___lwmod@divisor,w
  2426     1F59  02F2               	subwf	___lwmod@dividend,f
  2427     1F5A  0871               	movf	___lwmod@divisor+1,w
  2428     1F5B  1C03               	skipc
  2429     1F5C  03F3               	decf	___lwmod@dividend+1,f
  2430     1F5D  02F3               	subwf	___lwmod@dividend+1,f
  2431     1F5E                     l2456:
  2432     1F5E  3001               	movlw	1
  2433     1F5F                     u3485:
  2434     1F5F  1003               	clrc
  2435     1F60  0CF1               	rrf	___lwmod@divisor+1,f
  2436     1F61  0CF0               	rrf	___lwmod@divisor,f
  2437     1F62  3EFF               	addlw	-1
  2438     1F63  1D03               	skipz
  2439     1F64  2F5F               	goto	u3485
  2440     1F65                     l2458:
  2441     1F65  3001               	movlw	1
  2442     1F66  02F4               	subwf	___lwmod@counter,f
  2443     1F67  1D03               	btfss	3,2
  2444     1F68  2F6A               	goto	u3491
  2445     1F69  2F6B               	goto	u3490
  2446     1F6A                     u3491:
  2447     1F6A  2F4E               	goto	l2452
  2448     1F6B                     u3490:
  2449     1F6B                     l2460:
  2450     1F6B  0873               	movf	___lwmod@dividend+1,w
  2451     1F6C  00F1               	movwf	?___lwmod+1
  2452     1F6D  0872               	movf	___lwmod@dividend,w
  2453     1F6E  00F0               	movwf	?___lwmod
  2454     1F6F                     l444:
  2455     1F6F  0008               	return
  2456     1F70                     __end_of___lwmod:
  2457                           
  2458                           	psect	text6
  2459     1F70                     __ptext6:	
  2460 ;; *************** function ___lwdiv *****************
  2461 ;; Defined at:
  2462 ;;		line 5 in file "C:\Program Files\Microchip\xc8\v2.50\pic\sources\c99\common\lwdiv.c"
  2463 ;; Parameters:    Size  Location     Type
  2464 ;;  divisor         2    0[COMMON] unsigned int 
  2465 ;;  dividend        2    2[COMMON] unsigned int 
  2466 ;; Auto vars:     Size  Location     Type
  2467 ;;  quotient        2    4[COMMON] unsigned int 
  2468 ;;  counter         1    6[COMMON] unsigned char 
  2469 ;; Return value:  Size  Location     Type
  2470 ;;                  2    0[COMMON] unsigned int 
  2471 ;; Registers used:
  2472 ;;		wreg, status,2, status,0
  2473 ;; Tracked objects:
  2474 ;;		On entry : 0/0
  2475 ;;		On exit  : 0/0
  2476 ;;		Unchanged: 0/0
  2477 ;; Data sizes:     COMMON   BANK0   BANK1   BANK3   BANK2
  2478 ;;      Params:         4       0       0       0       0
  2479 ;;      Locals:         3       0       0       0       0
  2480 ;;      Temps:          0       0       0       0       0
  2481 ;;      Totals:         7       0       0       0       0
  2482 ;;Total ram usage:        7 bytes
  2483 ;; Hardware stack levels used: 1
  2484 ;; This function calls:
  2485 ;;		Nothing
  2486 ;; This function is called by:
  2487 ;;		_utoa
  2488 ;; This function uses a non-reentrant model
  2489 ;;
  2490                           
  2491     1F70                     ___lwdiv:	
  2492                           ;psect for function ___lwdiv
  2493                           
  2494     1F70                     l2416:	
  2495                           ;incstack = 0
  2496                           ; Regs used in ___lwdiv: [wreg+status,2+status,0]
  2497                           
  2498     1F70  01F4               	clrf	___lwdiv@quotient
  2499     1F71  01F5               	clrf	___lwdiv@quotient+1
  2500     1F72                     l2418:
  2501     1F72  0870               	movf	___lwdiv@divisor,w
  2502     1F73  0471               	iorwf	___lwdiv@divisor+1,w
  2503     1F74  1903               	btfsc	3,2
  2504     1F75  2F77               	goto	u3371
  2505     1F76  2F78               	goto	u3370
  2506     1F77                     u3371:
  2507     1F77  2FAD               	goto	l2438
  2508     1F78                     u3370:
  2509     1F78                     l2420:
  2510     1F78  3001               	movlw	1
  2511     1F79  00F6               	movwf	___lwdiv@counter
  2512     1F7A  2F84               	goto	l2426
  2513     1F7B                     l2422:
  2514     1F7B  3001               	movlw	1
  2515     1F7C                     u3385:
  2516     1F7C  1003               	clrc
  2517     1F7D  0DF0               	rlf	___lwdiv@divisor,f
  2518     1F7E  0DF1               	rlf	___lwdiv@divisor+1,f
  2519     1F7F  3EFF               	addlw	-1
  2520     1F80  1D03               	skipz
  2521     1F81  2F7C               	goto	u3385
  2522     1F82                     l2424:
  2523     1F82  3001               	movlw	1
  2524     1F83  07F6               	addwf	___lwdiv@counter,f
  2525     1F84                     l2426:
  2526     1F84  1FF1               	btfss	___lwdiv@divisor+1,7
  2527     1F85  2F87               	goto	u3391
  2528     1F86  2F88               	goto	u3390
  2529     1F87                     u3391:
  2530     1F87  2F7B               	goto	l2422
  2531     1F88                     u3390:
  2532     1F88                     l2428:
  2533     1F88  3001               	movlw	1
  2534     1F89                     u3405:
  2535     1F89  1003               	clrc
  2536     1F8A  0DF4               	rlf	___lwdiv@quotient,f
  2537     1F8B  0DF5               	rlf	___lwdiv@quotient+1,f
  2538     1F8C  3EFF               	addlw	-1
  2539     1F8D  1D03               	skipz
  2540     1F8E  2F89               	goto	u3405
  2541     1F8F  0871               	movf	___lwdiv@divisor+1,w
  2542     1F90  0273               	subwf	___lwdiv@dividend+1,w
  2543     1F91  1D03               	skipz
  2544     1F92  2F95               	goto	u3415
  2545     1F93  0870               	movf	___lwdiv@divisor,w
  2546     1F94  0272               	subwf	___lwdiv@dividend,w
  2547     1F95                     u3415:
  2548     1F95  1C03               	skipc
  2549     1F96  2F98               	goto	u3411
  2550     1F97  2F99               	goto	u3410
  2551     1F98                     u3411:
  2552     1F98  2FA0               	goto	l2434
  2553     1F99                     u3410:
  2554     1F99                     l2430:
  2555     1F99  0870               	movf	___lwdiv@divisor,w
  2556     1F9A  02F2               	subwf	___lwdiv@dividend,f
  2557     1F9B  0871               	movf	___lwdiv@divisor+1,w
  2558     1F9C  1C03               	skipc
  2559     1F9D  03F3               	decf	___lwdiv@dividend+1,f
  2560     1F9E  02F3               	subwf	___lwdiv@dividend+1,f
  2561     1F9F                     l2432:
  2562     1F9F  1474               	bsf	___lwdiv@quotient,0
  2563     1FA0                     l2434:
  2564     1FA0  3001               	movlw	1
  2565     1FA1                     u3425:
  2566     1FA1  1003               	clrc
  2567     1FA2  0CF1               	rrf	___lwdiv@divisor+1,f
  2568     1FA3  0CF0               	rrf	___lwdiv@divisor,f
  2569     1FA4  3EFF               	addlw	-1
  2570     1FA5  1D03               	skipz
  2571     1FA6  2FA1               	goto	u3425
  2572     1FA7                     l2436:
  2573     1FA7  3001               	movlw	1
  2574     1FA8  02F6               	subwf	___lwdiv@counter,f
  2575     1FA9  1D03               	btfss	3,2
  2576     1FAA  2FAC               	goto	u3431
  2577     1FAB  2FAD               	goto	u3430
  2578     1FAC                     u3431:
  2579     1FAC  2F88               	goto	l2428
  2580     1FAD                     u3430:
  2581     1FAD                     l2438:
  2582     1FAD  0875               	movf	___lwdiv@quotient+1,w
  2583     1FAE  00F1               	movwf	?___lwdiv+1
  2584     1FAF  0874               	movf	___lwdiv@quotient,w
  2585     1FB0  00F0               	movwf	?___lwdiv
  2586     1FB1                     l434:
  2587     1FB1  0008               	return
  2588     1FB2                     __end_of___lwdiv:
  2589                           
  2590                           	psect	text7
  2591     1036                     __ptext7:	
  2592 ;; *************** function _read_prec_or_width *****************
  2593 ;; Defined at:
  2594 ;;		line 1158 in file "C:\Program Files\Microchip\xc8\v2.50\pic\sources\c99\common\doprnt.c"
  2595 ;; Parameters:    Size  Location     Type
  2596 ;;  fmt             1    6[COMMON] PTR PTR const unsigned c
  2597 ;;		 -> vfprintf@cfmt(1), 
  2598 ;;  ap              1    7[COMMON] PTR PTR void [1]
  2599 ;;		 -> sprintf@ap(1), 
  2600 ;; Auto vars:     Size  Location     Type
  2601 ;;  c               1    8[COMMON] unsigned char 
  2602 ;;  n               2    9[COMMON] int 
  2603 ;; Return value:  Size  Location     Type
  2604 ;;                  2    6[COMMON] int 
  2605 ;; Registers used:
  2606 ;;		wreg, fsr0l, fsr0h, status,2, status,0, btemp+1, pclath, cstack
  2607 ;; Tracked objects:
  2608 ;;		On entry : 0/0
  2609 ;;		On exit  : 0/0
  2610 ;;		Unchanged: 0/0
  2611 ;; Data sizes:     COMMON   BANK0   BANK1   BANK3   BANK2
  2612 ;;      Params:         2       0       0       0       0
  2613 ;;      Locals:         3       0       0       0       0
  2614 ;;      Temps:          0       0       0       0       0
  2615 ;;      Totals:         5       0       0       0       0
  2616 ;;Total ram usage:        5 bytes
  2617 ;; Hardware stack levels used: 1
  2618 ;; Hardware stack levels required when called: 1
  2619 ;; This function calls:
  2620 ;;		___wmul
  2621 ;; This function is called by:
  2622 ;;		_vfpfcnvrt
  2623 ;; This function uses a non-reentrant model
  2624 ;;
  2625                           
  2626     1036                     _read_prec_or_width:	
  2627                           ;psect for function _read_prec_or_width
  2628                           
  2629     1036                     l3108:	
  2630                           ;incstack = 0
  2631                           ; Regs used in _read_prec_or_width: [wreg-fsr0h+status,2+status,0+btemp+1+pclath+cstack]
  2632                           
  2633                           
  2634                           ;C:\Program Files\Microchip\xc8\v2.50\pic\sources\c99\common\doprnt.c: 1159:     int n =
      +                           0;
  2635     1036  01F9               	clrf	read_prec_or_width@n
  2636     1037  01FA               	clrf	read_prec_or_width@n+1
  2637     1038                     l3110:
  2638                           
  2639                           ;C:\Program Files\Microchip\xc8\v2.50\pic\sources\c99\common\doprnt.c: 1160:     if ((*f
      +                          mt)[0] == '*') {
  2640     1038  0876               	movf	read_prec_or_width@fmt,w
  2641     1039  0084               	movwf	4
  2642     103A  1383               	bcf	3,7	;select IRP bank0
  2643     103B  0800               	movf	0,w
  2644     103C  0084               	movwf	4
  2645     103D  160A  158A  2000  160A  118A  	fcall	stringdir
  2646     1042  3A2A               	xorlw	42
  2647     1043  1D03               	skipz
  2648     1044  2846               	goto	u4881
  2649     1045  2847               	goto	u4880
  2650     1046                     u4881:
  2651     1046  2875               	goto	l3120
  2652     1047                     u4880:
  2653     1047                     l3112:
  2654                           
  2655                           ;C:\Program Files\Microchip\xc8\v2.50\pic\sources\c99\common\doprnt.c: 1161:         ++*
      +                          fmt;
  2656     1047  0876               	movf	read_prec_or_width@fmt,w
  2657     1048  0084               	movwf	4
  2658     1049  3001               	movlw	1
  2659     104A  0780               	addwf	0,f
  2660     104B                     l3114:
  2661                           
  2662                           ;C:\Program Files\Microchip\xc8\v2.50\pic\sources\c99\common\doprnt.c: 1162:         n =
      +                           (*(int *)__va_arg(*(int **)*ap, (int)0));
  2663     104B  0877               	movf	read_prec_or_width@ap,w
  2664     104C  0084               	movwf	4
  2665     104D  1783               	bsf	3,7	;select IRP bank2
  2666     104E  0800               	movf	0,w
  2667     104F  00FF               	movwf	btemp+1
  2668     1050  3002               	movlw	2
  2669     1051  0780               	addwf	0,f
  2670     1052  087F               	movf	btemp+1,w
  2671     1053  0084               	movwf	4
  2672     1054  1383               	bcf	3,7	;select IRP bank0
  2673     1055  0800               	movf	0,w
  2674     1056  00F9               	movwf	read_prec_or_width@n
  2675     1057  0A84               	incf	4,f
  2676     1058  0800               	movf	0,w
  2677     1059  00FA               	movwf	read_prec_or_width@n+1
  2678                           
  2679                           ;C:\Program Files\Microchip\xc8\v2.50\pic\sources\c99\common\doprnt.c: 1163:     } else 
      +                          {
  2680     105A  2886               	goto	l3122
  2681     105B                     l3116:
  2682                           
  2683                           ;C:\Program Files\Microchip\xc8\v2.50\pic\sources\c99\common\doprnt.c: 1166:            
      +                           n = n * 10 + c;
  2684     105B  087A               	movf	read_prec_or_width@n+1,w
  2685     105C  00F1               	movwf	___wmul@multiplier+1
  2686     105D  0879               	movf	read_prec_or_width@n,w
  2687     105E  00F0               	movwf	___wmul@multiplier
  2688     105F  300A               	movlw	10
  2689     1060  00F2               	movwf	___wmul@multiplicand
  2690     1061  3000               	movlw	0
  2691     1062  00F3               	movwf	___wmul@multiplicand+1
  2692     1063  160A  158A  2698  160A  118A  	fcall	___wmul
  2693     1068  0878               	movf	read_prec_or_width@c,w
  2694     1069  0770               	addwf	?___wmul,w
  2695     106A  00F9               	movwf	read_prec_or_width@n
  2696     106B  3000               	movlw	0
  2697     106C  1803               	skipnc
  2698     106D  3001               	movlw	1
  2699     106E  0771               	addwf	?___wmul+1,w
  2700     106F  00FA               	movwf	read_prec_or_width@n+1
  2701     1070                     l3118:
  2702                           
  2703                           ;C:\Program Files\Microchip\xc8\v2.50\pic\sources\c99\common\doprnt.c: 1167:            
      +                           ++*fmt;
  2704     1070  0876               	movf	read_prec_or_width@fmt,w
  2705     1071  0084               	movwf	4
  2706     1072  3001               	movlw	1
  2707     1073  1383               	bcf	3,7	;select IRP bank0
  2708     1074  0780               	addwf	0,f
  2709     1075                     l3120:
  2710                           
  2711                           ;C:\Program Files\Microchip\xc8\v2.50\pic\sources\c99\common\doprnt.c: 1165:         whi
      +                          le ((c = ((unsigned)(*fmt)[0]) - '0') < 10) {
  2712     1075  0876               	movf	read_prec_or_width@fmt,w
  2713     1076  0084               	movwf	4
  2714     1077  0800               	movf	0,w
  2715     1078  0084               	movwf	4
  2716     1079  160A  158A  2000  160A  118A  	fcall	stringdir
  2717     107E  3ED0               	addlw	208
  2718     107F  00F8               	movwf	read_prec_or_width@c
  2719     1080  300A               	movlw	10
  2720     1081  0278               	subwf	read_prec_or_width@c,w
  2721     1082  1C03               	skipc
  2722     1083  2885               	goto	u4891
  2723     1084  2886               	goto	u4890
  2724     1085                     u4891:
  2725     1085  285B               	goto	l3116
  2726     1086                     u4890:
  2727     1086                     l3122:
  2728                           
  2729                           ;C:\Program Files\Microchip\xc8\v2.50\pic\sources\c99\common\doprnt.c: 1170:     return 
      +                          n;
  2730     1086  087A               	movf	read_prec_or_width@n+1,w
  2731     1087  00F7               	movwf	?_read_prec_or_width+1
  2732     1088  0879               	movf	read_prec_or_width@n,w
  2733     1089  00F6               	movwf	?_read_prec_or_width
  2734     108A                     l731:
  2735     108A  0008               	return
  2736     108B                     __end_of_read_prec_or_width:
  2737                           
  2738                           	psect	text8
  2739     1E98                     __ptext8:	
  2740 ;; *************** function ___wmul *****************
  2741 ;; Defined at:
  2742 ;;		line 15 in file "C:\Program Files\Microchip\xc8\v2.50\pic\sources\c99\common\Umul16.c"
  2743 ;; Parameters:    Size  Location     Type
  2744 ;;  multiplier      2    0[COMMON] unsigned int 
  2745 ;;  multiplicand    2    2[COMMON] unsigned int 
  2746 ;; Auto vars:     Size  Location     Type
  2747 ;;  product         2    4[COMMON] unsigned int 
  2748 ;; Return value:  Size  Location     Type
  2749 ;;                  2    0[COMMON] unsigned int 
  2750 ;; Registers used:
  2751 ;;		wreg, status,2, status,0
  2752 ;; Tracked objects:
  2753 ;;		On entry : 0/0
  2754 ;;		On exit  : 0/0
  2755 ;;		Unchanged: 0/0
  2756 ;; Data sizes:     COMMON   BANK0   BANK1   BANK3   BANK2
  2757 ;;      Params:         4       0       0       0       0
  2758 ;;      Locals:         2       0       0       0       0
  2759 ;;      Temps:          0       0       0       0       0
  2760 ;;      Totals:         6       0       0       0       0
  2761 ;;Total ram usage:        6 bytes
  2762 ;; Hardware stack levels used: 1
  2763 ;; This function calls:
  2764 ;;		Nothing
  2765 ;; This function is called by:
  2766 ;;		_read_prec_or_width
  2767 ;; This function uses a non-reentrant model
  2768 ;;
  2769                           
  2770     1E98                     ___wmul:	
  2771                           ;psect for function ___wmul
  2772                           
  2773     1E98                     l2326:	
  2774                           ;incstack = 0
  2775                           ; Regs used in ___wmul: [wreg+status,2+status,0]
  2776                           
  2777     1E98  01F4               	clrf	___wmul@product
  2778     1E99  01F5               	clrf	___wmul@product+1
  2779     1E9A                     l2328:
  2780     1E9A  1C70               	btfss	___wmul@multiplier,0
  2781     1E9B  2E9D               	goto	u3121
  2782     1E9C  2E9E               	goto	u3120
  2783     1E9D                     u3121:
  2784     1E9D  2EA4               	goto	l154
  2785     1E9E                     u3120:
  2786     1E9E                     l2330:
  2787     1E9E  0872               	movf	___wmul@multiplicand,w
  2788     1E9F  07F4               	addwf	___wmul@product,f
  2789     1EA0  1803               	skipnc
  2790     1EA1  0AF5               	incf	___wmul@product+1,f
  2791     1EA2  0873               	movf	___wmul@multiplicand+1,w
  2792     1EA3  07F5               	addwf	___wmul@product+1,f
  2793     1EA4                     l154:
  2794     1EA4  3001               	movlw	1
  2795     1EA5                     u3135:
  2796     1EA5  1003               	clrc
  2797     1EA6  0DF2               	rlf	___wmul@multiplicand,f
  2798     1EA7  0DF3               	rlf	___wmul@multiplicand+1,f
  2799     1EA8  3EFF               	addlw	-1
  2800     1EA9  1D03               	skipz
  2801     1EAA  2EA5               	goto	u3135
  2802     1EAB                     l2332:
  2803     1EAB  3001               	movlw	1
  2804     1EAC                     u3145:
  2805     1EAC  1003               	clrc
  2806     1EAD  0CF1               	rrf	___wmul@multiplier+1,f
  2807     1EAE  0CF0               	rrf	___wmul@multiplier,f
  2808     1EAF  3EFF               	addlw	-1
  2809     1EB0  1D03               	skipz
  2810     1EB1  2EAC               	goto	u3145
  2811     1EB2                     l2334:
  2812     1EB2  0870               	movf	___wmul@multiplier,w
  2813     1EB3  0471               	iorwf	___wmul@multiplier+1,w
  2814     1EB4  1D03               	btfss	3,2
  2815     1EB5  2EB7               	goto	u3151
  2816     1EB6  2EB8               	goto	u3150
  2817     1EB7                     u3151:
  2818     1EB7  2E9A               	goto	l2328
  2819     1EB8                     u3150:
  2820     1EB8                     l2336:
  2821     1EB8  0875               	movf	___wmul@product+1,w
  2822     1EB9  00F1               	movwf	?___wmul+1
  2823     1EBA  0874               	movf	___wmul@product,w
  2824     1EBB  00F0               	movwf	?___wmul
  2825     1EBC                     l156:
  2826     1EBC  0008               	return
  2827     1EBD                     __end_of___wmul:
  2828                           
  2829                           	psect	text9
  2830     145C                     __ptext9:	
  2831 ;; *************** function _efgtoa *****************
  2832 ;; Defined at:
  2833 ;;		line 587 in file "C:\Program Files\Microchip\xc8\v2.50\pic\sources\c99\common\doprnt.c"
  2834 ;; Parameters:    Size  Location     Type
  2835 ;;  fp              2   72[BANK0 ] PTR struct _IO_FILE
  2836 ;;		 -> sprintf@f(11), 
  2837 ;;  f               4   74[BANK0 ] PTR struct _IO_FILE
  2838 ;;  c               1   78[BANK0 ] unsigned char 
  2839 ;; Auto vars:     Size  Location     Type
  2840 ;;  u               4   44[BANK1 ] struct flui
  2841 ;;  g               4   38[BANK1 ] struct flui
  2842 ;;  l               4   31[BANK1 ] struct flui
  2843 ;;  h               4   27[BANK1 ] struct flui
  2844 ;;  ou              4   23[BANK1 ] struct flui
  2845 ;;  n               2   42[BANK1 ] int 
  2846 ;;  i               2   35[BANK1 ] int 
  2847 ;;  w               2   21[BANK1 ] int 
  2848 ;;  e               2   19[BANK1 ] int 
  2849 ;;  m               2   17[BANK1 ] int 
  2850 ;;  d               2   15[BANK1 ] int 
  2851 ;;  t               2    8[BANK1 ] int 
  2852 ;;  p               2    6[BANK1 ] int 
  2853 ;;  ne              2    4[BANK1 ] int 
  2854 ;;  sign            1   37[BANK1 ] unsigned char 
  2855 ;;  nmode           1   14[BANK1 ] unsigned char 
  2856 ;;  mode            1   13[BANK1 ] unsigned char 
  2857 ;;  pp              1   12[BANK1 ] unsigned char 
  2858 ;;  esign           1    0        unsigned char 
  2859 ;; Return value:  Size  Location     Type
  2860 ;;                  1    wreg      void 
  2861 ;; Registers used:
  2862 ;;		wreg, fsr0l, fsr0h, status,2, status,0, btemp+1, pclath, cstack
  2863 ;; Tracked objects:
  2864 ;;		On entry : 0/0
  2865 ;;		On exit  : 0/0
  2866 ;;		Unchanged: 0/0
  2867 ;; Data sizes:     COMMON   BANK0   BANK1   BANK3   BANK2
  2868 ;;      Params:         0       7       0       0       0
  2869 ;;      Locals:         0       0      44       0       0
  2870 ;;      Temps:          0       0       4       0       0
  2871 ;;      Totals:         0       7      48       0       0
  2872 ;;Total ram usage:       55 bytes
  2873 ;; Hardware stack levels used: 1
  2874 ;; Hardware stack levels required when called: 4
  2875 ;; This function calls:
  2876 ;;		___fladd
  2877 ;;		___fldiv
  2878 ;;		___fleq
  2879 ;;		___flge
  2880 ;;		___flmul
  2881 ;;		___flneg
  2882 ;;		___flsub
  2883 ;;		___fltol
  2884 ;;		___fpclassifyf
  2885 ;;		_floorf
  2886 ;;		_labs
  2887 ;;		_memcpy
  2888 ;;		_pad
  2889 ;;		_strcpy
  2890 ;; This function is called by:
  2891 ;;		_vfpfcnvrt
  2892 ;; This function uses a non-reentrant model
  2893 ;;
  2894                           
  2895     145C                     _efgtoa:	
  2896                           ;psect for function _efgtoa
  2897                           
  2898     145C                     l2846:	
  2899                           ;incstack = 0
  2900                           ; Regs used in _efgtoa: [wreg-fsr0h+status,2+status,0+btemp+1+pclath+cstack]
  2901                           
  2902                           
  2903                           ;C:\Program Files\Microchip\xc8\v2.50\pic\sources\c99\common\doprnt.c: 587: static void 
      +                          efgtoa(FILE *fp, long double f, char c);C:\Program Files\Microchip\xc8\v2.50\pic\sources
      +                          \c99\common\doprnt.c: 588: {;C:\Program Files\Microchip\xc8\v2.50\pic\sources\c99\common
      +                          \doprnt.c: 589:     char mode, nmode, pp, sign, esign;;C:\Program Files\Microchip\xc8\v2
      +                          .50\pic\sources\c99\common\doprnt.c: 590:     int d, e, i, m, n, ne, p, t, w;;C:\Program
      +                           Files\Microchip\xc8\v2.50\pic\sources\c99\common\doprnt.c: 591:     long double h, l;
  2904     145C  1683               	bsf	3,5	;RP0=1, select bank1
  2905     145D  1303               	bcf	3,6	;RP1=0, select bank1
  2906     145E  01C5               	clrf	efgtoa@sign^(0+128)
  2907     145F                     l2848:
  2908                           
  2909                           ;C:\Program Files\Microchip\xc8\v2.50\pic\sources\c99\common\doprnt.c: 596:     g.f = f;
  2910     145F  1283               	bcf	3,5	;RP0=0, select bank0
  2911     1460  1303               	bcf	3,6	;RP1=0, select bank0
  2912     1461  086D               	movf	efgtoa@f+3,w
  2913     1462  1683               	bsf	3,5	;RP0=1, select bank1
  2914     1463  1303               	bcf	3,6	;RP1=0, select bank1
  2915     1464  00C9               	movwf	(efgtoa@g+3)^(0+128)
  2916     1465  1283               	bcf	3,5	;RP0=0, select bank0
  2917     1466  1303               	bcf	3,6	;RP1=0, select bank0
  2918     1467  086C               	movf	efgtoa@f+2,w
  2919     1468  1683               	bsf	3,5	;RP0=1, select bank1
  2920     1469  1303               	bcf	3,6	;RP1=0, select bank1
  2921     146A  00C8               	movwf	(efgtoa@g+2)^(0+128)
  2922     146B  1283               	bcf	3,5	;RP0=0, select bank0
  2923     146C  1303               	bcf	3,6	;RP1=0, select bank0
  2924     146D  086B               	movf	efgtoa@f+1,w
  2925     146E  1683               	bsf	3,5	;RP0=1, select bank1
  2926     146F  1303               	bcf	3,6	;RP1=0, select bank1
  2927     1470  00C7               	movwf	(efgtoa@g+1)^(0+128)
  2928     1471  1283               	bcf	3,5	;RP0=0, select bank0
  2929     1472  1303               	bcf	3,6	;RP1=0, select bank0
  2930     1473  086A               	movf	efgtoa@f,w
  2931     1474  1683               	bsf	3,5	;RP0=1, select bank1
  2932     1475  1303               	bcf	3,6	;RP1=0, select bank1
  2933     1476  00C6               	movwf	efgtoa@g^(0+128)
  2934     1477                     l2850:
  2935                           
  2936                           ;C:\Program Files\Microchip\xc8\v2.50\pic\sources\c99\common\doprnt.c: 597:     if (g.f 
      +                          < 0.0) {
  2937     1477  0849               	movf	(efgtoa@g+3)^(0+128),w
  2938     1478  1283               	bcf	3,5	;RP0=0, select bank0
  2939     1479  1303               	bcf	3,6	;RP1=0, select bank0
  2940     147A  00BD               	movwf	___flge@ff1+3
  2941     147B  1683               	bsf	3,5	;RP0=1, select bank1
  2942     147C  1303               	bcf	3,6	;RP1=0, select bank1
  2943     147D  0848               	movf	(efgtoa@g+2)^(0+128),w
  2944     147E  1283               	bcf	3,5	;RP0=0, select bank0
  2945     147F  1303               	bcf	3,6	;RP1=0, select bank0
  2946     1480  00BC               	movwf	___flge@ff1+2
  2947     1481  1683               	bsf	3,5	;RP0=1, select bank1
  2948     1482  1303               	bcf	3,6	;RP1=0, select bank1
  2949     1483  0847               	movf	(efgtoa@g+1)^(0+128),w
  2950     1484  1283               	bcf	3,5	;RP0=0, select bank0
  2951     1485  1303               	bcf	3,6	;RP1=0, select bank0
  2952     1486  00BB               	movwf	___flge@ff1+1
  2953     1487  1683               	bsf	3,5	;RP0=1, select bank1
  2954     1488  1303               	bcf	3,6	;RP1=0, select bank1
  2955     1489  0846               	movf	efgtoa@g^(0+128),w
  2956     148A  1283               	bcf	3,5	;RP0=0, select bank0
  2957     148B  1303               	bcf	3,6	;RP1=0, select bank0
  2958     148C  00BA               	movwf	___flge@ff1
  2959     148D  3000               	movlw	0
  2960     148E  00C1               	movwf	___flge@ff2+3
  2961     148F  3000               	movlw	0
  2962     1490  00C0               	movwf	___flge@ff2+2
  2963     1491  3000               	movlw	0
  2964     1492  00BF               	movwf	___flge@ff2+1
  2965     1493  3000               	movlw	0
  2966     1494  00BE               	movwf	___flge@ff2
  2967     1495  160A  118A  217C  160A  118A  	fcall	___flge
  2968     149A  1803               	btfsc	3,0
  2969     149B  2C9D               	goto	u4431
  2970     149C  2C9E               	goto	u4430
  2971     149D                     u4431:
  2972     149D  2CB9               	goto	l2856
  2973     149E                     u4430:
  2974     149E                     l2852:
  2975                           
  2976                           ;C:\Program Files\Microchip\xc8\v2.50\pic\sources\c99\common\doprnt.c: 598:         sign
      +                           = 1;
  2977     149E  3001               	movlw	1
  2978     149F  1683               	bsf	3,5	;RP0=1, select bank1
  2979     14A0  1303               	bcf	3,6	;RP1=0, select bank1
  2980     14A1  00C5               	movwf	efgtoa@sign^(0+128)
  2981     14A2                     l2854:
  2982                           
  2983                           ;C:\Program Files\Microchip\xc8\v2.50\pic\sources\c99\common\doprnt.c: 599:         g.f 
      +                          = -g.f;
  2984     14A2  0849               	movf	(efgtoa@g+3)^(0+128),w
  2985     14A3  00F3               	movwf	___flneg@f1+3
  2986     14A4  0848               	movf	(efgtoa@g+2)^(0+128),w
  2987     14A5  00F2               	movwf	___flneg@f1+2
  2988     14A6  0847               	movf	(efgtoa@g+1)^(0+128),w
  2989     14A7  00F1               	movwf	___flneg@f1+1
  2990     14A8  0846               	movf	efgtoa@g^(0+128),w
  2991     14A9  00F0               	movwf	___flneg@f1
  2992     14AA  160A  118A  2000  160A  118A  	fcall	___flneg
  2993     14AF  0873               	movf	?___flneg+3,w
  2994     14B0  1683               	bsf	3,5	;RP0=1, select bank1
  2995     14B1  1303               	bcf	3,6	;RP1=0, select bank1
  2996     14B2  00C9               	movwf	(efgtoa@g+3)^(0+128)
  2997     14B3  0872               	movf	?___flneg+2,w
  2998     14B4  00C8               	movwf	(efgtoa@g+2)^(0+128)
  2999     14B5  0871               	movf	?___flneg+1,w
  3000     14B6  00C7               	movwf	(efgtoa@g+1)^(0+128)
  3001     14B7  0870               	movf	?___flneg,w
  3002     14B8  00C6               	movwf	efgtoa@g^(0+128)
  3003     14B9                     l2856:
  3004                           
  3005                           ;C:\Program Files\Microchip\xc8\v2.50\pic\sources\c99\common\doprnt.c: 603:     n = 0;
  3006     14B9  1683               	bsf	3,5	;RP0=1, select bank1
  3007     14BA  1303               	bcf	3,6	;RP1=0, select bank1
  3008     14BB  01CA               	clrf	efgtoa@n^(0+128)
  3009     14BC  01CB               	clrf	(efgtoa@n+1)^(0+128)
  3010     14BD                     l2858:
  3011                           
  3012                           ;C:\Program Files\Microchip\xc8\v2.50\pic\sources\c99\common\doprnt.c: 604:     w = widt
      +                          h;
  3013     14BD  086C               	movf	(_width+1)^(0+128),w
  3014     14BE  00B6               	movwf	(efgtoa@w+1)^(0+128)
  3015     14BF  086B               	movf	_width^(0+128),w
  3016     14C0  00B5               	movwf	efgtoa@w^(0+128)
  3017     14C1                     l2860:
  3018                           
  3019                           ;C:\Program Files\Microchip\xc8\v2.50\pic\sources\c99\common\doprnt.c: 605:     if (sign
  3020     14C1  0845               	movf	efgtoa@sign^(0+128),w
  3021     14C2  1903               	btfsc	3,2
  3022     14C3  2CC5               	goto	u4441
  3023     14C4  2CC6               	goto	u4440
  3024     14C5                     u4441:
  3025     14C5  2CD6               	goto	l2868
  3026     14C6                     u4440:
  3027     14C6                     l2862:
  3028                           
  3029                           ;C:\Program Files\Microchip\xc8\v2.50\pic\sources\c99\common\doprnt.c: 609:    ) {;C:\Pr
      +                          ogram Files\Microchip\xc8\v2.50\pic\sources\c99\common\doprnt.c: 610:   sign = sign ? '-
      +                          ' : '+';
  3030     14C6  0845               	movf	efgtoa@sign^(0+128),w
  3031     14C7  1D03               	btfss	3,2
  3032     14C8  2CCA               	goto	u4451
  3033     14C9  2CCB               	goto	u4450
  3034     14CA                     u4451:
  3035     14CA  2CD0               	goto	l2866
  3036     14CB                     u4450:
  3037     14CB                     l2864:
  3038     14CB  302B               	movlw	43
  3039     14CC  00AA               	movwf	_efgtoa$714^(0+128)
  3040     14CD  3000               	movlw	0
  3041     14CE  00AB               	movwf	(_efgtoa$714^(0+128)+1)
  3042     14CF  2CD4               	goto	l658
  3043     14D0                     l2866:
  3044     14D0  302D               	movlw	45
  3045     14D1  00AA               	movwf	_efgtoa$714^(0+128)
  3046     14D2  3000               	movlw	0
  3047     14D3  00AB               	movwf	(_efgtoa$714^(0+128)+1)
  3048     14D4                     l658:
  3049     14D4  082A               	movf	_efgtoa$714^(0+128),w
  3050     14D5  00C5               	movwf	efgtoa@sign^(0+128)
  3051     14D6                     l2868:
  3052                           
  3053                           ;C:\Program Files\Microchip\xc8\v2.50\pic\sources\c99\common\doprnt.c: 619:     if (( __
      +                          fpclassifyf(g.f) == 1 )) {
  3054     14D6  0849               	movf	(efgtoa@g+3)^(0+128),w
  3055     14D7  00F3               	movwf	___fpclassifyf@x+3
  3056     14D8  0848               	movf	(efgtoa@g+2)^(0+128),w
  3057     14D9  00F2               	movwf	___fpclassifyf@x+2
  3058     14DA  0847               	movf	(efgtoa@g+1)^(0+128),w
  3059     14DB  00F1               	movwf	___fpclassifyf@x+1
  3060     14DC  0846               	movf	efgtoa@g^(0+128),w
  3061     14DD  00F0               	movwf	___fpclassifyf@x
  3062     14DE  120A  118A  2005  160A  118A  	fcall	___fpclassifyf
  3063     14E3  0370               	decf	?___fpclassifyf,w
  3064     14E4  0471               	iorwf	?___fpclassifyf+1,w
  3065     14E5  1D03               	btfss	3,2
  3066     14E6  2CE8               	goto	u4461
  3067     14E7  2CE9               	goto	u4460
  3068     14E8                     u4461:
  3069     14E8  2D2E               	goto	l2882
  3070     14E9                     u4460:
  3071     14E9                     l2870:
  3072                           
  3073                           ;C:\Program Files\Microchip\xc8\v2.50\pic\sources\c99\common\doprnt.c: 620:   if (sign) 
      +                          {
  3074     14E9  1683               	bsf	3,5	;RP0=1, select bank1
  3075     14EA  1303               	bcf	3,6	;RP1=0, select bank1
  3076     14EB  0845               	movf	efgtoa@sign^(0+128),w
  3077     14EC  1903               	btfsc	3,2
  3078     14ED  2CEF               	goto	u4471
  3079     14EE  2CF0               	goto	u4470
  3080     14EF                     u4471:
  3081     14EF  2D00               	goto	l2874
  3082     14F0                     u4470:
  3083     14F0                     l2872:
  3084                           
  3085                           ;C:\Program Files\Microchip\xc8\v2.50\pic\sources\c99\common\doprnt.c: 621:    dbuf[0] =
      +                           sign;
  3086     14F0  0845               	movf	efgtoa@sign^(0+128),w
  3087     14F1  1283               	bcf	3,5	;RP0=0, select bank2
  3088     14F2  1703               	bsf	3,6	;RP1=1, select bank2
  3089     14F3  0090               	movwf	_dbuf^(0+256)
  3090                           
  3091                           ;C:\Program Files\Microchip\xc8\v2.50\pic\sources\c99\common\doprnt.c: 622:    w--;
  3092     14F4  30FF               	movlw	255
  3093     14F5  1683               	bsf	3,5	;RP0=1, select bank1
  3094     14F6  1303               	bcf	3,6	;RP1=0, select bank1
  3095     14F7  07B5               	addwf	efgtoa@w^(0+128),f
  3096     14F8  1803               	skipnc
  3097     14F9  0AB6               	incf	(efgtoa@w+1)^(0+128),f
  3098     14FA  30FF               	movlw	255
  3099     14FB  07B6               	addwf	(efgtoa@w+1)^(0+128),f
  3100                           
  3101                           ;C:\Program Files\Microchip\xc8\v2.50\pic\sources\c99\common\doprnt.c: 623:    n = 1;
  3102     14FC  3001               	movlw	1
  3103     14FD  00CA               	movwf	efgtoa@n^(0+128)
  3104     14FE  3000               	movlw	0
  3105     14FF  00CB               	movwf	(efgtoa@n^(0+128)+1)
  3106     1500                     l2874:
  3107                           
  3108                           ;C:\Program Files\Microchip\xc8\v2.50\pic\sources\c99\common\doprnt.c: 631:   {;C:\Progr
      +                          am Files\Microchip\xc8\v2.50\pic\sources\c99\common\doprnt.c: 632:             strcpy(&d
      +                          buf[n], "inf");
  3109     1500  084A               	movf	efgtoa@n^(0+128),w
  3110     1501  3E10               	addlw	(low (_dbuf| (0+256)))& (0+255)
  3111     1502  00F0               	movwf	strcpy@dest
  3112     1503  3015               	movlw	(low ((STR_3-__stringbase)| (0+32768)))& (0+255)
  3113     1504  00F1               	movwf	strcpy@src
  3114     1505  160A  158A  265E  160A  118A  	fcall	_strcpy
  3115     150A                     l2876:
  3116                           
  3117                           ;C:\Program Files\Microchip\xc8\v2.50\pic\sources\c99\common\doprnt.c: 633:         };C:
      +                          \Program Files\Microchip\xc8\v2.50\pic\sources\c99\common\doprnt.c: 634:         w -= ((
      +                          sizeof("inf")/sizeof("inf"[0]))-1);
  3118     150A  30FD               	movlw	253
  3119     150B  1683               	bsf	3,5	;RP0=1, select bank1
  3120     150C  1303               	bcf	3,6	;RP1=0, select bank1
  3121     150D  07B5               	addwf	efgtoa@w^(0+128),f
  3122     150E  1803               	skipnc
  3123     150F  0AB6               	incf	(efgtoa@w+1)^(0+128),f
  3124     1510  30FF               	movlw	255
  3125     1511  07B6               	addwf	(efgtoa@w+1)^(0+128),f
  3126     1512                     l2878:
  3127                           
  3128                           ;C:\Program Files\Microchip\xc8\v2.50\pic\sources\c99\common\doprnt.c: 635:         retu
      +                          rn (void) pad(fp, &dbuf[0], w);
  3129     1512  1283               	bcf	3,5	;RP0=0, select bank0
  3130     1513  1303               	bcf	3,6	;RP1=0, select bank0
  3131     1514  0868               	movf	efgtoa@fp,w
  3132     1515  00A8               	movwf	pad@fp
  3133     1516  0869               	movf	efgtoa@fp+1,w
  3134     1517  00A9               	movwf	pad@fp+1
  3135     1518  3010               	movlw	(low (_dbuf| (0+256)))& (0+255)
  3136     1519  00AA               	movwf	pad@buf
  3137     151A  1683               	bsf	3,5	;RP0=1, select bank1
  3138     151B  1303               	bcf	3,6	;RP1=0, select bank1
  3139     151C  0836               	movf	(efgtoa@w+1)^(0+128),w
  3140     151D  1283               	bcf	3,5	;RP0=0, select bank0
  3141     151E  1303               	bcf	3,6	;RP1=0, select bank0
  3142     151F  00AC               	movwf	pad@p+1
  3143     1520  1683               	bsf	3,5	;RP0=1, select bank1
  3144     1521  1303               	bcf	3,6	;RP1=0, select bank1
  3145     1522  0835               	movf	efgtoa@w^(0+128),w
  3146     1523  1283               	bcf	3,5	;RP0=0, select bank0
  3147     1524  1303               	bcf	3,6	;RP1=0, select bank0
  3148     1525  00AB               	movwf	pad@p
  3149     1526  160A  118A  208B  160A  118A  	fcall	_pad
  3150     152B  120A  118A  2FE3   	goto	l661
  3151     152E                     l2882:
  3152                           
  3153                           ;C:\Program Files\Microchip\xc8\v2.50\pic\sources\c99\common\doprnt.c: 637:     if (( __
      +                          fpclassifyf(g.f) == 0 )) {
  3154     152E  1683               	bsf	3,5	;RP0=1, select bank1
  3155     152F  1303               	bcf	3,6	;RP1=0, select bank1
  3156     1530  0849               	movf	(efgtoa@g+3)^(0+128),w
  3157     1531  00F3               	movwf	___fpclassifyf@x+3
  3158     1532  0848               	movf	(efgtoa@g+2)^(0+128),w
  3159     1533  00F2               	movwf	___fpclassifyf@x+2
  3160     1534  0847               	movf	(efgtoa@g+1)^(0+128),w
  3161     1535  00F1               	movwf	___fpclassifyf@x+1
  3162     1536  0846               	movf	efgtoa@g^(0+128),w
  3163     1537  00F0               	movwf	___fpclassifyf@x
  3164     1538  120A  118A  2005  160A  118A  	fcall	___fpclassifyf
  3165     153D  0870               	movf	?___fpclassifyf,w
  3166     153E  0471               	iorwf	?___fpclassifyf+1,w
  3167     153F  1D03               	btfss	3,2
  3168     1540  2D42               	goto	u4481
  3169     1541  2D45               	goto	u4480
  3170     1542                     u4481:
  3171     1542  120A  118A  2892   	goto	l2896
  3172     1545                     u4480:
  3173     1545                     l2884:
  3174                           
  3175                           ;C:\Program Files\Microchip\xc8\v2.50\pic\sources\c99\common\doprnt.c: 638:   if (sign) 
      +                          {
  3176     1545  1683               	bsf	3,5	;RP0=1, select bank1
  3177     1546  1303               	bcf	3,6	;RP1=0, select bank1
  3178     1547  0845               	movf	efgtoa@sign^(0+128),w
  3179     1548  1903               	btfsc	3,2
  3180     1549  2D4B               	goto	u4491
  3181     154A  2D4C               	goto	u4490
  3182     154B                     u4491:
  3183     154B  2D5C               	goto	l2888
  3184     154C                     u4490:
  3185     154C                     l2886:
  3186                           
  3187                           ;C:\Program Files\Microchip\xc8\v2.50\pic\sources\c99\common\doprnt.c: 639:    dbuf[0] =
      +                           sign;
  3188     154C  0845               	movf	efgtoa@sign^(0+128),w
  3189     154D  1283               	bcf	3,5	;RP0=0, select bank2
  3190     154E  1703               	bsf	3,6	;RP1=1, select bank2
  3191     154F  0090               	movwf	_dbuf^(0+256)
  3192                           
  3193                           ;C:\Program Files\Microchip\xc8\v2.50\pic\sources\c99\common\doprnt.c: 640:    w--;
  3194     1550  30FF               	movlw	255
  3195     1551  1683               	bsf	3,5	;RP0=1, select bank1
  3196     1552  1303               	bcf	3,6	;RP1=0, select bank1
  3197     1553  07B5               	addwf	efgtoa@w^(0+128),f
  3198     1554  1803               	skipnc
  3199     1555  0AB6               	incf	(efgtoa@w+1)^(0+128),f
  3200     1556  30FF               	movlw	255
  3201     1557  07B6               	addwf	(efgtoa@w+1)^(0+128),f
  3202                           
  3203                           ;C:\Program Files\Microchip\xc8\v2.50\pic\sources\c99\common\doprnt.c: 641:    n = 1;
  3204     1558  3001               	movlw	1
  3205     1559  00CA               	movwf	efgtoa@n^(0+128)
  3206     155A  3000               	movlw	0
  3207     155B  00CB               	movwf	(efgtoa@n^(0+128)+1)
  3208     155C                     l2888:
  3209                           
  3210                           ;C:\Program Files\Microchip\xc8\v2.50\pic\sources\c99\common\doprnt.c: 649:   {;C:\Progr
      +                          am Files\Microchip\xc8\v2.50\pic\sources\c99\common\doprnt.c: 650:             strcpy(&d
      +                          buf[n], "nan");
  3211     155C  084A               	movf	efgtoa@n^(0+128),w
  3212     155D  3E10               	addlw	(low (_dbuf| (0+256)))& (0+255)
  3213     155E  00F0               	movwf	strcpy@dest
  3214     155F  3019               	movlw	(low ((STR_6-__stringbase)| (0+32768)))& (0+255)
  3215     1560  00F1               	movwf	strcpy@src
  3216     1561  160A  158A  265E  160A  118A  	fcall	_strcpy
  3217     1566  2D0A               	goto	l2876
  3218                           
  3219                           	psect	text10
  3220     1E5E                     __ptext10:	
  3221 ;; *************** function _strcpy *****************
  3222 ;; Defined at:
  3223 ;;		line 3 in file "C:\Program Files\Microchip\xc8\v2.50\pic\sources\c99\common\strcpy.c"
  3224 ;; Parameters:    Size  Location     Type
  3225 ;;  dest            1    0[COMMON] PTR unsigned char 
  3226 ;;		 -> dbuf(80), 
  3227 ;;  src             1    1[COMMON] PTR const unsigned char 
  3228 ;;		 -> STR_6(4), STR_3(4), 
  3229 ;; Auto vars:     Size  Location     Type
  3230 ;;  d               1    2[COMMON] PTR unsigned char 
  3231 ;;		 -> dbuf(80), 
  3232 ;; Return value:  Size  Location     Type
  3233 ;;                  1    0[COMMON] PTR unsigned char 
  3234 ;; Registers used:
  3235 ;;		wreg, fsr0l, fsr0h, status,2, status,0, btemp+1, pclath
  3236 ;; Tracked objects:
  3237 ;;		On entry : 0/0
  3238 ;;		On exit  : 0/0
  3239 ;;		Unchanged: 0/0
  3240 ;; Data sizes:     COMMON   BANK0   BANK1   BANK3   BANK2
  3241 ;;      Params:         2       0       0       0       0
  3242 ;;      Locals:         1       0       0       0       0
  3243 ;;      Temps:          0       0       0       0       0
  3244 ;;      Totals:         3       0       0       0       0
  3245 ;;Total ram usage:        3 bytes
  3246 ;; Hardware stack levels used: 2
  3247 ;; This function calls:
  3248 ;;		Nothing
  3249 ;; This function is called by:
  3250 ;;		_efgtoa
  3251 ;; This function uses a non-reentrant model
  3252 ;;
  3253                           
  3254     1E5E                     _strcpy:	
  3255                           ;psect for function _strcpy
  3256                           
  3257     1E5E                     l2796:	
  3258                           ;incstack = 0
  3259                           ; Regs used in _strcpy: [wreg-fsr0h+status,2+status,0+btemp+1+pclath]
  3260                           
  3261     1E5E  0870               	movf	strcpy@dest,w
  3262     1E5F  00F2               	movwf	strcpy@d
  3263     1E60                     l2798:
  3264     1E60  3001               	movlw	1
  3265     1E61  07F1               	addwf	strcpy@src,f
  3266     1E62  30FF               	movlw	-1
  3267     1E63  0771               	addwf	strcpy@src,w
  3268     1E64  0084               	movwf	4
  3269     1E65  160A  158A  2000  160A  158A  	fcall	stringdir
  3270     1E6A  00FF               	movwf	btemp+1
  3271     1E6B  0872               	movf	strcpy@d,w
  3272     1E6C  0AF2               	incf	strcpy@d,f
  3273     1E6D  0084               	movwf	4
  3274     1E6E  087F               	movf	btemp+1,w
  3275     1E6F  1783               	bsf	3,7	;select IRP bank2
  3276     1E70  0080               	movwf	0
  3277     1E71  0800               	movf	0,w
  3278     1E72  1D03               	btfss	3,2
  3279     1E73  2E75               	goto	u4281
  3280     1E74  2E76               	goto	u4280
  3281     1E75                     u4281:
  3282     1E75  2E60               	goto	l2798
  3283     1E76                     u4280:
  3284     1E76                     l838:
  3285     1E76  0008               	return
  3286     1E77                     __end_of_strcpy:
  3287                           
  3288                           	psect	text11
  3289     108B                     __ptext11:	
  3290 ;; *************** function _pad *****************
  3291 ;; Defined at:
  3292 ;;		line 193 in file "C:\Program Files\Microchip\xc8\v2.50\pic\sources\c99\common\doprnt.c"
  3293 ;; Parameters:    Size  Location     Type
  3294 ;;  fp              2    8[BANK0 ] PTR struct _IO_FILE
  3295 ;;		 -> sprintf@f(11), 
  3296 ;;  buf             1   10[BANK0 ] PTR unsigned char 
  3297 ;;		 -> dbuf(80), 
  3298 ;;  p               2   11[BANK0 ] int 
  3299 ;; Auto vars:     Size  Location     Type
  3300 ;;  i               2   13[BANK0 ] int 
  3301 ;; Return value:  Size  Location     Type
  3302 ;;                  1    wreg      void 
  3303 ;; Registers used:
  3304 ;;		wreg, fsr0l, fsr0h, status,2, status,0, pclath, cstack
  3305 ;; Tracked objects:
  3306 ;;		On entry : 0/0
  3307 ;;		On exit  : 0/0
  3308 ;;		Unchanged: 0/0
  3309 ;; Data sizes:     COMMON   BANK0   BANK1   BANK3   BANK2
  3310 ;;      Params:         0       5       0       0       0
  3311 ;;      Locals:         0       2       0       0       0
  3312 ;;      Temps:          1       0       0       0       0
  3313 ;;      Totals:         1       7       0       0       0
  3314 ;;Total ram usage:        8 bytes
  3315 ;; Hardware stack levels used: 1
  3316 ;; Hardware stack levels required when called: 3
  3317 ;; This function calls:
  3318 ;;		_fputc
  3319 ;;		_fputs
  3320 ;; This function is called by:
  3321 ;;		_efgtoa
  3322 ;;		_utoa
  3323 ;; This function uses a non-reentrant model
  3324 ;;
  3325                           
  3326     108B                     _pad:	
  3327                           ;psect for function _pad
  3328                           
  3329     108B                     l2756:	
  3330                           ;incstack = 0
  3331                           ; Regs used in _pad: [wreg-fsr0h+status,2+status,0+pclath+cstack]
  3332                           
  3333                           
  3334                           ;C:\Program Files\Microchip\xc8\v2.50\pic\sources\c99\common\doprnt.c: 193: static void 
      +                          pad(FILE *fp, char *buf, int p);C:\Program Files\Microchip\xc8\v2.50\pic\sources\c99\com
      +                          mon\doprnt.c: 194: {;C:\Program Files\Microchip\xc8\v2.50\pic\sources\c99\common\doprnt.
      +                          c: 195:     int i;;C:\Program Files\Microchip\xc8\v2.50\pic\sources\c99\common\doprnt.c:
      +                           199:     if (flags & (1 << 0)) {
  3335     108B  1683               	bsf	3,5	;RP0=1, select bank1
  3336     108C  1303               	bcf	3,6	;RP1=0, select bank1
  3337     108D  1C6F               	btfss	_flags^(0+128),0
  3338     108E  2890               	goto	u4161
  3339     108F  2891               	goto	u4160
  3340     1090                     u4161:
  3341     1090  289E               	goto	l2760
  3342     1091                     u4160:
  3343     1091                     l2758:
  3344                           
  3345                           ;C:\Program Files\Microchip\xc8\v2.50\pic\sources\c99\common\doprnt.c: 200:         fput
      +                          s((const char *)buf, fp);
  3346     1091  1283               	bcf	3,5	;RP0=0, select bank0
  3347     1092  1303               	bcf	3,6	;RP1=0, select bank0
  3348     1093  082A               	movf	pad@buf,w
  3349     1094  00A0               	movwf	fputs@s
  3350     1095  0828               	movf	pad@fp,w
  3351     1096  00A1               	movwf	fputs@fp
  3352     1097  0829               	movf	pad@fp+1,w
  3353     1098  00A2               	movwf	fputs@fp+1
  3354     1099  160A  158A  270D  160A  118A  	fcall	_fputs
  3355     109E                     l2760:
  3356                           
  3357                           ;C:\Program Files\Microchip\xc8\v2.50\pic\sources\c99\common\doprnt.c: 205:  if (p < 0) 
      +                          {
  3358     109E  1283               	bcf	3,5	;RP0=0, select bank0
  3359     109F  1303               	bcf	3,6	;RP1=0, select bank0
  3360     10A0  1FAC               	btfss	pad@p+1,7
  3361     10A1  28A3               	goto	u4171
  3362     10A2  28A4               	goto	u4170
  3363     10A3                     u4171:
  3364     10A3  28A6               	goto	l645
  3365     10A4                     u4170:
  3366     10A4                     l2762:
  3367                           
  3368                           ;C:\Program Files\Microchip\xc8\v2.50\pic\sources\c99\common\doprnt.c: 206:   p = 0;
  3369     10A4  01AB               	clrf	pad@p
  3370     10A5  01AC               	clrf	pad@p+1
  3371     10A6                     l645:	
  3372                           ;C:\Program Files\Microchip\xc8\v2.50\pic\sources\c99\common\doprnt.c: 207:  }
  3373                           
  3374                           
  3375                           ;C:\Program Files\Microchip\xc8\v2.50\pic\sources\c99\common\doprnt.c: 208:     i = 0;
  3376     10A6  01AD               	clrf	pad@i
  3377     10A7  01AE               	clrf	pad@i+1
  3378                           
  3379                           ;C:\Program Files\Microchip\xc8\v2.50\pic\sources\c99\common\doprnt.c: 209:     while (i
      +                           < p) {
  3380     10A8  28C0               	goto	l2768
  3381     10A9                     l2764:
  3382                           
  3383                           ;C:\Program Files\Microchip\xc8\v2.50\pic\sources\c99\common\doprnt.c: 210:         fput
      +                          c(' ', fp);
  3384     10A9  3020               	movlw	32
  3385     10AA  00F0               	movwf	fputc@c
  3386     10AB  3000               	movlw	0
  3387     10AC  00F1               	movwf	fputc@c+1
  3388     10AD  1283               	bcf	3,5	;RP0=0, select bank0
  3389     10AE  1303               	bcf	3,6	;RP1=0, select bank0
  3390     10AF  0828               	movf	pad@fp,w
  3391     10B0  00F2               	movwf	fputc@fp
  3392     10B1  0829               	movf	pad@fp+1,w
  3393     10B2  00F3               	movwf	fputc@fp+1
  3394     10B3  160A  118A  20E2  160A  118A  	fcall	_fputc
  3395     10B8                     l2766:
  3396                           
  3397                           ;C:\Program Files\Microchip\xc8\v2.50\pic\sources\c99\common\doprnt.c: 211:         ++i;
  3398     10B8  3001               	movlw	1
  3399     10B9  1283               	bcf	3,5	;RP0=0, select bank0
  3400     10BA  1303               	bcf	3,6	;RP1=0, select bank0
  3401     10BB  07AD               	addwf	pad@i,f
  3402     10BC  1803               	skipnc
  3403     10BD  0AAE               	incf	pad@i+1,f
  3404     10BE  3000               	movlw	0
  3405     10BF  07AE               	addwf	pad@i+1,f
  3406     10C0                     l2768:
  3407                           
  3408                           ;C:\Program Files\Microchip\xc8\v2.50\pic\sources\c99\common\doprnt.c: 209:     while (i
      +                           < p) {
  3409     10C0  082E               	movf	pad@i+1,w
  3410     10C1  3A80               	xorlw	128
  3411     10C2  00FD               	movwf	??_pad
  3412     10C3  082C               	movf	pad@p+1,w
  3413     10C4  3A80               	xorlw	128
  3414     10C5  027D               	subwf	??_pad,w
  3415     10C6  1D03               	skipz
  3416     10C7  28CA               	goto	u4185
  3417     10C8  082B               	movf	pad@p,w
  3418     10C9  022D               	subwf	pad@i,w
  3419     10CA                     u4185:
  3420     10CA  1C03               	skipc
  3421     10CB  28CD               	goto	u4181
  3422     10CC  28CE               	goto	u4180
  3423     10CD                     u4181:
  3424     10CD  28A9               	goto	l2764
  3425     10CE                     u4180:
  3426     10CE                     l648:
  3427                           
  3428                           ;C:\Program Files\Microchip\xc8\v2.50\pic\sources\c99\common\doprnt.c: 216:     if (!(fl
      +                          ags & (1 << 0))) {
  3429     10CE  1683               	bsf	3,5	;RP0=1, select bank1
  3430     10CF  1303               	bcf	3,6	;RP1=0, select bank1
  3431     10D0  186F               	btfsc	_flags^(0+128),0
  3432     10D1  28D3               	goto	u4191
  3433     10D2  28D4               	goto	u4190
  3434     10D3                     u4191:
  3435     10D3  28E1               	goto	l650
  3436     10D4                     u4190:
  3437     10D4                     l2770:
  3438                           
  3439                           ;C:\Program Files\Microchip\xc8\v2.50\pic\sources\c99\common\doprnt.c: 218:         fput
      +                          s((const char *)buf, fp);
  3440     10D4  1283               	bcf	3,5	;RP0=0, select bank0
  3441     10D5  1303               	bcf	3,6	;RP1=0, select bank0
  3442     10D6  082A               	movf	pad@buf,w
  3443     10D7  00A0               	movwf	fputs@s
  3444     10D8  0828               	movf	pad@fp,w
  3445     10D9  00A1               	movwf	fputs@fp
  3446     10DA  0829               	movf	pad@fp+1,w
  3447     10DB  00A2               	movwf	fputs@fp+1
  3448     10DC  160A  158A  270D  160A  118A  	fcall	_fputs
  3449     10E1                     l650:
  3450     10E1  0008               	return
  3451     10E2                     __end_of_pad:
  3452                           
  3453                           	psect	text12
  3454     1F0D                     __ptext12:	
  3455 ;; *************** function _fputs *****************
  3456 ;; Defined at:
  3457 ;;		line 8 in file "C:\Program Files\Microchip\xc8\v2.50\pic\sources\c99\common\nf_fputs.c"
  3458 ;; Parameters:    Size  Location     Type
  3459 ;;  s               1    0[BANK0 ] PTR const unsigned char 
  3460 ;;		 -> dbuf(80), 
  3461 ;;  fp              2    1[BANK0 ] PTR struct _IO_FILE
  3462 ;;		 -> sprintf@f(11), 
  3463 ;; Auto vars:     Size  Location     Type
  3464 ;;  i               2    6[BANK0 ] int 
  3465 ;;  c               1    5[BANK0 ] unsigned char 
  3466 ;; Return value:  Size  Location     Type
  3467 ;;                  2    0[BANK0 ] int 
  3468 ;; Registers used:
  3469 ;;		wreg, fsr0l, fsr0h, status,2, status,0, pclath, cstack
  3470 ;; Tracked objects:
  3471 ;;		On entry : 0/0
  3472 ;;		On exit  : 0/0
  3473 ;;		Unchanged: 0/0
  3474 ;; Data sizes:     COMMON   BANK0   BANK1   BANK3   BANK2
  3475 ;;      Params:         0       3       0       0       0
  3476 ;;      Locals:         0       3       0       0       0
  3477 ;;      Temps:          0       2       0       0       0
  3478 ;;      Totals:         0       8       0       0       0
  3479 ;;Total ram usage:        8 bytes
  3480 ;; Hardware stack levels used: 1
  3481 ;; Hardware stack levels required when called: 2
  3482 ;; This function calls:
  3483 ;;		_fputc
  3484 ;; This function is called by:
  3485 ;;		_pad
  3486 ;; This function uses a non-reentrant model
  3487 ;;
  3488                           
  3489     1F0D                     _fputs:	
  3490                           ;psect for function _fputs
  3491                           
  3492     1F0D                     l2318:	
  3493                           ;incstack = 0
  3494                           ; Regs used in _fputs: [wreg-fsr0h+status,2+status,0+pclath+cstack]
  3495                           
  3496     1F0D  1283               	bcf	3,5	;RP0=0, select bank0
  3497     1F0E  1303               	bcf	3,6	;RP1=0, select bank0
  3498     1F0F  01A6               	clrf	fputs@i
  3499     1F10  01A7               	clrf	fputs@i+1
  3500     1F11  2F2A               	goto	l2324
  3501     1F12                     l2320:
  3502     1F12  0825               	movf	fputs@c,w
  3503     1F13  00A3               	movwf	??_fputs
  3504     1F14  01A4               	clrf	??_fputs+1
  3505     1F15  0823               	movf	??_fputs,w
  3506     1F16  00F0               	movwf	fputc@c
  3507     1F17  0824               	movf	??_fputs+1,w
  3508     1F18  00F1               	movwf	fputc@c+1
  3509     1F19  0821               	movf	fputs@fp,w
  3510     1F1A  00F2               	movwf	fputc@fp
  3511     1F1B  0822               	movf	fputs@fp+1,w
  3512     1F1C  00F3               	movwf	fputc@fp+1
  3513     1F1D  160A  118A  20E2  160A  158A  	fcall	_fputc
  3514     1F22                     l2322:
  3515     1F22  3001               	movlw	1
  3516     1F23  1283               	bcf	3,5	;RP0=0, select bank0
  3517     1F24  1303               	bcf	3,6	;RP1=0, select bank0
  3518     1F25  07A6               	addwf	fputs@i,f
  3519     1F26  1803               	skipnc
  3520     1F27  0AA7               	incf	fputs@i+1,f
  3521     1F28  3000               	movlw	0
  3522     1F29  07A7               	addwf	fputs@i+1,f
  3523     1F2A                     l2324:
  3524     1F2A  0826               	movf	fputs@i,w
  3525     1F2B  0720               	addwf	fputs@s,w
  3526     1F2C  00A3               	movwf	??_fputs
  3527     1F2D  0823               	movf	??_fputs,w
  3528     1F2E  0084               	movwf	4
  3529     1F2F  1783               	bsf	3,7	;select IRP bank2
  3530     1F30  0800               	movf	0,w
  3531     1F31  00A5               	movwf	fputs@c
  3532     1F32  0825               	movf	fputs@c,w
  3533     1F33  1D03               	btfss	3,2
  3534     1F34  2F36               	goto	u3111
  3535     1F35  2F37               	goto	u3110
  3536     1F36                     u3111:
  3537     1F36  2F12               	goto	l2320
  3538     1F37                     u3110:
  3539     1F37                     l829:
  3540     1F37  0008               	return
  3541     1F38                     __end_of_fputs:
  3542                           
  3543                           	psect	text13
  3544     10E2                     __ptext13:	
  3545 ;; *************** function _fputc *****************
  3546 ;; Defined at:
  3547 ;;		line 8 in file "C:\Program Files\Microchip\xc8\v2.50\pic\sources\c99\common\nf_fputc.c"
  3548 ;; Parameters:    Size  Location     Type
  3549 ;;  c               2    0[COMMON] int 
  3550 ;;  fp              2    2[COMMON] PTR struct _IO_FILE
  3551 ;;		 -> sprintf@f(11), 
  3552 ;; Auto vars:     Size  Location     Type
  3553 ;;		None
  3554 ;; Return value:  Size  Location     Type
  3555 ;;                  2    0[COMMON] int 
  3556 ;; Registers used:
  3557 ;;		wreg, fsr0l, fsr0h, status,2, status,0, pclath, cstack
  3558 ;; Tracked objects:
  3559 ;;		On entry : 0/0
  3560 ;;		On exit  : 0/0
  3561 ;;		Unchanged: 0/0
  3562 ;; Data sizes:     COMMON   BANK0   BANK1   BANK3   BANK2
  3563 ;;      Params:         4       0       0       0       0
  3564 ;;      Locals:         0       0       0       0       0
  3565 ;;      Temps:          9       0       0       0       0
  3566 ;;      Totals:        13       0       0       0       0
  3567 ;;Total ram usage:       13 bytes
  3568 ;; Hardware stack levels used: 1
  3569 ;; Hardware stack levels required when called: 1
  3570 ;; This function calls:
  3571 ;;		_putch
  3572 ;; This function is called by:
  3573 ;;		_pad
  3574 ;;		_vfpfcnvrt
  3575 ;;		_fputs
  3576 ;; This function uses a non-reentrant model
  3577 ;;
  3578                           
  3579     10E2                     _fputc:	
  3580                           ;psect for function _fputc
  3581                           
  3582     10E2                     l2092:	
  3583                           ;incstack = 0
  3584                           ; Regs used in _fputc: [wreg-fsr0h+status,2+status,0+pclath+cstack]
  3585                           
  3586     10E2  0872               	movf	fputc@fp,w
  3587     10E3  0473               	iorwf	fputc@fp+1,w
  3588     10E4  1903               	btfsc	3,2
  3589     10E5  28E7               	goto	u2571
  3590     10E6  28E8               	goto	u2570
  3591     10E7                     u2571:
  3592     10E7  28EE               	goto	l2096
  3593     10E8                     u2570:
  3594     10E8                     l2094:
  3595     10E8  0872               	movf	fputc@fp,w
  3596     10E9  0473               	iorwf	fputc@fp+1,w
  3597     10EA  1D03               	btfss	3,2
  3598     10EB  28ED               	goto	u2581
  3599     10EC  28EE               	goto	u2580
  3600     10ED                     u2581:
  3601     10ED  28F5               	goto	l2098
  3602     10EE                     u2580:
  3603     10EE                     l2096:
  3604     10EE  0870               	movf	fputc@c,w
  3605     10EF  120A  118A  2004  160A  118A  	fcall	_putch
  3606     10F4  297B               	goto	l821
  3607     10F5                     l2098:
  3608     10F5  0872               	movf	fputc@fp,w
  3609     10F6  3E09               	addlw	9
  3610     10F7  00F4               	movwf	??_fputc
  3611     10F8  0873               	movf	fputc@fp+1,w
  3612     10F9  1803               	skipnc
  3613     10FA  3E01               	addlw	1
  3614     10FB  3E00               	addlw	0
  3615     10FC  00F5               	movwf	??_fputc+1
  3616     10FD  0874               	movf	??_fputc,w
  3617     10FE  0084               	movwf	4
  3618     10FF  1783               	bsf	3,7
  3619     1100  1C75               	btfss	??_fputc+1,0
  3620     1101  1383               	bcf	3,7
  3621     1102  0800               	movf	0,w
  3622     1103  00F6               	movwf	??_fputc+2
  3623     1104  0A84               	incf	4,f
  3624     1105  0800               	movf	0,w
  3625     1106  00F7               	movwf	??_fputc+3
  3626     1107  0876               	movf	??_fputc+2,w
  3627     1108  0477               	iorwf	??_fputc+3,w
  3628     1109  1903               	btfsc	3,2
  3629     110A  290C               	goto	u2591
  3630     110B  290D               	goto	u2590
  3631     110C                     u2591:
  3632     110C  293F               	goto	l2102
  3633     110D                     u2590:
  3634     110D                     l2100:
  3635     110D  0872               	movf	fputc@fp,w
  3636     110E  3E09               	addlw	9
  3637     110F  00F4               	movwf	??_fputc
  3638     1110  0873               	movf	fputc@fp+1,w
  3639     1111  1803               	skipnc
  3640     1112  3E01               	addlw	1
  3641     1113  3E00               	addlw	0
  3642     1114  00F5               	movwf	??_fputc+1
  3643     1115  0874               	movf	??_fputc,w
  3644     1116  0084               	movwf	4
  3645     1117  1783               	bsf	3,7
  3646     1118  1C75               	btfss	??_fputc+1,0
  3647     1119  1383               	bcf	3,7
  3648     111A  0800               	movf	0,w
  3649     111B  00F6               	movwf	??_fputc+2
  3650     111C  0A84               	incf	4,f
  3651     111D  0800               	movf	0,w
  3652     111E  00F7               	movwf	??_fputc+3
  3653     111F  0872               	movf	fputc@fp,w
  3654     1120  3E02               	addlw	2
  3655     1121  00F8               	movwf	??_fputc+4
  3656     1122  0873               	movf	fputc@fp+1,w
  3657     1123  1803               	skipnc
  3658     1124  3E01               	addlw	1
  3659     1125  3E00               	addlw	0
  3660     1126  00F9               	movwf	??_fputc+5
  3661     1127  0878               	movf	??_fputc+4,w
  3662     1128  0084               	movwf	4
  3663     1129  1783               	bsf	3,7
  3664     112A  1C79               	btfss	??_fputc+5,0
  3665     112B  1383               	bcf	3,7
  3666     112C  0800               	movf	0,w
  3667     112D  00FA               	movwf	??_fputc+6
  3668     112E  0A84               	incf	4,f
  3669     112F  0800               	movf	0,w
  3670     1130  00FB               	movwf	??_fputc+7
  3671     1131  087B               	movf	??_fputc+7,w
  3672     1132  3A80               	xorlw	128
  3673     1133  00FC               	movwf	??_fputc+8
  3674     1134  0877               	movf	??_fputc+3,w
  3675     1135  3A80               	xorlw	128
  3676     1136  027C               	subwf	??_fputc+8,w
  3677     1137  1D03               	skipz
  3678     1138  293B               	goto	u2605
  3679     1139  0876               	movf	??_fputc+2,w
  3680     113A  027A               	subwf	??_fputc+6,w
  3681     113B                     u2605:
  3682     113B  1803               	skipnc
  3683     113C  293E               	goto	u2601
  3684     113D  293F               	goto	u2600
  3685     113E                     u2601:
  3686     113E  297B               	goto	l821
  3687     113F                     u2600:
  3688     113F                     l2102:
  3689     113F  0872               	movf	fputc@fp,w
  3690     1140  0084               	movwf	4
  3691     1141  1783               	bsf	3,7
  3692     1142  1C73               	btfss	fputc@fp+1,0
  3693     1143  1383               	bcf	3,7
  3694     1144  0800               	movf	0,w
  3695     1145  00F4               	movwf	??_fputc
  3696     1146  0A84               	incf	4,f
  3697     1147  0800               	movf	0,w
  3698     1148  00F5               	movwf	??_fputc+1
  3699     1149  0872               	movf	fputc@fp,w
  3700     114A  3E02               	addlw	2
  3701     114B  00F6               	movwf	??_fputc+2
  3702     114C  0873               	movf	fputc@fp+1,w
  3703     114D  1803               	skipnc
  3704     114E  3E01               	addlw	1
  3705     114F  3E00               	addlw	0
  3706     1150  00F7               	movwf	??_fputc+3
  3707     1151  0876               	movf	??_fputc+2,w
  3708     1152  0084               	movwf	4
  3709     1153  1783               	bsf	3,7
  3710     1154  1C77               	btfss	??_fputc+3,0
  3711     1155  1383               	bcf	3,7
  3712     1156  0800               	movf	0,w
  3713     1157  0774               	addwf	??_fputc,w
  3714     1158  00F9               	movwf	??_fputc+5
  3715     1159  0875               	movf	??_fputc+1,w
  3716     115A  00F8               	movwf	??_fputc+4
  3717     115B  1803               	skipnc
  3718     115C  0AF8               	incf	??_fputc+4,f
  3719     115D  1F80               	btfss	0,7
  3720     115E  2960               	goto	u2610
  3721     115F  03F8               	decf	??_fputc+4,f
  3722     1160                     u2610:
  3723     1160  0878               	movf	??_fputc+4,w
  3724     1161  00FA               	movwf	??_fputc+6
  3725     1162  0879               	movf	??_fputc+5,w
  3726     1163  0084               	movwf	4
  3727     1164  1783               	bsf	3,7
  3728     1165  1C7A               	btfss	??_fputc+6,0
  3729     1166  1383               	bcf	3,7
  3730     1167  0870               	movf	fputc@c,w
  3731     1168  0080               	movwf	0
  3732     1169  0872               	movf	fputc@fp,w
  3733     116A  3E02               	addlw	2
  3734     116B  00F4               	movwf	??_fputc
  3735     116C  0873               	movf	fputc@fp+1,w
  3736     116D  1803               	skipnc
  3737     116E  3E01               	addlw	1
  3738     116F  3E00               	addlw	0
  3739     1170  00F5               	movwf	??_fputc+1
  3740     1171  0874               	movf	??_fputc,w
  3741     1172  0084               	movwf	4
  3742     1173  1783               	bsf	3,7
  3743     1174  1C75               	btfss	??_fputc+1,0
  3744     1175  1383               	bcf	3,7
  3745     1176  3001               	movlw	1
  3746     1177  0780               	addwf	0,f
  3747     1178  0A84               	incf	4,f
  3748     1179  1803               	skipnc
  3749     117A  0A80               	incf	0,f
  3750     117B                     l821:
  3751     117B  0008               	return
  3752     117C                     __end_of_fputc:
  3753                           
  3754                           	psect	text14
  3755     0004                     __ptext14:	
  3756 ;; *************** function _putch *****************
  3757 ;; Defined at:
  3758 ;;		line 7 in file "C:\Program Files\Microchip\xc8\v2.50\pic\sources\c99\common\putch.c"
  3759 ;; Parameters:    Size  Location     Type
  3760 ;;  c               1    wreg     unsigned char 
  3761 ;; Auto vars:     Size  Location     Type
  3762 ;;  c               1    0[COMMON] unsigned char 
  3763 ;; Return value:  Size  Location     Type
  3764 ;;                  1    wreg      void 
  3765 ;; Registers used:
  3766 ;;		wreg
  3767 ;; Tracked objects:
  3768 ;;		On entry : 0/0
  3769 ;;		On exit  : 0/0
  3770 ;;		Unchanged: 0/0
  3771 ;; Data sizes:     COMMON   BANK0   BANK1   BANK3   BANK2
  3772 ;;      Params:         0       0       0       0       0
  3773 ;;      Locals:         0       0       0       0       0
  3774 ;;      Temps:          0       0       0       0       0
  3775 ;;      Totals:         0       0       0       0       0
  3776 ;;Total ram usage:        0 bytes
  3777 ;; Hardware stack levels used: 1
  3778 ;; This function calls:
  3779 ;;		Nothing
  3780 ;; This function is called by:
  3781 ;;		_fputc
  3782 ;; This function uses a non-reentrant model
  3783 ;;
  3784                           
  3785     0004                     _putch:	
  3786                           ;psect for function _putch
  3787                           
  3788     0004                     l832:	
  3789                           ;incstack = 0
  3790                           ; Regs used in _putch: [wreg]
  3791                           
  3792     0004  0008               	return
  3793     0005                     __end_of_putch:
  3794                           
  3795                           	psect	text15
  3796     1E77                     __ptext15:	
  3797 ;; *************** function _memcpy *****************
  3798 ;; Defined at:
  3799 ;;		line 4 in file "C:\Program Files\Microchip\xc8\v2.50\pic\sources\c99\common\memcpy.c"
  3800 ;; Parameters:    Size  Location     Type
  3801 ;;  d1              1    0[COMMON] PTR void 
  3802 ;;		 -> dbuf(80), 
  3803 ;;  s1              1    1[COMMON] PTR const void 
  3804 ;;		 -> dbuf(80), 
  3805 ;;  n               2    2[COMMON] unsigned int 
  3806 ;; Auto vars:     Size  Location     Type
  3807 ;;  s               1    6[COMMON] PTR const unsigned char 
  3808 ;;		 -> dbuf(80), 
  3809 ;;  d               1    5[COMMON] PTR unsigned char 
  3810 ;;		 -> dbuf(80), 
  3811 ;;  tmp             1    4[COMMON] unsigned char 
  3812 ;; Return value:  Size  Location     Type
  3813 ;;                  1    0[COMMON] PTR void 
  3814 ;; Registers used:
  3815 ;;		wreg, fsr0l, fsr0h, status,2, status,0
  3816 ;; Tracked objects:
  3817 ;;		On entry : 0/0
  3818 ;;		On exit  : 0/0
  3819 ;;		Unchanged: 0/0
  3820 ;; Data sizes:     COMMON   BANK0   BANK1   BANK3   BANK2
  3821 ;;      Params:         4       0       0       0       0
  3822 ;;      Locals:         3       0       0       0       0
  3823 ;;      Temps:          0       0       0       0       0
  3824 ;;      Totals:         7       0       0       0       0
  3825 ;;Total ram usage:        7 bytes
  3826 ;; Hardware stack levels used: 1
  3827 ;; This function calls:
  3828 ;;		Nothing
  3829 ;; This function is called by:
  3830 ;;		_efgtoa
  3831 ;; This function uses a non-reentrant model
  3832 ;;
  3833                           
  3834     1E77                     _memcpy:	
  3835                           ;psect for function _memcpy
  3836                           
  3837     1E77                     l2838:	
  3838                           ;incstack = 0
  3839                           ; Regs used in _memcpy: [wreg-fsr0h+status,2+status,0]
  3840                           
  3841     1E77  0871               	movf	memcpy@s1,w
  3842     1E78  00F6               	movwf	memcpy@s
  3843     1E79  0870               	movf	memcpy@d1,w
  3844     1E7A  00F5               	movwf	memcpy@d
  3845     1E7B  2E89               	goto	l806
  3846     1E7C                     l2840:
  3847     1E7C  0876               	movf	memcpy@s,w
  3848     1E7D  0084               	movwf	4
  3849     1E7E  1783               	bsf	3,7	;select IRP bank2
  3850     1E7F  0800               	movf	0,w
  3851     1E80  00F4               	movwf	memcpy@tmp
  3852     1E81                     l2842:
  3853     1E81  3001               	movlw	1
  3854     1E82  07F6               	addwf	memcpy@s,f
  3855     1E83                     l2844:
  3856     1E83  0875               	movf	memcpy@d,w
  3857     1E84  0084               	movwf	4
  3858     1E85  0874               	movf	memcpy@tmp,w
  3859     1E86  0080               	movwf	0
  3860     1E87  3001               	movlw	1
  3861     1E88  07F5               	addwf	memcpy@d,f
  3862     1E89                     l806:
  3863     1E89  3001               	movlw	1
  3864     1E8A  02F2               	subwf	memcpy@n,f
  3865     1E8B  3000               	movlw	0
  3866     1E8C  1C03               	skipc
  3867     1E8D  03F3               	decf	memcpy@n+1,f
  3868     1E8E  02F3               	subwf	memcpy@n+1,f
  3869     1E8F  0A72               	incf	memcpy@n,w
  3870     1E90  1D03               	skipz
  3871     1E91  2E96               	goto	u4421
  3872     1E92  0A73               	incf	memcpy@n+1,w
  3873     1E93  1D03               	btfss	3,2
  3874     1E94  2E96               	goto	u4421
  3875     1E95  2E97               	goto	u4420
  3876     1E96                     u4421:
  3877     1E96  2E7C               	goto	l2840
  3878     1E97                     u4420:
  3879     1E97                     l809:
  3880     1E97  0008               	return
  3881     1E98                     __end_of_memcpy:
  3882                           
  3883                           	psect	text16
  3884     1E30                     __ptext16:	
  3885 ;; *************** function _labs *****************
  3886 ;; Defined at:
  3887 ;;		line 1 in file "C:\Program Files\Microchip\xc8\v2.50\pic\sources\c99\common\labs.c"
  3888 ;; Parameters:    Size  Location     Type
  3889 ;;  a               4    0[COMMON] long 
  3890 ;; Auto vars:     Size  Location     Type
  3891 ;;		None
  3892 ;; Return value:  Size  Location     Type
  3893 ;;                  4    0[COMMON] long 
  3894 ;; Registers used:
  3895 ;;		wreg, status,2, status,0
  3896 ;; Tracked objects:
  3897 ;;		On entry : 0/0
  3898 ;;		On exit  : 0/0
  3899 ;;		Unchanged: 0/0
  3900 ;; Data sizes:     COMMON   BANK0   BANK1   BANK3   BANK2
  3901 ;;      Params:         4       0       0       0       0
  3902 ;;      Locals:         0       0       0       0       0
  3903 ;;      Temps:          0       0       0       0       0
  3904 ;;      Totals:         4       0       0       0       0
  3905 ;;Total ram usage:        4 bytes
  3906 ;; Hardware stack levels used: 1
  3907 ;; This function calls:
  3908 ;;		Nothing
  3909 ;; This function is called by:
  3910 ;;		_efgtoa
  3911 ;; This function uses a non-reentrant model
  3912 ;;
  3913                           
  3914     1E30                     _labs:	
  3915                           ;psect for function _labs
  3916                           
  3917     1E30                     l2800:	
  3918                           ;incstack = 0
  3919                           ; Regs used in _labs: [wreg+status,2+status,0]
  3920                           
  3921     1E30  1BF3               	btfsc	labs@a+3,7
  3922     1E31  2E33               	goto	u4291
  3923     1E32  2E34               	goto	u4290
  3924     1E33                     u4291:
  3925     1E33  2E35               	goto	l2804
  3926     1E34                     u4290:
  3927     1E34                     l2802:
  3928     1E34  2E44               	goto	l803
  3929     1E35                     l2804:
  3930     1E35  0970               	comf	labs@a,w
  3931     1E36  00F0               	movwf	?_labs
  3932     1E37  0971               	comf	labs@a+1,w
  3933     1E38  00F1               	movwf	?_labs+1
  3934     1E39  0972               	comf	labs@a+2,w
  3935     1E3A  00F2               	movwf	?_labs+2
  3936     1E3B  0973               	comf	labs@a+3,w
  3937     1E3C  00F3               	movwf	?_labs+3
  3938     1E3D  0AF0               	incf	?_labs,f
  3939     1E3E  1903               	skipnz
  3940     1E3F  0AF1               	incf	?_labs+1,f
  3941     1E40  1903               	skipnz
  3942     1E41  0AF2               	incf	?_labs+2,f
  3943     1E42  1903               	skipnz
  3944     1E43  0AF3               	incf	?_labs+3,f
  3945     1E44                     l803:
  3946     1E44  0008               	return
  3947     1E45                     __end_of_labs:
  3948                           
  3949                           	psect	text17
  3950     1567                     __ptext17:	
  3951 ;; *************** function _floorf *****************
  3952 ;; Defined at:
  3953 ;;		line 3 in file "C:\Program Files\Microchip\xc8\v2.50\pic\sources\c99\common\floorf.c"
  3954 ;; Parameters:    Size  Location     Type
  3955 ;;  x               4   52[BANK0 ] float 
  3956 ;; Auto vars:     Size  Location     Type
  3957 ;;  u               4   68[BANK0 ] struct .
  3958 ;;  m               4   62[BANK0 ] unsigned long 
  3959 ;;  e               2   66[BANK0 ] int 
  3960 ;; Return value:  Size  Location     Type
  3961 ;;                  4   52[BANK0 ] float 
  3962 ;; Registers used:
  3963 ;;		wreg, status,2, status,0, btemp+1
  3964 ;; Tracked objects:
  3965 ;;		On entry : 0/0
  3966 ;;		On exit  : 0/0
  3967 ;;		Unchanged: 0/0
  3968 ;; Data sizes:     COMMON   BANK0   BANK1   BANK3   BANK2
  3969 ;;      Params:         0       4       0       0       0
  3970 ;;      Locals:         0      10       0       0       0
  3971 ;;      Temps:          0       6       0       0       0
  3972 ;;      Totals:         0      20       0       0       0
  3973 ;;Total ram usage:       20 bytes
  3974 ;; Hardware stack levels used: 1
  3975 ;; This function calls:
  3976 ;;		Nothing
  3977 ;; This function is called by:
  3978 ;;		_efgtoa
  3979 ;; This function uses a non-reentrant model
  3980 ;;
  3981                           
  3982     1567                     _floorf:	
  3983                           ;psect for function _floorf
  3984                           
  3985     1567                     l2808:	
  3986                           ;incstack = 0
  3987                           ; Regs used in _floorf: [wreg+status,2+status,0+btemp+1]
  3988                           
  3989     1567  1683               	bsf	3,5	;RP0=1, select bank3
  3990     1568  1703               	bsf	3,6	;RP1=1, select bank3
  3991     1569  0813               	movf	(floorf@F521+3)^(0+384),w
  3992     156A  1283               	bcf	3,5	;RP0=0, select bank0
  3993     156B  1303               	bcf	3,6	;RP1=0, select bank0
  3994     156C  00E7               	movwf	floorf@u+3
  3995     156D  1683               	bsf	3,5	;RP0=1, select bank3
  3996     156E  1703               	bsf	3,6	;RP1=1, select bank3
  3997     156F  0812               	movf	(floorf@F521+2)^(0+384),w
  3998     1570  1283               	bcf	3,5	;RP0=0, select bank0
  3999     1571  1303               	bcf	3,6	;RP1=0, select bank0
  4000     1572  00E6               	movwf	floorf@u+2
  4001     1573  1683               	bsf	3,5	;RP0=1, select bank3
  4002     1574  1703               	bsf	3,6	;RP1=1, select bank3
  4003     1575  0811               	movf	(floorf@F521+1)^(0+384),w
  4004     1576  1283               	bcf	3,5	;RP0=0, select bank0
  4005     1577  1303               	bcf	3,6	;RP1=0, select bank0
  4006     1578  00E5               	movwf	floorf@u+1
  4007     1579  1683               	bsf	3,5	;RP0=1, select bank3
  4008     157A  1703               	bsf	3,6	;RP1=1, select bank3
  4009     157B  0810               	movf	floorf@F521^(0+384),w
  4010     157C  1283               	bcf	3,5	;RP0=0, select bank0
  4011     157D  1303               	bcf	3,6	;RP1=0, select bank0
  4012     157E  00E4               	movwf	floorf@u
  4013     157F  0857               	movf	floorf@x+3,w
  4014     1580  00E7               	movwf	floorf@u+3
  4015     1581  0856               	movf	floorf@x+2,w
  4016     1582  00E6               	movwf	floorf@u+2
  4017     1583  0855               	movf	floorf@x+1,w
  4018     1584  00E5               	movwf	floorf@u+1
  4019     1585  0854               	movf	floorf@x,w
  4020     1586  00E4               	movwf	floorf@u
  4021     1587                     l2810:
  4022     1587  0864               	movf	floorf@u,w
  4023     1588  00D8               	movwf	??_floorf
  4024     1589  0865               	movf	floorf@u+1,w
  4025     158A  00D9               	movwf	??_floorf+1
  4026     158B  0866               	movf	floorf@u+2,w
  4027     158C  00DA               	movwf	??_floorf+2
  4028     158D  0867               	movf	floorf@u+3,w
  4029     158E  00DB               	movwf	??_floorf+3
  4030     158F  3017               	movlw	23
  4031     1590                     u4305:
  4032     1590  1003               	clrc
  4033     1591  0CDB               	rrf	??_floorf+3,f
  4034     1592  0CDA               	rrf	??_floorf+2,f
  4035     1593  0CD9               	rrf	??_floorf+1,f
  4036     1594  0CD8               	rrf	??_floorf,f
  4037     1595                     u4300:
  4038     1595  3EFF               	addlw	-1
  4039     1596  1D03               	skipz
  4040     1597  2D90               	goto	u4305
  4041     1598  30FF               	movlw	255
  4042     1599  0558               	andwf	??_floorf,w
  4043     159A  00DC               	movwf	??_floorf+4
  4044     159B  3000               	movlw	0
  4045     159C  0559               	andwf	??_floorf+1,w
  4046     159D  00DD               	movwf	??_floorf+5
  4047     159E  085C               	movf	??_floorf+4,w
  4048     159F  3E81               	addlw	129
  4049     15A0  00E2               	movwf	floorf@e
  4050     15A1  085D               	movf	??_floorf+5,w
  4051     15A2  1803               	skipnc
  4052     15A3  3E01               	addlw	1
  4053     15A4  3EFF               	addlw	255
  4054     15A5  00E3               	movwf	floorf@e+1
  4055     15A6                     l2812:
  4056     15A6  0863               	movf	floorf@e+1,w
  4057     15A7  3A80               	xorlw	128
  4058     15A8  00FF               	movwf	btemp+1
  4059     15A9  3080               	movlw	128
  4060     15AA  027F               	subwf	btemp+1,w
  4061     15AB  1D03               	skipz
  4062     15AC  2DAF               	goto	u4315
  4063     15AD  3017               	movlw	23
  4064     15AE  0262               	subwf	floorf@e,w
  4065     15AF                     u4315:
  4066     15AF  1C03               	skipc
  4067     15B0  2DB2               	goto	u4311
  4068     15B1  2DB3               	goto	u4310
  4069     15B2                     u4311:
  4070     15B2  2DB4               	goto	l788
  4071     15B3                     u4310:
  4072     15B3                     l2814:
  4073     15B3  2E75               	goto	l789
  4074     15B4                     l788:
  4075     15B4  1283               	bcf	3,5	;RP0=0, select bank0
  4076     15B5  1303               	bcf	3,6	;RP1=0, select bank0
  4077     15B6  1BE3               	btfsc	floorf@e+1,7
  4078     15B7  2DB9               	goto	u4321
  4079     15B8  2DBA               	goto	u4320
  4080     15B9                     u4321:
  4081     15B9  2E2A               	goto	l2828
  4082     15BA                     u4320:
  4083     15BA                     l2816:
  4084     15BA  0A62               	incf	floorf@e,w
  4085     15BB  00FF               	movwf	btemp+1
  4086     15BC  30FF               	movlw	255
  4087     15BD  00D8               	movwf	??_floorf
  4088     15BE  30FF               	movlw	255
  4089     15BF  00D9               	movwf	??_floorf+1
  4090     15C0  307F               	movlw	127
  4091     15C1  00DA               	movwf	??_floorf+2
  4092     15C2  3000               	movlw	0
  4093     15C3  00DB               	movwf	??_floorf+3
  4094     15C4  2DCA               	goto	u4330
  4095     15C5                     u4335:
  4096     15C5  0D5B               	rlf	??_floorf+3,w
  4097     15C6  0CDB               	rrf	??_floorf+3,f
  4098     15C7  0CDA               	rrf	??_floorf+2,f
  4099     15C8  0CD9               	rrf	??_floorf+1,f
  4100     15C9  0CD8               	rrf	??_floorf,f
  4101     15CA                     u4330:
  4102     15CA  0BFF               	decfsz	btemp+1,f
  4103     15CB  2DC5               	goto	u4335
  4104     15CC  085B               	movf	??_floorf+3,w
  4105     15CD  00E1               	movwf	floorf@m+3
  4106     15CE  085A               	movf	??_floorf+2,w
  4107     15CF  00E0               	movwf	floorf@m+2
  4108     15D0  0859               	movf	??_floorf+1,w
  4109     15D1  00DF               	movwf	floorf@m+1
  4110     15D2  0858               	movf	??_floorf,w
  4111     15D3  00DE               	movwf	floorf@m
  4112     15D4                     l2818:
  4113     15D4  085E               	movf	floorf@m,w
  4114     15D5  0564               	andwf	floorf@u,w
  4115     15D6  00D8               	movwf	??_floorf
  4116     15D7  085F               	movf	floorf@m+1,w
  4117     15D8  0565               	andwf	floorf@u+1,w
  4118     15D9  00D9               	movwf	??_floorf+1
  4119     15DA  0860               	movf	floorf@m+2,w
  4120     15DB  0566               	andwf	floorf@u+2,w
  4121     15DC  00DA               	movwf	??_floorf+2
  4122     15DD  0861               	movf	floorf@m+3,w
  4123     15DE  0567               	andwf	floorf@u+3,w
  4124     15DF  00DB               	movwf	??_floorf+3
  4125     15E0  085B               	movf	??_floorf+3,w
  4126     15E1  045A               	iorwf	??_floorf+2,w
  4127     15E2  0459               	iorwf	??_floorf+1,w
  4128     15E3  0458               	iorwf	??_floorf,w
  4129     15E4  1D03               	skipz
  4130     15E5  2DE7               	goto	u4341
  4131     15E6  2DE8               	goto	u4340
  4132     15E7                     u4341:
  4133     15E7  2DE9               	goto	l2822
  4134     15E8                     u4340:
  4135     15E8  2DB3               	goto	l2814
  4136     15E9                     l2822:
  4137     15E9  0864               	movf	floorf@u,w
  4138     15EA  00D8               	movwf	??_floorf
  4139     15EB  0865               	movf	floorf@u+1,w
  4140     15EC  00D9               	movwf	??_floorf+1
  4141     15ED  0866               	movf	floorf@u+2,w
  4142     15EE  00DA               	movwf	??_floorf+2
  4143     15EF  0867               	movf	floorf@u+3,w
  4144     15F0  00DB               	movwf	??_floorf+3
  4145     15F1  301F               	movlw	31
  4146     15F2                     u4355:
  4147     15F2  1003               	clrc
  4148     15F3  0CDB               	rrf	??_floorf+3,f
  4149     15F4  0CDA               	rrf	??_floorf+2,f
  4150     15F5  0CD9               	rrf	??_floorf+1,f
  4151     15F6  0CD8               	rrf	??_floorf,f
  4152     15F7                     u4350:
  4153     15F7  3EFF               	addlw	-1
  4154     15F8  1D03               	skipz
  4155     15F9  2DF2               	goto	u4355
  4156     15FA  085B               	movf	??_floorf+3,w
  4157     15FB  045A               	iorwf	??_floorf+2,w
  4158     15FC  0459               	iorwf	??_floorf+1,w
  4159     15FD  0458               	iorwf	??_floorf,w
  4160     15FE  1903               	skipnz
  4161     15FF  2E01               	goto	u4361
  4162     1600  2E02               	goto	u4360
  4163     1601                     u4361:
  4164     1601  2E19               	goto	l2826
  4165     1602                     u4360:
  4166     1602                     l2824:
  4167     1602  085E               	movf	floorf@m,w
  4168     1603  07E4               	addwf	floorf@u,f
  4169     1604  085F               	movf	floorf@m+1,w
  4170     1605  1103               	clrz
  4171     1606  1803               	skipnc
  4172     1607  3E01               	addlw	1
  4173     1608  1903               	skipnz
  4174     1609  2E0B               	goto	u4371
  4175     160A  07E5               	addwf	floorf@u+1,f
  4176     160B                     u4371:
  4177     160B  0860               	movf	floorf@m+2,w
  4178     160C  1103               	clrz
  4179     160D  1803               	skipnc
  4180     160E  3E01               	addlw	1
  4181     160F  1903               	skipnz
  4182     1610  2E12               	goto	u4372
  4183     1611  07E6               	addwf	floorf@u+2,f
  4184     1612                     u4372:
  4185     1612  0861               	movf	floorf@m+3,w
  4186     1613  1103               	clrz
  4187     1614  1803               	skipnc
  4188     1615  3E01               	addlw	1
  4189     1616  1903               	skipnz
  4190     1617  2E19               	goto	u4373
  4191     1618  07E7               	addwf	floorf@u+3,f
  4192     1619                     u4373:
  4193     1619                     l2826:
  4194     1619  095E               	comf	floorf@m,w
  4195     161A  00D8               	movwf	??_floorf
  4196     161B  095F               	comf	floorf@m+1,w
  4197     161C  00D9               	movwf	??_floorf+1
  4198     161D  0960               	comf	floorf@m+2,w
  4199     161E  00DA               	movwf	??_floorf+2
  4200     161F  0961               	comf	floorf@m+3,w
  4201     1620  00DB               	movwf	??_floorf+3
  4202     1621  0858               	movf	??_floorf,w
  4203     1622  05E4               	andwf	floorf@u,f
  4204     1623  0859               	movf	??_floorf+1,w
  4205     1624  05E5               	andwf	floorf@u+1,f
  4206     1625  085A               	movf	??_floorf+2,w
  4207     1626  05E6               	andwf	floorf@u+2,f
  4208     1627  085B               	movf	??_floorf+3,w
  4209     1628  05E7               	andwf	floorf@u+3,f
  4210     1629  2E6D               	goto	l793
  4211     162A                     l2828:
  4212     162A  0864               	movf	floorf@u,w
  4213     162B  00D8               	movwf	??_floorf
  4214     162C  0865               	movf	floorf@u+1,w
  4215     162D  00D9               	movwf	??_floorf+1
  4216     162E  0866               	movf	floorf@u+2,w
  4217     162F  00DA               	movwf	??_floorf+2
  4218     1630  0867               	movf	floorf@u+3,w
  4219     1631  00DB               	movwf	??_floorf+3
  4220     1632  301F               	movlw	31
  4221     1633                     u4385:
  4222     1633  1003               	clrc
  4223     1634  0CDB               	rrf	??_floorf+3,f
  4224     1635  0CDA               	rrf	??_floorf+2,f
  4225     1636  0CD9               	rrf	??_floorf+1,f
  4226     1637  0CD8               	rrf	??_floorf,f
  4227     1638                     u4380:
  4228     1638  3EFF               	addlw	-1
  4229     1639  1D03               	skipz
  4230     163A  2E33               	goto	u4385
  4231     163B  085B               	movf	??_floorf+3,w
  4232     163C  045A               	iorwf	??_floorf+2,w
  4233     163D  0459               	iorwf	??_floorf+1,w
  4234     163E  0458               	iorwf	??_floorf,w
  4235     163F  1D03               	skipz
  4236     1640  2E42               	goto	u4391
  4237     1641  2E43               	goto	u4390
  4238     1642                     u4391:
  4239     1642  2E4C               	goto	l2832
  4240     1643                     u4390:
  4241     1643                     l2830:
  4242     1643  3000               	movlw	0
  4243     1644  00E7               	movwf	floorf@u+3
  4244     1645  3000               	movlw	0
  4245     1646  00E6               	movwf	floorf@u+2
  4246     1647  3000               	movlw	0
  4247     1648  00E5               	movwf	floorf@u+1
  4248     1649  3000               	movlw	0
  4249     164A  00E4               	movwf	floorf@u
  4250     164B  2E6D               	goto	l793
  4251     164C                     l2832:
  4252     164C  0864               	movf	floorf@u,w
  4253     164D  00D8               	movwf	??_floorf
  4254     164E  0865               	movf	floorf@u+1,w
  4255     164F  00D9               	movwf	??_floorf+1
  4256     1650  0866               	movf	floorf@u+2,w
  4257     1651  00DA               	movwf	??_floorf+2
  4258     1652  0867               	movf	floorf@u+3,w
  4259     1653  00DB               	movwf	??_floorf+3
  4260     1654  3001               	movlw	1
  4261     1655                     u4405:
  4262     1655  1003               	clrc
  4263     1656  0DD8               	rlf	??_floorf,f
  4264     1657  0DD9               	rlf	??_floorf+1,f
  4265     1658  0DDA               	rlf	??_floorf+2,f
  4266     1659  0DDB               	rlf	??_floorf+3,f
  4267     165A                     u4400:
  4268     165A  3EFF               	addlw	-1
  4269     165B  1D03               	skipz
  4270     165C  2E55               	goto	u4405
  4271     165D  085B               	movf	??_floorf+3,w
  4272     165E  045A               	iorwf	??_floorf+2,w
  4273     165F  0459               	iorwf	??_floorf+1,w
  4274     1660  0458               	iorwf	??_floorf,w
  4275     1661  1903               	skipnz
  4276     1662  2E64               	goto	u4411
  4277     1663  2E65               	goto	u4410
  4278     1664                     u4411:
  4279     1664  2E6D               	goto	l793
  4280     1665                     u4410:
  4281     1665                     l2834:
  4282     1665  30BF               	movlw	191
  4283     1666  00E7               	movwf	floorf@u+3
  4284     1667  3080               	movlw	128
  4285     1668  00E6               	movwf	floorf@u+2
  4286     1669  3000               	movlw	0
  4287     166A  00E5               	movwf	floorf@u+1
  4288     166B  3000               	movlw	0
  4289     166C  00E4               	movwf	floorf@u
  4290     166D                     l793:
  4291     166D  0867               	movf	floorf@u+3,w
  4292     166E  00D7               	movwf	?_floorf+3
  4293     166F  0866               	movf	floorf@u+2,w
  4294     1670  00D6               	movwf	?_floorf+2
  4295     1671  0865               	movf	floorf@u+1,w
  4296     1672  00D5               	movwf	?_floorf+1
  4297     1673  0864               	movf	floorf@u,w
  4298     1674  00D4               	movwf	?_floorf
  4299     1675                     l789:
  4300     1675  0008               	return
  4301     1676                     __end_of_floorf:
  4302                           
  4303                           	psect	text18
  4304     0005                     __ptext18:	
  4305 ;; *************** function ___fpclassifyf *****************
  4306 ;; Defined at:
  4307 ;;		line 4 in file "C:\Program Files\Microchip\xc8\v2.50\pic\sources\c99\common\__fpclassifyf.c"
  4308 ;; Parameters:    Size  Location     Type
  4309 ;;  x               4    0[COMMON] float 
  4310 ;; Auto vars:     Size  Location     Type
  4311 ;;  u               4    2[BANK0 ] struct .
  4312 ;;  e               2    0[BANK0 ] int 
  4313 ;; Return value:  Size  Location     Type
  4314 ;;                  2    0[COMMON] int 
  4315 ;; Registers used:
  4316 ;;		wreg, status,2, status,0
  4317 ;; Tracked objects:
  4318 ;;		On entry : 0/0
  4319 ;;		On exit  : 0/0
  4320 ;;		Unchanged: 0/0
  4321 ;; Data sizes:     COMMON   BANK0   BANK1   BANK3   BANK2
  4322 ;;      Params:         4       0       0       0       0
  4323 ;;      Locals:         0       6       0       0       0
  4324 ;;      Temps:          6       0       0       0       0
  4325 ;;      Totals:        10       6       0       0       0
  4326 ;;Total ram usage:       16 bytes
  4327 ;; Hardware stack levels used: 1
  4328 ;; This function calls:
  4329 ;;		Nothing
  4330 ;; This function is called by:
  4331 ;;		_efgtoa
  4332 ;; This function uses a non-reentrant model
  4333 ;;
  4334                           
  4335     0005                     ___fpclassifyf:	
  4336                           ;psect for function ___fpclassifyf
  4337                           
  4338     0005                     l2772:	
  4339                           ;incstack = 0
  4340                           ; Regs used in ___fpclassifyf: [wreg+status,2+status,0]
  4341                           
  4342     0005  1683               	bsf	3,5	;RP0=1, select bank3
  4343     0006  1703               	bsf	3,6	;RP1=1, select bank3
  4344     0007  0817               	movf	(___fpclassifyf@F465+3)^(0+384),w
  4345     0008  1283               	bcf	3,5	;RP0=0, select bank0
  4346     0009  1303               	bcf	3,6	;RP1=0, select bank0
  4347     000A  00A5               	movwf	___fpclassifyf@u+3
  4348     000B  1683               	bsf	3,5	;RP0=1, select bank3
  4349     000C  1703               	bsf	3,6	;RP1=1, select bank3
  4350     000D  0816               	movf	(___fpclassifyf@F465+2)^(0+384),w
  4351     000E  1283               	bcf	3,5	;RP0=0, select bank0
  4352     000F  1303               	bcf	3,6	;RP1=0, select bank0
  4353     0010  00A4               	movwf	___fpclassifyf@u+2
  4354     0011  1683               	bsf	3,5	;RP0=1, select bank3
  4355     0012  1703               	bsf	3,6	;RP1=1, select bank3
  4356     0013  0815               	movf	(___fpclassifyf@F465+1)^(0+384),w
  4357     0014  1283               	bcf	3,5	;RP0=0, select bank0
  4358     0015  1303               	bcf	3,6	;RP1=0, select bank0
  4359     0016  00A3               	movwf	___fpclassifyf@u+1
  4360     0017  1683               	bsf	3,5	;RP0=1, select bank3
  4361     0018  1703               	bsf	3,6	;RP1=1, select bank3
  4362     0019  0814               	movf	___fpclassifyf@F465^(0+384),w
  4363     001A  1283               	bcf	3,5	;RP0=0, select bank0
  4364     001B  1303               	bcf	3,6	;RP1=0, select bank0
  4365     001C  00A2               	movwf	___fpclassifyf@u
  4366     001D  0873               	movf	___fpclassifyf@x+3,w
  4367     001E  00A5               	movwf	___fpclassifyf@u+3
  4368     001F  0872               	movf	___fpclassifyf@x+2,w
  4369     0020  00A4               	movwf	___fpclassifyf@u+2
  4370     0021  0871               	movf	___fpclassifyf@x+1,w
  4371     0022  00A3               	movwf	___fpclassifyf@u+1
  4372     0023  0870               	movf	___fpclassifyf@x,w
  4373     0024  00A2               	movwf	___fpclassifyf@u
  4374     0025                     l2774:
  4375     0025  0822               	movf	___fpclassifyf@u,w
  4376     0026  00F4               	movwf	??___fpclassifyf
  4377     0027  0823               	movf	___fpclassifyf@u+1,w
  4378     0028  00F5               	movwf	??___fpclassifyf+1
  4379     0029  0824               	movf	___fpclassifyf@u+2,w
  4380     002A  00F6               	movwf	??___fpclassifyf+2
  4381     002B  0825               	movf	___fpclassifyf@u+3,w
  4382     002C  00F7               	movwf	??___fpclassifyf+3
  4383     002D  3017               	movlw	23
  4384     002E                     u4205:
  4385     002E  1003               	clrc
  4386     002F  0CF7               	rrf	??___fpclassifyf+3,f
  4387     0030  0CF6               	rrf	??___fpclassifyf+2,f
  4388     0031  0CF5               	rrf	??___fpclassifyf+1,f
  4389     0032  0CF4               	rrf	??___fpclassifyf,f
  4390     0033                     u4200:
  4391     0033  3EFF               	addlw	-1
  4392     0034  1D03               	skipz
  4393     0035  282E               	goto	u4205
  4394     0036  30FF               	movlw	255
  4395     0037  0574               	andwf	??___fpclassifyf,w
  4396     0038  00A0               	movwf	___fpclassifyf@e
  4397     0039  3000               	movlw	0
  4398     003A  0575               	andwf	??___fpclassifyf+1,w
  4399     003B  00A1               	movwf	___fpclassifyf@e+1
  4400     003C                     l2776:
  4401     003C  0820               	movf	___fpclassifyf@e,w
  4402     003D  0421               	iorwf	___fpclassifyf@e+1,w
  4403     003E  1D03               	btfss	3,2
  4404     003F  2841               	goto	u4211
  4405     0040  2842               	goto	u4210
  4406     0041                     u4211:
  4407     0041  2865               	goto	l2786
  4408     0042                     u4210:
  4409     0042                     l2778:
  4410     0042  0822               	movf	___fpclassifyf@u,w
  4411     0043  00F4               	movwf	??___fpclassifyf
  4412     0044  0823               	movf	___fpclassifyf@u+1,w
  4413     0045  00F5               	movwf	??___fpclassifyf+1
  4414     0046  0824               	movf	___fpclassifyf@u+2,w
  4415     0047  00F6               	movwf	??___fpclassifyf+2
  4416     0048  0825               	movf	___fpclassifyf@u+3,w
  4417     0049  00F7               	movwf	??___fpclassifyf+3
  4418     004A  3001               	movlw	1
  4419     004B                     u4225:
  4420     004B  1003               	clrc
  4421     004C  0DF4               	rlf	??___fpclassifyf,f
  4422     004D  0DF5               	rlf	??___fpclassifyf+1,f
  4423     004E  0DF6               	rlf	??___fpclassifyf+2,f
  4424     004F  0DF7               	rlf	??___fpclassifyf+3,f
  4425     0050                     u4220:
  4426     0050  3EFF               	addlw	-1
  4427     0051  1D03               	skipz
  4428     0052  284B               	goto	u4225
  4429     0053  0877               	movf	??___fpclassifyf+3,w
  4430     0054  0476               	iorwf	??___fpclassifyf+2,w
  4431     0055  0475               	iorwf	??___fpclassifyf+1,w
  4432     0056  0474               	iorwf	??___fpclassifyf,w
  4433     0057  1D03               	skipz
  4434     0058  285A               	goto	u4231
  4435     0059  285B               	goto	u4230
  4436     005A                     u4231:
  4437     005A  2860               	goto	l2782
  4438     005B                     u4230:
  4439     005B                     l2780:
  4440     005B  3002               	movlw	2
  4441     005C  00F0               	movwf	?___fpclassifyf
  4442     005D  3000               	movlw	0
  4443     005E  00F1               	movwf	?___fpclassifyf+1
  4444     005F  2891               	goto	l782
  4445     0060                     l2782:
  4446     0060  3003               	movlw	3
  4447     0061  00F0               	movwf	?___fpclassifyf
  4448     0062  3000               	movlw	0
  4449     0063  00F1               	movwf	?___fpclassifyf+1
  4450     0064  2891               	goto	l782
  4451     0065                     l2786:
  4452     0065  0A20               	incf	___fpclassifyf@e,w
  4453     0066  0421               	iorwf	___fpclassifyf@e+1,w
  4454     0067  1D03               	btfss	3,2
  4455     0068  286A               	goto	u4241
  4456     0069  286B               	goto	u4240
  4457     006A                     u4241:
  4458     006A  288D               	goto	l2792
  4459     006B                     u4240:
  4460     006B                     l2788:
  4461     006B  0822               	movf	___fpclassifyf@u,w
  4462     006C  00F4               	movwf	??___fpclassifyf
  4463     006D  0823               	movf	___fpclassifyf@u+1,w
  4464     006E  00F5               	movwf	??___fpclassifyf+1
  4465     006F  0824               	movf	___fpclassifyf@u+2,w
  4466     0070  00F6               	movwf	??___fpclassifyf+2
  4467     0071  0825               	movf	___fpclassifyf@u+3,w
  4468     0072  00F7               	movwf	??___fpclassifyf+3
  4469     0073  3009               	movlw	9
  4470     0074                     u4255:
  4471     0074  1003               	clrc
  4472     0075  0DF4               	rlf	??___fpclassifyf,f
  4473     0076  0DF5               	rlf	??___fpclassifyf+1,f
  4474     0077  0DF6               	rlf	??___fpclassifyf+2,f
  4475     0078  0DF7               	rlf	??___fpclassifyf+3,f
  4476     0079                     u4250:
  4477     0079  3EFF               	addlw	-1
  4478     007A  1D03               	skipz
  4479     007B  2874               	goto	u4255
  4480     007C  0877               	movf	??___fpclassifyf+3,w
  4481     007D  0476               	iorwf	??___fpclassifyf+2,w
  4482     007E  0475               	iorwf	??___fpclassifyf+1,w
  4483     007F  0474               	iorwf	??___fpclassifyf,w
  4484     0080  1903               	skipnz
  4485     0081  2883               	goto	u4261
  4486     0082  2885               	goto	u4260
  4487     0083                     u4261:
  4488     0083  3001               	movlw	1
  4489     0084  2886               	goto	u4270
  4490     0085                     u4260:
  4491     0085  3000               	movlw	0
  4492     0086                     u4270:
  4493     0086  00F8               	movwf	??___fpclassifyf+4
  4494     0087  01F9               	clrf	??___fpclassifyf+5
  4495     0088  0878               	movf	??___fpclassifyf+4,w
  4496     0089  00F0               	movwf	?___fpclassifyf
  4497     008A  0879               	movf	??___fpclassifyf+5,w
  4498     008B  00F1               	movwf	?___fpclassifyf+1
  4499     008C  2891               	goto	l782
  4500     008D                     l2792:
  4501     008D  3004               	movlw	4
  4502     008E  00F0               	movwf	?___fpclassifyf
  4503     008F  3000               	movlw	0
  4504     0090  00F1               	movwf	?___fpclassifyf+1
  4505     0091                     l782:
  4506     0091  0008               	return
  4507     0092                     __end_of___fpclassifyf:
  4508                           
  4509                           	psect	text19
  4510     0824                     __ptext19:	
  4511 ;; *************** function ___fltol *****************
  4512 ;; Defined at:
  4513 ;;		line 43 in file "C:\Program Files\Microchip\xc8\v2.50\pic\sources\c99\common\fltol.c"
  4514 ;; Parameters:    Size  Location     Type
  4515 ;;  f1              4    0[COMMON] int 
  4516 ;; Auto vars:     Size  Location     Type
  4517 ;;  exp1            1    9[COMMON] unsigned char 
  4518 ;;  sign1           1    8[COMMON] unsigned char 
  4519 ;; Return value:  Size  Location     Type
  4520 ;;                  4    0[COMMON] long 
  4521 ;; Registers used:
  4522 ;;		wreg, status,2, status,0
  4523 ;; Tracked objects:
  4524 ;;		On entry : 0/0
  4525 ;;		On exit  : 0/0
  4526 ;;		Unchanged: 0/0
  4527 ;; Data sizes:     COMMON   BANK0   BANK1   BANK3   BANK2
  4528 ;;      Params:         4       0       0       0       0
  4529 ;;      Locals:         2       0       0       0       0
  4530 ;;      Temps:          4       0       0       0       0
  4531 ;;      Totals:        10       0       0       0       0
  4532 ;;Total ram usage:       10 bytes
  4533 ;; Hardware stack levels used: 1
  4534 ;; This function calls:
  4535 ;;		Nothing
  4536 ;; This function is called by:
  4537 ;;		_efgtoa
  4538 ;; This function uses a non-reentrant model
  4539 ;;
  4540                           
  4541     0824                     ___fltol:	
  4542                           ;psect for function ___fltol
  4543                           
  4544     0824                     l2380:	
  4545                           ;incstack = 0
  4546                           ; Regs used in ___fltol: [wreg+status,2+status,0]
  4547                           
  4548     0824  1003               	clrc
  4549     0825  0D72               	rlf	___fltol@f1+2,w
  4550     0826  0D73               	rlf	___fltol@f1+3,w
  4551     0827  00F9               	movwf	___fltol@exp1
  4552     0828  0879               	movf	___fltol@exp1,w
  4553     0829  1D03               	btfss	3,2
  4554     082A  282C               	goto	u3271
  4555     082B  282D               	goto	u3270
  4556     082C                     u3271:
  4557     082C  2836               	goto	l2386
  4558     082D                     u3270:
  4559     082D                     l2382:
  4560     082D  3000               	movlw	0
  4561     082E  00F3               	movwf	?___fltol+3
  4562     082F  3000               	movlw	0
  4563     0830  00F2               	movwf	?___fltol+2
  4564     0831  3000               	movlw	0
  4565     0832  00F1               	movwf	?___fltol+1
  4566     0833  3000               	movlw	0
  4567     0834  00F0               	movwf	?___fltol
  4568     0835  2897               	goto	l348
  4569     0836                     l2386:
  4570     0836  0870               	movf	___fltol@f1,w
  4571     0837  00F4               	movwf	??___fltol
  4572     0838  0871               	movf	___fltol@f1+1,w
  4573     0839  00F5               	movwf	??___fltol+1
  4574     083A  0872               	movf	___fltol@f1+2,w
  4575     083B  00F6               	movwf	??___fltol+2
  4576     083C  0873               	movf	___fltol@f1+3,w
  4577     083D  00F7               	movwf	??___fltol+3
  4578     083E  301F               	movlw	31
  4579     083F                     u3285:
  4580     083F  1003               	clrc
  4581     0840  0CF7               	rrf	??___fltol+3,f
  4582     0841  0CF6               	rrf	??___fltol+2,f
  4583     0842  0CF5               	rrf	??___fltol+1,f
  4584     0843  0CF4               	rrf	??___fltol,f
  4585     0844                     u3280:
  4586     0844  3EFF               	addlw	-1
  4587     0845  1D03               	skipz
  4588     0846  283F               	goto	u3285
  4589     0847  0874               	movf	??___fltol,w
  4590     0848  00F8               	movwf	___fltol@sign1
  4591     0849                     l2388:
  4592     0849  17F2               	bsf	___fltol@f1+2,7
  4593     084A                     l2390:
  4594     084A  30FF               	movlw	255
  4595     084B  05F0               	andwf	___fltol@f1,f
  4596     084C  30FF               	movlw	255
  4597     084D  05F1               	andwf	___fltol@f1+1,f
  4598     084E  30FF               	movlw	255
  4599     084F  05F2               	andwf	___fltol@f1+2,f
  4600     0850  3000               	movlw	0
  4601     0851  05F3               	andwf	___fltol@f1+3,f
  4602     0852                     l2392:
  4603     0852  3096               	movlw	150
  4604     0853  02F9               	subwf	___fltol@exp1,f
  4605     0854                     l2394:
  4606     0854  1FF9               	btfss	___fltol@exp1,7
  4607     0855  2857               	goto	u3291
  4608     0856  2858               	goto	u3290
  4609     0857                     u3291:
  4610     0857  2870               	goto	l2404
  4611     0858                     u3290:
  4612     0858                     l2396:
  4613     0858  0879               	movf	___fltol@exp1,w
  4614     0859  3A80               	xorlw	128
  4615     085A  3E97               	addlw	151
  4616     085B  1803               	skipnc
  4617     085C  285E               	goto	u3301
  4618     085D  285F               	goto	u3300
  4619     085E                     u3301:
  4620     085E  2860               	goto	l2402
  4621     085F                     u3300:
  4622     085F  282D               	goto	l2382
  4623     0860                     l2402:
  4624     0860  3001               	movlw	1
  4625     0861                     u3315:
  4626     0861  1003               	clrc
  4627     0862  0CF3               	rrf	___fltol@f1+3,f
  4628     0863  0CF2               	rrf	___fltol@f1+2,f
  4629     0864  0CF1               	rrf	___fltol@f1+1,f
  4630     0865  0CF0               	rrf	___fltol@f1,f
  4631     0866  3EFF               	addlw	-1
  4632     0867  1D03               	skipz
  4633     0868  2861               	goto	u3315
  4634     0869  3001               	movlw	1
  4635     086A  07F9               	addwf	___fltol@exp1,f
  4636     086B  1D03               	btfss	3,2
  4637     086C  286E               	goto	u3321
  4638     086D  286F               	goto	u3320
  4639     086E                     u3321:
  4640     086E  2860               	goto	l2402
  4641     086F                     u3320:
  4642     086F  2887               	goto	l2412
  4643     0870                     l2404:
  4644     0870  3020               	movlw	32
  4645     0871  0279               	subwf	___fltol@exp1,w
  4646     0872  1C03               	skipc
  4647     0873  2875               	goto	u3331
  4648     0874  2876               	goto	u3330
  4649     0875                     u3331:
  4650     0875  2882               	goto	l355
  4651     0876                     u3330:
  4652     0876  282D               	goto	l2382
  4653     0877                     l2410:
  4654     0877  3001               	movlw	1
  4655     0878  00F4               	movwf	??___fltol
  4656     0879                     u3345:
  4657     0879  1003               	clrc
  4658     087A  0DF0               	rlf	___fltol@f1,f
  4659     087B  0DF1               	rlf	___fltol@f1+1,f
  4660     087C  0DF2               	rlf	___fltol@f1+2,f
  4661     087D  0DF3               	rlf	___fltol@f1+3,f
  4662     087E  0BF4               	decfsz	??___fltol,f
  4663     087F  2879               	goto	u3345
  4664     0880  3001               	movlw	1
  4665     0881  02F9               	subwf	___fltol@exp1,f
  4666     0882                     l355:
  4667     0882  0879               	movf	___fltol@exp1,w
  4668     0883  1D03               	btfss	3,2
  4669     0884  2886               	goto	u3351
  4670     0885  2887               	goto	u3350
  4671     0886                     u3351:
  4672     0886  2877               	goto	l2410
  4673     0887                     u3350:
  4674     0887                     l2412:
  4675     0887  0878               	movf	___fltol@sign1,w
  4676     0888  1903               	btfsc	3,2
  4677     0889  288B               	goto	u3361
  4678     088A  288C               	goto	u3360
  4679     088B                     u3361:
  4680     088B  2897               	goto	l358
  4681     088C                     u3360:
  4682     088C                     l2414:
  4683     088C  09F0               	comf	___fltol@f1,f
  4684     088D  09F1               	comf	___fltol@f1+1,f
  4685     088E  09F2               	comf	___fltol@f1+2,f
  4686     088F  09F3               	comf	___fltol@f1+3,f
  4687     0890  0AF0               	incf	___fltol@f1,f
  4688     0891  1903               	skipnz
  4689     0892  0AF1               	incf	___fltol@f1+1,f
  4690     0893  1903               	skipnz
  4691     0894  0AF2               	incf	___fltol@f1+2,f
  4692     0895  1903               	skipnz
  4693     0896  0AF3               	incf	___fltol@f1+3,f
  4694     0897                     l358:
  4695     0897                     l348:
  4696     0897  0008               	return
  4697     0898                     __end_of___fltol:
  4698                           
  4699                           	psect	text20
  4700     0800                     __ptext20:	
  4701 ;; *************** function ___flsub *****************
  4702 ;; Defined at:
  4703 ;;		line 242 in file "C:\Program Files\Microchip\xc8\v2.50\pic\sources\c99\common\sprcadd.c"
  4704 ;; Parameters:    Size  Location     Type
  4705 ;;  a               4   26[BANK0 ] long 
  4706 ;;  b               4   30[BANK0 ] long 
  4707 ;; Auto vars:     Size  Location     Type
  4708 ;;		None
  4709 ;; Return value:  Size  Location     Type
  4710 ;;                  4   26[BANK0 ] long 
  4711 ;; Registers used:
  4712 ;;		wreg, status,2, status,0, btemp+1, pclath, cstack
  4713 ;; Tracked objects:
  4714 ;;		On entry : 0/0
  4715 ;;		On exit  : 0/0
  4716 ;;		Unchanged: 0/0
  4717 ;; Data sizes:     COMMON   BANK0   BANK1   BANK3   BANK2
  4718 ;;      Params:         0       8       0       0       0
  4719 ;;      Locals:         0       0       0       0       0
  4720 ;;      Temps:          0       0       0       0       0
  4721 ;;      Totals:         0       8       0       0       0
  4722 ;;Total ram usage:        8 bytes
  4723 ;; Hardware stack levels used: 1
  4724 ;; Hardware stack levels required when called: 1
  4725 ;; This function calls:
  4726 ;;		___fladd
  4727 ;; This function is called by:
  4728 ;;		_efgtoa
  4729 ;; This function uses a non-reentrant model
  4730 ;;
  4731                           
  4732     0800                     ___flsub:	
  4733                           ;psect for function ___flsub
  4734                           
  4735     0800                     l2464:	
  4736                           ;incstack = 0
  4737                           ; Regs used in ___flsub: [wreg+status,2+status,0+btemp+1+pclath+cstack]
  4738                           
  4739     0800  3080               	movlw	128
  4740     0801  1283               	bcf	3,5	;RP0=0, select bank0
  4741     0802  1303               	bcf	3,6	;RP1=0, select bank0
  4742     0803  06BD               	xorwf	___flsub@a+3,f
  4743     0804                     l2466:
  4744     0804  0841               	movf	___flsub@b+3,w
  4745     0805  00F3               	movwf	___fladd@b+3
  4746     0806  0840               	movf	___flsub@b+2,w
  4747     0807  00F2               	movwf	___fladd@b+2
  4748     0808  083F               	movf	___flsub@b+1,w
  4749     0809  00F1               	movwf	___fladd@b+1
  4750     080A  083E               	movf	___flsub@b,w
  4751     080B  00F0               	movwf	___fladd@b
  4752     080C  083D               	movf	___flsub@a+3,w
  4753     080D  00F7               	movwf	___fladd@a+3
  4754     080E  083C               	movf	___flsub@a+2,w
  4755     080F  00F6               	movwf	___fladd@a+2
  4756     0810  083B               	movf	___flsub@a+1,w
  4757     0811  00F5               	movwf	___fladd@a+1
  4758     0812  083A               	movf	___flsub@a,w
  4759     0813  00F4               	movwf	___fladd@a
  4760     0814  120A  158A  2262  120A  158A  	fcall	___fladd
  4761     0819  0873               	movf	?___fladd+3,w
  4762     081A  1283               	bcf	3,5	;RP0=0, select bank0
  4763     081B  1303               	bcf	3,6	;RP1=0, select bank0
  4764     081C  00BD               	movwf	?___flsub+3
  4765     081D  0872               	movf	?___fladd+2,w
  4766     081E  00BC               	movwf	?___flsub+2
  4767     081F  0871               	movf	?___fladd+1,w
  4768     0820  00BB               	movwf	?___flsub+1
  4769     0821  0870               	movf	?___fladd,w
  4770     0822  00BA               	movwf	?___flsub
  4771     0823                     l501:
  4772     0823  0008               	return
  4773     0824                     __end_of___flsub:
  4774                           
  4775                           	psect	text21
  4776     0A62                     __ptext21:	
  4777 ;; *************** function ___fladd *****************
  4778 ;; Defined at:
  4779 ;;		line 10 in file "C:\Program Files\Microchip\xc8\v2.50\pic\sources\c99\common\sprcadd.c"
  4780 ;; Parameters:    Size  Location     Type
  4781 ;;  b               4    0[COMMON] long 
  4782 ;;  a               4    4[COMMON] long 
  4783 ;; Auto vars:     Size  Location     Type
  4784 ;;  grs             1   11[COMMON] unsigned char 
  4785 ;;  bexp            1   10[COMMON] unsigned char 
  4786 ;;  aexp            1    9[COMMON] unsigned char 
  4787 ;;  signs           1    8[COMMON] unsigned char 
  4788 ;; Return value:  Size  Location     Type
  4789 ;;                  4    0[COMMON] unsigned char 
  4790 ;; Registers used:
  4791 ;;		wreg, status,2, status,0, btemp+1
  4792 ;; Tracked objects:
  4793 ;;		On entry : 0/0
  4794 ;;		On exit  : 0/0
  4795 ;;		Unchanged: 0/0
  4796 ;; Data sizes:     COMMON   BANK0   BANK1   BANK3   BANK2
  4797 ;;      Params:         8       0       0       0       0
  4798 ;;      Locals:         4       0       0       0       0
  4799 ;;      Temps:          0       8       0       0       0
  4800 ;;      Totals:        12       8       0       0       0
  4801 ;;Total ram usage:       20 bytes
  4802 ;; Hardware stack levels used: 1
  4803 ;; This function calls:
  4804 ;;		Nothing
  4805 ;; This function is called by:
  4806 ;;		___flsub
  4807 ;;		_efgtoa
  4808 ;; This function uses a non-reentrant model
  4809 ;;
  4810                           
  4811     0A62                     ___fladd:	
  4812                           ;psect for function ___fladd
  4813                           
  4814     0A62                     l2106:	
  4815                           ;incstack = 0
  4816                           ; Regs used in ___fladd: [wreg+status,2+status,0+btemp+1]
  4817                           
  4818     0A62  0873               	movf	___fladd@b+3,w
  4819     0A63  00F8               	movwf	___fladd@signs
  4820     0A64                     l2108:
  4821     0A64  3080               	movlw	128
  4822     0A65  05F8               	andwf	___fladd@signs,f
  4823     0A66                     l2110:
  4824     0A66  0873               	movf	___fladd@b+3,w
  4825     0A67  1283               	bcf	3,5	;RP0=0, select bank0
  4826     0A68  1303               	bcf	3,6	;RP1=0, select bank0
  4827     0A69  00A0               	movwf	??___fladd
  4828     0A6A  0720               	addwf	??___fladd,w
  4829     0A6B  00FA               	movwf	___fladd@bexp
  4830     0A6C                     l2112:
  4831     0A6C  1FF2               	btfss	___fladd@b+2,7
  4832     0A6D  2A6F               	goto	u2621
  4833     0A6E  2A70               	goto	u2620
  4834     0A6F                     u2621:
  4835     0A6F  2A71               	goto	l2116
  4836     0A70                     u2620:
  4837     0A70                     l2114:
  4838     0A70  147A               	bsf	___fladd@bexp,0
  4839     0A71                     l2116:
  4840     0A71  087A               	movf	___fladd@bexp,w
  4841     0A72  1903               	btfsc	3,2
  4842     0A73  2A75               	goto	u2631
  4843     0A74  2A76               	goto	u2630
  4844     0A75                     u2631:
  4845     0A75  2A86               	goto	l2126
  4846     0A76                     u2630:
  4847     0A76                     l2118:
  4848     0A76  0A7A               	incf	___fladd@bexp,w
  4849     0A77  1D03               	btfss	3,2
  4850     0A78  2A7A               	goto	u2641
  4851     0A79  2A7B               	goto	u2640
  4852     0A7A                     u2641:
  4853     0A7A  2A83               	goto	l2122
  4854     0A7B                     u2640:
  4855     0A7B                     l2120:
  4856     0A7B  3000               	movlw	0
  4857     0A7C  00F3               	movwf	___fladd@b+3
  4858     0A7D  3000               	movlw	0
  4859     0A7E  00F2               	movwf	___fladd@b+2
  4860     0A7F  3000               	movlw	0
  4861     0A80  00F1               	movwf	___fladd@b+1
  4862     0A81  3000               	movlw	0
  4863     0A82  00F0               	movwf	___fladd@b
  4864     0A83                     l2122:
  4865     0A83  17F2               	bsf	___fladd@b+2,7
  4866     0A84                     l2124:
  4867     0A84  01F3               	clrf	___fladd@b+3
  4868     0A85  2A8E               	goto	l450
  4869     0A86                     l2126:
  4870     0A86  3000               	movlw	0
  4871     0A87  00F3               	movwf	___fladd@b+3
  4872     0A88  3000               	movlw	0
  4873     0A89  00F2               	movwf	___fladd@b+2
  4874     0A8A  3000               	movlw	0
  4875     0A8B  00F1               	movwf	___fladd@b+1
  4876     0A8C  3000               	movlw	0
  4877     0A8D  00F0               	movwf	___fladd@b
  4878     0A8E                     l450:
  4879     0A8E  0877               	movf	___fladd@a+3,w
  4880     0A8F  00F9               	movwf	___fladd@aexp
  4881     0A90                     l2128:
  4882     0A90  3080               	movlw	128
  4883     0A91  05F9               	andwf	___fladd@aexp,f
  4884     0A92                     l2130:
  4885     0A92  0879               	movf	___fladd@aexp,w
  4886     0A93  0678               	xorwf	___fladd@signs,w
  4887     0A94  1903               	skipnz
  4888     0A95  2A97               	goto	u2651
  4889     0A96  2A98               	goto	u2650
  4890     0A97                     u2651:
  4891     0A97  2A99               	goto	l2134
  4892     0A98                     u2650:
  4893     0A98                     l2132:
  4894     0A98  1778               	bsf	___fladd@signs,6
  4895     0A99                     l2134:
  4896     0A99  0877               	movf	___fladd@a+3,w
  4897     0A9A  00A0               	movwf	??___fladd
  4898     0A9B  0720               	addwf	??___fladd,w
  4899     0A9C  00F9               	movwf	___fladd@aexp
  4900     0A9D                     l2136:
  4901     0A9D  1FF6               	btfss	___fladd@a+2,7
  4902     0A9E  2AA0               	goto	u2661
  4903     0A9F  2AA1               	goto	u2660
  4904     0AA0                     u2661:
  4905     0AA0  2AA2               	goto	l2140
  4906     0AA1                     u2660:
  4907     0AA1                     l2138:
  4908     0AA1  1479               	bsf	___fladd@aexp,0
  4909     0AA2                     l2140:
  4910     0AA2  0879               	movf	___fladd@aexp,w
  4911     0AA3  1903               	btfsc	3,2
  4912     0AA4  2AA6               	goto	u2671
  4913     0AA5  2AA7               	goto	u2670
  4914     0AA6                     u2671:
  4915     0AA6  2AB7               	goto	l2150
  4916     0AA7                     u2670:
  4917     0AA7                     l2142:
  4918     0AA7  0A79               	incf	___fladd@aexp,w
  4919     0AA8  1D03               	btfss	3,2
  4920     0AA9  2AAB               	goto	u2681
  4921     0AAA  2AAC               	goto	u2680
  4922     0AAB                     u2681:
  4923     0AAB  2AB4               	goto	l2146
  4924     0AAC                     u2680:
  4925     0AAC                     l2144:
  4926     0AAC  3000               	movlw	0
  4927     0AAD  00F7               	movwf	___fladd@a+3
  4928     0AAE  3000               	movlw	0
  4929     0AAF  00F6               	movwf	___fladd@a+2
  4930     0AB0  3000               	movlw	0
  4931     0AB1  00F5               	movwf	___fladd@a+1
  4932     0AB2  3000               	movlw	0
  4933     0AB3  00F4               	movwf	___fladd@a
  4934     0AB4                     l2146:
  4935     0AB4  17F6               	bsf	___fladd@a+2,7
  4936     0AB5                     l2148:
  4937     0AB5  01F7               	clrf	___fladd@a+3
  4938     0AB6  2ABF               	goto	l455
  4939     0AB7                     l2150:
  4940     0AB7  3000               	movlw	0
  4941     0AB8  00F7               	movwf	___fladd@a+3
  4942     0AB9  3000               	movlw	0
  4943     0ABA  00F6               	movwf	___fladd@a+2
  4944     0ABB  3000               	movlw	0
  4945     0ABC  00F5               	movwf	___fladd@a+1
  4946     0ABD  3000               	movlw	0
  4947     0ABE  00F4               	movwf	___fladd@a
  4948     0ABF                     l455:
  4949     0ABF  087A               	movf	___fladd@bexp,w
  4950     0AC0  0279               	subwf	___fladd@aexp,w
  4951     0AC1  1803               	skipnc
  4952     0AC2  2AC4               	goto	u2691
  4953     0AC3  2AC5               	goto	u2690
  4954     0AC4                     u2691:
  4955     0AC4  2AE9               	goto	l2186
  4956     0AC5                     u2690:
  4957     0AC5                     l2152:
  4958     0AC5  1F78               	btfss	___fladd@signs,6
  4959     0AC6  2AC8               	goto	u2701
  4960     0AC7  2AC9               	goto	u2700
  4961     0AC8                     u2701:
  4962     0AC8  2ACB               	goto	l2156
  4963     0AC9                     u2700:
  4964     0AC9                     l2154:
  4965     0AC9  3080               	movlw	128
  4966     0ACA  06F8               	xorwf	___fladd@signs,f
  4967     0ACB                     l2156:
  4968     0ACB  087A               	movf	___fladd@bexp,w
  4969     0ACC  00FB               	movwf	___fladd@grs
  4970     0ACD                     l2158:
  4971     0ACD  0879               	movf	___fladd@aexp,w
  4972     0ACE  00FA               	movwf	___fladd@bexp
  4973     0ACF                     l2160:
  4974     0ACF  087B               	movf	___fladd@grs,w
  4975     0AD0  00F9               	movwf	___fladd@aexp
  4976     0AD1                     l2162:
  4977     0AD1  0870               	movf	___fladd@b,w
  4978     0AD2  00FB               	movwf	___fladd@grs
  4979     0AD3                     l2164:
  4980     0AD3  0874               	movf	___fladd@a,w
  4981     0AD4  00F0               	movwf	___fladd@b
  4982     0AD5                     l2166:
  4983     0AD5  087B               	movf	___fladd@grs,w
  4984     0AD6  00F4               	movwf	___fladd@a
  4985     0AD7                     l2168:
  4986     0AD7  0871               	movf	___fladd@b+1,w
  4987     0AD8  00FB               	movwf	___fladd@grs
  4988     0AD9                     l2170:
  4989     0AD9  0875               	movf	___fladd@a+1,w
  4990     0ADA  00F1               	movwf	___fladd@b+1
  4991     0ADB                     l2172:
  4992     0ADB  087B               	movf	___fladd@grs,w
  4993     0ADC  00F5               	movwf	___fladd@a+1
  4994     0ADD                     l2174:
  4995     0ADD  0872               	movf	___fladd@b+2,w
  4996     0ADE  00FB               	movwf	___fladd@grs
  4997     0ADF                     l2176:
  4998     0ADF  0876               	movf	___fladd@a+2,w
  4999     0AE0  00F2               	movwf	___fladd@b+2
  5000     0AE1                     l2178:
  5001     0AE1  087B               	movf	___fladd@grs,w
  5002     0AE2  00F6               	movwf	___fladd@a+2
  5003     0AE3                     l2180:
  5004     0AE3  0873               	movf	___fladd@b+3,w
  5005     0AE4  00FB               	movwf	___fladd@grs
  5006     0AE5                     l2182:
  5007     0AE5  0877               	movf	___fladd@a+3,w
  5008     0AE6  00F3               	movwf	___fladd@b+3
  5009     0AE7                     l2184:
  5010     0AE7  087B               	movf	___fladd@grs,w
  5011     0AE8  00F7               	movwf	___fladd@a+3
  5012     0AE9                     l2186:
  5013     0AE9  01FB               	clrf	___fladd@grs
  5014     0AEA                     l2188:
  5015     0AEA  0879               	movf	___fladd@aexp,w
  5016     0AEB  00A0               	movwf	??___fladd
  5017     0AEC  01A1               	clrf	??___fladd+1
  5018     0AED  0821               	movf	??___fladd+1,w
  5019     0AEE  00A3               	movwf	??___fladd+3
  5020     0AEF  087A               	movf	___fladd@bexp,w
  5021     0AF0  0220               	subwf	??___fladd,w
  5022     0AF1  00A2               	movwf	??___fladd+2
  5023     0AF2  1C03               	skipc
  5024     0AF3  03A3               	decf	??___fladd+3,f
  5025     0AF4  0823               	movf	??___fladd+3,w
  5026     0AF5  3A80               	xorlw	128
  5027     0AF6  00FF               	movwf	btemp+1
  5028     0AF7  3080               	movlw	128
  5029     0AF8  027F               	subwf	btemp+1,w
  5030     0AF9  1D03               	skipz
  5031     0AFA  2AFD               	goto	u2715
  5032     0AFB  301A               	movlw	26
  5033     0AFC  0222               	subwf	??___fladd+2,w
  5034     0AFD                     u2715:
  5035     0AFD  1C03               	skipc
  5036     0AFE  2B00               	goto	u2711
  5037     0AFF  2B01               	goto	u2710
  5038     0B00                     u2711:
  5039     0B00  2B38               	goto	l2204
  5040     0B01                     u2710:
  5041     0B01                     l2190:
  5042     0B01  0873               	movf	___fladd@b+3,w
  5043     0B02  0472               	iorwf	___fladd@b+2,w
  5044     0B03  0471               	iorwf	___fladd@b+1,w
  5045     0B04  0470               	iorwf	___fladd@b,w
  5046     0B05  1D03               	skipz
  5047     0B06  2B08               	goto	u2721
  5048     0B07  2B0A               	goto	u2720
  5049     0B08                     u2721:
  5050     0B08  3001               	movlw	1
  5051     0B09  2B0B               	goto	u2730
  5052     0B0A                     u2720:
  5053     0B0A  3000               	movlw	0
  5054     0B0B                     u2730:
  5055     0B0B  00FB               	movwf	___fladd@grs
  5056     0B0C  3000               	movlw	0
  5057     0B0D  00F3               	movwf	___fladd@b+3
  5058     0B0E  3000               	movlw	0
  5059     0B0F  00F2               	movwf	___fladd@b+2
  5060     0B10  3000               	movlw	0
  5061     0B11  00F1               	movwf	___fladd@b+1
  5062     0B12  3000               	movlw	0
  5063     0B13  00F0               	movwf	___fladd@b
  5064     0B14  0879               	movf	___fladd@aexp,w
  5065     0B15  00FA               	movwf	___fladd@bexp
  5066     0B16  2B3E               	goto	l459
  5067     0B17                     l461:
  5068     0B17  1C7B               	btfss	___fladd@grs,0
  5069     0B18  2B1A               	goto	u2741
  5070     0B19  2B1B               	goto	u2740
  5071     0B1A                     u2741:
  5072     0B1A  2B24               	goto	l2194
  5073     0B1B                     u2740:
  5074     0B1B                     l2192:
  5075     0B1B  087B               	movf	___fladd@grs,w
  5076     0B1C  1283               	bcf	3,5	;RP0=0, select bank0
  5077     0B1D  1303               	bcf	3,6	;RP1=0, select bank0
  5078     0B1E  00A0               	movwf	??___fladd
  5079     0B1F  1003               	clrc
  5080     0B20  0C20               	rrf	??___fladd,w
  5081     0B21  3801               	iorlw	1
  5082     0B22  00FB               	movwf	___fladd@grs
  5083     0B23  2B26               	goto	l2196
  5084     0B24                     l2194:
  5085     0B24  1003               	clrc
  5086     0B25  0CFB               	rrf	___fladd@grs,f
  5087     0B26                     l2196:
  5088     0B26  1C70               	btfss	___fladd@b,0
  5089     0B27  2B29               	goto	u2751
  5090     0B28  2B2A               	goto	u2750
  5091     0B29                     u2751:
  5092     0B29  2B2B               	goto	l2200
  5093     0B2A                     u2750:
  5094     0B2A                     l2198:
  5095     0B2A  17FB               	bsf	___fladd@grs,7
  5096     0B2B                     l2200:
  5097     0B2B  3001               	movlw	1
  5098     0B2C  1283               	bcf	3,5	;RP0=0, select bank0
  5099     0B2D  1303               	bcf	3,6	;RP1=0, select bank0
  5100     0B2E  00A0               	movwf	??___fladd
  5101     0B2F                     u2765:
  5102     0B2F  0D73               	rlf	___fladd@b+3,w
  5103     0B30  0CF3               	rrf	___fladd@b+3,f
  5104     0B31  0CF2               	rrf	___fladd@b+2,f
  5105     0B32  0CF1               	rrf	___fladd@b+1,f
  5106     0B33  0CF0               	rrf	___fladd@b,f
  5107     0B34  0BA0               	decfsz	??___fladd& (0+127),f
  5108     0B35  2B2F               	goto	u2765
  5109     0B36                     l2202:
  5110     0B36  3001               	movlw	1
  5111     0B37  07FA               	addwf	___fladd@bexp,f
  5112     0B38                     l2204:
  5113     0B38  0879               	movf	___fladd@aexp,w
  5114     0B39  027A               	subwf	___fladd@bexp,w
  5115     0B3A  1C03               	skipc
  5116     0B3B  2B3D               	goto	u2771
  5117     0B3C  2B3E               	goto	u2770
  5118     0B3D                     u2771:
  5119     0B3D  2B17               	goto	l461
  5120     0B3E                     u2770:
  5121     0B3E                     l459:
  5122     0B3E  1B78               	btfsc	___fladd@signs,6
  5123     0B3F  2B41               	goto	u2781
  5124     0B40  2B42               	goto	u2780
  5125     0B41                     u2781:
  5126     0B41  2B8D               	goto	l2230
  5127     0B42                     u2780:
  5128     0B42                     l2206:
  5129     0B42  087A               	movf	___fladd@bexp,w
  5130     0B43  1D03               	btfss	3,2
  5131     0B44  2B46               	goto	u2791
  5132     0B45  2B47               	goto	u2790
  5133     0B46                     u2791:
  5134     0B46  2B50               	goto	l2212
  5135     0B47                     u2790:
  5136     0B47                     l2208:
  5137     0B47  3000               	movlw	0
  5138     0B48  00F3               	movwf	?___fladd+3
  5139     0B49  3000               	movlw	0
  5140     0B4A  00F2               	movwf	?___fladd+2
  5141     0B4B  3000               	movlw	0
  5142     0B4C  00F1               	movwf	?___fladd+1
  5143     0B4D  3000               	movlw	0
  5144     0B4E  00F0               	movwf	?___fladd
  5145     0B4F  2CBD               	goto	l468
  5146     0B50                     l2212:
  5147     0B50  0874               	movf	___fladd@a,w
  5148     0B51  07F0               	addwf	___fladd@b,f
  5149     0B52  0875               	movf	___fladd@a+1,w
  5150     0B53  1103               	clrz
  5151     0B54  1803               	skipnc
  5152     0B55  3E01               	addlw	1
  5153     0B56  1903               	skipnz
  5154     0B57  2B59               	goto	u2801
  5155     0B58  07F1               	addwf	___fladd@b+1,f
  5156     0B59                     u2801:
  5157     0B59  0876               	movf	___fladd@a+2,w
  5158     0B5A  1103               	clrz
  5159     0B5B  1803               	skipnc
  5160     0B5C  3E01               	addlw	1
  5161     0B5D  1903               	skipnz
  5162     0B5E  2B60               	goto	u2802
  5163     0B5F  07F2               	addwf	___fladd@b+2,f
  5164     0B60                     u2802:
  5165     0B60  0877               	movf	___fladd@a+3,w
  5166     0B61  1103               	clrz
  5167     0B62  1803               	skipnc
  5168     0B63  3E01               	addlw	1
  5169     0B64  1903               	skipnz
  5170     0B65  2B67               	goto	u2803
  5171     0B66  07F3               	addwf	___fladd@b+3,f
  5172     0B67                     u2803:
  5173     0B67                     l2214:
  5174     0B67  1C73               	btfss	___fladd@b+3,0
  5175     0B68  2B6A               	goto	u2811
  5176     0B69  2B6B               	goto	u2810
  5177     0B6A                     u2811:
  5178     0B6A  2C45               	goto	l2266
  5179     0B6B                     u2810:
  5180     0B6B                     l2216:
  5181     0B6B  1C7B               	btfss	___fladd@grs,0
  5182     0B6C  2B6E               	goto	u2821
  5183     0B6D  2B6F               	goto	u2820
  5184     0B6E                     u2821:
  5185     0B6E  2B78               	goto	l2220
  5186     0B6F                     u2820:
  5187     0B6F                     l2218:
  5188     0B6F  087B               	movf	___fladd@grs,w
  5189     0B70  1283               	bcf	3,5	;RP0=0, select bank0
  5190     0B71  1303               	bcf	3,6	;RP1=0, select bank0
  5191     0B72  00A0               	movwf	??___fladd
  5192     0B73  1003               	clrc
  5193     0B74  0C20               	rrf	??___fladd,w
  5194     0B75  3801               	iorlw	1
  5195     0B76  00FB               	movwf	___fladd@grs
  5196     0B77  2B7A               	goto	l2222
  5197     0B78                     l2220:
  5198     0B78  1003               	clrc
  5199     0B79  0CFB               	rrf	___fladd@grs,f
  5200     0B7A                     l2222:
  5201     0B7A  1C70               	btfss	___fladd@b,0
  5202     0B7B  2B7D               	goto	u2831
  5203     0B7C  2B7E               	goto	u2830
  5204     0B7D                     u2831:
  5205     0B7D  2B7F               	goto	l2226
  5206     0B7E                     u2830:
  5207     0B7E                     l2224:
  5208     0B7E  17FB               	bsf	___fladd@grs,7
  5209     0B7F                     l2226:
  5210     0B7F  3001               	movlw	1
  5211     0B80  1283               	bcf	3,5	;RP0=0, select bank0
  5212     0B81  1303               	bcf	3,6	;RP1=0, select bank0
  5213     0B82  00A0               	movwf	??___fladd
  5214     0B83                     u2845:
  5215     0B83  0D73               	rlf	___fladd@b+3,w
  5216     0B84  0CF3               	rrf	___fladd@b+3,f
  5217     0B85  0CF2               	rrf	___fladd@b+2,f
  5218     0B86  0CF1               	rrf	___fladd@b+1,f
  5219     0B87  0CF0               	rrf	___fladd@b,f
  5220     0B88  0BA0               	decfsz	??___fladd& (0+127),f
  5221     0B89  2B83               	goto	u2845
  5222     0B8A                     l2228:
  5223     0B8A  3001               	movlw	1
  5224     0B8B  07FA               	addwf	___fladd@bexp,f
  5225     0B8C  2C45               	goto	l2266
  5226     0B8D                     l2230:
  5227     0B8D  0873               	movf	___fladd@b+3,w
  5228     0B8E  3A80               	xorlw	128
  5229     0B8F  00FF               	movwf	btemp+1
  5230     0B90  0877               	movf	___fladd@a+3,w
  5231     0B91  3A80               	xorlw	128
  5232     0B92  027F               	subwf	btemp+1,w
  5233     0B93  1D03               	skipz
  5234     0B94  2B9F               	goto	u2853
  5235     0B95  0876               	movf	___fladd@a+2,w
  5236     0B96  0272               	subwf	___fladd@b+2,w
  5237     0B97  1D03               	skipz
  5238     0B98  2B9F               	goto	u2853
  5239     0B99  0875               	movf	___fladd@a+1,w
  5240     0B9A  0271               	subwf	___fladd@b+1,w
  5241     0B9B  1D03               	skipz
  5242     0B9C  2B9F               	goto	u2853
  5243     0B9D  0874               	movf	___fladd@a,w
  5244     0B9E  0270               	subwf	___fladd@b,w
  5245     0B9F                     u2853:
  5246     0B9F  1803               	skipnc
  5247     0BA0  2BA2               	goto	u2851
  5248     0BA1  2BA3               	goto	u2850
  5249     0BA2                     u2851:
  5250     0BA2  2BFC               	goto	l2242
  5251     0BA3                     u2850:
  5252     0BA3                     l2232:
  5253     0BA3  30FF               	movlw	255
  5254     0BA4  1283               	bcf	3,5	;RP0=0, select bank0
  5255     0BA5  1303               	bcf	3,6	;RP1=0, select bank0
  5256     0BA6  00A0               	movwf	??___fladd
  5257     0BA7  30FF               	movlw	255
  5258     0BA8  00A1               	movwf	??___fladd+1
  5259     0BA9  30FF               	movlw	255
  5260     0BAA  00A2               	movwf	??___fladd+2
  5261     0BAB  30FF               	movlw	255
  5262     0BAC  00A3               	movwf	??___fladd+3
  5263     0BAD  0874               	movf	___fladd@a,w
  5264     0BAE  00A4               	movwf	??___fladd+4
  5265     0BAF  0875               	movf	___fladd@a+1,w
  5266     0BB0  00A5               	movwf	??___fladd+5
  5267     0BB1  0876               	movf	___fladd@a+2,w
  5268     0BB2  00A6               	movwf	??___fladd+6
  5269     0BB3  0877               	movf	___fladd@a+3,w
  5270     0BB4  00A7               	movwf	??___fladd+7
  5271     0BB5  0870               	movf	___fladd@b,w
  5272     0BB6  02A4               	subwf	??___fladd+4,f
  5273     0BB7  0871               	movf	___fladd@b+1,w
  5274     0BB8  1C03               	skipc
  5275     0BB9  0F71               	incfsz	___fladd@b+1,w
  5276     0BBA  2BBC               	goto	u2861
  5277     0BBB  2BBD               	goto	u2862
  5278     0BBC                     u2861:
  5279     0BBC  02A5               	subwf	??___fladd+5,f
  5280     0BBD                     u2862:
  5281     0BBD  0872               	movf	___fladd@b+2,w
  5282     0BBE  1C03               	skipc
  5283     0BBF  0F72               	incfsz	___fladd@b+2,w
  5284     0BC0  2BC2               	goto	u2863
  5285     0BC1  2BC3               	goto	u2864
  5286     0BC2                     u2863:
  5287     0BC2  02A6               	subwf	??___fladd+6,f
  5288     0BC3                     u2864:
  5289     0BC3  0873               	movf	___fladd@b+3,w
  5290     0BC4  1C03               	skipc
  5291     0BC5  0F73               	incfsz	___fladd@b+3,w
  5292     0BC6  2BC8               	goto	u2865
  5293     0BC7  2BC9               	goto	u2866
  5294     0BC8                     u2865:
  5295     0BC8  02A7               	subwf	??___fladd+7,f
  5296     0BC9                     u2866:
  5297     0BC9  0824               	movf	??___fladd+4,w
  5298     0BCA  07A0               	addwf	??___fladd,f
  5299     0BCB  0825               	movf	??___fladd+5,w
  5300     0BCC  1803               	skipnc
  5301     0BCD  0F25               	incfsz	??___fladd+5,w
  5302     0BCE  2BD0               	goto	u2870
  5303     0BCF  2BD1               	goto	u2871
  5304     0BD0                     u2870:
  5305     0BD0  07A1               	addwf	??___fladd+1,f
  5306     0BD1                     u2871:
  5307     0BD1  0826               	movf	??___fladd+6,w
  5308     0BD2  1803               	skipnc
  5309     0BD3  0F26               	incfsz	??___fladd+6,w
  5310     0BD4  2BD6               	goto	u2872
  5311     0BD5  2BD7               	goto	u2873
  5312     0BD6                     u2872:
  5313     0BD6  07A2               	addwf	??___fladd+2,f
  5314     0BD7                     u2873:
  5315     0BD7  0827               	movf	??___fladd+7,w
  5316     0BD8  1803               	skipnc
  5317     0BD9  0A27               	incf	??___fladd+7,w
  5318     0BDA  07A3               	addwf	??___fladd+3,f
  5319     0BDB  0823               	movf	??___fladd+3,w
  5320     0BDC  00F3               	movwf	___fladd@b+3
  5321     0BDD  0822               	movf	??___fladd+2,w
  5322     0BDE  00F2               	movwf	___fladd@b+2
  5323     0BDF  0821               	movf	??___fladd+1,w
  5324     0BE0  00F1               	movwf	___fladd@b+1
  5325     0BE1  0820               	movf	??___fladd,w
  5326     0BE2  00F0               	movwf	___fladd@b
  5327     0BE3                     l2234:
  5328     0BE3  3080               	movlw	128
  5329     0BE4  06F8               	xorwf	___fladd@signs,f
  5330     0BE5                     l2236:
  5331     0BE5  037B               	decf	___fladd@grs,w
  5332     0BE6  3AFF               	xorlw	255
  5333     0BE7  00FB               	movwf	___fladd@grs
  5334     0BE8                     l2238:
  5335     0BE8  087B               	movf	___fladd@grs,w
  5336     0BE9  1D03               	btfss	3,2
  5337     0BEA  2BEC               	goto	u2881
  5338     0BEB  2BED               	goto	u2880
  5339     0BEC                     u2881:
  5340     0BEC  2C0A               	goto	l476
  5341     0BED                     u2880:
  5342     0BED                     l2240:
  5343     0BED  3001               	movlw	1
  5344     0BEE  07F0               	addwf	___fladd@b,f
  5345     0BEF  3000               	movlw	0
  5346     0BF0  1803               	skipnc
  5347     0BF1  3001               	movlw	1
  5348     0BF2  07F1               	addwf	___fladd@b+1,f
  5349     0BF3  3000               	movlw	0
  5350     0BF4  1803               	skipnc
  5351     0BF5  3001               	movlw	1
  5352     0BF6  07F2               	addwf	___fladd@b+2,f
  5353     0BF7  3000               	movlw	0
  5354     0BF8  1803               	skipnc
  5355     0BF9  3001               	movlw	1
  5356     0BFA  07F3               	addwf	___fladd@b+3,f
  5357     0BFB  2C0A               	goto	l476
  5358     0BFC                     l2242:
  5359     0BFC  0874               	movf	___fladd@a,w
  5360     0BFD  02F0               	subwf	___fladd@b,f
  5361     0BFE  0875               	movf	___fladd@a+1,w
  5362     0BFF  1C03               	skipc
  5363     0C00  0F75               	incfsz	___fladd@a+1,w
  5364     0C01  02F1               	subwf	___fladd@b+1,f
  5365     0C02  0876               	movf	___fladd@a+2,w
  5366     0C03  1C03               	skipc
  5367     0C04  0F76               	incfsz	___fladd@a+2,w
  5368     0C05  02F2               	subwf	___fladd@b+2,f
  5369     0C06  0877               	movf	___fladd@a+3,w
  5370     0C07  1C03               	skipc
  5371     0C08  0F77               	incfsz	___fladd@a+3,w
  5372     0C09  02F3               	subwf	___fladd@b+3,f
  5373     0C0A                     l476:
  5374     0C0A  0873               	movf	___fladd@b+3,w
  5375     0C0B  0472               	iorwf	___fladd@b+2,w
  5376     0C0C  0471               	iorwf	___fladd@b+1,w
  5377     0C0D  0470               	iorwf	___fladd@b,w
  5378     0C0E  1D03               	skipz
  5379     0C0F  2C11               	goto	u2891
  5380     0C10  2C12               	goto	u2890
  5381     0C11                     u2891:
  5382     0C11  2C41               	goto	l2264
  5383     0C12                     u2890:
  5384     0C12                     l2244:
  5385     0C12  087B               	movf	___fladd@grs,w
  5386     0C13  1D03               	btfss	3,2
  5387     0C14  2C16               	goto	u2901
  5388     0C15  2C17               	goto	u2900
  5389     0C16                     u2901:
  5390     0C16  2C41               	goto	l2264
  5391     0C17                     u2900:
  5392     0C17                     l2246:
  5393     0C17  3000               	movlw	0
  5394     0C18  00F3               	movwf	?___fladd+3
  5395     0C19  3000               	movlw	0
  5396     0C1A  00F2               	movwf	?___fladd+2
  5397     0C1B  3000               	movlw	0
  5398     0C1C  00F1               	movwf	?___fladd+1
  5399     0C1D  3000               	movlw	0
  5400     0C1E  00F0               	movwf	?___fladd
  5401     0C1F  2CBD               	goto	l468
  5402     0C20                     l2250:
  5403     0C20  3001               	movlw	1
  5404     0C21  1283               	bcf	3,5	;RP0=0, select bank0
  5405     0C22  1303               	bcf	3,6	;RP1=0, select bank0
  5406     0C23  00A0               	movwf	??___fladd
  5407     0C24                     u2915:
  5408     0C24  1003               	clrc
  5409     0C25  0DF0               	rlf	___fladd@b,f
  5410     0C26  0DF1               	rlf	___fladd@b+1,f
  5411     0C27  0DF2               	rlf	___fladd@b+2,f
  5412     0C28  0DF3               	rlf	___fladd@b+3,f
  5413     0C29  0BA0               	decfsz	??___fladd,f
  5414     0C2A  2C24               	goto	u2915
  5415     0C2B                     l2252:
  5416     0C2B  1FFB               	btfss	___fladd@grs,7
  5417     0C2C  2C2E               	goto	u2921
  5418     0C2D  2C2F               	goto	u2920
  5419     0C2E                     u2921:
  5420     0C2E  2C30               	goto	l480
  5421     0C2F                     u2920:
  5422     0C2F                     l2254:
  5423     0C2F  1470               	bsf	___fladd@b,0
  5424     0C30                     l480:
  5425     0C30  1C7B               	btfss	___fladd@grs,0
  5426     0C31  2C33               	goto	u2931
  5427     0C32  2C34               	goto	u2930
  5428     0C33                     u2931:
  5429     0C33  2C38               	goto	l2258
  5430     0C34                     u2930:
  5431     0C34                     l2256:
  5432     0C34  1403               	setc
  5433     0C35  0D7B               	rlf	___fladd@grs,w
  5434     0C36  00FB               	movwf	___fladd@grs
  5435     0C37  2C3A               	goto	l2260
  5436     0C38                     l2258:
  5437     0C38  1003               	clrc
  5438     0C39  0DFB               	rlf	___fladd@grs,f
  5439     0C3A                     l2260:
  5440     0C3A  087A               	movf	___fladd@bexp,w
  5441     0C3B  1903               	btfsc	3,2
  5442     0C3C  2C3E               	goto	u2941
  5443     0C3D  2C3F               	goto	u2940
  5444     0C3E                     u2941:
  5445     0C3E  2C41               	goto	l2264
  5446     0C3F                     u2940:
  5447     0C3F                     l2262:
  5448     0C3F  3001               	movlw	1
  5449     0C40  02FA               	subwf	___fladd@bexp,f
  5450     0C41                     l2264:
  5451     0C41  1FF2               	btfss	___fladd@b+2,7
  5452     0C42  2C44               	goto	u2951
  5453     0C43  2C45               	goto	u2950
  5454     0C44                     u2951:
  5455     0C44  2C20               	goto	l2250
  5456     0C45                     u2950:
  5457     0C45                     l2266:
  5458     0C45  01F9               	clrf	___fladd@aexp
  5459     0C46                     l2268:
  5460     0C46  1FFB               	btfss	___fladd@grs,7
  5461     0C47  2C49               	goto	u2961
  5462     0C48  2C4A               	goto	u2960
  5463     0C49                     u2961:
  5464     0C49  2C58               	goto	l2276
  5465     0C4A                     u2960:
  5466     0C4A                     l2270:
  5467     0C4A  087B               	movf	___fladd@grs,w
  5468     0C4B  397F               	andlw	127
  5469     0C4C  1903               	btfsc	3,2
  5470     0C4D  2C4F               	goto	u2971
  5471     0C4E  2C50               	goto	u2970
  5472     0C4F                     u2971:
  5473     0C4F  2C53               	goto	l486
  5474     0C50                     u2970:
  5475     0C50                     l2272:
  5476     0C50  3001               	movlw	1
  5477     0C51  00F9               	movwf	___fladd@aexp
  5478     0C52  2C58               	goto	l2276
  5479     0C53                     l486:
  5480     0C53  1C70               	btfss	___fladd@b,0
  5481     0C54  2C56               	goto	u2981
  5482     0C55  2C57               	goto	u2980
  5483     0C56                     u2981:
  5484     0C56  2C58               	goto	l2276
  5485     0C57                     u2980:
  5486     0C57  2C50               	goto	l2272
  5487     0C58                     l2276:
  5488     0C58  0879               	movf	___fladd@aexp,w
  5489     0C59  1903               	btfsc	3,2
  5490     0C5A  2C5C               	goto	u2991
  5491     0C5B  2C5D               	goto	u2990
  5492     0C5C                     u2991:
  5493     0C5C  2C91               	goto	l489
  5494     0C5D                     u2990:
  5495     0C5D                     l2278:
  5496     0C5D  3001               	movlw	1
  5497     0C5E  07F0               	addwf	___fladd@b,f
  5498     0C5F  3000               	movlw	0
  5499     0C60  1803               	skipnc
  5500     0C61  3001               	movlw	1
  5501     0C62  07F1               	addwf	___fladd@b+1,f
  5502     0C63  3000               	movlw	0
  5503     0C64  1803               	skipnc
  5504     0C65  3001               	movlw	1
  5505     0C66  07F2               	addwf	___fladd@b+2,f
  5506     0C67  3000               	movlw	0
  5507     0C68  1803               	skipnc
  5508     0C69  3001               	movlw	1
  5509     0C6A  07F3               	addwf	___fladd@b+3,f
  5510     0C6B                     l2280:
  5511     0C6B  1C73               	btfss	___fladd@b+3,0
  5512     0C6C  2C6E               	goto	u3001
  5513     0C6D  2C6F               	goto	u3000
  5514     0C6E                     u3001:
  5515     0C6E  2C91               	goto	l489
  5516     0C6F                     u3000:
  5517     0C6F                     l2282:
  5518     0C6F  0870               	movf	___fladd@b,w
  5519     0C70  1283               	bcf	3,5	;RP0=0, select bank0
  5520     0C71  1303               	bcf	3,6	;RP1=0, select bank0
  5521     0C72  00A0               	movwf	??___fladd
  5522     0C73  0871               	movf	___fladd@b+1,w
  5523     0C74  00A1               	movwf	??___fladd+1
  5524     0C75  0872               	movf	___fladd@b+2,w
  5525     0C76  00A2               	movwf	??___fladd+2
  5526     0C77  0873               	movf	___fladd@b+3,w
  5527     0C78  00A3               	movwf	??___fladd+3
  5528     0C79  3001               	movlw	1
  5529     0C7A  00A4               	movwf	??___fladd+4
  5530     0C7B                     u3015:
  5531     0C7B  0D23               	rlf	??___fladd+3,w
  5532     0C7C  0CA3               	rrf	??___fladd+3,f
  5533     0C7D  0CA2               	rrf	??___fladd+2,f
  5534     0C7E  0CA1               	rrf	??___fladd+1,f
  5535     0C7F  0CA0               	rrf	??___fladd,f
  5536     0C80                     u3010:
  5537     0C80  0BA4               	decfsz	??___fladd+4,f
  5538     0C81  2C7B               	goto	u3015
  5539     0C82  0823               	movf	??___fladd+3,w
  5540     0C83  00F3               	movwf	___fladd@b+3
  5541     0C84  0822               	movf	??___fladd+2,w
  5542     0C85  00F2               	movwf	___fladd@b+2
  5543     0C86  0821               	movf	??___fladd+1,w
  5544     0C87  00F1               	movwf	___fladd@b+1
  5545     0C88  0820               	movf	??___fladd,w
  5546     0C89  00F0               	movwf	___fladd@b
  5547     0C8A  0A7A               	incf	___fladd@bexp,w
  5548     0C8B  1903               	btfsc	3,2
  5549     0C8C  2C8E               	goto	u3021
  5550     0C8D  2C8F               	goto	u3020
  5551     0C8E                     u3021:
  5552     0C8E  2C91               	goto	l489
  5553     0C8F                     u3020:
  5554     0C8F                     l2284:
  5555     0C8F  3001               	movlw	1
  5556     0C90  07FA               	addwf	___fladd@bexp,f
  5557     0C91                     l489:
  5558     0C91  0A7A               	incf	___fladd@bexp,w
  5559     0C92  1903               	btfsc	3,2
  5560     0C93  2C95               	goto	u3031
  5561     0C94  2C96               	goto	u3030
  5562     0C95                     u3031:
  5563     0C95  2C9B               	goto	l2288
  5564     0C96                     u3030:
  5565     0C96                     l2286:
  5566     0C96  087A               	movf	___fladd@bexp,w
  5567     0C97  1D03               	btfss	3,2
  5568     0C98  2C9A               	goto	u3041
  5569     0C99  2C9B               	goto	u3040
  5570     0C9A                     u3041:
  5571     0C9A  2CA9               	goto	l2294
  5572     0C9B                     u3040:
  5573     0C9B                     l2288:
  5574     0C9B  3000               	movlw	0
  5575     0C9C  00F3               	movwf	___fladd@b+3
  5576     0C9D  3000               	movlw	0
  5577     0C9E  00F2               	movwf	___fladd@b+2
  5578     0C9F  3000               	movlw	0
  5579     0CA0  00F1               	movwf	___fladd@b+1
  5580     0CA1  3000               	movlw	0
  5581     0CA2  00F0               	movwf	___fladd@b
  5582     0CA3                     l2290:
  5583     0CA3  087A               	movf	___fladd@bexp,w
  5584     0CA4  1D03               	btfss	3,2
  5585     0CA5  2CA7               	goto	u3051
  5586     0CA6  2CA8               	goto	u3050
  5587     0CA7                     u3051:
  5588     0CA7  2CA9               	goto	l2294
  5589     0CA8                     u3050:
  5590     0CA8                     l2292:
  5591     0CA8  01F8               	clrf	___fladd@signs
  5592     0CA9                     l2294:
  5593     0CA9  1C7A               	btfss	___fladd@bexp,0
  5594     0CAA  2CAC               	goto	u3061
  5595     0CAB  2CAD               	goto	u3060
  5596     0CAC                     u3061:
  5597     0CAC  2CAF               	goto	l2298
  5598     0CAD                     u3060:
  5599     0CAD                     l2296:
  5600     0CAD  17F2               	bsf	___fladd@b+2,7
  5601     0CAE  2CB1               	goto	l497
  5602     0CAF                     l2298:
  5603     0CAF  307F               	movlw	127
  5604     0CB0  05F2               	andwf	___fladd@b+2,f
  5605     0CB1                     l497:
  5606     0CB1  087A               	movf	___fladd@bexp,w
  5607     0CB2  1283               	bcf	3,5	;RP0=0, select bank0
  5608     0CB3  1303               	bcf	3,6	;RP1=0, select bank0
  5609     0CB4  00A0               	movwf	??___fladd
  5610     0CB5  1003               	clrc
  5611     0CB6  0C20               	rrf	??___fladd,w
  5612     0CB7  00F3               	movwf	___fladd@b+3
  5613     0CB8                     l2300:
  5614     0CB8  1FF8               	btfss	___fladd@signs,7
  5615     0CB9  2CBB               	goto	u3071
  5616     0CBA  2CBC               	goto	u3070
  5617     0CBB                     u3071:
  5618     0CBB  2CBD               	goto	l498
  5619     0CBC                     u3070:
  5620     0CBC                     l2302:
  5621     0CBC  17F3               	bsf	___fladd@b+3,7
  5622     0CBD                     l498:
  5623     0CBD                     l468:
  5624     0CBD  0008               	return
  5625     0CBE                     __end_of___fladd:
  5626                           
  5627                           	psect	text22
  5628     1000                     __ptext22:	
  5629 ;; *************** function ___flneg *****************
  5630 ;; Defined at:
  5631 ;;		line 15 in file "C:\Program Files\Microchip\xc8\v2.50\pic\sources\c99\common\flneg.c"
  5632 ;; Parameters:    Size  Location     Type
  5633 ;;  f1              4    0[COMMON] unsigned char 
  5634 ;; Auto vars:     Size  Location     Type
  5635 ;;		None
  5636 ;; Return value:  Size  Location     Type
  5637 ;;                  4    0[COMMON] unsigned char 
  5638 ;; Registers used:
  5639 ;;		wreg
  5640 ;; Tracked objects:
  5641 ;;		On entry : 0/0
  5642 ;;		On exit  : 0/0
  5643 ;;		Unchanged: 0/0
  5644 ;; Data sizes:     COMMON   BANK0   BANK1   BANK3   BANK2
  5645 ;;      Params:         4       0       0       0       0
  5646 ;;      Locals:         0       0       0       0       0
  5647 ;;      Temps:          0       0       0       0       0
  5648 ;;      Totals:         4       0       0       0       0
  5649 ;;Total ram usage:        4 bytes
  5650 ;; Hardware stack levels used: 1
  5651 ;; This function calls:
  5652 ;;		Nothing
  5653 ;; This function is called by:
  5654 ;;		_efgtoa
  5655 ;; This function uses a non-reentrant model
  5656 ;;
  5657                           
  5658     1000                     ___flneg:	
  5659                           ;psect for function ___flneg
  5660                           
  5661     1000                     l2372:	
  5662                           ;incstack = 0
  5663                           ; Regs used in ___flneg: [wreg]
  5664                           
  5665     1000  0873               	movf	___flneg@f1+3,w
  5666     1001  0472               	iorwf	___flneg@f1+2,w
  5667     1002  0471               	iorwf	___flneg@f1+1,w
  5668     1003  0470               	iorwf	___flneg@f1,w
  5669     1004  1903               	skipnz
  5670     1005  2807               	goto	u3261
  5671     1006  2808               	goto	u3260
  5672     1007                     u3261:
  5673     1007  280A               	goto	l2376
  5674     1008                     u3260:
  5675     1008                     l2374:
  5676     1008  3080               	movlw	128
  5677     1009  06F3               	xorwf	___flneg@f1+3,f
  5678     100A                     l2376:
  5679     100A                     l344:
  5680     100A  0008               	return
  5681     100B                     __end_of___flneg:
  5682                           
  5683                           	psect	text23
  5684     0CBE                     __ptext23:	
  5685 ;; *************** function ___flmul *****************
  5686 ;; Defined at:
  5687 ;;		line 8 in file "C:\Program Files\Microchip\xc8\v2.50\pic\sources\c99\common\sprcmul.c"
  5688 ;; Parameters:    Size  Location     Type
  5689 ;;  b               4    0[BANK0 ] unsigned char 
  5690 ;;  a               4    4[BANK0 ] unsigned char 
  5691 ;; Auto vars:     Size  Location     Type
  5692 ;;  prod            4   20[BANK0 ] struct .
  5693 ;;  grs             4   14[BANK0 ] unsigned long 
  5694 ;;  temp            2   24[BANK0 ] struct .
  5695 ;;  bexp            1   19[BANK0 ] unsigned char 
  5696 ;;  aexp            1   18[BANK0 ] unsigned char 
  5697 ;;  sign            1   13[BANK0 ] unsigned char 
  5698 ;; Return value:  Size  Location     Type
  5699 ;;                  4    0[BANK0 ] unsigned char 
  5700 ;; Registers used:
  5701 ;;		wreg, status,2, status,0, btemp+1, pclath, cstack
  5702 ;; Tracked objects:
  5703 ;;		On entry : 0/0
  5704 ;;		On exit  : 0/0
  5705 ;;		Unchanged: 0/0
  5706 ;; Data sizes:     COMMON   BANK0   BANK1   BANK3   BANK2
  5707 ;;      Params:         0       8       0       0       0
  5708 ;;      Locals:         0      13       0       0       0
  5709 ;;      Temps:          0       5       0       0       0
  5710 ;;      Totals:         0      26       0       0       0
  5711 ;;Total ram usage:       26 bytes
  5712 ;; Hardware stack levels used: 1
  5713 ;; Hardware stack levels required when called: 1
  5714 ;; This function calls:
  5715 ;;		__Umul8_16
  5716 ;; This function is called by:
  5717 ;;		_main
  5718 ;;		_efgtoa
  5719 ;; This function uses a non-reentrant model
  5720 ;;
  5721                           
  5722     0CBE                     ___flmul:	
  5723                           ;psect for function ___flmul
  5724                           
  5725     0CBE                     l2614:	
  5726                           ;incstack = 0
  5727                           ; Regs used in ___flmul: [wreg+status,2+status,0+btemp+1+pclath+cstack]
  5728                           
  5729     0CBE  1283               	bcf	3,5	;RP0=0, select bank0
  5730     0CBF  1303               	bcf	3,6	;RP1=0, select bank0
  5731     0CC0  0823               	movf	___flmul@b+3,w
  5732     0CC1  00AD               	movwf	___flmul@sign
  5733     0CC2                     l2616:
  5734     0CC2  3080               	movlw	128
  5735     0CC3  05AD               	andwf	___flmul@sign,f
  5736     0CC4                     l2618:
  5737     0CC4  0823               	movf	___flmul@b+3,w
  5738     0CC5  00A8               	movwf	??___flmul
  5739     0CC6  0728               	addwf	??___flmul,w
  5740     0CC7  00B3               	movwf	___flmul@bexp
  5741     0CC8                     l2620:
  5742     0CC8  1FA2               	btfss	___flmul@b+2,7
  5743     0CC9  2CCB               	goto	u3791
  5744     0CCA  2CCC               	goto	u3790
  5745     0CCB                     u3791:
  5746     0CCB  2CCD               	goto	l2624
  5747     0CCC                     u3790:
  5748     0CCC                     l2622:
  5749     0CCC  1433               	bsf	___flmul@bexp,0
  5750     0CCD                     l2624:
  5751     0CCD  0833               	movf	___flmul@bexp,w
  5752     0CCE  1903               	btfsc	3,2
  5753     0CCF  2CD1               	goto	u3801
  5754     0CD0  2CD2               	goto	u3800
  5755     0CD1                     u3801:
  5756     0CD1  2CE1               	goto	l2632
  5757     0CD2                     u3800:
  5758     0CD2                     l2626:
  5759     0CD2  0A33               	incf	___flmul@bexp,w
  5760     0CD3  1D03               	btfss	3,2
  5761     0CD4  2CD6               	goto	u3811
  5762     0CD5  2CD7               	goto	u3810
  5763     0CD6                     u3811:
  5764     0CD6  2CDF               	goto	l2630
  5765     0CD7                     u3810:
  5766     0CD7                     l2628:
  5767     0CD7  3000               	movlw	0
  5768     0CD8  00A3               	movwf	___flmul@b+3
  5769     0CD9  3000               	movlw	0
  5770     0CDA  00A2               	movwf	___flmul@b+2
  5771     0CDB  3000               	movlw	0
  5772     0CDC  00A1               	movwf	___flmul@b+1
  5773     0CDD  3000               	movlw	0
  5774     0CDE  00A0               	movwf	___flmul@b
  5775     0CDF                     l2630:
  5776     0CDF  17A2               	bsf	___flmul@b+2,7
  5777     0CE0  2CE9               	goto	l2634
  5778     0CE1                     l2632:
  5779     0CE1  3000               	movlw	0
  5780     0CE2  00A3               	movwf	___flmul@b+3
  5781     0CE3  3000               	movlw	0
  5782     0CE4  00A2               	movwf	___flmul@b+2
  5783     0CE5  3000               	movlw	0
  5784     0CE6  00A1               	movwf	___flmul@b+1
  5785     0CE7  3000               	movlw	0
  5786     0CE8  00A0               	movwf	___flmul@b
  5787     0CE9                     l2634:
  5788     0CE9  0827               	movf	___flmul@a+3,w
  5789     0CEA  3980               	andlw	128
  5790     0CEB  06AD               	xorwf	___flmul@sign,f
  5791     0CEC                     l2636:
  5792     0CEC  0827               	movf	___flmul@a+3,w
  5793     0CED  00A8               	movwf	??___flmul
  5794     0CEE  0728               	addwf	??___flmul,w
  5795     0CEF  00B2               	movwf	___flmul@aexp
  5796     0CF0                     l2638:
  5797     0CF0  1FA6               	btfss	___flmul@a+2,7
  5798     0CF1  2CF3               	goto	u3821
  5799     0CF2  2CF4               	goto	u3820
  5800     0CF3                     u3821:
  5801     0CF3  2CF5               	goto	l2642
  5802     0CF4                     u3820:
  5803     0CF4                     l2640:
  5804     0CF4  1432               	bsf	___flmul@aexp,0
  5805     0CF5                     l2642:
  5806     0CF5  0832               	movf	___flmul@aexp,w
  5807     0CF6  1903               	btfsc	3,2
  5808     0CF7  2CF9               	goto	u3831
  5809     0CF8  2CFA               	goto	u3830
  5810     0CF9                     u3831:
  5811     0CF9  2D09               	goto	l2650
  5812     0CFA                     u3830:
  5813     0CFA                     l2644:
  5814     0CFA  0A32               	incf	___flmul@aexp,w
  5815     0CFB  1D03               	btfss	3,2
  5816     0CFC  2CFE               	goto	u3841
  5817     0CFD  2CFF               	goto	u3840
  5818     0CFE                     u3841:
  5819     0CFE  2D07               	goto	l2648
  5820     0CFF                     u3840:
  5821     0CFF                     l2646:
  5822     0CFF  3000               	movlw	0
  5823     0D00  00A7               	movwf	___flmul@a+3
  5824     0D01  3000               	movlw	0
  5825     0D02  00A6               	movwf	___flmul@a+2
  5826     0D03  3000               	movlw	0
  5827     0D04  00A5               	movwf	___flmul@a+1
  5828     0D05  3000               	movlw	0
  5829     0D06  00A4               	movwf	___flmul@a
  5830     0D07                     l2648:
  5831     0D07  17A6               	bsf	___flmul@a+2,7
  5832     0D08  2D11               	goto	l2652
  5833     0D09                     l2650:
  5834     0D09  3000               	movlw	0
  5835     0D0A  00A7               	movwf	___flmul@a+3
  5836     0D0B  3000               	movlw	0
  5837     0D0C  00A6               	movwf	___flmul@a+2
  5838     0D0D  3000               	movlw	0
  5839     0D0E  00A5               	movwf	___flmul@a+1
  5840     0D0F  3000               	movlw	0
  5841     0D10  00A4               	movwf	___flmul@a
  5842     0D11                     l2652:
  5843     0D11  0832               	movf	___flmul@aexp,w
  5844     0D12  1903               	btfsc	3,2
  5845     0D13  2D15               	goto	u3851
  5846     0D14  2D16               	goto	u3850
  5847     0D15                     u3851:
  5848     0D15  2D1B               	goto	l2656
  5849     0D16                     u3850:
  5850     0D16                     l2654:
  5851     0D16  0833               	movf	___flmul@bexp,w
  5852     0D17  1D03               	btfss	3,2
  5853     0D18  2D1A               	goto	u3861
  5854     0D19  2D1B               	goto	u3860
  5855     0D1A                     u3861:
  5856     0D1A  2D24               	goto	l2660
  5857     0D1B                     u3860:
  5858     0D1B                     l2656:
  5859     0D1B  3000               	movlw	0
  5860     0D1C  00A3               	movwf	?___flmul+3
  5861     0D1D  3000               	movlw	0
  5862     0D1E  00A2               	movwf	?___flmul+2
  5863     0D1F  3000               	movlw	0
  5864     0D20  00A1               	movwf	?___flmul+1
  5865     0D21  3000               	movlw	0
  5866     0D22  00A0               	movwf	?___flmul
  5867     0D23  2FFF               	goto	l551
  5868     0D24                     l2660:
  5869     0D24  0820               	movf	___flmul@b,w
  5870     0D25  00F0               	movwf	__Umul8_16@multiplicand
  5871     0D26  0826               	movf	___flmul@a+2,w
  5872     0D27  160A  158A  26BD  120A  158A  	fcall	__Umul8_16
  5873     0D2C  0871               	movf	?__Umul8_16+1,w
  5874     0D2D  1283               	bcf	3,5	;RP0=0, select bank0
  5875     0D2E  1303               	bcf	3,6	;RP1=0, select bank0
  5876     0D2F  00B9               	movwf	___flmul@temp+1
  5877     0D30  0870               	movf	?__Umul8_16,w
  5878     0D31  00B8               	movwf	___flmul@temp
  5879     0D32                     l2662:
  5880     0D32  0838               	movf	___flmul@temp,w
  5881     0D33  00A8               	movwf	??___flmul
  5882     0D34  01A9               	clrf	??___flmul+1
  5883     0D35  01AA               	clrf	??___flmul+2
  5884     0D36  01AB               	clrf	??___flmul+3
  5885     0D37  082B               	movf	??___flmul+3,w
  5886     0D38  00B1               	movwf	___flmul@grs+3
  5887     0D39  082A               	movf	??___flmul+2,w
  5888     0D3A  00B0               	movwf	___flmul@grs+2
  5889     0D3B  0829               	movf	??___flmul+1,w
  5890     0D3C  00AF               	movwf	___flmul@grs+1
  5891     0D3D  0828               	movf	??___flmul,w
  5892     0D3E  00AE               	movwf	___flmul@grs
  5893     0D3F                     l2664:
  5894     0D3F  0839               	movf	___flmul@temp+1,w
  5895     0D40  00A8               	movwf	??___flmul
  5896     0D41  01A9               	clrf	??___flmul+1
  5897     0D42  01AA               	clrf	??___flmul+2
  5898     0D43  01AB               	clrf	??___flmul+3
  5899     0D44  082B               	movf	??___flmul+3,w
  5900     0D45  00B7               	movwf	___flmul@prod+3
  5901     0D46  082A               	movf	??___flmul+2,w
  5902     0D47  00B6               	movwf	___flmul@prod+2
  5903     0D48  0829               	movf	??___flmul+1,w
  5904     0D49  00B5               	movwf	___flmul@prod+1
  5905     0D4A  0828               	movf	??___flmul,w
  5906     0D4B  00B4               	movwf	___flmul@prod
  5907     0D4C  0821               	movf	___flmul@b+1,w
  5908     0D4D  00F0               	movwf	__Umul8_16@multiplicand
  5909     0D4E  0825               	movf	___flmul@a+1,w
  5910     0D4F  160A  158A  26BD  120A  158A  	fcall	__Umul8_16
  5911     0D54  0871               	movf	?__Umul8_16+1,w
  5912     0D55  1283               	bcf	3,5	;RP0=0, select bank0
  5913     0D56  1303               	bcf	3,6	;RP1=0, select bank0
  5914     0D57  00B9               	movwf	___flmul@temp+1
  5915     0D58  0870               	movf	?__Umul8_16,w
  5916     0D59  00B8               	movwf	___flmul@temp
  5917     0D5A                     l2666:
  5918     0D5A  0838               	movf	___flmul@temp,w
  5919     0D5B  00A8               	movwf	??___flmul
  5920     0D5C  01A9               	clrf	??___flmul+1
  5921     0D5D  01AA               	clrf	??___flmul+2
  5922     0D5E  01AB               	clrf	??___flmul+3
  5923     0D5F  0828               	movf	??___flmul,w
  5924     0D60  07AE               	addwf	___flmul@grs,f
  5925     0D61  0829               	movf	??___flmul+1,w
  5926     0D62  1103               	clrz
  5927     0D63  1803               	skipnc
  5928     0D64  3E01               	addlw	1
  5929     0D65  1903               	skipnz
  5930     0D66  2D68               	goto	u3871
  5931     0D67  07AF               	addwf	___flmul@grs+1,f
  5932     0D68                     u3871:
  5933     0D68  082A               	movf	??___flmul+2,w
  5934     0D69  1103               	clrz
  5935     0D6A  1803               	skipnc
  5936     0D6B  3E01               	addlw	1
  5937     0D6C  1903               	skipnz
  5938     0D6D  2D6F               	goto	u3872
  5939     0D6E  07B0               	addwf	___flmul@grs+2,f
  5940     0D6F                     u3872:
  5941     0D6F  082B               	movf	??___flmul+3,w
  5942     0D70  1103               	clrz
  5943     0D71  1803               	skipnc
  5944     0D72  3E01               	addlw	1
  5945     0D73  1903               	skipnz
  5946     0D74  2D76               	goto	u3873
  5947     0D75  07B1               	addwf	___flmul@grs+3,f
  5948     0D76                     u3873:
  5949     0D76                     l2668:
  5950     0D76  0839               	movf	___flmul@temp+1,w
  5951     0D77  00A8               	movwf	??___flmul
  5952     0D78  01A9               	clrf	??___flmul+1
  5953     0D79  01AA               	clrf	??___flmul+2
  5954     0D7A  01AB               	clrf	??___flmul+3
  5955     0D7B  0828               	movf	??___flmul,w
  5956     0D7C  07B4               	addwf	___flmul@prod,f
  5957     0D7D  0829               	movf	??___flmul+1,w
  5958     0D7E  1103               	clrz
  5959     0D7F  1803               	skipnc
  5960     0D80  3E01               	addlw	1
  5961     0D81  1903               	skipnz
  5962     0D82  2D84               	goto	u3881
  5963     0D83  07B5               	addwf	___flmul@prod+1,f
  5964     0D84                     u3881:
  5965     0D84  082A               	movf	??___flmul+2,w
  5966     0D85  1103               	clrz
  5967     0D86  1803               	skipnc
  5968     0D87  3E01               	addlw	1
  5969     0D88  1903               	skipnz
  5970     0D89  2D8B               	goto	u3882
  5971     0D8A  07B6               	addwf	___flmul@prod+2,f
  5972     0D8B                     u3882:
  5973     0D8B  082B               	movf	??___flmul+3,w
  5974     0D8C  1103               	clrz
  5975     0D8D  1803               	skipnc
  5976     0D8E  3E01               	addlw	1
  5977     0D8F  1903               	skipnz
  5978     0D90  2D92               	goto	u3883
  5979     0D91  07B7               	addwf	___flmul@prod+3,f
  5980     0D92                     u3883:
  5981     0D92  0822               	movf	___flmul@b+2,w
  5982     0D93  00F0               	movwf	__Umul8_16@multiplicand
  5983     0D94  0824               	movf	___flmul@a,w
  5984     0D95  160A  158A  26BD  120A  158A  	fcall	__Umul8_16
  5985     0D9A  0871               	movf	?__Umul8_16+1,w
  5986     0D9B  1283               	bcf	3,5	;RP0=0, select bank0
  5987     0D9C  1303               	bcf	3,6	;RP1=0, select bank0
  5988     0D9D  00B9               	movwf	___flmul@temp+1
  5989     0D9E  0870               	movf	?__Umul8_16,w
  5990     0D9F  00B8               	movwf	___flmul@temp
  5991     0DA0                     l2670:
  5992     0DA0  0838               	movf	___flmul@temp,w
  5993     0DA1  00A8               	movwf	??___flmul
  5994     0DA2  01A9               	clrf	??___flmul+1
  5995     0DA3  01AA               	clrf	??___flmul+2
  5996     0DA4  01AB               	clrf	??___flmul+3
  5997     0DA5  0828               	movf	??___flmul,w
  5998     0DA6  07AE               	addwf	___flmul@grs,f
  5999     0DA7  0829               	movf	??___flmul+1,w
  6000     0DA8  1103               	clrz
  6001     0DA9  1803               	skipnc
  6002     0DAA  3E01               	addlw	1
  6003     0DAB  1903               	skipnz
  6004     0DAC  2DAE               	goto	u3891
  6005     0DAD  07AF               	addwf	___flmul@grs+1,f
  6006     0DAE                     u3891:
  6007     0DAE  082A               	movf	??___flmul+2,w
  6008     0DAF  1103               	clrz
  6009     0DB0  1803               	skipnc
  6010     0DB1  3E01               	addlw	1
  6011     0DB2  1903               	skipnz
  6012     0DB3  2DB5               	goto	u3892
  6013     0DB4  07B0               	addwf	___flmul@grs+2,f
  6014     0DB5                     u3892:
  6015     0DB5  082B               	movf	??___flmul+3,w
  6016     0DB6  1103               	clrz
  6017     0DB7  1803               	skipnc
  6018     0DB8  3E01               	addlw	1
  6019     0DB9  1903               	skipnz
  6020     0DBA  2DBC               	goto	u3893
  6021     0DBB  07B1               	addwf	___flmul@grs+3,f
  6022     0DBC                     u3893:
  6023     0DBC                     l2672:
  6024     0DBC  0839               	movf	___flmul@temp+1,w
  6025     0DBD  00A8               	movwf	??___flmul
  6026     0DBE  01A9               	clrf	??___flmul+1
  6027     0DBF  01AA               	clrf	??___flmul+2
  6028     0DC0  01AB               	clrf	??___flmul+3
  6029     0DC1  0828               	movf	??___flmul,w
  6030     0DC2  07B4               	addwf	___flmul@prod,f
  6031     0DC3  0829               	movf	??___flmul+1,w
  6032     0DC4  1103               	clrz
  6033     0DC5  1803               	skipnc
  6034     0DC6  3E01               	addlw	1
  6035     0DC7  1903               	skipnz
  6036     0DC8  2DCA               	goto	u3901
  6037     0DC9  07B5               	addwf	___flmul@prod+1,f
  6038     0DCA                     u3901:
  6039     0DCA  082A               	movf	??___flmul+2,w
  6040     0DCB  1103               	clrz
  6041     0DCC  1803               	skipnc
  6042     0DCD  3E01               	addlw	1
  6043     0DCE  1903               	skipnz
  6044     0DCF  2DD1               	goto	u3902
  6045     0DD0  07B6               	addwf	___flmul@prod+2,f
  6046     0DD1                     u3902:
  6047     0DD1  082B               	movf	??___flmul+3,w
  6048     0DD2  1103               	clrz
  6049     0DD3  1803               	skipnc
  6050     0DD4  3E01               	addlw	1
  6051     0DD5  1903               	skipnz
  6052     0DD6  2DD8               	goto	u3903
  6053     0DD7  07B7               	addwf	___flmul@prod+3,f
  6054     0DD8                     u3903:
  6055     0DD8                     l2674:
  6056     0DD8  3008               	movlw	8
  6057     0DD9  00A8               	movwf	??___flmul
  6058     0DDA                     u3915:
  6059     0DDA  1003               	clrc
  6060     0DDB  0DAE               	rlf	___flmul@grs,f
  6061     0DDC  0DAF               	rlf	___flmul@grs+1,f
  6062     0DDD  0DB0               	rlf	___flmul@grs+2,f
  6063     0DDE  0DB1               	rlf	___flmul@grs+3,f
  6064     0DDF  0BA8               	decfsz	??___flmul,f
  6065     0DE0  2DDA               	goto	u3915
  6066     0DE1                     l2676:
  6067     0DE1  0821               	movf	___flmul@b+1,w
  6068     0DE2  00F0               	movwf	__Umul8_16@multiplicand
  6069     0DE3  0824               	movf	___flmul@a,w
  6070     0DE4  160A  158A  26BD  120A  158A  	fcall	__Umul8_16
  6071     0DE9  0871               	movf	?__Umul8_16+1,w
  6072     0DEA  1283               	bcf	3,5	;RP0=0, select bank0
  6073     0DEB  1303               	bcf	3,6	;RP1=0, select bank0
  6074     0DEC  00B9               	movwf	___flmul@temp+1
  6075     0DED  0870               	movf	?__Umul8_16,w
  6076     0DEE  00B8               	movwf	___flmul@temp
  6077     0DEF                     l2678:
  6078     0DEF  0838               	movf	___flmul@temp,w
  6079     0DF0  00A8               	movwf	??___flmul
  6080     0DF1  0839               	movf	___flmul@temp+1,w
  6081     0DF2  00A9               	movwf	??___flmul+1
  6082     0DF3  01AA               	clrf	??___flmul+2
  6083     0DF4  01AB               	clrf	??___flmul+3
  6084     0DF5  0828               	movf	??___flmul,w
  6085     0DF6  07AE               	addwf	___flmul@grs,f
  6086     0DF7  0829               	movf	??___flmul+1,w
  6087     0DF8  1103               	clrz
  6088     0DF9  1803               	skipnc
  6089     0DFA  3E01               	addlw	1
  6090     0DFB  1903               	skipnz
  6091     0DFC  2DFE               	goto	u3921
  6092     0DFD  07AF               	addwf	___flmul@grs+1,f
  6093     0DFE                     u3921:
  6094     0DFE  082A               	movf	??___flmul+2,w
  6095     0DFF  1103               	clrz
  6096     0E00  1803               	skipnc
  6097     0E01  3E01               	addlw	1
  6098     0E02  1903               	skipnz
  6099     0E03  2E05               	goto	u3922
  6100     0E04  07B0               	addwf	___flmul@grs+2,f
  6101     0E05                     u3922:
  6102     0E05  082B               	movf	??___flmul+3,w
  6103     0E06  1103               	clrz
  6104     0E07  1803               	skipnc
  6105     0E08  3E01               	addlw	1
  6106     0E09  1903               	skipnz
  6107     0E0A  2E0C               	goto	u3923
  6108     0E0B  07B1               	addwf	___flmul@grs+3,f
  6109     0E0C                     u3923:
  6110     0E0C                     l2680:
  6111     0E0C  0820               	movf	___flmul@b,w
  6112     0E0D  00F0               	movwf	__Umul8_16@multiplicand
  6113     0E0E  0825               	movf	___flmul@a+1,w
  6114     0E0F  160A  158A  26BD  120A  158A  	fcall	__Umul8_16
  6115     0E14  0871               	movf	?__Umul8_16+1,w
  6116     0E15  1283               	bcf	3,5	;RP0=0, select bank0
  6117     0E16  1303               	bcf	3,6	;RP1=0, select bank0
  6118     0E17  00B9               	movwf	___flmul@temp+1
  6119     0E18  0870               	movf	?__Umul8_16,w
  6120     0E19  00B8               	movwf	___flmul@temp
  6121     0E1A                     l2682:
  6122     0E1A  0838               	movf	___flmul@temp,w
  6123     0E1B  00A8               	movwf	??___flmul
  6124     0E1C  0839               	movf	___flmul@temp+1,w
  6125     0E1D  00A9               	movwf	??___flmul+1
  6126     0E1E  01AA               	clrf	??___flmul+2
  6127     0E1F  01AB               	clrf	??___flmul+3
  6128     0E20  0828               	movf	??___flmul,w
  6129     0E21  07AE               	addwf	___flmul@grs,f
  6130     0E22  0829               	movf	??___flmul+1,w
  6131     0E23  1103               	clrz
  6132     0E24  1803               	skipnc
  6133     0E25  3E01               	addlw	1
  6134     0E26  1903               	skipnz
  6135     0E27  2E29               	goto	u3931
  6136     0E28  07AF               	addwf	___flmul@grs+1,f
  6137     0E29                     u3931:
  6138     0E29  082A               	movf	??___flmul+2,w
  6139     0E2A  1103               	clrz
  6140     0E2B  1803               	skipnc
  6141     0E2C  3E01               	addlw	1
  6142     0E2D  1903               	skipnz
  6143     0E2E  2E30               	goto	u3932
  6144     0E2F  07B0               	addwf	___flmul@grs+2,f
  6145     0E30                     u3932:
  6146     0E30  082B               	movf	??___flmul+3,w
  6147     0E31  1103               	clrz
  6148     0E32  1803               	skipnc
  6149     0E33  3E01               	addlw	1
  6150     0E34  1903               	skipnz
  6151     0E35  2E37               	goto	u3933
  6152     0E36  07B1               	addwf	___flmul@grs+3,f
  6153     0E37                     u3933:
  6154     0E37                     l2684:
  6155     0E37  3008               	movlw	8
  6156     0E38  00A8               	movwf	??___flmul
  6157     0E39                     u3945:
  6158     0E39  1003               	clrc
  6159     0E3A  0DAE               	rlf	___flmul@grs,f
  6160     0E3B  0DAF               	rlf	___flmul@grs+1,f
  6161     0E3C  0DB0               	rlf	___flmul@grs+2,f
  6162     0E3D  0DB1               	rlf	___flmul@grs+3,f
  6163     0E3E  0BA8               	decfsz	??___flmul,f
  6164     0E3F  2E39               	goto	u3945
  6165     0E40  0820               	movf	___flmul@b,w
  6166     0E41  00F0               	movwf	__Umul8_16@multiplicand
  6167     0E42  0824               	movf	___flmul@a,w
  6168     0E43  160A  158A  26BD  120A  158A  	fcall	__Umul8_16
  6169     0E48  0871               	movf	?__Umul8_16+1,w
  6170     0E49  1283               	bcf	3,5	;RP0=0, select bank0
  6171     0E4A  1303               	bcf	3,6	;RP1=0, select bank0
  6172     0E4B  00B9               	movwf	___flmul@temp+1
  6173     0E4C  0870               	movf	?__Umul8_16,w
  6174     0E4D  00B8               	movwf	___flmul@temp
  6175     0E4E                     l2686:
  6176     0E4E  0838               	movf	___flmul@temp,w
  6177     0E4F  00A8               	movwf	??___flmul
  6178     0E50  0839               	movf	___flmul@temp+1,w
  6179     0E51  00A9               	movwf	??___flmul+1
  6180     0E52  01AA               	clrf	??___flmul+2
  6181     0E53  01AB               	clrf	??___flmul+3
  6182     0E54  0828               	movf	??___flmul,w
  6183     0E55  07AE               	addwf	___flmul@grs,f
  6184     0E56  0829               	movf	??___flmul+1,w
  6185     0E57  1103               	clrz
  6186     0E58  1803               	skipnc
  6187     0E59  3E01               	addlw	1
  6188     0E5A  1903               	skipnz
  6189     0E5B  2E5D               	goto	u3951
  6190     0E5C  07AF               	addwf	___flmul@grs+1,f
  6191     0E5D                     u3951:
  6192     0E5D  082A               	movf	??___flmul+2,w
  6193     0E5E  1103               	clrz
  6194     0E5F  1803               	skipnc
  6195     0E60  3E01               	addlw	1
  6196     0E61  1903               	skipnz
  6197     0E62  2E64               	goto	u3952
  6198     0E63  07B0               	addwf	___flmul@grs+2,f
  6199     0E64                     u3952:
  6200     0E64  082B               	movf	??___flmul+3,w
  6201     0E65  1103               	clrz
  6202     0E66  1803               	skipnc
  6203     0E67  3E01               	addlw	1
  6204     0E68  1903               	skipnz
  6205     0E69  2E6B               	goto	u3953
  6206     0E6A  07B1               	addwf	___flmul@grs+3,f
  6207     0E6B                     u3953:
  6208     0E6B                     l2688:
  6209     0E6B  0821               	movf	___flmul@b+1,w
  6210     0E6C  00F0               	movwf	__Umul8_16@multiplicand
  6211     0E6D  0826               	movf	___flmul@a+2,w
  6212     0E6E  160A  158A  26BD  120A  158A  	fcall	__Umul8_16
  6213     0E73  0871               	movf	?__Umul8_16+1,w
  6214     0E74  1283               	bcf	3,5	;RP0=0, select bank0
  6215     0E75  1303               	bcf	3,6	;RP1=0, select bank0
  6216     0E76  00B9               	movwf	___flmul@temp+1
  6217     0E77  0870               	movf	?__Umul8_16,w
  6218     0E78  00B8               	movwf	___flmul@temp
  6219     0E79  0838               	movf	___flmul@temp,w
  6220     0E7A  00A8               	movwf	??___flmul
  6221     0E7B  0839               	movf	___flmul@temp+1,w
  6222     0E7C  00A9               	movwf	??___flmul+1
  6223     0E7D  01AA               	clrf	??___flmul+2
  6224     0E7E  01AB               	clrf	??___flmul+3
  6225     0E7F  0828               	movf	??___flmul,w
  6226     0E80  07B4               	addwf	___flmul@prod,f
  6227     0E81  0829               	movf	??___flmul+1,w
  6228     0E82  1103               	clrz
  6229     0E83  1803               	skipnc
  6230     0E84  3E01               	addlw	1
  6231     0E85  1903               	skipnz
  6232     0E86  2E88               	goto	u3961
  6233     0E87  07B5               	addwf	___flmul@prod+1,f
  6234     0E88                     u3961:
  6235     0E88  082A               	movf	??___flmul+2,w
  6236     0E89  1103               	clrz
  6237     0E8A  1803               	skipnc
  6238     0E8B  3E01               	addlw	1
  6239     0E8C  1903               	skipnz
  6240     0E8D  2E8F               	goto	u3962
  6241     0E8E  07B6               	addwf	___flmul@prod+2,f
  6242     0E8F                     u3962:
  6243     0E8F  082B               	movf	??___flmul+3,w
  6244     0E90  1103               	clrz
  6245     0E91  1803               	skipnc
  6246     0E92  3E01               	addlw	1
  6247     0E93  1903               	skipnz
  6248     0E94  2E96               	goto	u3963
  6249     0E95  07B7               	addwf	___flmul@prod+3,f
  6250     0E96                     u3963:
  6251     0E96                     l2690:
  6252     0E96  0822               	movf	___flmul@b+2,w
  6253     0E97  00F0               	movwf	__Umul8_16@multiplicand
  6254     0E98  0825               	movf	___flmul@a+1,w
  6255     0E99  160A  158A  26BD  120A  158A  	fcall	__Umul8_16
  6256     0E9E  0871               	movf	?__Umul8_16+1,w
  6257     0E9F  1283               	bcf	3,5	;RP0=0, select bank0
  6258     0EA0  1303               	bcf	3,6	;RP1=0, select bank0
  6259     0EA1  00B9               	movwf	___flmul@temp+1
  6260     0EA2  0870               	movf	?__Umul8_16,w
  6261     0EA3  00B8               	movwf	___flmul@temp
  6262     0EA4                     l2692:
  6263     0EA4  0838               	movf	___flmul@temp,w
  6264     0EA5  00A8               	movwf	??___flmul
  6265     0EA6  0839               	movf	___flmul@temp+1,w
  6266     0EA7  00A9               	movwf	??___flmul+1
  6267     0EA8  01AA               	clrf	??___flmul+2
  6268     0EA9  01AB               	clrf	??___flmul+3
  6269     0EAA  0828               	movf	??___flmul,w
  6270     0EAB  07B4               	addwf	___flmul@prod,f
  6271     0EAC  0829               	movf	??___flmul+1,w
  6272     0EAD  1103               	clrz
  6273     0EAE  1803               	skipnc
  6274     0EAF  3E01               	addlw	1
  6275     0EB0  1903               	skipnz
  6276     0EB1  2EB3               	goto	u3971
  6277     0EB2  07B5               	addwf	___flmul@prod+1,f
  6278     0EB3                     u3971:
  6279     0EB3  082A               	movf	??___flmul+2,w
  6280     0EB4  1103               	clrz
  6281     0EB5  1803               	skipnc
  6282     0EB6  3E01               	addlw	1
  6283     0EB7  1903               	skipnz
  6284     0EB8  2EBA               	goto	u3972
  6285     0EB9  07B6               	addwf	___flmul@prod+2,f
  6286     0EBA                     u3972:
  6287     0EBA  082B               	movf	??___flmul+3,w
  6288     0EBB  1103               	clrz
  6289     0EBC  1803               	skipnc
  6290     0EBD  3E01               	addlw	1
  6291     0EBE  1903               	skipnz
  6292     0EBF  2EC1               	goto	u3973
  6293     0EC0  07B7               	addwf	___flmul@prod+3,f
  6294     0EC1                     u3973:
  6295     0EC1  0822               	movf	___flmul@b+2,w
  6296     0EC2  00F0               	movwf	__Umul8_16@multiplicand
  6297     0EC3  0826               	movf	___flmul@a+2,w
  6298     0EC4  160A  158A  26BD  120A  158A  	fcall	__Umul8_16
  6299     0EC9  0871               	movf	?__Umul8_16+1,w
  6300     0ECA  1283               	bcf	3,5	;RP0=0, select bank0
  6301     0ECB  1303               	bcf	3,6	;RP1=0, select bank0
  6302     0ECC  00B9               	movwf	___flmul@temp+1
  6303     0ECD  0870               	movf	?__Umul8_16,w
  6304     0ECE  00B8               	movwf	___flmul@temp
  6305     0ECF                     l2694:
  6306     0ECF  0838               	movf	___flmul@temp,w
  6307     0ED0  00A8               	movwf	??___flmul
  6308     0ED1  0839               	movf	___flmul@temp+1,w
  6309     0ED2  00A9               	movwf	??___flmul+1
  6310     0ED3  01AA               	clrf	??___flmul+2
  6311     0ED4  01AB               	clrf	??___flmul+3
  6312     0ED5  3008               	movlw	8
  6313     0ED6                     u3985:
  6314     0ED6  1003               	clrc
  6315     0ED7  0DA8               	rlf	??___flmul,f
  6316     0ED8  0DA9               	rlf	??___flmul+1,f
  6317     0ED9  0DAA               	rlf	??___flmul+2,f
  6318     0EDA  0DAB               	rlf	??___flmul+3,f
  6319     0EDB                     u3980:
  6320     0EDB  3EFF               	addlw	-1
  6321     0EDC  1D03               	skipz
  6322     0EDD  2ED6               	goto	u3985
  6323     0EDE  0828               	movf	??___flmul,w
  6324     0EDF  07B4               	addwf	___flmul@prod,f
  6325     0EE0  0829               	movf	??___flmul+1,w
  6326     0EE1  1103               	clrz
  6327     0EE2  1803               	skipnc
  6328     0EE3  3E01               	addlw	1
  6329     0EE4  1903               	skipnz
  6330     0EE5  2EE7               	goto	u3991
  6331     0EE6  07B5               	addwf	___flmul@prod+1,f
  6332     0EE7                     u3991:
  6333     0EE7  082A               	movf	??___flmul+2,w
  6334     0EE8  1103               	clrz
  6335     0EE9  1803               	skipnc
  6336     0EEA  3E01               	addlw	1
  6337     0EEB  1903               	skipnz
  6338     0EEC  2EEE               	goto	u3992
  6339     0EED  07B6               	addwf	___flmul@prod+2,f
  6340     0EEE                     u3992:
  6341     0EEE  082B               	movf	??___flmul+3,w
  6342     0EEF  1103               	clrz
  6343     0EF0  1803               	skipnc
  6344     0EF1  3E01               	addlw	1
  6345     0EF2  1903               	skipnz
  6346     0EF3  2EF5               	goto	u3993
  6347     0EF4  07B7               	addwf	___flmul@prod+3,f
  6348     0EF5                     u3993:
  6349     0EF5                     l2696:
  6350     0EF5  082E               	movf	___flmul@grs,w
  6351     0EF6  00A8               	movwf	??___flmul
  6352     0EF7  082F               	movf	___flmul@grs+1,w
  6353     0EF8  00A9               	movwf	??___flmul+1
  6354     0EF9  0830               	movf	___flmul@grs+2,w
  6355     0EFA  00AA               	movwf	??___flmul+2
  6356     0EFB  0831               	movf	___flmul@grs+3,w
  6357     0EFC  00AB               	movwf	??___flmul+3
  6358     0EFD  3018               	movlw	24
  6359     0EFE                     u4005:
  6360     0EFE  1003               	clrc
  6361     0EFF  0CAB               	rrf	??___flmul+3,f
  6362     0F00  0CAA               	rrf	??___flmul+2,f
  6363     0F01  0CA9               	rrf	??___flmul+1,f
  6364     0F02  0CA8               	rrf	??___flmul,f
  6365     0F03                     u4000:
  6366     0F03  3EFF               	addlw	-1
  6367     0F04  1D03               	skipz
  6368     0F05  2EFE               	goto	u4005
  6369     0F06  0828               	movf	??___flmul,w
  6370     0F07  07B4               	addwf	___flmul@prod,f
  6371     0F08  0829               	movf	??___flmul+1,w
  6372     0F09  1103               	clrz
  6373     0F0A  1803               	skipnc
  6374     0F0B  3E01               	addlw	1
  6375     0F0C  1903               	skipnz
  6376     0F0D  2F0F               	goto	u4011
  6377     0F0E  07B5               	addwf	___flmul@prod+1,f
  6378     0F0F                     u4011:
  6379     0F0F  082A               	movf	??___flmul+2,w
  6380     0F10  1103               	clrz
  6381     0F11  1803               	skipnc
  6382     0F12  3E01               	addlw	1
  6383     0F13  1903               	skipnz
  6384     0F14  2F16               	goto	u4012
  6385     0F15  07B6               	addwf	___flmul@prod+2,f
  6386     0F16                     u4012:
  6387     0F16  082B               	movf	??___flmul+3,w
  6388     0F17  1103               	clrz
  6389     0F18  1803               	skipnc
  6390     0F19  3E01               	addlw	1
  6391     0F1A  1903               	skipnz
  6392     0F1B  2F1D               	goto	u4013
  6393     0F1C  07B7               	addwf	___flmul@prod+3,f
  6394     0F1D                     u4013:
  6395     0F1D                     l2698:
  6396     0F1D  3008               	movlw	8
  6397     0F1E  00A8               	movwf	??___flmul
  6398     0F1F                     u4025:
  6399     0F1F  1003               	clrc
  6400     0F20  0DAE               	rlf	___flmul@grs,f
  6401     0F21  0DAF               	rlf	___flmul@grs+1,f
  6402     0F22  0DB0               	rlf	___flmul@grs+2,f
  6403     0F23  0DB1               	rlf	___flmul@grs+3,f
  6404     0F24  0BA8               	decfsz	??___flmul,f
  6405     0F25  2F1F               	goto	u4025
  6406     0F26                     l2700:
  6407     0F26  0833               	movf	___flmul@bexp,w
  6408     0F27  0732               	addwf	___flmul@aexp,w
  6409     0F28  00A8               	movwf	??___flmul
  6410     0F29  01A9               	clrf	??___flmul+1
  6411     0F2A  0DA9               	rlf	??___flmul+1,f
  6412     0F2B  0828               	movf	??___flmul,w
  6413     0F2C  3E82               	addlw	130
  6414     0F2D  00B8               	movwf	___flmul@temp
  6415     0F2E  0829               	movf	??___flmul+1,w
  6416     0F2F  1803               	skipnc
  6417     0F30  3E01               	addlw	1
  6418     0F31  3EFF               	addlw	255
  6419     0F32  00B9               	movwf	___flmul@temp+1
  6420     0F33  2F51               	goto	l2712
  6421     0F34                     l2702:
  6422     0F34  3001               	movlw	1
  6423     0F35  00A8               	movwf	??___flmul
  6424     0F36                     u4035:
  6425     0F36  1003               	clrc
  6426     0F37  0DB4               	rlf	___flmul@prod,f
  6427     0F38  0DB5               	rlf	___flmul@prod+1,f
  6428     0F39  0DB6               	rlf	___flmul@prod+2,f
  6429     0F3A  0DB7               	rlf	___flmul@prod+3,f
  6430     0F3B  0BA8               	decfsz	??___flmul,f
  6431     0F3C  2F36               	goto	u4035
  6432     0F3D                     l2704:
  6433     0F3D  1FB1               	btfss	___flmul@grs+3,7
  6434     0F3E  2F40               	goto	u4041
  6435     0F3F  2F41               	goto	u4040
  6436     0F40                     u4041:
  6437     0F40  2F42               	goto	l2708
  6438     0F41                     u4040:
  6439     0F41                     l2706:
  6440     0F41  1434               	bsf	___flmul@prod,0
  6441     0F42                     l2708:
  6442     0F42  3001               	movlw	1
  6443     0F43  00A8               	movwf	??___flmul
  6444     0F44                     u4055:
  6445     0F44  1003               	clrc
  6446     0F45  0DAE               	rlf	___flmul@grs,f
  6447     0F46  0DAF               	rlf	___flmul@grs+1,f
  6448     0F47  0DB0               	rlf	___flmul@grs+2,f
  6449     0F48  0DB1               	rlf	___flmul@grs+3,f
  6450     0F49  0BA8               	decfsz	??___flmul,f
  6451     0F4A  2F44               	goto	u4055
  6452     0F4B                     l2710:
  6453     0F4B  30FF               	movlw	255
  6454     0F4C  07B8               	addwf	___flmul@temp,f
  6455     0F4D  1803               	skipnc
  6456     0F4E  0AB9               	incf	___flmul@temp+1,f
  6457     0F4F  30FF               	movlw	255
  6458     0F50  07B9               	addwf	___flmul@temp+1,f
  6459     0F51                     l2712:
  6460     0F51  1FB6               	btfss	___flmul@prod+2,7
  6461     0F52  2F54               	goto	u4061
  6462     0F53  2F55               	goto	u4060
  6463     0F54                     u4061:
  6464     0F54  2F34               	goto	l2702
  6465     0F55                     u4060:
  6466     0F55                     l2714:
  6467     0F55  01B2               	clrf	___flmul@aexp
  6468     0F56                     l2716:
  6469     0F56  1FB1               	btfss	___flmul@grs+3,7
  6470     0F57  2F59               	goto	u4071
  6471     0F58  2F5A               	goto	u4070
  6472     0F59                     u4071:
  6473     0F59  2F76               	goto	l2724
  6474     0F5A                     u4070:
  6475     0F5A                     l2718:
  6476     0F5A  30FF               	movlw	255
  6477     0F5B  052E               	andwf	___flmul@grs,w
  6478     0F5C  00A8               	movwf	??___flmul
  6479     0F5D  30FF               	movlw	255
  6480     0F5E  052F               	andwf	___flmul@grs+1,w
  6481     0F5F  00A9               	movwf	??___flmul+1
  6482     0F60  30FF               	movlw	255
  6483     0F61  0530               	andwf	___flmul@grs+2,w
  6484     0F62  00AA               	movwf	??___flmul+2
  6485     0F63  307F               	movlw	127
  6486     0F64  0531               	andwf	___flmul@grs+3,w
  6487     0F65  00AB               	movwf	??___flmul+3
  6488     0F66  082B               	movf	??___flmul+3,w
  6489     0F67  042A               	iorwf	??___flmul+2,w
  6490     0F68  0429               	iorwf	??___flmul+1,w
  6491     0F69  0428               	iorwf	??___flmul,w
  6492     0F6A  1903               	skipnz
  6493     0F6B  2F6D               	goto	u4081
  6494     0F6C  2F6E               	goto	u4080
  6495     0F6D                     u4081:
  6496     0F6D  2F71               	goto	l557
  6497     0F6E                     u4080:
  6498     0F6E                     l2720:
  6499     0F6E  3001               	movlw	1
  6500     0F6F  00B2               	movwf	___flmul@aexp
  6501     0F70  2F76               	goto	l2724
  6502     0F71                     l557:
  6503     0F71  1C34               	btfss	___flmul@prod,0
  6504     0F72  2F74               	goto	u4091
  6505     0F73  2F75               	goto	u4090
  6506     0F74                     u4091:
  6507     0F74  2F76               	goto	l2724
  6508     0F75                     u4090:
  6509     0F75  2F6E               	goto	l2720
  6510     0F76                     l2724:
  6511     0F76  0832               	movf	___flmul@aexp,w
  6512     0F77  1903               	btfsc	3,2
  6513     0F78  2F7A               	goto	u4101
  6514     0F79  2F7B               	goto	u4100
  6515     0F7A                     u4101:
  6516     0F7A  2FAC               	goto	l2734
  6517     0F7B                     u4100:
  6518     0F7B                     l2726:
  6519     0F7B  3001               	movlw	1
  6520     0F7C  07B4               	addwf	___flmul@prod,f
  6521     0F7D  3000               	movlw	0
  6522     0F7E  1803               	skipnc
  6523     0F7F  3001               	movlw	1
  6524     0F80  07B5               	addwf	___flmul@prod+1,f
  6525     0F81  3000               	movlw	0
  6526     0F82  1803               	skipnc
  6527     0F83  3001               	movlw	1
  6528     0F84  07B6               	addwf	___flmul@prod+2,f
  6529     0F85  3000               	movlw	0
  6530     0F86  1803               	skipnc
  6531     0F87  3001               	movlw	1
  6532     0F88  07B7               	addwf	___flmul@prod+3,f
  6533     0F89                     l2728:
  6534     0F89  1C37               	btfss	___flmul@prod+3,0
  6535     0F8A  2F8C               	goto	u4111
  6536     0F8B  2F8D               	goto	u4110
  6537     0F8C                     u4111:
  6538     0F8C  2FAC               	goto	l2734
  6539     0F8D                     u4110:
  6540     0F8D                     l2730:
  6541     0F8D  0834               	movf	___flmul@prod,w
  6542     0F8E  00A8               	movwf	??___flmul
  6543     0F8F  0835               	movf	___flmul@prod+1,w
  6544     0F90  00A9               	movwf	??___flmul+1
  6545     0F91  0836               	movf	___flmul@prod+2,w
  6546     0F92  00AA               	movwf	??___flmul+2
  6547     0F93  0837               	movf	___flmul@prod+3,w
  6548     0F94  00AB               	movwf	??___flmul+3
  6549     0F95  3001               	movlw	1
  6550     0F96  00AC               	movwf	??___flmul+4
  6551     0F97                     u4125:
  6552     0F97  0D2B               	rlf	??___flmul+3,w
  6553     0F98  0CAB               	rrf	??___flmul+3,f
  6554     0F99  0CAA               	rrf	??___flmul+2,f
  6555     0F9A  0CA9               	rrf	??___flmul+1,f
  6556     0F9B  0CA8               	rrf	??___flmul,f
  6557     0F9C                     u4120:
  6558     0F9C  0BAC               	decfsz	??___flmul+4,f
  6559     0F9D  2F97               	goto	u4125
  6560     0F9E  082B               	movf	??___flmul+3,w
  6561     0F9F  00B7               	movwf	___flmul@prod+3
  6562     0FA0  082A               	movf	??___flmul+2,w
  6563     0FA1  00B6               	movwf	___flmul@prod+2
  6564     0FA2  0829               	movf	??___flmul+1,w
  6565     0FA3  00B5               	movwf	___flmul@prod+1
  6566     0FA4  0828               	movf	??___flmul,w
  6567     0FA5  00B4               	movwf	___flmul@prod
  6568     0FA6                     l2732:
  6569     0FA6  3001               	movlw	1
  6570     0FA7  07B8               	addwf	___flmul@temp,f
  6571     0FA8  1803               	skipnc
  6572     0FA9  0AB9               	incf	___flmul@temp+1,f
  6573     0FAA  3000               	movlw	0
  6574     0FAB  07B9               	addwf	___flmul@temp+1,f
  6575     0FAC                     l2734:
  6576     0FAC  0839               	movf	___flmul@temp+1,w
  6577     0FAD  3A80               	xorlw	128
  6578     0FAE  00FF               	movwf	btemp+1
  6579     0FAF  3080               	movlw	128
  6580     0FB0  027F               	subwf	btemp+1,w
  6581     0FB1  1D03               	skipz
  6582     0FB2  2FB5               	goto	u4135
  6583     0FB3  30FF               	movlw	255
  6584     0FB4  0238               	subwf	___flmul@temp,w
  6585     0FB5                     u4135:
  6586     0FB5  1C03               	skipc
  6587     0FB6  2FB8               	goto	u4131
  6588     0FB7  2FB9               	goto	u4130
  6589     0FB8                     u4131:
  6590     0FB8  2FC4               	goto	l2738
  6591     0FB9                     u4130:
  6592     0FB9                     l2736:
  6593     0FB9  307F               	movlw	127
  6594     0FBA  1283               	bcf	3,5	;RP0=0, select bank0
  6595     0FBB  1303               	bcf	3,6	;RP1=0, select bank0
  6596     0FBC  00B7               	movwf	___flmul@prod+3
  6597     0FBD  3080               	movlw	128
  6598     0FBE  00B6               	movwf	___flmul@prod+2
  6599     0FBF  3000               	movlw	0
  6600     0FC0  00B5               	movwf	___flmul@prod+1
  6601     0FC1  3000               	movlw	0
  6602     0FC2  00B4               	movwf	___flmul@prod
  6603     0FC3  2FF5               	goto	l563
  6604     0FC4                     l2738:
  6605     0FC4  1283               	bcf	3,5	;RP0=0, select bank0
  6606     0FC5  1303               	bcf	3,6	;RP1=0, select bank0
  6607     0FC6  0839               	movf	___flmul@temp+1,w
  6608     0FC7  3A80               	xorlw	128
  6609     0FC8  00FF               	movwf	btemp+1
  6610     0FC9  3080               	movlw	128
  6611     0FCA  027F               	subwf	btemp+1,w
  6612     0FCB  1D03               	skipz
  6613     0FCC  2FCF               	goto	u4145
  6614     0FCD  3001               	movlw	1
  6615     0FCE  0238               	subwf	___flmul@temp,w
  6616     0FCF                     u4145:
  6617     0FCF  1803               	skipnc
  6618     0FD0  2FD2               	goto	u4141
  6619     0FD1  2FD3               	goto	u4140
  6620     0FD2                     u4141:
  6621     0FD2  2FDF               	goto	l2744
  6622     0FD3                     u4140:
  6623     0FD3                     l2740:
  6624     0FD3  3000               	movlw	0
  6625     0FD4  1283               	bcf	3,5	;RP0=0, select bank0
  6626     0FD5  1303               	bcf	3,6	;RP1=0, select bank0
  6627     0FD6  00B7               	movwf	___flmul@prod+3
  6628     0FD7  3000               	movlw	0
  6629     0FD8  00B6               	movwf	___flmul@prod+2
  6630     0FD9  3000               	movlw	0
  6631     0FDA  00B5               	movwf	___flmul@prod+1
  6632     0FDB  3000               	movlw	0
  6633     0FDC  00B4               	movwf	___flmul@prod
  6634     0FDD                     l2742:
  6635     0FDD  01AD               	clrf	___flmul@sign
  6636     0FDE  2FF5               	goto	l563
  6637     0FDF                     l2744:
  6638     0FDF  1283               	bcf	3,5	;RP0=0, select bank0
  6639     0FE0  1303               	bcf	3,6	;RP1=0, select bank0
  6640     0FE1  0838               	movf	___flmul@temp,w
  6641     0FE2  00B3               	movwf	___flmul@bexp
  6642     0FE3  30FF               	movlw	255
  6643     0FE4  05B4               	andwf	___flmul@prod,f
  6644     0FE5  30FF               	movlw	255
  6645     0FE6  05B5               	andwf	___flmul@prod+1,f
  6646     0FE7  307F               	movlw	127
  6647     0FE8  05B6               	andwf	___flmul@prod+2,f
  6648     0FE9  3000               	movlw	0
  6649     0FEA  05B7               	andwf	___flmul@prod+3,f
  6650     0FEB                     l2746:
  6651     0FEB  1C33               	btfss	___flmul@bexp,0
  6652     0FEC  2FEE               	goto	u4151
  6653     0FED  2FEF               	goto	u4150
  6654     0FEE                     u4151:
  6655     0FEE  2FF0               	goto	l2750
  6656     0FEF                     u4150:
  6657     0FEF                     l2748:
  6658     0FEF  17B6               	bsf	___flmul@prod+2,7
  6659     0FF0                     l2750:
  6660     0FF0  0833               	movf	___flmul@bexp,w
  6661     0FF1  00A8               	movwf	??___flmul
  6662     0FF2  1003               	clrc
  6663     0FF3  0C28               	rrf	??___flmul,w
  6664     0FF4  00B7               	movwf	___flmul@prod+3
  6665     0FF5                     l563:
  6666     0FF5  082D               	movf	___flmul@sign,w
  6667     0FF6  04B7               	iorwf	___flmul@prod+3,f
  6668     0FF7                     l2752:
  6669     0FF7  0837               	movf	___flmul@prod+3,w
  6670     0FF8  00A3               	movwf	?___flmul+3
  6671     0FF9  0836               	movf	___flmul@prod+2,w
  6672     0FFA  00A2               	movwf	?___flmul+2
  6673     0FFB  0835               	movf	___flmul@prod+1,w
  6674     0FFC  00A1               	movwf	?___flmul+1
  6675     0FFD  0834               	movf	___flmul@prod,w
  6676     0FFE  00A0               	movwf	?___flmul
  6677     0FFF                     l551:
  6678     0FFF  0008               	return
  6679     1000                     __end_of___flmul:
  6680                           
  6681                           	psect	text24
  6682     1EBD                     __ptext24:	
  6683 ;; *************** function __Umul8_16 *****************
  6684 ;; Defined at:
  6685 ;;		line 4 in file "C:\Program Files\Microchip\xc8\v2.50\pic\sources\c99\common\Umul8_16.c"
  6686 ;; Parameters:    Size  Location     Type
  6687 ;;  multiplier      1    wreg     unsigned char 
  6688 ;;  multiplicand    1    0[COMMON] unsigned char 
  6689 ;; Auto vars:     Size  Location     Type
  6690 ;;  multiplier      1    8[COMMON] unsigned char 
  6691 ;;  word_mpld       2    6[COMMON] unsigned short 
  6692 ;;  product         2    4[COMMON] unsigned short 
  6693 ;; Return value:  Size  Location     Type
  6694 ;;                  2    0[COMMON] unsigned int 
  6695 ;; Registers used:
  6696 ;;		wreg, status,2, status,0
  6697 ;; Tracked objects:
  6698 ;;		On entry : 0/0
  6699 ;;		On exit  : 0/0
  6700 ;;		Unchanged: 0/0
  6701 ;; Data sizes:     COMMON   BANK0   BANK1   BANK3   BANK2
  6702 ;;      Params:         2       0       0       0       0
  6703 ;;      Locals:         5       0       0       0       0
  6704 ;;      Temps:          2       0       0       0       0
  6705 ;;      Totals:         9       0       0       0       0
  6706 ;;Total ram usage:        9 bytes
  6707 ;; Hardware stack levels used: 1
  6708 ;; This function calls:
  6709 ;;		Nothing
  6710 ;; This function is called by:
  6711 ;;		___flmul
  6712 ;; This function uses a non-reentrant model
  6713 ;;
  6714                           
  6715     1EBD                     __Umul8_16:	
  6716                           ;psect for function __Umul8_16
  6717                           
  6718                           
  6719                           ;incstack = 0
  6720                           ; Regs used in __Umul8_16: [wreg+status,2+status,0]
  6721                           ;__Umul8_16@multiplier stored from wreg
  6722     1EBD  00F8               	movwf	__Umul8_16@multiplier
  6723     1EBE                     l2304:
  6724     1EBE  01F4               	clrf	__Umul8_16@product
  6725     1EBF  01F5               	clrf	__Umul8_16@product+1
  6726     1EC0                     l2306:
  6727     1EC0  0870               	movf	__Umul8_16@multiplicand,w
  6728     1EC1  00F2               	movwf	??__Umul8_16
  6729     1EC2  01F3               	clrf	??__Umul8_16+1
  6730     1EC3  0872               	movf	??__Umul8_16,w
  6731     1EC4  00F6               	movwf	__Umul8_16@word_mpld
  6732     1EC5  0873               	movf	??__Umul8_16+1,w
  6733     1EC6  00F7               	movwf	__Umul8_16@word_mpld+1
  6734     1EC7                     l2308:
  6735     1EC7  1C78               	btfss	__Umul8_16@multiplier,0
  6736     1EC8  2ECA               	goto	u3081
  6737     1EC9  2ECB               	goto	u3080
  6738     1ECA                     u3081:
  6739     1ECA  2ED1               	goto	l570
  6740     1ECB                     u3080:
  6741     1ECB                     l2310:
  6742     1ECB  0876               	movf	__Umul8_16@word_mpld,w
  6743     1ECC  07F4               	addwf	__Umul8_16@product,f
  6744     1ECD  1803               	skipnc
  6745     1ECE  0AF5               	incf	__Umul8_16@product+1,f
  6746     1ECF  0877               	movf	__Umul8_16@word_mpld+1,w
  6747     1ED0  07F5               	addwf	__Umul8_16@product+1,f
  6748     1ED1                     l570:
  6749     1ED1  3001               	movlw	1
  6750     1ED2                     u3095:
  6751     1ED2  1003               	clrc
  6752     1ED3  0DF6               	rlf	__Umul8_16@word_mpld,f
  6753     1ED4  0DF7               	rlf	__Umul8_16@word_mpld+1,f
  6754     1ED5  3EFF               	addlw	-1
  6755     1ED6  1D03               	skipz
  6756     1ED7  2ED2               	goto	u3095
  6757     1ED8  1003               	clrc
  6758     1ED9  0CF8               	rrf	__Umul8_16@multiplier,f
  6759     1EDA                     l2312:
  6760     1EDA  0878               	movf	__Umul8_16@multiplier,w
  6761     1EDB  1D03               	btfss	3,2
  6762     1EDC  2EDE               	goto	u3101
  6763     1EDD  2EDF               	goto	u3100
  6764     1EDE                     u3101:
  6765     1EDE  2EC7               	goto	l2308
  6766     1EDF                     u3100:
  6767     1EDF                     l2314:
  6768     1EDF  0875               	movf	__Umul8_16@product+1,w
  6769     1EE0  00F1               	movwf	?__Umul8_16+1
  6770     1EE1  0874               	movf	__Umul8_16@product,w
  6771     1EE2  00F0               	movwf	?__Umul8_16
  6772     1EE3                     l572:
  6773     1EE3  0008               	return
  6774     1EE4                     __end_of__Umul8_16:
  6775                           
  6776                           	psect	text25
  6777     117C                     __ptext25:	
  6778 ;; *************** function ___flge *****************
  6779 ;; Defined at:
  6780 ;;		line 4 in file "C:\Program Files\Microchip\xc8\v2.50\pic\sources\c99\common\flge.c"
  6781 ;; Parameters:    Size  Location     Type
  6782 ;;  ff1             4   26[BANK0 ] unsigned int 
  6783 ;;  ff2             4   30[BANK0 ] unsigned int 
  6784 ;; Auto vars:     Size  Location     Type
  6785 ;;		None
  6786 ;; Return value:  Size  Location     Type
  6787 ;;		None               void
  6788 ;; Registers used:
  6789 ;;		wreg, status,2, status,0
  6790 ;; Tracked objects:
  6791 ;;		On entry : 0/0
  6792 ;;		On exit  : 0/0
  6793 ;;		Unchanged: 0/0
  6794 ;; Data sizes:     COMMON   BANK0   BANK1   BANK3   BANK2
  6795 ;;      Params:         0       8       0       0       0
  6796 ;;      Locals:         0       0       0       0       0
  6797 ;;      Temps:          0       4       0       0       0
  6798 ;;      Totals:         0      12       0       0       0
  6799 ;;Total ram usage:       12 bytes
  6800 ;; Hardware stack levels used: 1
  6801 ;; This function calls:
  6802 ;;		Nothing
  6803 ;; This function is called by:
  6804 ;;		_efgtoa
  6805 ;; This function uses a non-reentrant model
  6806 ;;
  6807                           
  6808     117C                     ___flge:	
  6809                           ;psect for function ___flge
  6810                           
  6811     117C                     l2352:	
  6812                           ;incstack = 0
  6813                           ; Regs used in ___flge: [wreg+status,2+status,0]
  6814                           
  6815     117C  3000               	movlw	0
  6816     117D  1283               	bcf	3,5	;RP0=0, select bank0
  6817     117E  1303               	bcf	3,6	;RP1=0, select bank0
  6818     117F  053A               	andwf	___flge@ff1,w
  6819     1180  00C2               	movwf	??___flge
  6820     1181  3000               	movlw	0
  6821     1182  053B               	andwf	___flge@ff1+1,w
  6822     1183  00C3               	movwf	??___flge+1
  6823     1184  3080               	movlw	128
  6824     1185  053C               	andwf	___flge@ff1+2,w
  6825     1186  00C4               	movwf	??___flge+2
  6826     1187  307F               	movlw	127
  6827     1188  053D               	andwf	___flge@ff1+3,w
  6828     1189  00C5               	movwf	??___flge+3
  6829     118A  0845               	movf	??___flge+3,w
  6830     118B  0444               	iorwf	??___flge+2,w
  6831     118C  0443               	iorwf	??___flge+1,w
  6832     118D  0442               	iorwf	??___flge,w
  6833     118E  1D03               	skipz
  6834     118F  2991               	goto	u3191
  6835     1190  2992               	goto	u3190
  6836     1191                     u3191:
  6837     1191  299A               	goto	l332
  6838     1192                     u3190:
  6839     1192                     l2354:
  6840     1192  3000               	movlw	0
  6841     1193  00BD               	movwf	___flge@ff1+3
  6842     1194  3000               	movlw	0
  6843     1195  00BC               	movwf	___flge@ff1+2
  6844     1196  3000               	movlw	0
  6845     1197  00BB               	movwf	___flge@ff1+1
  6846     1198  3000               	movlw	0
  6847     1199  00BA               	movwf	___flge@ff1
  6848     119A                     l332:
  6849     119A  3000               	movlw	0
  6850     119B  053E               	andwf	___flge@ff2,w
  6851     119C  00C2               	movwf	??___flge
  6852     119D  3000               	movlw	0
  6853     119E  053F               	andwf	___flge@ff2+1,w
  6854     119F  00C3               	movwf	??___flge+1
  6855     11A0  3080               	movlw	128
  6856     11A1  0540               	andwf	___flge@ff2+2,w
  6857     11A2  00C4               	movwf	??___flge+2
  6858     11A3  307F               	movlw	127
  6859     11A4  0541               	andwf	___flge@ff2+3,w
  6860     11A5  00C5               	movwf	??___flge+3
  6861     11A6  0845               	movf	??___flge+3,w
  6862     11A7  0444               	iorwf	??___flge+2,w
  6863     11A8  0443               	iorwf	??___flge+1,w
  6864     11A9  0442               	iorwf	??___flge,w
  6865     11AA  1D03               	skipz
  6866     11AB  29AD               	goto	u3201
  6867     11AC  29AE               	goto	u3200
  6868     11AD                     u3201:
  6869     11AD  29B6               	goto	l2358
  6870     11AE                     u3200:
  6871     11AE                     l2356:
  6872     11AE  3000               	movlw	0
  6873     11AF  00C1               	movwf	___flge@ff2+3
  6874     11B0  3000               	movlw	0
  6875     11B1  00C0               	movwf	___flge@ff2+2
  6876     11B2  3000               	movlw	0
  6877     11B3  00BF               	movwf	___flge@ff2+1
  6878     11B4  3000               	movlw	0
  6879     11B5  00BE               	movwf	___flge@ff2
  6880     11B6                     l2358:
  6881     11B6  1FBD               	btfss	___flge@ff1+3,7
  6882     11B7  29B9               	goto	u3211
  6883     11B8  29BA               	goto	u3210
  6884     11B9                     u3211:
  6885     11B9  29DE               	goto	l2362
  6886     11BA                     u3210:
  6887     11BA                     l2360:
  6888     11BA  3000               	movlw	0
  6889     11BB  00C2               	movwf	??___flge
  6890     11BC  3000               	movlw	0
  6891     11BD  00C3               	movwf	??___flge+1
  6892     11BE  3000               	movlw	0
  6893     11BF  00C4               	movwf	??___flge+2
  6894     11C0  3080               	movlw	128
  6895     11C1  00C5               	movwf	??___flge+3
  6896     11C2  083A               	movf	___flge@ff1,w
  6897     11C3  02C2               	subwf	??___flge,f
  6898     11C4  083B               	movf	___flge@ff1+1,w
  6899     11C5  1C03               	skipc
  6900     11C6  0F3B               	incfsz	___flge@ff1+1,w
  6901     11C7  29C9               	goto	u3221
  6902     11C8  29CA               	goto	u3222
  6903     11C9                     u3221:
  6904     11C9  02C3               	subwf	??___flge+1,f
  6905     11CA                     u3222:
  6906     11CA  083C               	movf	___flge@ff1+2,w
  6907     11CB  1C03               	skipc
  6908     11CC  0F3C               	incfsz	___flge@ff1+2,w
  6909     11CD  29CF               	goto	u3223
  6910     11CE  29D0               	goto	u3224
  6911     11CF                     u3223:
  6912     11CF  02C4               	subwf	??___flge+2,f
  6913     11D0                     u3224:
  6914     11D0  083D               	movf	___flge@ff1+3,w
  6915     11D1  1C03               	skipc
  6916     11D2  0F3D               	incfsz	___flge@ff1+3,w
  6917     11D3  29D5               	goto	u3225
  6918     11D4  29D6               	goto	u3226
  6919     11D5                     u3225:
  6920     11D5  02C5               	subwf	??___flge+3,f
  6921     11D6                     u3226:
  6922     11D6  0845               	movf	??___flge+3,w
  6923     11D7  00BD               	movwf	___flge@ff1+3
  6924     11D8  0844               	movf	??___flge+2,w
  6925     11D9  00BC               	movwf	___flge@ff1+2
  6926     11DA  0843               	movf	??___flge+1,w
  6927     11DB  00BB               	movwf	___flge@ff1+1
  6928     11DC  0842               	movf	??___flge,w
  6929     11DD  00BA               	movwf	___flge@ff1
  6930     11DE                     l2362:
  6931     11DE  1FC1               	btfss	___flge@ff2+3,7
  6932     11DF  29E1               	goto	u3231
  6933     11E0  29E2               	goto	u3230
  6934     11E1                     u3231:
  6935     11E1  2A06               	goto	l335
  6936     11E2                     u3230:
  6937     11E2                     l2364:
  6938     11E2  3000               	movlw	0
  6939     11E3  00C2               	movwf	??___flge
  6940     11E4  3000               	movlw	0
  6941     11E5  00C3               	movwf	??___flge+1
  6942     11E6  3000               	movlw	0
  6943     11E7  00C4               	movwf	??___flge+2
  6944     11E8  3080               	movlw	128
  6945     11E9  00C5               	movwf	??___flge+3
  6946     11EA  083E               	movf	___flge@ff2,w
  6947     11EB  02C2               	subwf	??___flge,f
  6948     11EC  083F               	movf	___flge@ff2+1,w
  6949     11ED  1C03               	skipc
  6950     11EE  0F3F               	incfsz	___flge@ff2+1,w
  6951     11EF  29F1               	goto	u3241
  6952     11F0  29F2               	goto	u3242
  6953     11F1                     u3241:
  6954     11F1  02C3               	subwf	??___flge+1,f
  6955     11F2                     u3242:
  6956     11F2  0840               	movf	___flge@ff2+2,w
  6957     11F3  1C03               	skipc
  6958     11F4  0F40               	incfsz	___flge@ff2+2,w
  6959     11F5  29F7               	goto	u3243
  6960     11F6  29F8               	goto	u3244
  6961     11F7                     u3243:
  6962     11F7  02C4               	subwf	??___flge+2,f
  6963     11F8                     u3244:
  6964     11F8  0841               	movf	___flge@ff2+3,w
  6965     11F9  1C03               	skipc
  6966     11FA  0F41               	incfsz	___flge@ff2+3,w
  6967     11FB  29FD               	goto	u3245
  6968     11FC  29FE               	goto	u3246
  6969     11FD                     u3245:
  6970     11FD  02C5               	subwf	??___flge+3,f
  6971     11FE                     u3246:
  6972     11FE  0845               	movf	??___flge+3,w
  6973     11FF  00C1               	movwf	___flge@ff2+3
  6974     1200  0844               	movf	??___flge+2,w
  6975     1201  00C0               	movwf	___flge@ff2+2
  6976     1202  0843               	movf	??___flge+1,w
  6977     1203  00BF               	movwf	___flge@ff2+1
  6978     1204  0842               	movf	??___flge,w
  6979     1205  00BE               	movwf	___flge@ff2
  6980     1206                     l335:
  6981     1206  3080               	movlw	128
  6982     1207  06BD               	xorwf	___flge@ff1+3,f
  6983     1208  3080               	movlw	128
  6984     1209  06C1               	xorwf	___flge@ff2+3,f
  6985     120A  0841               	movf	___flge@ff2+3,w
  6986     120B  023D               	subwf	___flge@ff1+3,w
  6987     120C  1D03               	skipz
  6988     120D  2A18               	goto	u3255
  6989     120E  0840               	movf	___flge@ff2+2,w
  6990     120F  023C               	subwf	___flge@ff1+2,w
  6991     1210  1D03               	skipz
  6992     1211  2A18               	goto	u3255
  6993     1212  083F               	movf	___flge@ff2+1,w
  6994     1213  023B               	subwf	___flge@ff1+1,w
  6995     1214  1D03               	skipz
  6996     1215  2A18               	goto	u3255
  6997     1216  083E               	movf	___flge@ff2,w
  6998     1217  023A               	subwf	___flge@ff1,w
  6999     1218                     u3255:
  7000     1218  1803               	skipnc
  7001     1219  2A1B               	goto	u3251
  7002     121A  2A1C               	goto	u3250
  7003     121B                     u3251:
  7004     121B  2A1E               	goto	l2368
  7005     121C                     u3250:
  7006     121C                     l2366:
  7007     121C  1003               	clrc
  7008     121D  2A1F               	goto	l340
  7009     121E                     l2368:
  7010     121E  1403               	setc
  7011     121F                     l340:
  7012     121F  0008               	return
  7013     1220                     __end_of___flge:
  7014                           
  7015                           	psect	text26
  7016     1FB2                     __ptext26:	
  7017 ;; *************** function ___fleq *****************
  7018 ;; Defined at:
  7019 ;;		line 4 in file "C:\Program Files\Microchip\xc8\v2.50\pic\sources\c99\common\fleq.c"
  7020 ;; Parameters:    Size  Location     Type
  7021 ;;  ff1             4    0[COMMON] unsigned int 
  7022 ;;  ff2             4    4[COMMON] unsigned int 
  7023 ;; Auto vars:     Size  Location     Type
  7024 ;;		None
  7025 ;; Return value:  Size  Location     Type
  7026 ;;		None               void
  7027 ;; Registers used:
  7028 ;;		wreg, status,2, status,0
  7029 ;; Tracked objects:
  7030 ;;		On entry : 0/0
  7031 ;;		On exit  : 0/0
  7032 ;;		Unchanged: 0/0
  7033 ;; Data sizes:     COMMON   BANK0   BANK1   BANK3   BANK2
  7034 ;;      Params:         8       0       0       0       0
  7035 ;;      Locals:         0       0       0       0       0
  7036 ;;      Temps:          4       0       0       0       0
  7037 ;;      Totals:        12       0       0       0       0
  7038 ;;Total ram usage:       12 bytes
  7039 ;; Hardware stack levels used: 1
  7040 ;; This function calls:
  7041 ;;		Nothing
  7042 ;; This function is called by:
  7043 ;;		_efgtoa
  7044 ;; This function uses a non-reentrant model
  7045 ;;
  7046                           
  7047     1FB2                     ___fleq:	
  7048                           ;psect for function ___fleq
  7049                           
  7050     1FB2                     l2340:	
  7051                           ;incstack = 0
  7052                           ; Regs used in ___fleq: [wreg+status,2+status,0]
  7053                           
  7054     1FB2  3000               	movlw	0
  7055     1FB3  0570               	andwf	___fleq@ff1,w
  7056     1FB4  00F8               	movwf	??___fleq
  7057     1FB5  3000               	movlw	0
  7058     1FB6  0571               	andwf	___fleq@ff1+1,w
  7059     1FB7  00F9               	movwf	??___fleq+1
  7060     1FB8  3080               	movlw	128
  7061     1FB9  0572               	andwf	___fleq@ff1+2,w
  7062     1FBA  00FA               	movwf	??___fleq+2
  7063     1FBB  307F               	movlw	127
  7064     1FBC  0573               	andwf	___fleq@ff1+3,w
  7065     1FBD  00FB               	movwf	??___fleq+3
  7066     1FBE  087B               	movf	??___fleq+3,w
  7067     1FBF  047A               	iorwf	??___fleq+2,w
  7068     1FC0  0479               	iorwf	??___fleq+1,w
  7069     1FC1  0478               	iorwf	??___fleq,w
  7070     1FC2  1D03               	skipz
  7071     1FC3  2FC5               	goto	u3161
  7072     1FC4  2FC6               	goto	u3160
  7073     1FC5                     u3161:
  7074     1FC5  2FCE               	goto	l323
  7075     1FC6                     u3160:
  7076     1FC6                     l2342:
  7077     1FC6  3000               	movlw	0
  7078     1FC7  00F3               	movwf	___fleq@ff1+3
  7079     1FC8  3000               	movlw	0
  7080     1FC9  00F2               	movwf	___fleq@ff1+2
  7081     1FCA  3000               	movlw	0
  7082     1FCB  00F1               	movwf	___fleq@ff1+1
  7083     1FCC  3000               	movlw	0
  7084     1FCD  00F0               	movwf	___fleq@ff1
  7085     1FCE                     l323:
  7086     1FCE  3000               	movlw	0
  7087     1FCF  0574               	andwf	___fleq@ff2,w
  7088     1FD0  00F8               	movwf	??___fleq
  7089     1FD1  3000               	movlw	0
  7090     1FD2  0575               	andwf	___fleq@ff2+1,w
  7091     1FD3  00F9               	movwf	??___fleq+1
  7092     1FD4  3080               	movlw	128
  7093     1FD5  0576               	andwf	___fleq@ff2+2,w
  7094     1FD6  00FA               	movwf	??___fleq+2
  7095     1FD7  307F               	movlw	127
  7096     1FD8  0577               	andwf	___fleq@ff2+3,w
  7097     1FD9  00FB               	movwf	??___fleq+3
  7098     1FDA  087B               	movf	??___fleq+3,w
  7099     1FDB  047A               	iorwf	??___fleq+2,w
  7100     1FDC  0479               	iorwf	??___fleq+1,w
  7101     1FDD  0478               	iorwf	??___fleq,w
  7102     1FDE  1D03               	skipz
  7103     1FDF  2FE1               	goto	u3171
  7104     1FE0  2FE2               	goto	u3170
  7105     1FE1                     u3171:
  7106     1FE1  2FEA               	goto	l324
  7107     1FE2                     u3170:
  7108     1FE2                     l2344:
  7109     1FE2  3000               	movlw	0
  7110     1FE3  00F7               	movwf	___fleq@ff2+3
  7111     1FE4  3000               	movlw	0
  7112     1FE5  00F6               	movwf	___fleq@ff2+2
  7113     1FE6  3000               	movlw	0
  7114     1FE7  00F5               	movwf	___fleq@ff2+1
  7115     1FE8  3000               	movlw	0
  7116     1FE9  00F4               	movwf	___fleq@ff2
  7117     1FEA                     l324:
  7118     1FEA  0877               	movf	___fleq@ff2+3,w
  7119     1FEB  0673               	xorwf	___fleq@ff1+3,w
  7120     1FEC  1D03               	skipz
  7121     1FED  2FF8               	goto	u3185
  7122     1FEE  0876               	movf	___fleq@ff2+2,w
  7123     1FEF  0672               	xorwf	___fleq@ff1+2,w
  7124     1FF0  1D03               	skipz
  7125     1FF1  2FF8               	goto	u3185
  7126     1FF2  0875               	movf	___fleq@ff2+1,w
  7127     1FF3  0671               	xorwf	___fleq@ff1+1,w
  7128     1FF4  1D03               	skipz
  7129     1FF5  2FF8               	goto	u3185
  7130     1FF6  0874               	movf	___fleq@ff2,w
  7131     1FF7  0670               	xorwf	___fleq@ff1,w
  7132     1FF8                     u3185:
  7133     1FF8  1903               	skipnz
  7134     1FF9  2FFB               	goto	u3181
  7135     1FFA  2FFC               	goto	u3180
  7136     1FFB                     u3181:
  7137     1FFB  2FFE               	goto	l2348
  7138     1FFC                     u3180:
  7139     1FFC                     l2346:
  7140     1FFC  1003               	clrc
  7141     1FFD  2FFF               	goto	l329
  7142     1FFE                     l2348:
  7143     1FFE  1403               	setc
  7144     1FFF                     l329:
  7145     1FFF  0008               	return
  7146     2000                     __end_of___fleq:
  7147                           
  7148                           	psect	text27
  7149     0898                     __ptext27:	
  7150 ;; *************** function ___fldiv *****************
  7151 ;; Defined at:
  7152 ;;		line 8 in file "C:\Program Files\Microchip\xc8\v2.50\pic\sources\c99\common\sprcdiv.c"
  7153 ;; Parameters:    Size  Location     Type
  7154 ;;  a               4   26[BANK0 ] unsigned int 
  7155 ;;  b               4   30[BANK0 ] unsigned int 
  7156 ;; Auto vars:     Size  Location     Type
  7157 ;;  grs             4   46[BANK0 ] unsigned long 
  7158 ;;  rem             4   39[BANK0 ] unsigned long 
  7159 ;;  new_exp         2   44[BANK0 ] short 
  7160 ;;  aexp            1   51[BANK0 ] unsigned char 
  7161 ;;  bexp            1   50[BANK0 ] unsigned char 
  7162 ;;  sign            1   43[BANK0 ] unsigned char 
  7163 ;; Return value:  Size  Location     Type
  7164 ;;                  4   26[BANK0 ] unsigned char 
  7165 ;; Registers used:
  7166 ;;		wreg, status,2, status,0, btemp+1
  7167 ;; Tracked objects:
  7168 ;;		On entry : 0/0
  7169 ;;		On exit  : 0/0
  7170 ;;		Unchanged: 0/0
  7171 ;; Data sizes:     COMMON   BANK0   BANK1   BANK3   BANK2
  7172 ;;      Params:         0       8       0       0       0
  7173 ;;      Locals:         0      13       0       0       0
  7174 ;;      Temps:          0       5       0       0       0
  7175 ;;      Totals:         0      26       0       0       0
  7176 ;;Total ram usage:       26 bytes
  7177 ;; Hardware stack levels used: 1
  7178 ;; This function calls:
  7179 ;;		Nothing
  7180 ;; This function is called by:
  7181 ;;		_main
  7182 ;;		_efgtoa
  7183 ;; This function uses a non-reentrant model
  7184 ;;
  7185                           
  7186     0898                     ___fldiv:	
  7187                           ;psect for function ___fldiv
  7188                           
  7189     0898                     l2470:	
  7190                           ;incstack = 0
  7191                           ; Regs used in ___fldiv: [wreg+status,2+status,0+btemp+1]
  7192                           
  7193     0898  1283               	bcf	3,5	;RP0=0, select bank0
  7194     0899  1303               	bcf	3,6	;RP1=0, select bank0
  7195     089A  0841               	movf	___fldiv@b+3,w
  7196     089B  00CB               	movwf	___fldiv@sign
  7197     089C                     l2472:
  7198     089C  3080               	movlw	128
  7199     089D  05CB               	andwf	___fldiv@sign,f
  7200     089E                     l2474:
  7201     089E  0841               	movf	___fldiv@b+3,w
  7202     089F  00C2               	movwf	??___fldiv
  7203     08A0  0742               	addwf	??___fldiv,w
  7204     08A1  00D2               	movwf	___fldiv@bexp
  7205     08A2                     l2476:
  7206     08A2  1FC0               	btfss	___fldiv@b+2,7
  7207     08A3  28A5               	goto	u3501
  7208     08A4  28A6               	goto	u3500
  7209     08A5                     u3501:
  7210     08A5  28A7               	goto	l2480
  7211     08A6                     u3500:
  7212     08A6                     l2478:
  7213     08A6  1452               	bsf	___fldiv@bexp,0
  7214     08A7                     l2480:
  7215     08A7  0852               	movf	___fldiv@bexp,w
  7216     08A8  1903               	btfsc	3,2
  7217     08A9  28AB               	goto	u3511
  7218     08AA  28AC               	goto	u3510
  7219     08AB                     u3511:
  7220     08AB  28BC               	goto	l2490
  7221     08AC                     u3510:
  7222     08AC                     l2482:
  7223     08AC  0A52               	incf	___fldiv@bexp,w
  7224     08AD  1D03               	btfss	3,2
  7225     08AE  28B0               	goto	u3521
  7226     08AF  28B1               	goto	u3520
  7227     08B0                     u3521:
  7228     08B0  28B9               	goto	l2486
  7229     08B1                     u3520:
  7230     08B1                     l2484:
  7231     08B1  3000               	movlw	0
  7232     08B2  00C1               	movwf	___fldiv@b+3
  7233     08B3  3000               	movlw	0
  7234     08B4  00C0               	movwf	___fldiv@b+2
  7235     08B5  3000               	movlw	0
  7236     08B6  00BF               	movwf	___fldiv@b+1
  7237     08B7  3000               	movlw	0
  7238     08B8  00BE               	movwf	___fldiv@b
  7239     08B9                     l2486:
  7240     08B9  17C0               	bsf	___fldiv@b+2,7
  7241     08BA                     l2488:
  7242     08BA  01C1               	clrf	___fldiv@b+3
  7243     08BB  28C4               	goto	l2492
  7244     08BC                     l2490:
  7245     08BC  3000               	movlw	0
  7246     08BD  00C1               	movwf	___fldiv@b+3
  7247     08BE  3000               	movlw	0
  7248     08BF  00C0               	movwf	___fldiv@b+2
  7249     08C0  3000               	movlw	0
  7250     08C1  00BF               	movwf	___fldiv@b+1
  7251     08C2  3000               	movlw	0
  7252     08C3  00BE               	movwf	___fldiv@b
  7253     08C4                     l2492:
  7254     08C4  083D               	movf	___fldiv@a+3,w
  7255     08C5  3980               	andlw	128
  7256     08C6  06CB               	xorwf	___fldiv@sign,f
  7257     08C7                     l2494:
  7258     08C7  083D               	movf	___fldiv@a+3,w
  7259     08C8  00C2               	movwf	??___fldiv
  7260     08C9  0742               	addwf	??___fldiv,w
  7261     08CA  00D3               	movwf	___fldiv@aexp
  7262     08CB                     l2496:
  7263     08CB  1FBC               	btfss	___fldiv@a+2,7
  7264     08CC  28CE               	goto	u3531
  7265     08CD  28CF               	goto	u3530
  7266     08CE                     u3531:
  7267     08CE  28D0               	goto	l2500
  7268     08CF                     u3530:
  7269     08CF                     l2498:
  7270     08CF  1453               	bsf	___fldiv@aexp,0
  7271     08D0                     l2500:
  7272     08D0  0853               	movf	___fldiv@aexp,w
  7273     08D1  1903               	btfsc	3,2
  7274     08D2  28D4               	goto	u3541
  7275     08D3  28D5               	goto	u3540
  7276     08D4                     u3541:
  7277     08D4  28E5               	goto	l2510
  7278     08D5                     u3540:
  7279     08D5                     l2502:
  7280     08D5  0A53               	incf	___fldiv@aexp,w
  7281     08D6  1D03               	btfss	3,2
  7282     08D7  28D9               	goto	u3551
  7283     08D8  28DA               	goto	u3550
  7284     08D9                     u3551:
  7285     08D9  28E2               	goto	l2506
  7286     08DA                     u3550:
  7287     08DA                     l2504:
  7288     08DA  3000               	movlw	0
  7289     08DB  00BD               	movwf	___fldiv@a+3
  7290     08DC  3000               	movlw	0
  7291     08DD  00BC               	movwf	___fldiv@a+2
  7292     08DE  3000               	movlw	0
  7293     08DF  00BB               	movwf	___fldiv@a+1
  7294     08E0  3000               	movlw	0
  7295     08E1  00BA               	movwf	___fldiv@a
  7296     08E2                     l2506:
  7297     08E2  17BC               	bsf	___fldiv@a+2,7
  7298     08E3                     l2508:
  7299     08E3  01BD               	clrf	___fldiv@a+3
  7300     08E4  28ED               	goto	l511
  7301     08E5                     l2510:
  7302     08E5  3000               	movlw	0
  7303     08E6  00BD               	movwf	___fldiv@a+3
  7304     08E7  3000               	movlw	0
  7305     08E8  00BC               	movwf	___fldiv@a+2
  7306     08E9  3000               	movlw	0
  7307     08EA  00BB               	movwf	___fldiv@a+1
  7308     08EB  3000               	movlw	0
  7309     08EC  00BA               	movwf	___fldiv@a
  7310     08ED                     l511:
  7311     08ED  083D               	movf	___fldiv@a+3,w
  7312     08EE  043C               	iorwf	___fldiv@a+2,w
  7313     08EF  043B               	iorwf	___fldiv@a+1,w
  7314     08F0  043A               	iorwf	___fldiv@a,w
  7315     08F1  1D03               	skipz
  7316     08F2  28F4               	goto	u3561
  7317     08F3  28F5               	goto	u3560
  7318     08F4                     u3561:
  7319     08F4  290C               	goto	l2520
  7320     08F5                     u3560:
  7321     08F5                     l2512:
  7322     08F5  3000               	movlw	0
  7323     08F6  00C1               	movwf	___fldiv@b+3
  7324     08F7  3000               	movlw	0
  7325     08F8  00C0               	movwf	___fldiv@b+2
  7326     08F9  3000               	movlw	0
  7327     08FA  00BF               	movwf	___fldiv@b+1
  7328     08FB  3000               	movlw	0
  7329     08FC  00BE               	movwf	___fldiv@b
  7330     08FD  3080               	movlw	128
  7331     08FE  04C0               	iorwf	___fldiv@b+2,f
  7332     08FF  307F               	movlw	127
  7333     0900  04C1               	iorwf	___fldiv@b+3,f
  7334     0901                     l2514:
  7335     0901  084B               	movf	___fldiv@sign,w
  7336     0902  04C1               	iorwf	___fldiv@b+3,f
  7337     0903                     l2516:
  7338     0903  0841               	movf	___fldiv@b+3,w
  7339     0904  00BD               	movwf	?___fldiv+3
  7340     0905  0840               	movf	___fldiv@b+2,w
  7341     0906  00BC               	movwf	?___fldiv+2
  7342     0907  083F               	movf	___fldiv@b+1,w
  7343     0908  00BB               	movwf	?___fldiv+1
  7344     0909  083E               	movf	___fldiv@b,w
  7345     090A  00BA               	movwf	?___fldiv
  7346     090B  2A61               	goto	l513
  7347     090C                     l2520:
  7348     090C  0852               	movf	___fldiv@bexp,w
  7349     090D  1D03               	btfss	3,2
  7350     090E  2910               	goto	u3571
  7351     090F  2911               	goto	u3570
  7352     0910                     u3571:
  7353     0910  291A               	goto	l2526
  7354     0911                     u3570:
  7355     0911                     l2522:
  7356     0911  3000               	movlw	0
  7357     0912  00BD               	movwf	?___fldiv+3
  7358     0913  3000               	movlw	0
  7359     0914  00BC               	movwf	?___fldiv+2
  7360     0915  3000               	movlw	0
  7361     0916  00BB               	movwf	?___fldiv+1
  7362     0917  3000               	movlw	0
  7363     0918  00BA               	movwf	?___fldiv
  7364     0919  2A61               	goto	l513
  7365     091A                     l2526:
  7366     091A  0852               	movf	___fldiv@bexp,w
  7367     091B  00C2               	movwf	??___fldiv
  7368     091C  01C3               	clrf	??___fldiv+1
  7369     091D  0843               	movf	??___fldiv+1,w
  7370     091E  00C5               	movwf	??___fldiv+3
  7371     091F  0853               	movf	___fldiv@aexp,w
  7372     0920  0242               	subwf	??___fldiv,w
  7373     0921  00C4               	movwf	??___fldiv+2
  7374     0922  1C03               	skipc
  7375     0923  03C5               	decf	??___fldiv+3,f
  7376     0924  0844               	movf	??___fldiv+2,w
  7377     0925  3E7F               	addlw	127
  7378     0926  00CC               	movwf	___fldiv@new_exp
  7379     0927  0845               	movf	??___fldiv+3,w
  7380     0928  1803               	skipnc
  7381     0929  3E01               	addlw	1
  7382     092A  3E00               	addlw	0
  7383     092B  00CD               	movwf	___fldiv@new_exp+1
  7384     092C                     l2528:
  7385     092C  0841               	movf	___fldiv@b+3,w
  7386     092D  00CA               	movwf	___fldiv@rem+3
  7387     092E  0840               	movf	___fldiv@b+2,w
  7388     092F  00C9               	movwf	___fldiv@rem+2
  7389     0930  083F               	movf	___fldiv@b+1,w
  7390     0931  00C8               	movwf	___fldiv@rem+1
  7391     0932  083E               	movf	___fldiv@b,w
  7392     0933  00C7               	movwf	___fldiv@rem
  7393     0934                     l2530:
  7394     0934  3000               	movlw	0
  7395     0935  00C1               	movwf	___fldiv@b+3
  7396     0936  3000               	movlw	0
  7397     0937  00C0               	movwf	___fldiv@b+2
  7398     0938  3000               	movlw	0
  7399     0939  00BF               	movwf	___fldiv@b+1
  7400     093A  3000               	movlw	0
  7401     093B  00BE               	movwf	___fldiv@b
  7402     093C                     l2532:
  7403     093C  3000               	movlw	0
  7404     093D  00D1               	movwf	___fldiv@grs+3
  7405     093E  3000               	movlw	0
  7406     093F  00D0               	movwf	___fldiv@grs+2
  7407     0940  3000               	movlw	0
  7408     0941  00CF               	movwf	___fldiv@grs+1
  7409     0942  3000               	movlw	0
  7410     0943  00CE               	movwf	___fldiv@grs
  7411     0944                     l2534:
  7412     0944  01D3               	clrf	___fldiv@aexp
  7413     0945  298E               	goto	l2554
  7414     0946                     l2536:
  7415     0946  0853               	movf	___fldiv@aexp,w
  7416     0947  1903               	btfsc	3,2
  7417     0948  294A               	goto	u3581
  7418     0949  294B               	goto	u3580
  7419     094A                     u3581:
  7420     094A  296B               	goto	l2546
  7421     094B                     u3580:
  7422     094B                     l2538:
  7423     094B  3001               	movlw	1
  7424     094C  00C2               	movwf	??___fldiv
  7425     094D                     u3595:
  7426     094D  1003               	clrc
  7427     094E  0DC7               	rlf	___fldiv@rem,f
  7428     094F  0DC8               	rlf	___fldiv@rem+1,f
  7429     0950  0DC9               	rlf	___fldiv@rem+2,f
  7430     0951  0DCA               	rlf	___fldiv@rem+3,f
  7431     0952  0BC2               	decfsz	??___fldiv,f
  7432     0953  294D               	goto	u3595
  7433     0954  3001               	movlw	1
  7434     0955  00C2               	movwf	??___fldiv
  7435     0956                     u3605:
  7436     0956  1003               	clrc
  7437     0957  0DBE               	rlf	___fldiv@b,f
  7438     0958  0DBF               	rlf	___fldiv@b+1,f
  7439     0959  0DC0               	rlf	___fldiv@b+2,f
  7440     095A  0DC1               	rlf	___fldiv@b+3,f
  7441     095B  0BC2               	decfsz	??___fldiv,f
  7442     095C  2956               	goto	u3605
  7443     095D                     l2540:
  7444     095D  1FD1               	btfss	___fldiv@grs+3,7
  7445     095E  2960               	goto	u3611
  7446     095F  2961               	goto	u3610
  7447     0960                     u3611:
  7448     0960  2962               	goto	l2544
  7449     0961                     u3610:
  7450     0961                     l2542:
  7451     0961  143E               	bsf	___fldiv@b,0
  7452     0962                     l2544:
  7453     0962  3001               	movlw	1
  7454     0963  00C2               	movwf	??___fldiv
  7455     0964                     u3625:
  7456     0964  1003               	clrc
  7457     0965  0DCE               	rlf	___fldiv@grs,f
  7458     0966  0DCF               	rlf	___fldiv@grs+1,f
  7459     0967  0DD0               	rlf	___fldiv@grs+2,f
  7460     0968  0DD1               	rlf	___fldiv@grs+3,f
  7461     0969  0BC2               	decfsz	??___fldiv,f
  7462     096A  2964               	goto	u3625
  7463     096B                     l2546:
  7464     096B  083D               	movf	___fldiv@a+3,w
  7465     096C  024A               	subwf	___fldiv@rem+3,w
  7466     096D  1D03               	skipz
  7467     096E  2979               	goto	u3635
  7468     096F  083C               	movf	___fldiv@a+2,w
  7469     0970  0249               	subwf	___fldiv@rem+2,w
  7470     0971  1D03               	skipz
  7471     0972  2979               	goto	u3635
  7472     0973  083B               	movf	___fldiv@a+1,w
  7473     0974  0248               	subwf	___fldiv@rem+1,w
  7474     0975  1D03               	skipz
  7475     0976  2979               	goto	u3635
  7476     0977  083A               	movf	___fldiv@a,w
  7477     0978  0247               	subwf	___fldiv@rem,w
  7478     0979                     u3635:
  7479     0979  1C03               	skipc
  7480     097A  297C               	goto	u3631
  7481     097B  297D               	goto	u3630
  7482     097C                     u3631:
  7483     097C  298C               	goto	l2552
  7484     097D                     u3630:
  7485     097D                     l2548:
  7486     097D  1751               	bsf	___fldiv@grs+3,6
  7487     097E                     l2550:
  7488     097E  083A               	movf	___fldiv@a,w
  7489     097F  02C7               	subwf	___fldiv@rem,f
  7490     0980  083B               	movf	___fldiv@a+1,w
  7491     0981  1C03               	skipc
  7492     0982  0F3B               	incfsz	___fldiv@a+1,w
  7493     0983  02C8               	subwf	___fldiv@rem+1,f
  7494     0984  083C               	movf	___fldiv@a+2,w
  7495     0985  1C03               	skipc
  7496     0986  0F3C               	incfsz	___fldiv@a+2,w
  7497     0987  02C9               	subwf	___fldiv@rem+2,f
  7498     0988  083D               	movf	___fldiv@a+3,w
  7499     0989  1C03               	skipc
  7500     098A  0F3D               	incfsz	___fldiv@a+3,w
  7501     098B  02CA               	subwf	___fldiv@rem+3,f
  7502     098C                     l2552:
  7503     098C  3001               	movlw	1
  7504     098D  07D3               	addwf	___fldiv@aexp,f
  7505     098E                     l2554:
  7506     098E  301A               	movlw	26
  7507     098F  0253               	subwf	___fldiv@aexp,w
  7508     0990  1C03               	skipc
  7509     0991  2993               	goto	u3641
  7510     0992  2994               	goto	u3640
  7511     0993                     u3641:
  7512     0993  2946               	goto	l2536
  7513     0994                     u3640:
  7514     0994                     l2556:
  7515     0994  084A               	movf	___fldiv@rem+3,w
  7516     0995  0449               	iorwf	___fldiv@rem+2,w
  7517     0996  0448               	iorwf	___fldiv@rem+1,w
  7518     0997  0447               	iorwf	___fldiv@rem,w
  7519     0998  1903               	skipnz
  7520     0999  299B               	goto	u3651
  7521     099A  299C               	goto	u3650
  7522     099B                     u3651:
  7523     099B  29BB               	goto	l2570
  7524     099C                     u3650:
  7525     099C                     l2558:
  7526     099C  144E               	bsf	___fldiv@grs,0
  7527     099D  29BB               	goto	l2570
  7528     099E                     l2560:
  7529     099E  3001               	movlw	1
  7530     099F  00C2               	movwf	??___fldiv
  7531     09A0                     u3665:
  7532     09A0  1003               	clrc
  7533     09A1  0DBE               	rlf	___fldiv@b,f
  7534     09A2  0DBF               	rlf	___fldiv@b+1,f
  7535     09A3  0DC0               	rlf	___fldiv@b+2,f
  7536     09A4  0DC1               	rlf	___fldiv@b+3,f
  7537     09A5  0BC2               	decfsz	??___fldiv,f
  7538     09A6  29A0               	goto	u3665
  7539     09A7                     l2562:
  7540     09A7  1FD1               	btfss	___fldiv@grs+3,7
  7541     09A8  29AA               	goto	u3671
  7542     09A9  29AB               	goto	u3670
  7543     09AA                     u3671:
  7544     09AA  29AC               	goto	l2566
  7545     09AB                     u3670:
  7546     09AB                     l2564:
  7547     09AB  143E               	bsf	___fldiv@b,0
  7548     09AC                     l2566:
  7549     09AC  3001               	movlw	1
  7550     09AD  00C2               	movwf	??___fldiv
  7551     09AE                     u3685:
  7552     09AE  1003               	clrc
  7553     09AF  0DCE               	rlf	___fldiv@grs,f
  7554     09B0  0DCF               	rlf	___fldiv@grs+1,f
  7555     09B1  0DD0               	rlf	___fldiv@grs+2,f
  7556     09B2  0DD1               	rlf	___fldiv@grs+3,f
  7557     09B3  0BC2               	decfsz	??___fldiv,f
  7558     09B4  29AE               	goto	u3685
  7559     09B5                     l2568:
  7560     09B5  30FF               	movlw	255
  7561     09B6  07CC               	addwf	___fldiv@new_exp,f
  7562     09B7  1803               	skipnc
  7563     09B8  0ACD               	incf	___fldiv@new_exp+1,f
  7564     09B9  30FF               	movlw	255
  7565     09BA  07CD               	addwf	___fldiv@new_exp+1,f
  7566     09BB                     l2570:
  7567     09BB  1FC0               	btfss	___fldiv@b+2,7
  7568     09BC  29BE               	goto	u3691
  7569     09BD  29BF               	goto	u3690
  7570     09BE                     u3691:
  7571     09BE  299E               	goto	l2560
  7572     09BF                     u3690:
  7573     09BF                     l2572:
  7574     09BF  01D3               	clrf	___fldiv@aexp
  7575     09C0                     l2574:
  7576     09C0  1FD1               	btfss	___fldiv@grs+3,7
  7577     09C1  29C3               	goto	u3701
  7578     09C2  29C4               	goto	u3700
  7579     09C3                     u3701:
  7580     09C3  29E0               	goto	l2582
  7581     09C4                     u3700:
  7582     09C4                     l2576:
  7583     09C4  30FF               	movlw	255
  7584     09C5  054E               	andwf	___fldiv@grs,w
  7585     09C6  00C2               	movwf	??___fldiv
  7586     09C7  30FF               	movlw	255
  7587     09C8  054F               	andwf	___fldiv@grs+1,w
  7588     09C9  00C3               	movwf	??___fldiv+1
  7589     09CA  30FF               	movlw	255
  7590     09CB  0550               	andwf	___fldiv@grs+2,w
  7591     09CC  00C4               	movwf	??___fldiv+2
  7592     09CD  307F               	movlw	127
  7593     09CE  0551               	andwf	___fldiv@grs+3,w
  7594     09CF  00C5               	movwf	??___fldiv+3
  7595     09D0  0845               	movf	??___fldiv+3,w
  7596     09D1  0444               	iorwf	??___fldiv+2,w
  7597     09D2  0443               	iorwf	??___fldiv+1,w
  7598     09D3  0442               	iorwf	??___fldiv,w
  7599     09D4  1903               	skipnz
  7600     09D5  29D7               	goto	u3711
  7601     09D6  29D8               	goto	u3710
  7602     09D7                     u3711:
  7603     09D7  29DB               	goto	l527
  7604     09D8                     u3710:
  7605     09D8                     l2578:
  7606     09D8  3001               	movlw	1
  7607     09D9  00D3               	movwf	___fldiv@aexp
  7608     09DA  29E0               	goto	l2582
  7609     09DB                     l527:
  7610     09DB  1C3E               	btfss	___fldiv@b,0
  7611     09DC  29DE               	goto	u3721
  7612     09DD  29DF               	goto	u3720
  7613     09DE                     u3721:
  7614     09DE  29E0               	goto	l2582
  7615     09DF                     u3720:
  7616     09DF  29D8               	goto	l2578
  7617     09E0                     l2582:
  7618     09E0  0853               	movf	___fldiv@aexp,w
  7619     09E1  1903               	btfsc	3,2
  7620     09E2  29E4               	goto	u3731
  7621     09E3  29E5               	goto	u3730
  7622     09E4                     u3731:
  7623     09E4  2A16               	goto	l2592
  7624     09E5                     u3730:
  7625     09E5                     l2584:
  7626     09E5  3001               	movlw	1
  7627     09E6  07BE               	addwf	___fldiv@b,f
  7628     09E7  3000               	movlw	0
  7629     09E8  1803               	skipnc
  7630     09E9  3001               	movlw	1
  7631     09EA  07BF               	addwf	___fldiv@b+1,f
  7632     09EB  3000               	movlw	0
  7633     09EC  1803               	skipnc
  7634     09ED  3001               	movlw	1
  7635     09EE  07C0               	addwf	___fldiv@b+2,f
  7636     09EF  3000               	movlw	0
  7637     09F0  1803               	skipnc
  7638     09F1  3001               	movlw	1
  7639     09F2  07C1               	addwf	___fldiv@b+3,f
  7640     09F3                     l2586:
  7641     09F3  1C41               	btfss	___fldiv@b+3,0
  7642     09F4  29F6               	goto	u3741
  7643     09F5  29F7               	goto	u3740
  7644     09F6                     u3741:
  7645     09F6  2A16               	goto	l2592
  7646     09F7                     u3740:
  7647     09F7                     l2588:
  7648     09F7  083E               	movf	___fldiv@b,w
  7649     09F8  00C2               	movwf	??___fldiv
  7650     09F9  083F               	movf	___fldiv@b+1,w
  7651     09FA  00C3               	movwf	??___fldiv+1
  7652     09FB  0840               	movf	___fldiv@b+2,w
  7653     09FC  00C4               	movwf	??___fldiv+2
  7654     09FD  0841               	movf	___fldiv@b+3,w
  7655     09FE  00C5               	movwf	??___fldiv+3
  7656     09FF  3001               	movlw	1
  7657     0A00  00C6               	movwf	??___fldiv+4
  7658     0A01                     u3755:
  7659     0A01  0D45               	rlf	??___fldiv+3,w
  7660     0A02  0CC5               	rrf	??___fldiv+3,f
  7661     0A03  0CC4               	rrf	??___fldiv+2,f
  7662     0A04  0CC3               	rrf	??___fldiv+1,f
  7663     0A05  0CC2               	rrf	??___fldiv,f
  7664     0A06                     u3750:
  7665     0A06  0BC6               	decfsz	??___fldiv+4,f
  7666     0A07  2A01               	goto	u3755
  7667     0A08  0845               	movf	??___fldiv+3,w
  7668     0A09  00C1               	movwf	___fldiv@b+3
  7669     0A0A  0844               	movf	??___fldiv+2,w
  7670     0A0B  00C0               	movwf	___fldiv@b+2
  7671     0A0C  0843               	movf	??___fldiv+1,w
  7672     0A0D  00BF               	movwf	___fldiv@b+1
  7673     0A0E  0842               	movf	??___fldiv,w
  7674     0A0F  00BE               	movwf	___fldiv@b
  7675     0A10                     l2590:
  7676     0A10  3001               	movlw	1
  7677     0A11  07CC               	addwf	___fldiv@new_exp,f
  7678     0A12  1803               	skipnc
  7679     0A13  0ACD               	incf	___fldiv@new_exp+1,f
  7680     0A14  3000               	movlw	0
  7681     0A15  07CD               	addwf	___fldiv@new_exp+1,f
  7682     0A16                     l2592:
  7683     0A16  084D               	movf	___fldiv@new_exp+1,w
  7684     0A17  3A80               	xorlw	128
  7685     0A18  00FF               	movwf	btemp+1
  7686     0A19  3080               	movlw	128
  7687     0A1A  027F               	subwf	btemp+1,w
  7688     0A1B  1D03               	skipz
  7689     0A1C  2A1F               	goto	u3765
  7690     0A1D  30FF               	movlw	255
  7691     0A1E  024C               	subwf	___fldiv@new_exp,w
  7692     0A1F                     u3765:
  7693     0A1F  1C03               	skipc
  7694     0A20  2A22               	goto	u3761
  7695     0A21  2A23               	goto	u3760
  7696     0A22                     u3761:
  7697     0A22  2A31               	goto	l2596
  7698     0A23                     u3760:
  7699     0A23                     l2594:
  7700     0A23  30FF               	movlw	255
  7701     0A24  1283               	bcf	3,5	;RP0=0, select bank0
  7702     0A25  1303               	bcf	3,6	;RP1=0, select bank0
  7703     0A26  00CC               	movwf	___fldiv@new_exp
  7704     0A27  3000               	movlw	0
  7705     0A28  00CD               	movwf	___fldiv@new_exp+1
  7706     0A29  3000               	movlw	0
  7707     0A2A  00C1               	movwf	___fldiv@b+3
  7708     0A2B  3000               	movlw	0
  7709     0A2C  00C0               	movwf	___fldiv@b+2
  7710     0A2D  3000               	movlw	0
  7711     0A2E  00BF               	movwf	___fldiv@b+1
  7712     0A2F  3000               	movlw	0
  7713     0A30  00BE               	movwf	___fldiv@b
  7714     0A31                     l2596:
  7715     0A31  1283               	bcf	3,5	;RP0=0, select bank0
  7716     0A32  1303               	bcf	3,6	;RP1=0, select bank0
  7717     0A33  084D               	movf	___fldiv@new_exp+1,w
  7718     0A34  3A80               	xorlw	128
  7719     0A35  00FF               	movwf	btemp+1
  7720     0A36  3080               	movlw	128
  7721     0A37  027F               	subwf	btemp+1,w
  7722     0A38  1D03               	skipz
  7723     0A39  2A3C               	goto	u3775
  7724     0A3A  3001               	movlw	1
  7725     0A3B  024C               	subwf	___fldiv@new_exp,w
  7726     0A3C                     u3775:
  7727     0A3C  1803               	skipnc
  7728     0A3D  2A3F               	goto	u3771
  7729     0A3E  2A40               	goto	u3770
  7730     0A3F                     u3771:
  7731     0A3F  2A4D               	goto	l533
  7732     0A40                     u3770:
  7733     0A40                     l2598:
  7734     0A40  1283               	bcf	3,5	;RP0=0, select bank0
  7735     0A41  1303               	bcf	3,6	;RP1=0, select bank0
  7736     0A42  01CC               	clrf	___fldiv@new_exp
  7737     0A43  01CD               	clrf	___fldiv@new_exp+1
  7738     0A44                     l2600:
  7739     0A44  3000               	movlw	0
  7740     0A45  00C1               	movwf	___fldiv@b+3
  7741     0A46  3000               	movlw	0
  7742     0A47  00C0               	movwf	___fldiv@b+2
  7743     0A48  3000               	movlw	0
  7744     0A49  00BF               	movwf	___fldiv@b+1
  7745     0A4A  3000               	movlw	0
  7746     0A4B  00BE               	movwf	___fldiv@b
  7747     0A4C                     l2602:
  7748     0A4C  01CB               	clrf	___fldiv@sign
  7749     0A4D                     l533:
  7750     0A4D  1283               	bcf	3,5	;RP0=0, select bank0
  7751     0A4E  1303               	bcf	3,6	;RP1=0, select bank0
  7752     0A4F  084C               	movf	___fldiv@new_exp,w
  7753     0A50  00D2               	movwf	___fldiv@bexp
  7754     0A51                     l2604:
  7755     0A51  1C52               	btfss	___fldiv@bexp,0
  7756     0A52  2A54               	goto	u3781
  7757     0A53  2A55               	goto	u3780
  7758     0A54                     u3781:
  7759     0A54  2A57               	goto	l2608
  7760     0A55                     u3780:
  7761     0A55                     l2606:
  7762     0A55  17C0               	bsf	___fldiv@b+2,7
  7763     0A56  2A59               	goto	l535
  7764     0A57                     l2608:
  7765     0A57  307F               	movlw	127
  7766     0A58  05C0               	andwf	___fldiv@b+2,f
  7767     0A59                     l535:
  7768     0A59  0852               	movf	___fldiv@bexp,w
  7769     0A5A  00C2               	movwf	??___fldiv
  7770     0A5B  1003               	clrc
  7771     0A5C  0C42               	rrf	??___fldiv,w
  7772     0A5D  00C1               	movwf	___fldiv@b+3
  7773     0A5E  084B               	movf	___fldiv@sign,w
  7774     0A5F  04C1               	iorwf	___fldiv@b+3,f
  7775     0A60  2903               	goto	l2516
  7776     0A61                     l513:
  7777     0A61  0008               	return
  7778     0A62                     __end_of___fldiv:
  7779                           
  7780                           	psect	text28
  7781     1DE2                     __ptext28:	
  7782 ;; *************** function _read_adc *****************
  7783 ;; Defined at:
  7784 ;;		line 60 in file "atividade7.c"
  7785 ;; Parameters:    Size  Location     Type
  7786 ;;		None
  7787 ;; Auto vars:     Size  Location     Type
  7788 ;;		None
  7789 ;; Return value:  Size  Location     Type
  7790 ;;                  2    0[COMMON] unsigned int 
  7791 ;; Registers used:
  7792 ;;		wreg
  7793 ;; Tracked objects:
  7794 ;;		On entry : 0/0
  7795 ;;		On exit  : 0/0
  7796 ;;		Unchanged: 0/0
  7797 ;; Data sizes:     COMMON   BANK0   BANK1   BANK3   BANK2
  7798 ;;      Params:         2       0       0       0       0
  7799 ;;      Locals:         0       0       0       0       0
  7800 ;;      Temps:          1       0       0       0       0
  7801 ;;      Totals:         3       0       0       0       0
  7802 ;;Total ram usage:        3 bytes
  7803 ;; Hardware stack levels used: 1
  7804 ;; This function calls:
  7805 ;;		Nothing
  7806 ;; This function is called by:
  7807 ;;		_main
  7808 ;; This function uses a non-reentrant model
  7809 ;;
  7810                           
  7811     1DE2                     _read_adc:	
  7812                           ;psect for function _read_adc
  7813                           
  7814     1DE2                     l3246:	
  7815                           ;incstack = 0
  7816                           ; Regs used in _read_adc: [wreg]
  7817                           
  7818                           
  7819                           ;atividade7.c: 61:     PORTD = data;
  7820     1DE2  3021               	movlw	33
  7821     1DE3  00F2               	movwf	??_read_adc
  7822     1DE4                     u5147:
  7823     1DE4  0BF2               	decfsz	??_read_adc,f
  7824     1DE5  2DE4               	goto	u5147
  7825     1DE6                     l3248:
  7826                           
  7827                           ;atividade7.c: 62:     PORTEbits.RE0 = 1;
  7828     1DE6  1283               	bcf	3,5	;RP0=0, select bank0
  7829     1DE7  1303               	bcf	3,6	;RP1=0, select bank0
  7830     1DE8  151F               	bsf	31,2	;volatile
  7831     1DE9                     l50:	
  7832                           ;atividade7.c: 63:     PORTEbits.RE1 = 1;
  7833                           
  7834     1DE9  191F               	btfsc	31,2	;volatile
  7835     1DEA  2DEC               	goto	u4971
  7836     1DEB  2DED               	goto	u4970
  7837     1DEC                     u4971:
  7838     1DEC  2DE9               	goto	l50
  7839     1DED                     u4970:
  7840     1DED                     l3250:
  7841                           
  7842                           ;atividade7.c: 64:     _delay((unsigned long)((5)*(20000000/4000.0)));
  7843     1DED  081E               	movf	30,w	;volatile
  7844     1DEE  00F1               	movwf	?_read_adc+1
  7845     1DEF  1683               	bsf	3,5	;RP0=1, select bank1
  7846     1DF0  1303               	bcf	3,6	;RP1=0, select bank1
  7847     1DF1  081E               	movf	30,w	;volatile
  7848     1DF2  00F0               	movwf	?_read_adc
  7849     1DF3                     l53:
  7850     1DF3  0008               	return
  7851     1DF4                     __end_of_read_adc:
  7852                           
  7853                           	psect	text29
  7854     1E1C                     __ptext29:	
  7855 ;; *************** function _lcd_string *****************
  7856 ;; Defined at:
  7857 ;;		line 90 in file "atividade7.c"
  7858 ;; Parameters:    Size  Location     Type
  7859 ;;  str             1    3[COMMON] PTR const unsigned char 
  7860 ;;		 -> buffer(16), 
  7861 ;; Auto vars:     Size  Location     Type
  7862 ;;		None
  7863 ;; Return value:  Size  Location     Type
  7864 ;;                  1    wreg      void 
  7865 ;; Registers used:
  7866 ;;		wreg, fsr0l, fsr0h, status,2, status,0, pclath, cstack
  7867 ;; Tracked objects:
  7868 ;;		On entry : 0/0
  7869 ;;		On exit  : 0/0
  7870 ;;		Unchanged: 0/0
  7871 ;; Data sizes:     COMMON   BANK0   BANK1   BANK3   BANK2
  7872 ;;      Params:         1       0       0       0       0
  7873 ;;      Locals:         0       0       0       0       0
  7874 ;;      Temps:          0       0       0       0       0
  7875 ;;      Totals:         1       0       0       0       0
  7876 ;;Total ram usage:        1 bytes
  7877 ;; Hardware stack levels used: 1
  7878 ;; Hardware stack levels required when called: 1
  7879 ;; This function calls:
  7880 ;;		_lcd_data
  7881 ;; This function is called by:
  7882 ;;		_main
  7883 ;; This function uses a non-reentrant model
  7884 ;;
  7885                           
  7886     1E1C                     _lcd_string:	
  7887                           ;psect for function _lcd_string
  7888                           
  7889     1E1C                     l3268:	
  7890                           ;incstack = 0
  7891                           ; Regs used in _lcd_string: [wreg-fsr0h+status,2+status,0+pclath+cstack]
  7892                           
  7893     1E1C  2E27               	goto	l3274
  7894     1E1D                     l3270:
  7895     1E1D  0873               	movf	lcd_string@str,w
  7896     1E1E  0084               	movwf	4
  7897     1E1F  0800               	movf	0,w
  7898     1E20  160A  158A  2608  160A  158A  	fcall	_lcd_data
  7899     1E25                     l3272:
  7900     1E25  3001               	movlw	1
  7901     1E26  07F3               	addwf	lcd_string@str,f
  7902     1E27                     l3274:
  7903     1E27  0873               	movf	lcd_string@str,w
  7904     1E28  0084               	movwf	4
  7905     1E29  1783               	bsf	3,7	;select IRP bank2
  7906     1E2A  0800               	movf	0,w
  7907     1E2B  1D03               	btfss	3,2
  7908     1E2C  2E2E               	goto	u4981
  7909     1E2D  2E2F               	goto	u4980
  7910     1E2E                     u4981:
  7911     1E2E  2E1D               	goto	l3270
  7912     1E2F                     u4980:
  7913     1E2F                     l68:
  7914     1E2F  0008               	return
  7915     1E30                     __end_of_lcd_string:
  7916                           
  7917                           	psect	text30
  7918     1E08                     __ptext30:	
  7919 ;; *************** function _lcd_data *****************
  7920 ;; Defined at:
  7921 ;;		line 75 in file "atividade7.c"
  7922 ;; Parameters:    Size  Location     Type
  7923 ;;  data            1    wreg     unsigned char 
  7924 ;; Auto vars:     Size  Location     Type
  7925 ;;  data            1    2[COMMON] unsigned char 
  7926 ;; Return value:  Size  Location     Type
  7927 ;;                  1    wreg      void 
  7928 ;; Registers used:
  7929 ;;		wreg
  7930 ;; Tracked objects:
  7931 ;;		On entry : 0/0
  7932 ;;		On exit  : 0/0
  7933 ;;		Unchanged: 0/0
  7934 ;; Data sizes:     COMMON   BANK0   BANK1   BANK3   BANK2
  7935 ;;      Params:         0       0       0       0       0
  7936 ;;      Locals:         1       0       0       0       0
  7937 ;;      Temps:          2       0       0       0       0
  7938 ;;      Totals:         3       0       0       0       0
  7939 ;;Total ram usage:        3 bytes
  7940 ;; Hardware stack levels used: 1
  7941 ;; This function calls:
  7942 ;;		Nothing
  7943 ;; This function is called by:
  7944 ;;		_lcd_string
  7945 ;; This function uses a non-reentrant model
  7946 ;;
  7947                           
  7948     1E08                     _lcd_data:	
  7949                           ;psect for function _lcd_data
  7950                           
  7951                           
  7952                           ;incstack = 0
  7953                           ; Regs used in _lcd_data: [wreg]
  7954                           ;lcd_data@data stored from wreg
  7955     1E08  00F2               	movwf	lcd_data@data
  7956     1E09                     l3224:
  7957                           
  7958                           ;atividade7.c: 76:     while (*str) {
  7959     1E09  0872               	movf	lcd_data@data,w
  7960     1E0A  1283               	bcf	3,5	;RP0=0, select bank0
  7961     1E0B  1303               	bcf	3,6	;RP1=0, select bank0
  7962     1E0C  0088               	movwf	8	;volatile
  7963     1E0D                     l3226:
  7964                           
  7965                           ;atividade7.c: 77:         lcd_data(*str++);
  7966     1E0D  1409               	bsf	9,0	;volatile
  7967     1E0E                     l3228:
  7968                           
  7969                           ;atividade7.c: 78:     }
  7970     1E0E  1489               	bsf	9,1	;volatile
  7971                           
  7972                           ;atividade7.c: 79: }
  7973     1E0F  3021               	movlw	33
  7974     1E10  00F1               	movwf	??_lcd_data+1
  7975     1E11  3076               	movlw	118
  7976     1E12  00F0               	movwf	??_lcd_data
  7977     1E13                     u5157:
  7978     1E13  0BF0               	decfsz	??_lcd_data,f
  7979     1E14  2E13               	goto	u5157
  7980     1E15  0BF1               	decfsz	??_lcd_data+1,f
  7981     1E16  2E13               	goto	u5157
  7982     1E17  0000               	nop
  7983     1E18                     l3230:
  7984     1E18  1283               	bcf	3,5	;RP0=0, select bank0
  7985     1E19  1303               	bcf	3,6	;RP1=0, select bank0
  7986     1E1A  1089               	bcf	9,1	;volatile
  7987     1E1B                     l59:
  7988     1E1B  0008               	return
  7989     1E1C                     __end_of_lcd_data:
  7990                           
  7991                           	psect	text31
  7992     1E45                     __ptext31:	
  7993 ;; *************** function _lcd_initialise *****************
  7994 ;; Defined at:
  7995 ;;		line 83 in file "atividade7.c"
  7996 ;; Parameters:    Size  Location     Type
  7997 ;;		None
  7998 ;; Auto vars:     Size  Location     Type
  7999 ;;		None
  8000 ;; Return value:  Size  Location     Type
  8001 ;;                  1    wreg      void 
  8002 ;; Registers used:
  8003 ;;		wreg, status,2, status,0, pclath, cstack
  8004 ;; Tracked objects:
  8005 ;;		On entry : 0/0
  8006 ;;		On exit  : 0/0
  8007 ;;		Unchanged: 0/0
  8008 ;; Data sizes:     COMMON   BANK0   BANK1   BANK3   BANK2
  8009 ;;      Params:         0       0       0       0       0
  8010 ;;      Locals:         0       0       0       0       0
  8011 ;;      Temps:          0       0       0       0       0
  8012 ;;      Totals:         0       0       0       0       0
  8013 ;;Total ram usage:        0 bytes
  8014 ;; Hardware stack levels used: 1
  8015 ;; Hardware stack levels required when called: 1
  8016 ;; This function calls:
  8017 ;;		_lcd_command
  8018 ;; This function is called by:
  8019 ;;		_main
  8020 ;; This function uses a non-reentrant model
  8021 ;;
  8022                           
  8023     1E45                     _lcd_initialise:	
  8024                           ;psect for function _lcd_initialise
  8025                           
  8026     1E45                     l3242:	
  8027                           ;incstack = 0
  8028                           ; Regs used in _lcd_initialise: [wreg+status,2+status,0+pclath+cstack]
  8029                           
  8030     1E45  3038               	movlw	56
  8031     1E46  160A  158A  25F4  160A  158A  	fcall	_lcd_command
  8032     1E4B  3006               	movlw	6
  8033     1E4C  160A  158A  25F4  160A  158A  	fcall	_lcd_command
  8034     1E51  300C               	movlw	12
  8035     1E52  160A  158A  25F4  160A  158A  	fcall	_lcd_command
  8036     1E57  3001               	movlw	1
  8037     1E58  160A  158A  25F4  160A  158A  	fcall	_lcd_command
  8038     1E5D                     l62:
  8039     1E5D  0008               	return
  8040     1E5E                     __end_of_lcd_initialise:
  8041                           
  8042                           	psect	text32
  8043     1DF4                     __ptext32:	
  8044 ;; *************** function _lcd_command *****************
  8045 ;; Defined at:
  8046 ;;		line 67 in file "atividade7.c"
  8047 ;; Parameters:    Size  Location     Type
  8048 ;;  cmd             1    wreg     unsigned char 
  8049 ;; Auto vars:     Size  Location     Type
  8050 ;;  cmd             1    2[COMMON] unsigned char 
  8051 ;; Return value:  Size  Location     Type
  8052 ;;                  1    wreg      void 
  8053 ;; Registers used:
  8054 ;;		wreg
  8055 ;; Tracked objects:
  8056 ;;		On entry : 0/0
  8057 ;;		On exit  : 0/0
  8058 ;;		Unchanged: 0/0
  8059 ;; Data sizes:     COMMON   BANK0   BANK1   BANK3   BANK2
  8060 ;;      Params:         0       0       0       0       0
  8061 ;;      Locals:         1       0       0       0       0
  8062 ;;      Temps:          2       0       0       0       0
  8063 ;;      Totals:         3       0       0       0       0
  8064 ;;Total ram usage:        3 bytes
  8065 ;; Hardware stack levels used: 1
  8066 ;; This function calls:
  8067 ;;		Nothing
  8068 ;; This function is called by:
  8069 ;;		_main
  8070 ;;		_lcd_initialise
  8071 ;; This function uses a non-reentrant model
  8072 ;;
  8073                           
  8074     1DF4                     _lcd_command:	
  8075                           ;psect for function _lcd_command
  8076                           
  8077                           
  8078                           ;incstack = 0
  8079                           ; Regs used in _lcd_command: [wreg]
  8080                           ;lcd_command@cmd stored from wreg
  8081     1DF4  00F2               	movwf	lcd_command@cmd
  8082     1DF5                     l3216:
  8083                           
  8084                           ;atividade7.c: 68: void lcd_initialise() {
  8085     1DF5  0872               	movf	lcd_command@cmd,w
  8086     1DF6  1283               	bcf	3,5	;RP0=0, select bank0
  8087     1DF7  1303               	bcf	3,6	;RP1=0, select bank0
  8088     1DF8  0088               	movwf	8	;volatile
  8089     1DF9                     l3218:
  8090                           
  8091                           ;atividade7.c: 69:     lcd_command(0x38);
  8092     1DF9  1009               	bcf	9,0	;volatile
  8093     1DFA                     l3220:
  8094                           
  8095                           ;atividade7.c: 70:     lcd_command(0x06);
  8096     1DFA  1489               	bsf	9,1	;volatile
  8097                           
  8098                           ;atividade7.c: 71:     lcd_command(0x0C);
  8099     1DFB  3021               	movlw	33
  8100     1DFC  00F1               	movwf	??_lcd_command+1
  8101     1DFD  3076               	movlw	118
  8102     1DFE  00F0               	movwf	??_lcd_command
  8103     1DFF                     u5167:
  8104     1DFF  0BF0               	decfsz	??_lcd_command,f
  8105     1E00  2DFF               	goto	u5167
  8106     1E01  0BF1               	decfsz	??_lcd_command+1,f
  8107     1E02  2DFF               	goto	u5167
  8108     1E03  0000               	nop
  8109     1E04                     l3222:
  8110                           
  8111                           ;atividade7.c: 72:     lcd_command(0x01);
  8112     1E04  1283               	bcf	3,5	;RP0=0, select bank0
  8113     1E05  1303               	bcf	3,6	;RP1=0, select bank0
  8114     1E06  1089               	bcf	9,1	;volatile
  8115     1E07                     l56:
  8116     1E07  0008               	return
  8117     1E08                     __end_of_lcd_command:
  8118                           
  8119                           	psect	text33
  8120     1DD9                     __ptext33:	
  8121 ;; *************** function _adc_initialise *****************
  8122 ;; Defined at:
  8123 ;;		line 55 in file "atividade7.c"
  8124 ;; Parameters:    Size  Location     Type
  8125 ;;		None
  8126 ;; Auto vars:     Size  Location     Type
  8127 ;;		None
  8128 ;; Return value:  Size  Location     Type
  8129 ;;                  1    wreg      void 
  8130 ;; Registers used:
  8131 ;;		None
  8132 ;; Tracked objects:
  8133 ;;		On entry : 0/0
  8134 ;;		On exit  : 0/0
  8135 ;;		Unchanged: 0/0
  8136 ;; Data sizes:     COMMON   BANK0   BANK1   BANK3   BANK2
  8137 ;;      Params:         0       0       0       0       0
  8138 ;;      Locals:         0       0       0       0       0
  8139 ;;      Temps:          0       0       0       0       0
  8140 ;;      Totals:         0       0       0       0       0
  8141 ;;Total ram usage:        0 bytes
  8142 ;; Hardware stack levels used: 1
  8143 ;; This function calls:
  8144 ;;		Nothing
  8145 ;; This function is called by:
  8146 ;;		_main
  8147 ;; This function uses a non-reentrant model
  8148 ;;
  8149                           
  8150     1DD9                     _adc_initialise:	
  8151                           ;psect for function _adc_initialise
  8152                           
  8153     1DD9                     l3244:	
  8154                           ;incstack = 0
  8155                           ; Regs used in _adc_initialise: []
  8156                           
  8157                           
  8158                           ;atividade7.c: 56:     _delay((unsigned long)((5)*(20000000/4000.0)));
  8159     1DD9  3006               	movlw	6
  8160     1DDA  1683               	bsf	3,5	;RP0=1, select bank1
  8161     1DDB  1303               	bcf	3,6	;RP1=0, select bank1
  8162     1DDC  009F               	movwf	31	;volatile
  8163                           
  8164                           ;atividade7.c: 57:     PORTEbits.RE1 = 0;
  8165     1DDD  300D               	movlw	13
  8166     1DDE  1283               	bcf	3,5	;RP0=0, select bank0
  8167     1DDF  1303               	bcf	3,6	;RP1=0, select bank0
  8168     1DE0  009F               	movwf	31	;volatile
  8169     1DE1                     l47:
  8170     1DE1  0008               	return
  8171     1DE2                     __end_of_adc_initialise:
  8172                           
  8173                           	psect	text34
  8174     12D0                     __ptext34:	
  8175 ;; *************** function ___xxtofl *****************
  8176 ;; Defined at:
  8177 ;;		line 10 in file "C:\Program Files\Microchip\xc8\v2.50\pic\sources\c99\common\xxtofl.c"
  8178 ;; Parameters:    Size  Location     Type
  8179 ;;  sign            1    wreg     unsigned char 
  8180 ;;  val             4    0[COMMON] long 
  8181 ;; Auto vars:     Size  Location     Type
  8182 ;;  sign            1    8[COMMON] unsigned char 
  8183 ;;  arg             4   10[COMMON] unsigned long 
  8184 ;;  exp             1    9[COMMON] unsigned char 
  8185 ;; Return value:  Size  Location     Type
  8186 ;;                  4    0[COMMON] unsigned char 
  8187 ;; Registers used:
  8188 ;;		wreg, status,2, status,0
  8189 ;; Tracked objects:
  8190 ;;		On entry : 0/0
  8191 ;;		On exit  : 0/0
  8192 ;;		Unchanged: 0/0
  8193 ;; Data sizes:     COMMON   BANK0   BANK1   BANK3   BANK2
  8194 ;;      Params:         4       0       0       0       0
  8195 ;;      Locals:         6       0       0       0       0
  8196 ;;      Temps:          4       0       0       0       0
  8197 ;;      Totals:        14       0       0       0       0
  8198 ;;Total ram usage:       14 bytes
  8199 ;; Hardware stack levels used: 1
  8200 ;; This function calls:
  8201 ;;		Nothing
  8202 ;; This function is called by:
  8203 ;;		_main
  8204 ;; This function uses a non-reentrant model
  8205 ;;
  8206                           
  8207     12D0                     ___xxtofl:	
  8208                           ;psect for function ___xxtofl
  8209                           
  8210                           
  8211                           ;incstack = 0
  8212                           ; Regs used in ___xxtofl: [wreg+status,2+status,0]
  8213                           ;___xxtofl@sign stored from wreg
  8214     12D0  00F8               	movwf	___xxtofl@sign
  8215     12D1                     l3276:
  8216     12D1  0878               	movf	___xxtofl@sign,w
  8217     12D2  1903               	btfsc	3,2
  8218     12D3  2AD5               	goto	u4991
  8219     12D4  2AD6               	goto	u4990
  8220     12D5                     u4991:
  8221     12D5  2AEA               	goto	l3282
  8222     12D6                     u4990:
  8223     12D6                     l3278:
  8224     12D6  1FF3               	btfss	___xxtofl@val+3,7
  8225     12D7  2AD9               	goto	u5001
  8226     12D8  2ADA               	goto	u5000
  8227     12D9                     u5001:
  8228     12D9  2AEA               	goto	l3282
  8229     12DA                     u5000:
  8230     12DA                     l3280:
  8231     12DA  0970               	comf	___xxtofl@val,w
  8232     12DB  00FA               	movwf	___xxtofl@arg
  8233     12DC  0971               	comf	___xxtofl@val+1,w
  8234     12DD  00FB               	movwf	___xxtofl@arg+1
  8235     12DE  0972               	comf	___xxtofl@val+2,w
  8236     12DF  00FC               	movwf	___xxtofl@arg+2
  8237     12E0  0973               	comf	___xxtofl@val+3,w
  8238     12E1  00FD               	movwf	___xxtofl@arg+3
  8239     12E2  0AFA               	incf	___xxtofl@arg,f
  8240     12E3  1903               	skipnz
  8241     12E4  0AFB               	incf	___xxtofl@arg+1,f
  8242     12E5  1903               	skipnz
  8243     12E6  0AFC               	incf	___xxtofl@arg+2,f
  8244     12E7  1903               	skipnz
  8245     12E8  0AFD               	incf	___xxtofl@arg+3,f
  8246     12E9  2AF2               	goto	l595
  8247     12EA                     l3282:
  8248     12EA  0873               	movf	___xxtofl@val+3,w
  8249     12EB  00FD               	movwf	___xxtofl@arg+3
  8250     12EC  0872               	movf	___xxtofl@val+2,w
  8251     12ED  00FC               	movwf	___xxtofl@arg+2
  8252     12EE  0871               	movf	___xxtofl@val+1,w
  8253     12EF  00FB               	movwf	___xxtofl@arg+1
  8254     12F0  0870               	movf	___xxtofl@val,w
  8255     12F1  00FA               	movwf	___xxtofl@arg
  8256     12F2                     l595:
  8257     12F2  0873               	movf	___xxtofl@val+3,w
  8258     12F3  0472               	iorwf	___xxtofl@val+2,w
  8259     12F4  0471               	iorwf	___xxtofl@val+1,w
  8260     12F5  0470               	iorwf	___xxtofl@val,w
  8261     12F6  1D03               	skipz
  8262     12F7  2AF9               	goto	u5011
  8263     12F8  2AFA               	goto	u5010
  8264     12F9                     u5011:
  8265     12F9  2B03               	goto	l596
  8266     12FA                     u5010:
  8267     12FA                     l3284:
  8268     12FA  3000               	movlw	0
  8269     12FB  00F3               	movwf	?___xxtofl+3
  8270     12FC  3000               	movlw	0
  8271     12FD  00F2               	movwf	?___xxtofl+2
  8272     12FE  3000               	movlw	0
  8273     12FF  00F1               	movwf	?___xxtofl+1
  8274     1300  3000               	movlw	0
  8275     1301  00F0               	movwf	?___xxtofl
  8276     1302  2B83               	goto	l597
  8277     1303                     l596:
  8278     1303  3096               	movlw	150
  8279     1304  00F9               	movwf	___xxtofl@exp
  8280     1305  2B11               	goto	l3290
  8281     1306                     l3288:
  8282     1306  3001               	movlw	1
  8283     1307  07F9               	addwf	___xxtofl@exp,f
  8284     1308  3001               	movlw	1
  8285     1309                     u5025:
  8286     1309  1003               	clrc
  8287     130A  0CFD               	rrf	___xxtofl@arg+3,f
  8288     130B  0CFC               	rrf	___xxtofl@arg+2,f
  8289     130C  0CFB               	rrf	___xxtofl@arg+1,f
  8290     130D  0CFA               	rrf	___xxtofl@arg,f
  8291     130E  3EFF               	addlw	-1
  8292     130F  1D03               	skipz
  8293     1310  2B09               	goto	u5025
  8294     1311                     l3290:
  8295     1311  30FE               	movlw	254
  8296     1312  057D               	andwf	___xxtofl@arg+3,w
  8297     1313  1D03               	btfss	3,2
  8298     1314  2B16               	goto	u5031
  8299     1315  2B17               	goto	u5030
  8300     1316                     u5031:
  8301     1316  2B06               	goto	l3288
  8302     1317                     u5030:
  8303     1317  2B31               	goto	l601
  8304     1318                     l3292:
  8305     1318  3001               	movlw	1
  8306     1319  07F9               	addwf	___xxtofl@exp,f
  8307     131A                     l3294:
  8308     131A  3001               	movlw	1
  8309     131B  07FA               	addwf	___xxtofl@arg,f
  8310     131C  3000               	movlw	0
  8311     131D  1803               	skipnc
  8312     131E  3001               	movlw	1
  8313     131F  07FB               	addwf	___xxtofl@arg+1,f
  8314     1320  3000               	movlw	0
  8315     1321  1803               	skipnc
  8316     1322  3001               	movlw	1
  8317     1323  07FC               	addwf	___xxtofl@arg+2,f
  8318     1324  3000               	movlw	0
  8319     1325  1803               	skipnc
  8320     1326  3001               	movlw	1
  8321     1327  07FD               	addwf	___xxtofl@arg+3,f
  8322     1328                     l3296:
  8323     1328  3001               	movlw	1
  8324     1329                     u5045:
  8325     1329  1003               	clrc
  8326     132A  0CFD               	rrf	___xxtofl@arg+3,f
  8327     132B  0CFC               	rrf	___xxtofl@arg+2,f
  8328     132C  0CFB               	rrf	___xxtofl@arg+1,f
  8329     132D  0CFA               	rrf	___xxtofl@arg,f
  8330     132E  3EFF               	addlw	-1
  8331     132F  1D03               	skipz
  8332     1330  2B29               	goto	u5045
  8333     1331                     l601:
  8334     1331  30FF               	movlw	255
  8335     1332  057D               	andwf	___xxtofl@arg+3,w
  8336     1333  1D03               	btfss	3,2
  8337     1334  2B36               	goto	u5051
  8338     1335  2B37               	goto	u5050
  8339     1336                     u5051:
  8340     1336  2B18               	goto	l3292
  8341     1337                     u5050:
  8342     1337  2B43               	goto	l3300
  8343     1338                     l3298:
  8344     1338  3001               	movlw	1
  8345     1339  02F9               	subwf	___xxtofl@exp,f
  8346     133A  3001               	movlw	1
  8347     133B  00F4               	movwf	??___xxtofl
  8348     133C                     u5065:
  8349     133C  1003               	clrc
  8350     133D  0DFA               	rlf	___xxtofl@arg,f
  8351     133E  0DFB               	rlf	___xxtofl@arg+1,f
  8352     133F  0DFC               	rlf	___xxtofl@arg+2,f
  8353     1340  0DFD               	rlf	___xxtofl@arg+3,f
  8354     1341  0BF4               	decfsz	??___xxtofl,f
  8355     1342  2B3C               	goto	u5065
  8356     1343                     l3300:
  8357     1343  1BFC               	btfsc	___xxtofl@arg+2,7
  8358     1344  2B46               	goto	u5071
  8359     1345  2B47               	goto	u5070
  8360     1346                     u5071:
  8361     1346  2B4D               	goto	l608
  8362     1347                     u5070:
  8363     1347                     l3302:
  8364     1347  3002               	movlw	2
  8365     1348  0279               	subwf	___xxtofl@exp,w
  8366     1349  1803               	skipnc
  8367     134A  2B4C               	goto	u5081
  8368     134B  2B4D               	goto	u5080
  8369     134C                     u5081:
  8370     134C  2B38               	goto	l3298
  8371     134D                     u5080:
  8372     134D                     l608:
  8373     134D  1879               	btfsc	___xxtofl@exp,0
  8374     134E  2B50               	goto	u5091
  8375     134F  2B51               	goto	u5090
  8376     1350                     u5091:
  8377     1350  2B59               	goto	l609
  8378     1351                     u5090:
  8379     1351                     l3304:
  8380     1351  30FF               	movlw	255
  8381     1352  05FA               	andwf	___xxtofl@arg,f
  8382     1353  30FF               	movlw	255
  8383     1354  05FB               	andwf	___xxtofl@arg+1,f
  8384     1355  307F               	movlw	127
  8385     1356  05FC               	andwf	___xxtofl@arg+2,f
  8386     1357  30FF               	movlw	255
  8387     1358  05FD               	andwf	___xxtofl@arg+3,f
  8388     1359                     l609:
  8389     1359  1003               	clrc
  8390     135A  0CF9               	rrf	___xxtofl@exp,f
  8391     135B                     l3306:
  8392     135B  0879               	movf	___xxtofl@exp,w
  8393     135C  00F4               	movwf	??___xxtofl
  8394     135D  01F5               	clrf	??___xxtofl+1
  8395     135E  01F6               	clrf	??___xxtofl+2
  8396     135F  01F7               	clrf	??___xxtofl+3
  8397     1360  3018               	movlw	24
  8398     1361                     u5105:
  8399     1361  1003               	clrc
  8400     1362  0DF4               	rlf	??___xxtofl,f
  8401     1363  0DF5               	rlf	??___xxtofl+1,f
  8402     1364  0DF6               	rlf	??___xxtofl+2,f
  8403     1365  0DF7               	rlf	??___xxtofl+3,f
  8404     1366                     u5100:
  8405     1366  3EFF               	addlw	-1
  8406     1367  1D03               	skipz
  8407     1368  2B61               	goto	u5105
  8408     1369  0874               	movf	??___xxtofl,w
  8409     136A  04FA               	iorwf	___xxtofl@arg,f
  8410     136B  0875               	movf	??___xxtofl+1,w
  8411     136C  04FB               	iorwf	___xxtofl@arg+1,f
  8412     136D  0876               	movf	??___xxtofl+2,w
  8413     136E  04FC               	iorwf	___xxtofl@arg+2,f
  8414     136F  0877               	movf	??___xxtofl+3,w
  8415     1370  04FD               	iorwf	___xxtofl@arg+3,f
  8416     1371                     l3308:
  8417     1371  0878               	movf	___xxtofl@sign,w
  8418     1372  1903               	btfsc	3,2
  8419     1373  2B75               	goto	u5111
  8420     1374  2B76               	goto	u5110
  8421     1375                     u5111:
  8422     1375  2B7B               	goto	l3314
  8423     1376                     u5110:
  8424     1376                     l3310:
  8425     1376  1FF3               	btfss	___xxtofl@val+3,7
  8426     1377  2B79               	goto	u5121
  8427     1378  2B7A               	goto	u5120
  8428     1379                     u5121:
  8429     1379  2B7B               	goto	l3314
  8430     137A                     u5120:
  8431     137A                     l3312:
  8432     137A  17FD               	bsf	___xxtofl@arg+3,7
  8433     137B                     l3314:
  8434     137B  087D               	movf	___xxtofl@arg+3,w
  8435     137C  00F3               	movwf	?___xxtofl+3
  8436     137D  087C               	movf	___xxtofl@arg+2,w
  8437     137E  00F2               	movwf	?___xxtofl+2
  8438     137F  087B               	movf	___xxtofl@arg+1,w
  8439     1380  00F1               	movwf	?___xxtofl+1
  8440     1381  087A               	movf	___xxtofl@arg,w
  8441     1382  00F0               	movwf	?___xxtofl
  8442     1383                     l597:
  8443     1383  0008               	return
  8444     1384                     __end_of___xxtofl:
  8445     0002                     ___latbits      equ	2
  8446     007E                     btemp           set	126	;btemp
  8447     007E                     wtemp0          set	126
  8448                           
  8449                           	psect	config
  8450                           
  8451                           ;Config register CONFIG @ 0x2007
  8452                           ;	Oscillator Selection bits
  8453                           ;	FOSC = HS, HS oscillator
  8454                           ;	Watchdog Timer Enable bit
  8455                           ;	WDTE = OFF, WDT disabled
  8456                           ;	Power-up Timer Enable bit
  8457                           ;	PWRTE = OFF, PWRT disabled
  8458                           ;	FLASH Program Memory Code Protection bits
  8459                           ;	CP = OFF, Code protection off
  8460                           ;	Brown-out Reset Enable bit
  8461                           ;	BOREN = OFF, BOR disabled
  8462                           ;	Low Voltage In-Circuit Serial Programming Enable bit
  8463                           ;	LVP = OFF, RB3 is digital I/O, HV on MCLR must be used for programming
  8464                           ;	Data EE Memory Code Protection
  8465                           ;	CPD = OFF, Code Protection off
  8466                           ;	FLASH Program Memory Write Enable
  8467                           ;	WRT = OFF, Unprotected program memory may not be written to by EECON control
  8468                           ;	In-Circuit Debugger Mode bit
  8469                           ;	DEBUG = 0x1, unprogrammed default
  8470     2007                     	org	8199
  8471     2007  3D3A               	dw	15674
  8472                           
  8473                           	psect	text9_split_1
  8474     0092                     l2896:
  8475                           
  8476                           ;C:\Program Files\Microchip\xc8\v2.50\pic\sources\c99\common\doprnt.c: 657:     u.f = 1.
      +                          0;
  8477     0092  303F               	movlw	63
  8478     0093  1683               	bsf	3,5	;RP0=1, select bank1
  8479     0094  1303               	bcf	3,6	;RP1=0, select bank1
  8480     0095  00CF               	movwf	(efgtoa@u+3)^(0+128)
  8481     0096  3080               	movlw	128
  8482     0097  00CE               	movwf	(efgtoa@u+2)^(0+128)
  8483     0098  3000               	movlw	0
  8484     0099  00CD               	movwf	(efgtoa@u+1)^(0+128)
  8485     009A  3000               	movlw	0
  8486     009B  00CC               	movwf	efgtoa@u^(0+128)
  8487     009C                     l2898:
  8488                           
  8489                           ;C:\Program Files\Microchip\xc8\v2.50\pic\sources\c99\common\doprnt.c: 658:     e = 0;
  8490     009C  01B3               	clrf	efgtoa@e^(0+128)
  8491     009D  01B4               	clrf	(efgtoa@e+1)^(0+128)
  8492     009E                     l2900:
  8493                           
  8494                           ;C:\Program Files\Microchip\xc8\v2.50\pic\sources\c99\common\doprnt.c: 659:  if (!(g.f =
      +                          = 0.0)) {
  8495     009E  0849               	movf	(efgtoa@g+3)^(0+128),w
  8496     009F  00F3               	movwf	___fleq@ff1+3
  8497     00A0  0848               	movf	(efgtoa@g+2)^(0+128),w
  8498     00A1  00F2               	movwf	___fleq@ff1+2
  8499     00A2  0847               	movf	(efgtoa@g+1)^(0+128),w
  8500     00A3  00F1               	movwf	___fleq@ff1+1
  8501     00A4  0846               	movf	efgtoa@g^(0+128),w
  8502     00A5  00F0               	movwf	___fleq@ff1
  8503     00A6  3000               	movlw	0
  8504     00A7  00F7               	movwf	___fleq@ff2+3
  8505     00A8  3000               	movlw	0
  8506     00A9  00F6               	movwf	___fleq@ff2+2
  8507     00AA  3000               	movlw	0
  8508     00AB  00F5               	movwf	___fleq@ff2+1
  8509     00AC  3000               	movlw	0
  8510     00AD  00F4               	movwf	___fleq@ff2
  8511     00AE  160A  158A  27B2  120A  118A  	fcall	___fleq
  8512     00B3  1803               	btfsc	3,0
  8513     00B4  28B6               	goto	u4501
  8514     00B5  28B7               	goto	u4500
  8515     00B6                     u4501:
  8516     00B6  2A80               	goto	l2926
  8517     00B7                     u4500:
  8518     00B7  28C8               	goto	l2906
  8519     00B8                     l2904:
  8520                           
  8521                           ;C:\Program Files\Microchip\xc8\v2.50\pic\sources\c99\common\doprnt.c: 661:    u = ou;
  8522     00B8  1683               	bsf	3,5	;RP0=1, select bank1
  8523     00B9  1303               	bcf	3,6	;RP1=0, select bank1
  8524     00BA  083A               	movf	(efgtoa@ou+3)^(0+128),w
  8525     00BB  00CF               	movwf	(efgtoa@u+3)^(0+128)
  8526     00BC  0839               	movf	(efgtoa@ou+2)^(0+128),w
  8527     00BD  00CE               	movwf	(efgtoa@u+2)^(0+128)
  8528     00BE  0838               	movf	(efgtoa@ou+1)^(0+128),w
  8529     00BF  00CD               	movwf	(efgtoa@u+1)^(0+128)
  8530     00C0  0837               	movf	efgtoa@ou^(0+128),w
  8531     00C1  00CC               	movwf	efgtoa@u^(0+128)
  8532                           
  8533                           ;C:\Program Files\Microchip\xc8\v2.50\pic\sources\c99\common\doprnt.c: 662:    ++e;
  8534     00C2  3001               	movlw	1
  8535     00C3  07B3               	addwf	efgtoa@e^(0+128),f
  8536     00C4  1803               	skipnc
  8537     00C5  0AB4               	incf	(efgtoa@e+1)^(0+128),f
  8538     00C6  3000               	movlw	0
  8539     00C7  07B4               	addwf	(efgtoa@e+1)^(0+128),f
  8540     00C8                     l2906:
  8541                           
  8542                           ;C:\Program Files\Microchip\xc8\v2.50\pic\sources\c99\common\doprnt.c: 660:   while ((la
      +                          bs((g).u-((ou.f = u.f*10.0,ou)).u) <= 1) || g.f > ou.f) {
  8543     00C8  3041               	movlw	65
  8544     00C9  1283               	bcf	3,5	;RP0=0, select bank0
  8545     00CA  1303               	bcf	3,6	;RP1=0, select bank0
  8546     00CB  00A3               	movwf	___flmul@b+3
  8547     00CC  3020               	movlw	32
  8548     00CD  00A2               	movwf	___flmul@b+2
  8549     00CE  3000               	movlw	0
  8550     00CF  00A1               	movwf	___flmul@b+1
  8551     00D0  3000               	movlw	0
  8552     00D1  00A0               	movwf	___flmul@b
  8553     00D2  1683               	bsf	3,5	;RP0=1, select bank1
  8554     00D3  1303               	bcf	3,6	;RP1=0, select bank1
  8555     00D4  084F               	movf	(efgtoa@u+3)^(0+128),w
  8556     00D5  1283               	bcf	3,5	;RP0=0, select bank0
  8557     00D6  1303               	bcf	3,6	;RP1=0, select bank0
  8558     00D7  00A7               	movwf	___flmul@a+3
  8559     00D8  1683               	bsf	3,5	;RP0=1, select bank1
  8560     00D9  1303               	bcf	3,6	;RP1=0, select bank1
  8561     00DA  084E               	movf	(efgtoa@u+2)^(0+128),w
  8562     00DB  1283               	bcf	3,5	;RP0=0, select bank0
  8563     00DC  1303               	bcf	3,6	;RP1=0, select bank0
  8564     00DD  00A6               	movwf	___flmul@a+2
  8565     00DE  1683               	bsf	3,5	;RP0=1, select bank1
  8566     00DF  1303               	bcf	3,6	;RP1=0, select bank1
  8567     00E0  084D               	movf	(efgtoa@u+1)^(0+128),w
  8568     00E1  1283               	bcf	3,5	;RP0=0, select bank0
  8569     00E2  1303               	bcf	3,6	;RP1=0, select bank0
  8570     00E3  00A5               	movwf	___flmul@a+1
  8571     00E4  1683               	bsf	3,5	;RP0=1, select bank1
  8572     00E5  1303               	bcf	3,6	;RP1=0, select bank1
  8573     00E6  084C               	movf	efgtoa@u^(0+128),w
  8574     00E7  1283               	bcf	3,5	;RP0=0, select bank0
  8575     00E8  1303               	bcf	3,6	;RP1=0, select bank0
  8576     00E9  00A4               	movwf	___flmul@a
  8577     00EA  120A  158A  24BE  120A  118A  	fcall	___flmul
  8578     00EF  1283               	bcf	3,5	;RP0=0, select bank0
  8579     00F0  1303               	bcf	3,6	;RP1=0, select bank0
  8580     00F1  0823               	movf	?___flmul+3,w
  8581     00F2  1683               	bsf	3,5	;RP0=1, select bank1
  8582     00F3  1303               	bcf	3,6	;RP1=0, select bank1
  8583     00F4  00BA               	movwf	(efgtoa@ou+3)^(0+128)
  8584     00F5  1283               	bcf	3,5	;RP0=0, select bank0
  8585     00F6  1303               	bcf	3,6	;RP1=0, select bank0
  8586     00F7  0822               	movf	?___flmul+2,w
  8587     00F8  1683               	bsf	3,5	;RP0=1, select bank1
  8588     00F9  1303               	bcf	3,6	;RP1=0, select bank1
  8589     00FA  00B9               	movwf	(efgtoa@ou+2)^(0+128)
  8590     00FB  1283               	bcf	3,5	;RP0=0, select bank0
  8591     00FC  1303               	bcf	3,6	;RP1=0, select bank0
  8592     00FD  0821               	movf	?___flmul+1,w
  8593     00FE  1683               	bsf	3,5	;RP0=1, select bank1
  8594     00FF  1303               	bcf	3,6	;RP1=0, select bank1
  8595     0100  00B8               	movwf	(efgtoa@ou+1)^(0+128)
  8596     0101  1283               	bcf	3,5	;RP0=0, select bank0
  8597     0102  1303               	bcf	3,6	;RP1=0, select bank0
  8598     0103  0820               	movf	?___flmul,w
  8599     0104  1683               	bsf	3,5	;RP0=1, select bank1
  8600     0105  1303               	bcf	3,6	;RP1=0, select bank1
  8601     0106  00B7               	movwf	efgtoa@ou^(0+128)
  8602     0107                     l2908:
  8603     0107  0846               	movf	efgtoa@g^(0+128),w
  8604     0108  00A0               	movwf	??_efgtoa^(0+128)
  8605     0109  0847               	movf	(efgtoa@g+1)^(0+128),w
  8606     010A  00A1               	movwf	(??_efgtoa^(0+128)+1)
  8607     010B  0848               	movf	(efgtoa@g+2)^(0+128),w
  8608     010C  00A2               	movwf	(??_efgtoa^(0+128)+2)
  8609     010D  0849               	movf	(efgtoa@g+3)^(0+128),w
  8610     010E  00A3               	movwf	(??_efgtoa^(0+128)+3)
  8611     010F  0837               	movf	efgtoa@ou^(0+128),w
  8612     0110  02A0               	subwf	??_efgtoa^(0+128),f
  8613     0111  0838               	movf	(efgtoa@ou+1)^(0+128),w
  8614     0112  1C03               	skipc
  8615     0113  0F38               	incfsz	(efgtoa@ou+1)^(0+128),w
  8616     0114  2916               	goto	u4511
  8617     0115  2917               	goto	u4512
  8618     0116                     u4511:
  8619     0116  02A1               	subwf	(??_efgtoa^(0+128)+1),f
  8620     0117                     u4512:
  8621     0117  0839               	movf	(efgtoa@ou+2)^(0+128),w
  8622     0118  1C03               	skipc
  8623     0119  0F39               	incfsz	(efgtoa@ou+2)^(0+128),w
  8624     011A  291C               	goto	u4513
  8625     011B  291D               	goto	u4514
  8626     011C                     u4513:
  8627     011C  02A2               	subwf	(??_efgtoa^(0+128)+2),f
  8628     011D                     u4514:
  8629     011D  083A               	movf	(efgtoa@ou+3)^(0+128),w
  8630     011E  1C03               	skipc
  8631     011F  0F3A               	incfsz	(efgtoa@ou+3)^(0+128),w
  8632     0120  2922               	goto	u4515
  8633     0121  2923               	goto	u4516
  8634     0122                     u4515:
  8635     0122  02A3               	subwf	(??_efgtoa^(0+128)+3),f
  8636     0123                     u4516:
  8637     0123  0823               	movf	(??_efgtoa+3)^(0+128),w
  8638     0124  00F3               	movwf	labs@a+3
  8639     0125  0822               	movf	(??_efgtoa+2)^(0+128),w
  8640     0126  00F2               	movwf	labs@a+2
  8641     0127  0821               	movf	(??_efgtoa+1)^(0+128),w
  8642     0128  00F1               	movwf	labs@a+1
  8643     0129  0820               	movf	??_efgtoa^(0+128),w
  8644     012A  00F0               	movwf	labs@a
  8645     012B  160A  158A  2630  120A  118A  	fcall	_labs
  8646     0130  1BF3               	btfsc	?_labs+3,7
  8647     0131  2942               	goto	u4521
  8648     0132  0873               	movf	?_labs+3,w
  8649     0133  1D03               	btfss	3,2
  8650     0134  2943               	goto	u4520
  8651     0135  0872               	movf	?_labs+2,w
  8652     0136  1D03               	btfss	3,2
  8653     0137  2943               	goto	u4520
  8654     0138  0871               	movf	?_labs+1,w
  8655     0139  1D03               	btfss	3,2
  8656     013A  2943               	goto	u4520
  8657     013B  3002               	movlw	2
  8658     013C  0270               	subwf	?_labs,w
  8659     013D  1D03               	skipz
  8660     013E  293F               	goto	u4523
  8661     013F                     u4523:
  8662     013F  1C03               	btfss	3,0
  8663     0140  2942               	goto	u4521
  8664     0141  2943               	goto	u4520
  8665     0142                     u4521:
  8666     0142  28B8               	goto	l2904
  8667     0143                     u4520:
  8668     0143                     l2910:
  8669     0143  1683               	bsf	3,5	;RP0=1, select bank1
  8670     0144  1303               	bcf	3,6	;RP1=0, select bank1
  8671     0145  083A               	movf	(efgtoa@ou+3)^(0+128),w
  8672     0146  1283               	bcf	3,5	;RP0=0, select bank0
  8673     0147  1303               	bcf	3,6	;RP1=0, select bank0
  8674     0148  00BD               	movwf	___flge@ff1+3
  8675     0149  1683               	bsf	3,5	;RP0=1, select bank1
  8676     014A  1303               	bcf	3,6	;RP1=0, select bank1
  8677     014B  0839               	movf	(efgtoa@ou+2)^(0+128),w
  8678     014C  1283               	bcf	3,5	;RP0=0, select bank0
  8679     014D  1303               	bcf	3,6	;RP1=0, select bank0
  8680     014E  00BC               	movwf	___flge@ff1+2
  8681     014F  1683               	bsf	3,5	;RP0=1, select bank1
  8682     0150  1303               	bcf	3,6	;RP1=0, select bank1
  8683     0151  0838               	movf	(efgtoa@ou+1)^(0+128),w
  8684     0152  1283               	bcf	3,5	;RP0=0, select bank0
  8685     0153  1303               	bcf	3,6	;RP1=0, select bank0
  8686     0154  00BB               	movwf	___flge@ff1+1
  8687     0155  1683               	bsf	3,5	;RP0=1, select bank1
  8688     0156  1303               	bcf	3,6	;RP1=0, select bank1
  8689     0157  0837               	movf	efgtoa@ou^(0+128),w
  8690     0158  1283               	bcf	3,5	;RP0=0, select bank0
  8691     0159  1303               	bcf	3,6	;RP1=0, select bank0
  8692     015A  00BA               	movwf	___flge@ff1
  8693     015B  1683               	bsf	3,5	;RP0=1, select bank1
  8694     015C  1303               	bcf	3,6	;RP1=0, select bank1
  8695     015D  0849               	movf	(efgtoa@g+3)^(0+128),w
  8696     015E  1283               	bcf	3,5	;RP0=0, select bank0
  8697     015F  1303               	bcf	3,6	;RP1=0, select bank0
  8698     0160  00C1               	movwf	___flge@ff2+3
  8699     0161  1683               	bsf	3,5	;RP0=1, select bank1
  8700     0162  1303               	bcf	3,6	;RP1=0, select bank1
  8701     0163  0848               	movf	(efgtoa@g+2)^(0+128),w
  8702     0164  1283               	bcf	3,5	;RP0=0, select bank0
  8703     0165  1303               	bcf	3,6	;RP1=0, select bank0
  8704     0166  00C0               	movwf	___flge@ff2+2
  8705     0167  1683               	bsf	3,5	;RP0=1, select bank1
  8706     0168  1303               	bcf	3,6	;RP1=0, select bank1
  8707     0169  0847               	movf	(efgtoa@g+1)^(0+128),w
  8708     016A  1283               	bcf	3,5	;RP0=0, select bank0
  8709     016B  1303               	bcf	3,6	;RP1=0, select bank0
  8710     016C  00BF               	movwf	___flge@ff2+1
  8711     016D  1683               	bsf	3,5	;RP0=1, select bank1
  8712     016E  1303               	bcf	3,6	;RP1=0, select bank1
  8713     016F  0846               	movf	efgtoa@g^(0+128),w
  8714     0170  1283               	bcf	3,5	;RP0=0, select bank0
  8715     0171  1303               	bcf	3,6	;RP1=0, select bank0
  8716     0172  00BE               	movwf	___flge@ff2
  8717     0173  160A  118A  217C  120A  118A  	fcall	___flge
  8718     0178  1C03               	btfss	3,0
  8719     0179  297B               	goto	u4531
  8720     017A  297C               	goto	u4530
  8721     017B                     u4531:
  8722     017B  28B8               	goto	l2904
  8723     017C                     u4530:
  8724     017C                     l2912:
  8725                           
  8726                           ;C:\Program Files\Microchip\xc8\v2.50\pic\sources\c99\common\doprnt.c: 664:   if ((labs(
      +                          (g).u-(u).u) <= 1)) {
  8727     017C  1683               	bsf	3,5	;RP0=1, select bank1
  8728     017D  1303               	bcf	3,6	;RP1=0, select bank1
  8729     017E  0846               	movf	efgtoa@g^(0+128),w
  8730     017F  00A0               	movwf	??_efgtoa^(0+128)
  8731     0180  0847               	movf	(efgtoa@g+1)^(0+128),w
  8732     0181  00A1               	movwf	(??_efgtoa^(0+128)+1)
  8733     0182  0848               	movf	(efgtoa@g+2)^(0+128),w
  8734     0183  00A2               	movwf	(??_efgtoa^(0+128)+2)
  8735     0184  0849               	movf	(efgtoa@g+3)^(0+128),w
  8736     0185  00A3               	movwf	(??_efgtoa^(0+128)+3)
  8737     0186  084C               	movf	efgtoa@u^(0+128),w
  8738     0187  02A0               	subwf	??_efgtoa^(0+128),f
  8739     0188  084D               	movf	(efgtoa@u+1)^(0+128),w
  8740     0189  1C03               	skipc
  8741     018A  0F4D               	incfsz	(efgtoa@u+1)^(0+128),w
  8742     018B  298D               	goto	u4541
  8743     018C  298E               	goto	u4542
  8744     018D                     u4541:
  8745     018D  02A1               	subwf	(??_efgtoa^(0+128)+1),f
  8746     018E                     u4542:
  8747     018E  084E               	movf	(efgtoa@u+2)^(0+128),w
  8748     018F  1C03               	skipc
  8749     0190  0F4E               	incfsz	(efgtoa@u+2)^(0+128),w
  8750     0191  2993               	goto	u4543
  8751     0192  2994               	goto	u4544
  8752     0193                     u4543:
  8753     0193  02A2               	subwf	(??_efgtoa^(0+128)+2),f
  8754     0194                     u4544:
  8755     0194  084F               	movf	(efgtoa@u+3)^(0+128),w
  8756     0195  1C03               	skipc
  8757     0196  0F4F               	incfsz	(efgtoa@u+3)^(0+128),w
  8758     0197  2999               	goto	u4545
  8759     0198  299A               	goto	u4546
  8760     0199                     u4545:
  8761     0199  02A3               	subwf	(??_efgtoa^(0+128)+3),f
  8762     019A                     u4546:
  8763     019A  0823               	movf	(??_efgtoa+3)^(0+128),w
  8764     019B  00F3               	movwf	labs@a+3
  8765     019C  0822               	movf	(??_efgtoa+2)^(0+128),w
  8766     019D  00F2               	movwf	labs@a+2
  8767     019E  0821               	movf	(??_efgtoa+1)^(0+128),w
  8768     019F  00F1               	movwf	labs@a+1
  8769     01A0  0820               	movf	??_efgtoa^(0+128),w
  8770     01A1  00F0               	movwf	labs@a
  8771     01A2  160A  158A  2630  120A  118A  	fcall	_labs
  8772     01A7  1BF3               	btfsc	?_labs+3,7
  8773     01A8  29BA               	goto	u4550
  8774     01A9  0873               	movf	?_labs+3,w
  8775     01AA  1D03               	btfss	3,2
  8776     01AB  29B9               	goto	u4551
  8777     01AC  0872               	movf	?_labs+2,w
  8778     01AD  1D03               	btfss	3,2
  8779     01AE  29B9               	goto	u4551
  8780     01AF  0871               	movf	?_labs+1,w
  8781     01B0  1D03               	btfss	3,2
  8782     01B1  29B9               	goto	u4551
  8783     01B2  3002               	movlw	2
  8784     01B3  0270               	subwf	?_labs,w
  8785     01B4  1D03               	skipz
  8786     01B5  29B6               	goto	u4553
  8787     01B6                     u4553:
  8788     01B6  1803               	btfsc	3,0
  8789     01B7  29B9               	goto	u4551
  8790     01B8  29BA               	goto	u4550
  8791     01B9                     u4551:
  8792     01B9  2A47               	goto	l2924
  8793     01BA                     u4550:
  8794     01BA                     l2914:
  8795                           
  8796                           ;C:\Program Files\Microchip\xc8\v2.50\pic\sources\c99\common\doprnt.c: 665:    g = u;
  8797     01BA  1683               	bsf	3,5	;RP0=1, select bank1
  8798     01BB  1303               	bcf	3,6	;RP1=0, select bank1
  8799     01BC  084F               	movf	(efgtoa@u+3)^(0+128),w
  8800     01BD  00C9               	movwf	(efgtoa@g+3)^(0+128)
  8801     01BE  084E               	movf	(efgtoa@u+2)^(0+128),w
  8802     01BF  00C8               	movwf	(efgtoa@g+2)^(0+128)
  8803     01C0  084D               	movf	(efgtoa@u+1)^(0+128),w
  8804     01C1  00C7               	movwf	(efgtoa@g+1)^(0+128)
  8805     01C2  084C               	movf	efgtoa@u^(0+128),w
  8806     01C3  00C6               	movwf	efgtoa@g^(0+128)
  8807                           
  8808                           ;C:\Program Files\Microchip\xc8\v2.50\pic\sources\c99\common\doprnt.c: 666:   }
  8809     01C4  2A80               	goto	l2926
  8810     01C5                     l2916:
  8811                           
  8812                           ;C:\Program Files\Microchip\xc8\v2.50\pic\sources\c99\common\doprnt.c: 669:     u.f = u.
      +                          f/10.0;
  8813     01C5  3041               	movlw	65
  8814     01C6  1283               	bcf	3,5	;RP0=0, select bank0
  8815     01C7  1303               	bcf	3,6	;RP1=0, select bank0
  8816     01C8  00BD               	movwf	___fldiv@a+3
  8817     01C9  3020               	movlw	32
  8818     01CA  00BC               	movwf	___fldiv@a+2
  8819     01CB  3000               	movlw	0
  8820     01CC  00BB               	movwf	___fldiv@a+1
  8821     01CD  3000               	movlw	0
  8822     01CE  00BA               	movwf	___fldiv@a
  8823     01CF  1683               	bsf	3,5	;RP0=1, select bank1
  8824     01D0  1303               	bcf	3,6	;RP1=0, select bank1
  8825     01D1  084F               	movf	(efgtoa@u+3)^(0+128),w
  8826     01D2  1283               	bcf	3,5	;RP0=0, select bank0
  8827     01D3  1303               	bcf	3,6	;RP1=0, select bank0
  8828     01D4  00C1               	movwf	___fldiv@b+3
  8829     01D5  1683               	bsf	3,5	;RP0=1, select bank1
  8830     01D6  1303               	bcf	3,6	;RP1=0, select bank1
  8831     01D7  084E               	movf	(efgtoa@u+2)^(0+128),w
  8832     01D8  1283               	bcf	3,5	;RP0=0, select bank0
  8833     01D9  1303               	bcf	3,6	;RP1=0, select bank0
  8834     01DA  00C0               	movwf	___fldiv@b+2
  8835     01DB  1683               	bsf	3,5	;RP0=1, select bank1
  8836     01DC  1303               	bcf	3,6	;RP1=0, select bank1
  8837     01DD  084D               	movf	(efgtoa@u+1)^(0+128),w
  8838     01DE  1283               	bcf	3,5	;RP0=0, select bank0
  8839     01DF  1303               	bcf	3,6	;RP1=0, select bank0
  8840     01E0  00BF               	movwf	___fldiv@b+1
  8841     01E1  1683               	bsf	3,5	;RP0=1, select bank1
  8842     01E2  1303               	bcf	3,6	;RP1=0, select bank1
  8843     01E3  084C               	movf	efgtoa@u^(0+128),w
  8844     01E4  1283               	bcf	3,5	;RP0=0, select bank0
  8845     01E5  1303               	bcf	3,6	;RP1=0, select bank0
  8846     01E6  00BE               	movwf	___fldiv@b
  8847     01E7  120A  158A  2098  120A  118A  	fcall	___fldiv
  8848     01EC  1283               	bcf	3,5	;RP0=0, select bank0
  8849     01ED  1303               	bcf	3,6	;RP1=0, select bank0
  8850     01EE  083D               	movf	?___fldiv+3,w
  8851     01EF  1683               	bsf	3,5	;RP0=1, select bank1
  8852     01F0  1303               	bcf	3,6	;RP1=0, select bank1
  8853     01F1  00CF               	movwf	(efgtoa@u+3)^(0+128)
  8854     01F2  1283               	bcf	3,5	;RP0=0, select bank0
  8855     01F3  1303               	bcf	3,6	;RP1=0, select bank0
  8856     01F4  083C               	movf	?___fldiv+2,w
  8857     01F5  1683               	bsf	3,5	;RP0=1, select bank1
  8858     01F6  1303               	bcf	3,6	;RP1=0, select bank1
  8859     01F7  00CE               	movwf	(efgtoa@u+2)^(0+128)
  8860     01F8  1283               	bcf	3,5	;RP0=0, select bank0
  8861     01F9  1303               	bcf	3,6	;RP1=0, select bank0
  8862     01FA  083B               	movf	?___fldiv+1,w
  8863     01FB  1683               	bsf	3,5	;RP0=1, select bank1
  8864     01FC  1303               	bcf	3,6	;RP1=0, select bank1
  8865     01FD  00CD               	movwf	(efgtoa@u+1)^(0+128)
  8866     01FE  1283               	bcf	3,5	;RP0=0, select bank0
  8867     01FF  1303               	bcf	3,6	;RP1=0, select bank0
  8868     0200  083A               	movf	?___fldiv,w
  8869     0201  1683               	bsf	3,5	;RP0=1, select bank1
  8870     0202  1303               	bcf	3,6	;RP1=0, select bank1
  8871     0203  00CC               	movwf	efgtoa@u^(0+128)
  8872     0204                     l2918:
  8873                           
  8874                           ;C:\Program Files\Microchip\xc8\v2.50\pic\sources\c99\common\doprnt.c: 670:     --e;
  8875     0204  30FF               	movlw	255
  8876     0205  07B3               	addwf	efgtoa@e^(0+128),f
  8877     0206  1803               	skipnc
  8878     0207  0AB4               	incf	(efgtoa@e+1)^(0+128),f
  8879     0208  30FF               	movlw	255
  8880     0209  07B4               	addwf	(efgtoa@e+1)^(0+128),f
  8881     020A                     l2920:
  8882                           
  8883                           ;C:\Program Files\Microchip\xc8\v2.50\pic\sources\c99\common\doprnt.c: 671:     if ((lab
      +                          s((g).u-(u).u) <= 1)) {
  8884     020A  0846               	movf	efgtoa@g^(0+128),w
  8885     020B  00A0               	movwf	??_efgtoa^(0+128)
  8886     020C  0847               	movf	(efgtoa@g+1)^(0+128),w
  8887     020D  00A1               	movwf	(??_efgtoa^(0+128)+1)
  8888     020E  0848               	movf	(efgtoa@g+2)^(0+128),w
  8889     020F  00A2               	movwf	(??_efgtoa^(0+128)+2)
  8890     0210  0849               	movf	(efgtoa@g+3)^(0+128),w
  8891     0211  00A3               	movwf	(??_efgtoa^(0+128)+3)
  8892     0212  084C               	movf	efgtoa@u^(0+128),w
  8893     0213  02A0               	subwf	??_efgtoa^(0+128),f
  8894     0214  084D               	movf	(efgtoa@u+1)^(0+128),w
  8895     0215  1C03               	skipc
  8896     0216  0F4D               	incfsz	(efgtoa@u+1)^(0+128),w
  8897     0217  2A19               	goto	u4561
  8898     0218  2A1A               	goto	u4562
  8899     0219                     u4561:
  8900     0219  02A1               	subwf	(??_efgtoa^(0+128)+1),f
  8901     021A                     u4562:
  8902     021A  084E               	movf	(efgtoa@u+2)^(0+128),w
  8903     021B  1C03               	skipc
  8904     021C  0F4E               	incfsz	(efgtoa@u+2)^(0+128),w
  8905     021D  2A1F               	goto	u4563
  8906     021E  2A20               	goto	u4564
  8907     021F                     u4563:
  8908     021F  02A2               	subwf	(??_efgtoa^(0+128)+2),f
  8909     0220                     u4564:
  8910     0220  084F               	movf	(efgtoa@u+3)^(0+128),w
  8911     0221  1C03               	skipc
  8912     0222  0F4F               	incfsz	(efgtoa@u+3)^(0+128),w
  8913     0223  2A25               	goto	u4565
  8914     0224  2A26               	goto	u4566
  8915     0225                     u4565:
  8916     0225  02A3               	subwf	(??_efgtoa^(0+128)+3),f
  8917     0226                     u4566:
  8918     0226  0823               	movf	(??_efgtoa+3)^(0+128),w
  8919     0227  00F3               	movwf	labs@a+3
  8920     0228  0822               	movf	(??_efgtoa+2)^(0+128),w
  8921     0229  00F2               	movwf	labs@a+2
  8922     022A  0821               	movf	(??_efgtoa+1)^(0+128),w
  8923     022B  00F1               	movwf	labs@a+1
  8924     022C  0820               	movf	??_efgtoa^(0+128),w
  8925     022D  00F0               	movwf	labs@a
  8926     022E  160A  158A  2630  120A  118A  	fcall	_labs
  8927     0233  1BF3               	btfsc	?_labs+3,7
  8928     0234  2A46               	goto	u4570
  8929     0235  0873               	movf	?_labs+3,w
  8930     0236  1D03               	btfss	3,2
  8931     0237  2A45               	goto	u4571
  8932     0238  0872               	movf	?_labs+2,w
  8933     0239  1D03               	btfss	3,2
  8934     023A  2A45               	goto	u4571
  8935     023B  0871               	movf	?_labs+1,w
  8936     023C  1D03               	btfss	3,2
  8937     023D  2A45               	goto	u4571
  8938     023E  3002               	movlw	2
  8939     023F  0270               	subwf	?_labs,w
  8940     0240  1D03               	skipz
  8941     0241  2A42               	goto	u4573
  8942     0242                     u4573:
  8943     0242  1803               	btfsc	3,0
  8944     0243  2A45               	goto	u4571
  8945     0244  2A46               	goto	u4570
  8946     0245                     u4571:
  8947     0245  2A47               	goto	l2924
  8948     0246                     u4570:
  8949     0246  29BA               	goto	l2914
  8950     0247                     l2924:
  8951                           
  8952                           ;C:\Program Files\Microchip\xc8\v2.50\pic\sources\c99\common\doprnt.c: 668:    while (g.
      +                          f < u.f) {
  8953     0247  1683               	bsf	3,5	;RP0=1, select bank1
  8954     0248  1303               	bcf	3,6	;RP1=0, select bank1
  8955     0249  0849               	movf	(efgtoa@g+3)^(0+128),w
  8956     024A  1283               	bcf	3,5	;RP0=0, select bank0
  8957     024B  1303               	bcf	3,6	;RP1=0, select bank0
  8958     024C  00BD               	movwf	___flge@ff1+3
  8959     024D  1683               	bsf	3,5	;RP0=1, select bank1
  8960     024E  1303               	bcf	3,6	;RP1=0, select bank1
  8961     024F  0848               	movf	(efgtoa@g+2)^(0+128),w
  8962     0250  1283               	bcf	3,5	;RP0=0, select bank0
  8963     0251  1303               	bcf	3,6	;RP1=0, select bank0
  8964     0252  00BC               	movwf	___flge@ff1+2
  8965     0253  1683               	bsf	3,5	;RP0=1, select bank1
  8966     0254  1303               	bcf	3,6	;RP1=0, select bank1
  8967     0255  0847               	movf	(efgtoa@g+1)^(0+128),w
  8968     0256  1283               	bcf	3,5	;RP0=0, select bank0
  8969     0257  1303               	bcf	3,6	;RP1=0, select bank0
  8970     0258  00BB               	movwf	___flge@ff1+1
  8971     0259  1683               	bsf	3,5	;RP0=1, select bank1
  8972     025A  1303               	bcf	3,6	;RP1=0, select bank1
  8973     025B  0846               	movf	efgtoa@g^(0+128),w
  8974     025C  1283               	bcf	3,5	;RP0=0, select bank0
  8975     025D  1303               	bcf	3,6	;RP1=0, select bank0
  8976     025E  00BA               	movwf	___flge@ff1
  8977     025F  1683               	bsf	3,5	;RP0=1, select bank1
  8978     0260  1303               	bcf	3,6	;RP1=0, select bank1
  8979     0261  084F               	movf	(efgtoa@u+3)^(0+128),w
  8980     0262  1283               	bcf	3,5	;RP0=0, select bank0
  8981     0263  1303               	bcf	3,6	;RP1=0, select bank0
  8982     0264  00C1               	movwf	___flge@ff2+3
  8983     0265  1683               	bsf	3,5	;RP0=1, select bank1
  8984     0266  1303               	bcf	3,6	;RP1=0, select bank1
  8985     0267  084E               	movf	(efgtoa@u+2)^(0+128),w
  8986     0268  1283               	bcf	3,5	;RP0=0, select bank0
  8987     0269  1303               	bcf	3,6	;RP1=0, select bank0
  8988     026A  00C0               	movwf	___flge@ff2+2
  8989     026B  1683               	bsf	3,5	;RP0=1, select bank1
  8990     026C  1303               	bcf	3,6	;RP1=0, select bank1
  8991     026D  084D               	movf	(efgtoa@u+1)^(0+128),w
  8992     026E  1283               	bcf	3,5	;RP0=0, select bank0
  8993     026F  1303               	bcf	3,6	;RP1=0, select bank0
  8994     0270  00BF               	movwf	___flge@ff2+1
  8995     0271  1683               	bsf	3,5	;RP0=1, select bank1
  8996     0272  1303               	bcf	3,6	;RP1=0, select bank1
  8997     0273  084C               	movf	efgtoa@u^(0+128),w
  8998     0274  1283               	bcf	3,5	;RP0=0, select bank0
  8999     0275  1303               	bcf	3,6	;RP1=0, select bank0
  9000     0276  00BE               	movwf	___flge@ff2
  9001     0277  160A  118A  217C  120A  118A  	fcall	___flge
  9002     027C  1C03               	btfss	3,0
  9003     027D  2A7F               	goto	u4581
  9004     027E  2A80               	goto	u4580
  9005     027F                     u4581:
  9006     027F  29C5               	goto	l2916
  9007     0280                     u4580:
  9008     0280                     l2926:
  9009                           
  9010                           ;C:\Program Files\Microchip\xc8\v2.50\pic\sources\c99\common\doprnt.c: 683:  mode = c;
  9011     0280  1283               	bcf	3,5	;RP0=0, select bank0
  9012     0281  1303               	bcf	3,6	;RP1=0, select bank0
  9013     0282  086E               	movf	efgtoa@c,w
  9014     0283  1683               	bsf	3,5	;RP0=1, select bank1
  9015     0284  1303               	bcf	3,6	;RP1=0, select bank1
  9016     0285  00AD               	movwf	efgtoa@mode^(0+128)
  9017                           
  9018                           ;C:\Program Files\Microchip\xc8\v2.50\pic\sources\c99\common\doprnt.c: 685:     nmode = 
      +                          mode;
  9019     0286  082D               	movf	efgtoa@mode^(0+128),w
  9020     0287  00AE               	movwf	efgtoa@nmode^(0+128)
  9021     0288                     l2928:
  9022                           
  9023                           ;C:\Program Files\Microchip\xc8\v2.50\pic\sources\c99\common\doprnt.c: 695:  {;C:\Progra
      +                          m Files\Microchip\xc8\v2.50\pic\sources\c99\common\doprnt.c: 696:         p = (prec < 0)
      +                           ? 6 : prec;
  9024     0288  1BEE               	btfsc	(_prec+1)^(0+128),7
  9025     0289  2A8B               	goto	u4591
  9026     028A  2A8C               	goto	u4590
  9027     028B                     u4591:
  9028     028B  2A91               	goto	l2932
  9029     028C                     u4590:
  9030     028C                     l2930:
  9031     028C  086E               	movf	(_prec+1)^(0+128),w
  9032     028D  00A7               	movwf	(efgtoa@p+1)^(0+128)
  9033     028E  086D               	movf	_prec^(0+128),w
  9034     028F  00A6               	movwf	efgtoa@p^(0+128)
  9035     0290  2A95               	goto	l677
  9036     0291                     l2932:
  9037     0291  3006               	movlw	6
  9038     0292  00A6               	movwf	efgtoa@p^(0+128)
  9039     0293  3000               	movlw	0
  9040     0294  00A7               	movwf	(efgtoa@p^(0+128)+1)
  9041     0295                     l677:
  9042                           
  9043                           ;C:\Program Files\Microchip\xc8\v2.50\pic\sources\c99\common\doprnt.c: 697:     };C:\Pro
      +                          gram Files\Microchip\xc8\v2.50\pic\sources\c99\common\doprnt.c: 711:     m = p;
  9044     0295  0827               	movf	(efgtoa@p+1)^(0+128),w
  9045     0296  00B2               	movwf	(efgtoa@m+1)^(0+128)
  9046     0297  0826               	movf	efgtoa@p^(0+128),w
  9047     0298  00B1               	movwf	efgtoa@m^(0+128)
  9048                           
  9049                           ;C:\Program Files\Microchip\xc8\v2.50\pic\sources\c99\common\doprnt.c: 715:  {;C:\Progra
      +                          m Files\Microchip\xc8\v2.50\pic\sources\c99\common\doprnt.c: 716:         ++m;
  9050     0299  3001               	movlw	1
  9051     029A  07B1               	addwf	efgtoa@m^(0+128),f
  9052     029B  1803               	skipnc
  9053     029C  0AB2               	incf	(efgtoa@m+1)^(0+128),f
  9054     029D  3000               	movlw	0
  9055     029E  07B2               	addwf	(efgtoa@m+1)^(0+128),f
  9056     029F                     l2934:
  9057                           
  9058                           ;C:\Program Files\Microchip\xc8\v2.50\pic\sources\c99\common\doprnt.c: 717:     };C:\Pro
      +                          gram Files\Microchip\xc8\v2.50\pic\sources\c99\common\doprnt.c: 721:     if (nmode == 'f
      +                          ') {
  9059     029F  3066               	movlw	102
  9060     02A0  062E               	xorwf	efgtoa@nmode^(0+128),w
  9061     02A1  1D03               	btfss	3,2
  9062     02A2  2AA4               	goto	u4601
  9063     02A3  2AA5               	goto	u4600
  9064     02A4                     u4601:
  9065     02A4  2ABF               	goto	l2946
  9066     02A5                     u4600:
  9067     02A5                     l2936:
  9068                           
  9069                           ;C:\Program Files\Microchip\xc8\v2.50\pic\sources\c99\common\doprnt.c: 722:         if (
      +                          e < 0) {
  9070     02A5  1FB4               	btfss	(efgtoa@e+1)^(0+128),7
  9071     02A6  2AA8               	goto	u4611
  9072     02A7  2AA9               	goto	u4610
  9073     02A8                     u4611:
  9074     02A8  2AB3               	goto	l2942
  9075     02A9                     u4610:
  9076     02A9                     l2938:
  9077                           
  9078                           ;C:\Program Files\Microchip\xc8\v2.50\pic\sources\c99\common\doprnt.c: 723:             
      +                          u.f = 1.0;
  9079     02A9  303F               	movlw	63
  9080     02AA  00CF               	movwf	(efgtoa@u+3)^(0+128)
  9081     02AB  3080               	movlw	128
  9082     02AC  00CE               	movwf	(efgtoa@u+2)^(0+128)
  9083     02AD  3000               	movlw	0
  9084     02AE  00CD               	movwf	(efgtoa@u+1)^(0+128)
  9085     02AF  3000               	movlw	0
  9086     02B0  00CC               	movwf	efgtoa@u^(0+128)
  9087     02B1                     l2940:
  9088                           
  9089                           ;C:\Program Files\Microchip\xc8\v2.50\pic\sources\c99\common\doprnt.c: 724:             
      +                          e = 0;
  9090     02B1  01B3               	clrf	efgtoa@e^(0+128)
  9091     02B2  01B4               	clrf	(efgtoa@e+1)^(0+128)
  9092     02B3                     l2942:
  9093                           
  9094                           ;C:\Program Files\Microchip\xc8\v2.50\pic\sources\c99\common\doprnt.c: 726:         if (
      +                          !(mode == 'g')) {
  9095     02B3  3067               	movlw	103
  9096     02B4  062D               	xorwf	efgtoa@mode^(0+128),w
  9097     02B5  1903               	btfsc	3,2
  9098     02B6  2AB8               	goto	u4621
  9099     02B7  2AB9               	goto	u4620
  9100     02B8                     u4621:
  9101     02B8  2ABF               	goto	l2946
  9102     02B9                     u4620:
  9103     02B9                     l2944:
  9104                           
  9105                           ;C:\Program Files\Microchip\xc8\v2.50\pic\sources\c99\common\doprnt.c: 727:             
      +                          m += e;
  9106     02B9  0833               	movf	efgtoa@e^(0+128),w
  9107     02BA  07B1               	addwf	efgtoa@m^(0+128),f
  9108     02BB  1803               	skipnc
  9109     02BC  0AB2               	incf	(efgtoa@m+1)^(0+128),f
  9110     02BD  0834               	movf	(efgtoa@e+1)^(0+128),w
  9111     02BE  07B2               	addwf	(efgtoa@m+1)^(0+128),f
  9112     02BF                     l2946:
  9113                           
  9114                           ;C:\Program Files\Microchip\xc8\v2.50\pic\sources\c99\common\doprnt.c: 733:     i = 0;
  9115     02BF  01C3               	clrf	efgtoa@i^(0+128)
  9116     02C0  01C4               	clrf	(efgtoa@i+1)^(0+128)
  9117     02C1                     l2948:
  9118                           
  9119                           ;C:\Program Files\Microchip\xc8\v2.50\pic\sources\c99\common\doprnt.c: 734:     h = g.f;
  9120     02C1  0849               	movf	(efgtoa@g+3)^(0+128),w
  9121     02C2  00BE               	movwf	(efgtoa@h+3)^(0+128)
  9122     02C3  0848               	movf	(efgtoa@g+2)^(0+128),w
  9123     02C4  00BD               	movwf	(efgtoa@h+2)^(0+128)
  9124     02C5  0847               	movf	(efgtoa@g+1)^(0+128),w
  9125     02C6  00BC               	movwf	(efgtoa@h+1)^(0+128)
  9126     02C7  0846               	movf	efgtoa@g^(0+128),w
  9127     02C8  00BB               	movwf	efgtoa@h^(0+128)
  9128     02C9                     l2950:
  9129                           
  9130                           ;C:\Program Files\Microchip\xc8\v2.50\pic\sources\c99\common\doprnt.c: 735:     ou = u;
  9131     02C9  084F               	movf	(efgtoa@u+3)^(0+128),w
  9132     02CA  00BA               	movwf	(efgtoa@ou+3)^(0+128)
  9133     02CB  084E               	movf	(efgtoa@u+2)^(0+128),w
  9134     02CC  00B9               	movwf	(efgtoa@ou+2)^(0+128)
  9135     02CD  084D               	movf	(efgtoa@u+1)^(0+128),w
  9136     02CE  00B8               	movwf	(efgtoa@ou+1)^(0+128)
  9137     02CF  084C               	movf	efgtoa@u^(0+128),w
  9138     02D0  00B7               	movwf	efgtoa@ou^(0+128)
  9139                           
  9140                           ;C:\Program Files\Microchip\xc8\v2.50\pic\sources\c99\common\doprnt.c: 736:     while (i
      +                           < m) {
  9141     02D1  2BF8               	goto	l2962
  9142     02D2                     l2952:
  9143                           
  9144                           ;C:\Program Files\Microchip\xc8\v2.50\pic\sources\c99\common\doprnt.c: 737:         l = 
      +                          floorf(h/u.f);
  9145     02D2  1683               	bsf	3,5	;RP0=1, select bank1
  9146     02D3  1303               	bcf	3,6	;RP1=0, select bank1
  9147     02D4  084F               	movf	(efgtoa@u+3)^(0+128),w
  9148     02D5  1283               	bcf	3,5	;RP0=0, select bank0
  9149     02D6  1303               	bcf	3,6	;RP1=0, select bank0
  9150     02D7  00BD               	movwf	___fldiv@a+3
  9151     02D8  1683               	bsf	3,5	;RP0=1, select bank1
  9152     02D9  1303               	bcf	3,6	;RP1=0, select bank1
  9153     02DA  084E               	movf	(efgtoa@u+2)^(0+128),w
  9154     02DB  1283               	bcf	3,5	;RP0=0, select bank0
  9155     02DC  1303               	bcf	3,6	;RP1=0, select bank0
  9156     02DD  00BC               	movwf	___fldiv@a+2
  9157     02DE  1683               	bsf	3,5	;RP0=1, select bank1
  9158     02DF  1303               	bcf	3,6	;RP1=0, select bank1
  9159     02E0  084D               	movf	(efgtoa@u+1)^(0+128),w
  9160     02E1  1283               	bcf	3,5	;RP0=0, select bank0
  9161     02E2  1303               	bcf	3,6	;RP1=0, select bank0
  9162     02E3  00BB               	movwf	___fldiv@a+1
  9163     02E4  1683               	bsf	3,5	;RP0=1, select bank1
  9164     02E5  1303               	bcf	3,6	;RP1=0, select bank1
  9165     02E6  084C               	movf	efgtoa@u^(0+128),w
  9166     02E7  1283               	bcf	3,5	;RP0=0, select bank0
  9167     02E8  1303               	bcf	3,6	;RP1=0, select bank0
  9168     02E9  00BA               	movwf	___fldiv@a
  9169     02EA  1683               	bsf	3,5	;RP0=1, select bank1
  9170     02EB  1303               	bcf	3,6	;RP1=0, select bank1
  9171     02EC  083E               	movf	(efgtoa@h+3)^(0+128),w
  9172     02ED  1283               	bcf	3,5	;RP0=0, select bank0
  9173     02EE  1303               	bcf	3,6	;RP1=0, select bank0
  9174     02EF  00C1               	movwf	___fldiv@b+3
  9175     02F0  1683               	bsf	3,5	;RP0=1, select bank1
  9176     02F1  1303               	bcf	3,6	;RP1=0, select bank1
  9177     02F2  083D               	movf	(efgtoa@h+2)^(0+128),w
  9178     02F3  1283               	bcf	3,5	;RP0=0, select bank0
  9179     02F4  1303               	bcf	3,6	;RP1=0, select bank0
  9180     02F5  00C0               	movwf	___fldiv@b+2
  9181     02F6  1683               	bsf	3,5	;RP0=1, select bank1
  9182     02F7  1303               	bcf	3,6	;RP1=0, select bank1
  9183     02F8  083C               	movf	(efgtoa@h+1)^(0+128),w
  9184     02F9  1283               	bcf	3,5	;RP0=0, select bank0
  9185     02FA  1303               	bcf	3,6	;RP1=0, select bank0
  9186     02FB  00BF               	movwf	___fldiv@b+1
  9187     02FC  1683               	bsf	3,5	;RP0=1, select bank1
  9188     02FD  1303               	bcf	3,6	;RP1=0, select bank1
  9189     02FE  083B               	movf	efgtoa@h^(0+128),w
  9190     02FF  1283               	bcf	3,5	;RP0=0, select bank0
  9191     0300  1303               	bcf	3,6	;RP1=0, select bank0
  9192     0301  00BE               	movwf	___fldiv@b
  9193     0302  120A  158A  2098  120A  118A  	fcall	___fldiv
  9194     0307  1283               	bcf	3,5	;RP0=0, select bank0
  9195     0308  1303               	bcf	3,6	;RP1=0, select bank0
  9196     0309  083D               	movf	?___fldiv+3,w
  9197     030A  00D7               	movwf	floorf@x+3
  9198     030B  083C               	movf	?___fldiv+2,w
  9199     030C  00D6               	movwf	floorf@x+2
  9200     030D  083B               	movf	?___fldiv+1,w
  9201     030E  00D5               	movwf	floorf@x+1
  9202     030F  083A               	movf	?___fldiv,w
  9203     0310  00D4               	movwf	floorf@x
  9204     0311  160A  118A  2567  120A  118A  	fcall	_floorf
  9205     0316  1283               	bcf	3,5	;RP0=0, select bank0
  9206     0317  1303               	bcf	3,6	;RP1=0, select bank0
  9207     0318  0857               	movf	?_floorf+3,w
  9208     0319  1683               	bsf	3,5	;RP0=1, select bank1
  9209     031A  1303               	bcf	3,6	;RP1=0, select bank1
  9210     031B  00C2               	movwf	(efgtoa@l+3)^(0+128)
  9211     031C  1283               	bcf	3,5	;RP0=0, select bank0
  9212     031D  1303               	bcf	3,6	;RP1=0, select bank0
  9213     031E  0856               	movf	?_floorf+2,w
  9214     031F  1683               	bsf	3,5	;RP0=1, select bank1
  9215     0320  1303               	bcf	3,6	;RP1=0, select bank1
  9216     0321  00C1               	movwf	(efgtoa@l+2)^(0+128)
  9217     0322  1283               	bcf	3,5	;RP0=0, select bank0
  9218     0323  1303               	bcf	3,6	;RP1=0, select bank0
  9219     0324  0855               	movf	?_floorf+1,w
  9220     0325  1683               	bsf	3,5	;RP0=1, select bank1
  9221     0326  1303               	bcf	3,6	;RP1=0, select bank1
  9222     0327  00C0               	movwf	(efgtoa@l+1)^(0+128)
  9223     0328  1283               	bcf	3,5	;RP0=0, select bank0
  9224     0329  1303               	bcf	3,6	;RP1=0, select bank0
  9225     032A  0854               	movf	?_floorf,w
  9226     032B  1683               	bsf	3,5	;RP0=1, select bank1
  9227     032C  1303               	bcf	3,6	;RP1=0, select bank1
  9228     032D  00BF               	movwf	efgtoa@l^(0+128)
  9229     032E                     l2954:
  9230                           
  9231                           ;C:\Program Files\Microchip\xc8\v2.50\pic\sources\c99\common\doprnt.c: 738:         d = 
      +                          (int)l;
  9232     032E  0842               	movf	(efgtoa@l+3)^(0+128),w
  9233     032F  00F3               	movwf	___fltol@f1+3
  9234     0330  0841               	movf	(efgtoa@l+2)^(0+128),w
  9235     0331  00F2               	movwf	___fltol@f1+2
  9236     0332  0840               	movf	(efgtoa@l+1)^(0+128),w
  9237     0333  00F1               	movwf	___fltol@f1+1
  9238     0334  083F               	movf	efgtoa@l^(0+128),w
  9239     0335  00F0               	movwf	___fltol@f1
  9240     0336  120A  158A  2024  120A  118A  	fcall	___fltol
  9241     033B  0871               	movf	?___fltol+1,w
  9242     033C  1683               	bsf	3,5	;RP0=1, select bank1
  9243     033D  1303               	bcf	3,6	;RP1=0, select bank1
  9244     033E  00B0               	movwf	(efgtoa@d+1)^(0+128)
  9245     033F  0870               	movf	?___fltol,w
  9246     0340  00AF               	movwf	efgtoa@d^(0+128)
  9247     0341                     l2956:
  9248                           
  9249                           ;C:\Program Files\Microchip\xc8\v2.50\pic\sources\c99\common\doprnt.c: 739:         h -=
      +                           l*u.f;
  9250     0341  084F               	movf	(efgtoa@u+3)^(0+128),w
  9251     0342  1283               	bcf	3,5	;RP0=0, select bank0
  9252     0343  1303               	bcf	3,6	;RP1=0, select bank0
  9253     0344  00A7               	movwf	___flmul@a+3
  9254     0345  1683               	bsf	3,5	;RP0=1, select bank1
  9255     0346  1303               	bcf	3,6	;RP1=0, select bank1
  9256     0347  084E               	movf	(efgtoa@u+2)^(0+128),w
  9257     0348  1283               	bcf	3,5	;RP0=0, select bank0
  9258     0349  1303               	bcf	3,6	;RP1=0, select bank0
  9259     034A  00A6               	movwf	___flmul@a+2
  9260     034B  1683               	bsf	3,5	;RP0=1, select bank1
  9261     034C  1303               	bcf	3,6	;RP1=0, select bank1
  9262     034D  084D               	movf	(efgtoa@u+1)^(0+128),w
  9263     034E  1283               	bcf	3,5	;RP0=0, select bank0
  9264     034F  1303               	bcf	3,6	;RP1=0, select bank0
  9265     0350  00A5               	movwf	___flmul@a+1
  9266     0351  1683               	bsf	3,5	;RP0=1, select bank1
  9267     0352  1303               	bcf	3,6	;RP1=0, select bank1
  9268     0353  084C               	movf	efgtoa@u^(0+128),w
  9269     0354  1283               	bcf	3,5	;RP0=0, select bank0
  9270     0355  1303               	bcf	3,6	;RP1=0, select bank0
  9271     0356  00A4               	movwf	___flmul@a
  9272     0357  1683               	bsf	3,5	;RP0=1, select bank1
  9273     0358  1303               	bcf	3,6	;RP1=0, select bank1
  9274     0359  0842               	movf	(efgtoa@l+3)^(0+128),w
  9275     035A  1283               	bcf	3,5	;RP0=0, select bank0
  9276     035B  1303               	bcf	3,6	;RP1=0, select bank0
  9277     035C  00A3               	movwf	___flmul@b+3
  9278     035D  1683               	bsf	3,5	;RP0=1, select bank1
  9279     035E  1303               	bcf	3,6	;RP1=0, select bank1
  9280     035F  0841               	movf	(efgtoa@l+2)^(0+128),w
  9281     0360  1283               	bcf	3,5	;RP0=0, select bank0
  9282     0361  1303               	bcf	3,6	;RP1=0, select bank0
  9283     0362  00A2               	movwf	___flmul@b+2
  9284     0363  1683               	bsf	3,5	;RP0=1, select bank1
  9285     0364  1303               	bcf	3,6	;RP1=0, select bank1
  9286     0365  0840               	movf	(efgtoa@l+1)^(0+128),w
  9287     0366  1283               	bcf	3,5	;RP0=0, select bank0
  9288     0367  1303               	bcf	3,6	;RP1=0, select bank0
  9289     0368  00A1               	movwf	___flmul@b+1
  9290     0369  1683               	bsf	3,5	;RP0=1, select bank1
  9291     036A  1303               	bcf	3,6	;RP1=0, select bank1
  9292     036B  083F               	movf	efgtoa@l^(0+128),w
  9293     036C  1283               	bcf	3,5	;RP0=0, select bank0
  9294     036D  1303               	bcf	3,6	;RP1=0, select bank0
  9295     036E  00A0               	movwf	___flmul@b
  9296     036F  120A  158A  24BE  120A  118A  	fcall	___flmul
  9297     0374  1283               	bcf	3,5	;RP0=0, select bank0
  9298     0375  1303               	bcf	3,6	;RP1=0, select bank0
  9299     0376  0823               	movf	?___flmul+3,w
  9300     0377  00BD               	movwf	___flsub@a+3
  9301     0378  0822               	movf	?___flmul+2,w
  9302     0379  00BC               	movwf	___flsub@a+2
  9303     037A  0821               	movf	?___flmul+1,w
  9304     037B  00BB               	movwf	___flsub@a+1
  9305     037C  0820               	movf	?___flmul,w
  9306     037D  00BA               	movwf	___flsub@a
  9307     037E  1683               	bsf	3,5	;RP0=1, select bank1
  9308     037F  1303               	bcf	3,6	;RP1=0, select bank1
  9309     0380  083E               	movf	(efgtoa@h+3)^(0+128),w
  9310     0381  1283               	bcf	3,5	;RP0=0, select bank0
  9311     0382  1303               	bcf	3,6	;RP1=0, select bank0
  9312     0383  00C1               	movwf	___flsub@b+3
  9313     0384  1683               	bsf	3,5	;RP0=1, select bank1
  9314     0385  1303               	bcf	3,6	;RP1=0, select bank1
  9315     0386  083D               	movf	(efgtoa@h+2)^(0+128),w
  9316     0387  1283               	bcf	3,5	;RP0=0, select bank0
  9317     0388  1303               	bcf	3,6	;RP1=0, select bank0
  9318     0389  00C0               	movwf	___flsub@b+2
  9319     038A  1683               	bsf	3,5	;RP0=1, select bank1
  9320     038B  1303               	bcf	3,6	;RP1=0, select bank1
  9321     038C  083C               	movf	(efgtoa@h+1)^(0+128),w
  9322     038D  1283               	bcf	3,5	;RP0=0, select bank0
  9323     038E  1303               	bcf	3,6	;RP1=0, select bank0
  9324     038F  00BF               	movwf	___flsub@b+1
  9325     0390  1683               	bsf	3,5	;RP0=1, select bank1
  9326     0391  1303               	bcf	3,6	;RP1=0, select bank1
  9327     0392  083B               	movf	efgtoa@h^(0+128),w
  9328     0393  1283               	bcf	3,5	;RP0=0, select bank0
  9329     0394  1303               	bcf	3,6	;RP1=0, select bank0
  9330     0395  00BE               	movwf	___flsub@b
  9331     0396  120A  158A  2000  120A  118A  	fcall	___flsub
  9332     039B  1283               	bcf	3,5	;RP0=0, select bank0
  9333     039C  1303               	bcf	3,6	;RP1=0, select bank0
  9334     039D  083D               	movf	?___flsub+3,w
  9335     039E  1683               	bsf	3,5	;RP0=1, select bank1
  9336     039F  1303               	bcf	3,6	;RP1=0, select bank1
  9337     03A0  00BE               	movwf	(efgtoa@h+3)^(0+128)
  9338     03A1  1283               	bcf	3,5	;RP0=0, select bank0
  9339     03A2  1303               	bcf	3,6	;RP1=0, select bank0
  9340     03A3  083C               	movf	?___flsub+2,w
  9341     03A4  1683               	bsf	3,5	;RP0=1, select bank1
  9342     03A5  1303               	bcf	3,6	;RP1=0, select bank1
  9343     03A6  00BD               	movwf	(efgtoa@h+2)^(0+128)
  9344     03A7  1283               	bcf	3,5	;RP0=0, select bank0
  9345     03A8  1303               	bcf	3,6	;RP1=0, select bank0
  9346     03A9  083B               	movf	?___flsub+1,w
  9347     03AA  1683               	bsf	3,5	;RP0=1, select bank1
  9348     03AB  1303               	bcf	3,6	;RP1=0, select bank1
  9349     03AC  00BC               	movwf	(efgtoa@h+1)^(0+128)
  9350     03AD  1283               	bcf	3,5	;RP0=0, select bank0
  9351     03AE  1303               	bcf	3,6	;RP1=0, select bank0
  9352     03AF  083A               	movf	?___flsub,w
  9353     03B0  1683               	bsf	3,5	;RP0=1, select bank1
  9354     03B1  1303               	bcf	3,6	;RP1=0, select bank1
  9355     03B2  00BB               	movwf	efgtoa@h^(0+128)
  9356     03B3                     l2958:
  9357                           
  9358                           ;C:\Program Files\Microchip\xc8\v2.50\pic\sources\c99\common\doprnt.c: 740:         u.f 
      +                          = u.f/10.0;
  9359     03B3  3041               	movlw	65
  9360     03B4  1283               	bcf	3,5	;RP0=0, select bank0
  9361     03B5  1303               	bcf	3,6	;RP1=0, select bank0
  9362     03B6  00BD               	movwf	___fldiv@a+3
  9363     03B7  3020               	movlw	32
  9364     03B8  00BC               	movwf	___fldiv@a+2
  9365     03B9  3000               	movlw	0
  9366     03BA  00BB               	movwf	___fldiv@a+1
  9367     03BB  3000               	movlw	0
  9368     03BC  00BA               	movwf	___fldiv@a
  9369     03BD  1683               	bsf	3,5	;RP0=1, select bank1
  9370     03BE  1303               	bcf	3,6	;RP1=0, select bank1
  9371     03BF  084F               	movf	(efgtoa@u+3)^(0+128),w
  9372     03C0  1283               	bcf	3,5	;RP0=0, select bank0
  9373     03C1  1303               	bcf	3,6	;RP1=0, select bank0
  9374     03C2  00C1               	movwf	___fldiv@b+3
  9375     03C3  1683               	bsf	3,5	;RP0=1, select bank1
  9376     03C4  1303               	bcf	3,6	;RP1=0, select bank1
  9377     03C5  084E               	movf	(efgtoa@u+2)^(0+128),w
  9378     03C6  1283               	bcf	3,5	;RP0=0, select bank0
  9379     03C7  1303               	bcf	3,6	;RP1=0, select bank0
  9380     03C8  00C0               	movwf	___fldiv@b+2
  9381     03C9  1683               	bsf	3,5	;RP0=1, select bank1
  9382     03CA  1303               	bcf	3,6	;RP1=0, select bank1
  9383     03CB  084D               	movf	(efgtoa@u+1)^(0+128),w
  9384     03CC  1283               	bcf	3,5	;RP0=0, select bank0
  9385     03CD  1303               	bcf	3,6	;RP1=0, select bank0
  9386     03CE  00BF               	movwf	___fldiv@b+1
  9387     03CF  1683               	bsf	3,5	;RP0=1, select bank1
  9388     03D0  1303               	bcf	3,6	;RP1=0, select bank1
  9389     03D1  084C               	movf	efgtoa@u^(0+128),w
  9390     03D2  1283               	bcf	3,5	;RP0=0, select bank0
  9391     03D3  1303               	bcf	3,6	;RP1=0, select bank0
  9392     03D4  00BE               	movwf	___fldiv@b
  9393     03D5  120A  158A  2098  120A  118A  	fcall	___fldiv
  9394     03DA  1283               	bcf	3,5	;RP0=0, select bank0
  9395     03DB  1303               	bcf	3,6	;RP1=0, select bank0
  9396     03DC  083D               	movf	?___fldiv+3,w
  9397     03DD  1683               	bsf	3,5	;RP0=1, select bank1
  9398     03DE  1303               	bcf	3,6	;RP1=0, select bank1
  9399     03DF  00CF               	movwf	(efgtoa@u+3)^(0+128)
  9400     03E0  1283               	bcf	3,5	;RP0=0, select bank0
  9401     03E1  1303               	bcf	3,6	;RP1=0, select bank0
  9402     03E2  083C               	movf	?___fldiv+2,w
  9403     03E3  1683               	bsf	3,5	;RP0=1, select bank1
  9404     03E4  1303               	bcf	3,6	;RP1=0, select bank1
  9405     03E5  00CE               	movwf	(efgtoa@u+2)^(0+128)
  9406     03E6  1283               	bcf	3,5	;RP0=0, select bank0
  9407     03E7  1303               	bcf	3,6	;RP1=0, select bank0
  9408     03E8  083B               	movf	?___fldiv+1,w
  9409     03E9  1683               	bsf	3,5	;RP0=1, select bank1
  9410     03EA  1303               	bcf	3,6	;RP1=0, select bank1
  9411     03EB  00CD               	movwf	(efgtoa@u+1)^(0+128)
  9412     03EC  1283               	bcf	3,5	;RP0=0, select bank0
  9413     03ED  1303               	bcf	3,6	;RP1=0, select bank0
  9414     03EE  083A               	movf	?___fldiv,w
  9415     03EF  1683               	bsf	3,5	;RP0=1, select bank1
  9416     03F0  1303               	bcf	3,6	;RP1=0, select bank1
  9417     03F1  00CC               	movwf	efgtoa@u^(0+128)
  9418     03F2                     l2960:
  9419                           
  9420                           ;C:\Program Files\Microchip\xc8\v2.50\pic\sources\c99\common\doprnt.c: 741:         ++i;
  9421     03F2  3001               	movlw	1
  9422     03F3  07C3               	addwf	efgtoa@i^(0+128),f
  9423     03F4  1803               	skipnc
  9424     03F5  0AC4               	incf	(efgtoa@i+1)^(0+128),f
  9425     03F6  3000               	movlw	0
  9426     03F7  07C4               	addwf	(efgtoa@i+1)^(0+128),f
  9427     03F8                     l2962:
  9428                           
  9429                           ;C:\Program Files\Microchip\xc8\v2.50\pic\sources\c99\common\doprnt.c: 736:     while (i
      +                           < m) {
  9430     03F8  0844               	movf	(efgtoa@i+1)^(0+128),w
  9431     03F9  3A80               	xorlw	128
  9432     03FA  00A0               	movwf	??_efgtoa^(0+128)
  9433     03FB  0832               	movf	(efgtoa@m+1)^(0+128),w
  9434     03FC  3A80               	xorlw	128
  9435     03FD  0220               	subwf	??_efgtoa^(0+128),w
  9436     03FE  1D03               	skipz
  9437     03FF  2C02               	goto	u4635
  9438     0400  0831               	movf	efgtoa@m^(0+128),w
  9439     0401  0243               	subwf	efgtoa@i^(0+128),w
  9440     0402                     u4635:
  9441     0402  1C03               	skipc
  9442     0403  2C05               	goto	u4631
  9443     0404  2C06               	goto	u4630
  9444     0405                     u4631:
  9445     0405  2AD2               	goto	l2952
  9446     0406                     u4630:
  9447     0406                     l2964:
  9448                           
  9449                           ;C:\Program Files\Microchip\xc8\v2.50\pic\sources\c99\common\doprnt.c: 745:     l = u.f*
      +                          5.0;
  9450     0406  3040               	movlw	64
  9451     0407  1283               	bcf	3,5	;RP0=0, select bank0
  9452     0408  1303               	bcf	3,6	;RP1=0, select bank0
  9453     0409  00A3               	movwf	___flmul@b+3
  9454     040A  30A0               	movlw	160
  9455     040B  00A2               	movwf	___flmul@b+2
  9456     040C  3000               	movlw	0
  9457     040D  00A1               	movwf	___flmul@b+1
  9458     040E  3000               	movlw	0
  9459     040F  00A0               	movwf	___flmul@b
  9460     0410  1683               	bsf	3,5	;RP0=1, select bank1
  9461     0411  1303               	bcf	3,6	;RP1=0, select bank1
  9462     0412  084F               	movf	(efgtoa@u+3)^(0+128),w
  9463     0413  1283               	bcf	3,5	;RP0=0, select bank0
  9464     0414  1303               	bcf	3,6	;RP1=0, select bank0
  9465     0415  00A7               	movwf	___flmul@a+3
  9466     0416  1683               	bsf	3,5	;RP0=1, select bank1
  9467     0417  1303               	bcf	3,6	;RP1=0, select bank1
  9468     0418  084E               	movf	(efgtoa@u+2)^(0+128),w
  9469     0419  1283               	bcf	3,5	;RP0=0, select bank0
  9470     041A  1303               	bcf	3,6	;RP1=0, select bank0
  9471     041B  00A6               	movwf	___flmul@a+2
  9472     041C  1683               	bsf	3,5	;RP0=1, select bank1
  9473     041D  1303               	bcf	3,6	;RP1=0, select bank1
  9474     041E  084D               	movf	(efgtoa@u+1)^(0+128),w
  9475     041F  1283               	bcf	3,5	;RP0=0, select bank0
  9476     0420  1303               	bcf	3,6	;RP1=0, select bank0
  9477     0421  00A5               	movwf	___flmul@a+1
  9478     0422  1683               	bsf	3,5	;RP0=1, select bank1
  9479     0423  1303               	bcf	3,6	;RP1=0, select bank1
  9480     0424  084C               	movf	efgtoa@u^(0+128),w
  9481     0425  1283               	bcf	3,5	;RP0=0, select bank0
  9482     0426  1303               	bcf	3,6	;RP1=0, select bank0
  9483     0427  00A4               	movwf	___flmul@a
  9484     0428  120A  158A  24BE  120A  118A  	fcall	___flmul
  9485     042D  1283               	bcf	3,5	;RP0=0, select bank0
  9486     042E  1303               	bcf	3,6	;RP1=0, select bank0
  9487     042F  0823               	movf	?___flmul+3,w
  9488     0430  1683               	bsf	3,5	;RP0=1, select bank1
  9489     0431  1303               	bcf	3,6	;RP1=0, select bank1
  9490     0432  00C2               	movwf	(efgtoa@l+3)^(0+128)
  9491     0433  1283               	bcf	3,5	;RP0=0, select bank0
  9492     0434  1303               	bcf	3,6	;RP1=0, select bank0
  9493     0435  0822               	movf	?___flmul+2,w
  9494     0436  1683               	bsf	3,5	;RP0=1, select bank1
  9495     0437  1303               	bcf	3,6	;RP1=0, select bank1
  9496     0438  00C1               	movwf	(efgtoa@l+2)^(0+128)
  9497     0439  1283               	bcf	3,5	;RP0=0, select bank0
  9498     043A  1303               	bcf	3,6	;RP1=0, select bank0
  9499     043B  0821               	movf	?___flmul+1,w
  9500     043C  1683               	bsf	3,5	;RP0=1, select bank1
  9501     043D  1303               	bcf	3,6	;RP1=0, select bank1
  9502     043E  00C0               	movwf	(efgtoa@l+1)^(0+128)
  9503     043F  1283               	bcf	3,5	;RP0=0, select bank0
  9504     0440  1303               	bcf	3,6	;RP1=0, select bank0
  9505     0441  0820               	movf	?___flmul,w
  9506     0442  1683               	bsf	3,5	;RP0=1, select bank1
  9507     0443  1303               	bcf	3,6	;RP1=0, select bank1
  9508     0444  00BF               	movwf	efgtoa@l^(0+128)
  9509     0445                     l2966:
  9510                           
  9511                           ;C:\Program Files\Microchip\xc8\v2.50\pic\sources\c99\common\doprnt.c: 746:     if (h < 
      +                          l) {
  9512     0445  083E               	movf	(efgtoa@h+3)^(0+128),w
  9513     0446  1283               	bcf	3,5	;RP0=0, select bank0
  9514     0447  1303               	bcf	3,6	;RP1=0, select bank0
  9515     0448  00BD               	movwf	___flge@ff1+3
  9516     0449  1683               	bsf	3,5	;RP0=1, select bank1
  9517     044A  1303               	bcf	3,6	;RP1=0, select bank1
  9518     044B  083D               	movf	(efgtoa@h+2)^(0+128),w
  9519     044C  1283               	bcf	3,5	;RP0=0, select bank0
  9520     044D  1303               	bcf	3,6	;RP1=0, select bank0
  9521     044E  00BC               	movwf	___flge@ff1+2
  9522     044F  1683               	bsf	3,5	;RP0=1, select bank1
  9523     0450  1303               	bcf	3,6	;RP1=0, select bank1
  9524     0451  083C               	movf	(efgtoa@h+1)^(0+128),w
  9525     0452  1283               	bcf	3,5	;RP0=0, select bank0
  9526     0453  1303               	bcf	3,6	;RP1=0, select bank0
  9527     0454  00BB               	movwf	___flge@ff1+1
  9528     0455  1683               	bsf	3,5	;RP0=1, select bank1
  9529     0456  1303               	bcf	3,6	;RP1=0, select bank1
  9530     0457  083B               	movf	efgtoa@h^(0+128),w
  9531     0458  1283               	bcf	3,5	;RP0=0, select bank0
  9532     0459  1303               	bcf	3,6	;RP1=0, select bank0
  9533     045A  00BA               	movwf	___flge@ff1
  9534     045B  1683               	bsf	3,5	;RP0=1, select bank1
  9535     045C  1303               	bcf	3,6	;RP1=0, select bank1
  9536     045D  0842               	movf	(efgtoa@l+3)^(0+128),w
  9537     045E  1283               	bcf	3,5	;RP0=0, select bank0
  9538     045F  1303               	bcf	3,6	;RP1=0, select bank0
  9539     0460  00C1               	movwf	___flge@ff2+3
  9540     0461  1683               	bsf	3,5	;RP0=1, select bank1
  9541     0462  1303               	bcf	3,6	;RP1=0, select bank1
  9542     0463  0841               	movf	(efgtoa@l+2)^(0+128),w
  9543     0464  1283               	bcf	3,5	;RP0=0, select bank0
  9544     0465  1303               	bcf	3,6	;RP1=0, select bank0
  9545     0466  00C0               	movwf	___flge@ff2+2
  9546     0467  1683               	bsf	3,5	;RP0=1, select bank1
  9547     0468  1303               	bcf	3,6	;RP1=0, select bank1
  9548     0469  0840               	movf	(efgtoa@l+1)^(0+128),w
  9549     046A  1283               	bcf	3,5	;RP0=0, select bank0
  9550     046B  1303               	bcf	3,6	;RP1=0, select bank0
  9551     046C  00BF               	movwf	___flge@ff2+1
  9552     046D  1683               	bsf	3,5	;RP0=1, select bank1
  9553     046E  1303               	bcf	3,6	;RP1=0, select bank1
  9554     046F  083F               	movf	efgtoa@l^(0+128),w
  9555     0470  1283               	bcf	3,5	;RP0=0, select bank0
  9556     0471  1303               	bcf	3,6	;RP1=0, select bank0
  9557     0472  00BE               	movwf	___flge@ff2
  9558     0473  160A  118A  217C  120A  118A  	fcall	___flge
  9559     0478  1803               	btfsc	3,0
  9560     0479  2C7B               	goto	u4641
  9561     047A  2C7C               	goto	u4640
  9562     047B                     u4641:
  9563     047B  2C87               	goto	l2970
  9564     047C                     u4640:
  9565     047C                     l2968:
  9566                           
  9567                           ;C:\Program Files\Microchip\xc8\v2.50\pic\sources\c99\common\doprnt.c: 747:         l = 
      +                          0.0;
  9568     047C  3000               	movlw	0
  9569     047D  1683               	bsf	3,5	;RP0=1, select bank1
  9570     047E  1303               	bcf	3,6	;RP1=0, select bank1
  9571     047F  00C2               	movwf	(efgtoa@l+3)^(0+128)
  9572     0480  3000               	movlw	0
  9573     0481  00C1               	movwf	(efgtoa@l+2)^(0+128)
  9574     0482  3000               	movlw	0
  9575     0483  00C0               	movwf	(efgtoa@l+1)^(0+128)
  9576     0484  3000               	movlw	0
  9577     0485  00BF               	movwf	efgtoa@l^(0+128)
  9578                           
  9579                           ;C:\Program Files\Microchip\xc8\v2.50\pic\sources\c99\common\doprnt.c: 748:     } else {
  9580     0486  2CB0               	goto	l2976
  9581     0487                     l2970:
  9582                           
  9583                           ;C:\Program Files\Microchip\xc8\v2.50\pic\sources\c99\common\doprnt.c: 750:         if (
      +                          (h == l) && !(d % 2)) {
  9584     0487  1683               	bsf	3,5	;RP0=1, select bank1
  9585     0488  1303               	bcf	3,6	;RP1=0, select bank1
  9586     0489  083E               	movf	(efgtoa@h+3)^(0+128),w
  9587     048A  00F3               	movwf	___fleq@ff1+3
  9588     048B  083D               	movf	(efgtoa@h+2)^(0+128),w
  9589     048C  00F2               	movwf	___fleq@ff1+2
  9590     048D  083C               	movf	(efgtoa@h+1)^(0+128),w
  9591     048E  00F1               	movwf	___fleq@ff1+1
  9592     048F  083B               	movf	efgtoa@h^(0+128),w
  9593     0490  00F0               	movwf	___fleq@ff1
  9594     0491  0842               	movf	(efgtoa@l+3)^(0+128),w
  9595     0492  00F7               	movwf	___fleq@ff2+3
  9596     0493  0841               	movf	(efgtoa@l+2)^(0+128),w
  9597     0494  00F6               	movwf	___fleq@ff2+2
  9598     0495  0840               	movf	(efgtoa@l+1)^(0+128),w
  9599     0496  00F5               	movwf	___fleq@ff2+1
  9600     0497  083F               	movf	efgtoa@l^(0+128),w
  9601     0498  00F4               	movwf	___fleq@ff2
  9602     0499  160A  158A  27B2  120A  118A  	fcall	___fleq
  9603     049E  1C03               	btfss	3,0
  9604     049F  2CA1               	goto	u4651
  9605     04A0  2CA2               	goto	u4650
  9606     04A1                     u4651:
  9607     04A1  2CB0               	goto	l2976
  9608     04A2                     u4650:
  9609     04A2                     l2972:
  9610     04A2  1683               	bsf	3,5	;RP0=1, select bank1
  9611     04A3  1303               	bcf	3,6	;RP1=0, select bank1
  9612     04A4  182F               	btfsc	efgtoa@d^(0+128),0
  9613     04A5  2CA7               	goto	u4661
  9614     04A6  2CA8               	goto	u4660
  9615     04A7                     u4661:
  9616     04A7  2CB0               	goto	l2976
  9617     04A8                     u4660:
  9618     04A8                     l2974:
  9619                           
  9620                           ;C:\Program Files\Microchip\xc8\v2.50\pic\sources\c99\common\doprnt.c: 751:             
      +                          l = 0.0;
  9621     04A8  3000               	movlw	0
  9622     04A9  00C2               	movwf	(efgtoa@l+3)^(0+128)
  9623     04AA  3000               	movlw	0
  9624     04AB  00C1               	movwf	(efgtoa@l+2)^(0+128)
  9625     04AC  3000               	movlw	0
  9626     04AD  00C0               	movwf	(efgtoa@l+1)^(0+128)
  9627     04AE  3000               	movlw	0
  9628     04AF  00BF               	movwf	efgtoa@l^(0+128)
  9629     04B0                     l2976:
  9630                           
  9631                           ;C:\Program Files\Microchip\xc8\v2.50\pic\sources\c99\common\doprnt.c: 756:     h = g.f 
      +                          + l;
  9632     04B0  1683               	bsf	3,5	;RP0=1, select bank1
  9633     04B1  1303               	bcf	3,6	;RP1=0, select bank1
  9634     04B2  0842               	movf	(efgtoa@l+3)^(0+128),w
  9635     04B3  00F3               	movwf	___fladd@b+3
  9636     04B4  0841               	movf	(efgtoa@l+2)^(0+128),w
  9637     04B5  00F2               	movwf	___fladd@b+2
  9638     04B6  0840               	movf	(efgtoa@l+1)^(0+128),w
  9639     04B7  00F1               	movwf	___fladd@b+1
  9640     04B8  083F               	movf	efgtoa@l^(0+128),w
  9641     04B9  00F0               	movwf	___fladd@b
  9642     04BA  0849               	movf	(efgtoa@g+3)^(0+128),w
  9643     04BB  00F7               	movwf	___fladd@a+3
  9644     04BC  0848               	movf	(efgtoa@g+2)^(0+128),w
  9645     04BD  00F6               	movwf	___fladd@a+2
  9646     04BE  0847               	movf	(efgtoa@g+1)^(0+128),w
  9647     04BF  00F5               	movwf	___fladd@a+1
  9648     04C0  0846               	movf	efgtoa@g^(0+128),w
  9649     04C1  00F4               	movwf	___fladd@a
  9650     04C2  120A  158A  2262  120A  118A  	fcall	___fladd
  9651     04C7  0873               	movf	?___fladd+3,w
  9652     04C8  1683               	bsf	3,5	;RP0=1, select bank1
  9653     04C9  1303               	bcf	3,6	;RP1=0, select bank1
  9654     04CA  00BE               	movwf	(efgtoa@h+3)^(0+128)
  9655     04CB  0872               	movf	?___fladd+2,w
  9656     04CC  00BD               	movwf	(efgtoa@h+2)^(0+128)
  9657     04CD  0871               	movf	?___fladd+1,w
  9658     04CE  00BC               	movwf	(efgtoa@h+1)^(0+128)
  9659     04CF  0870               	movf	?___fladd,w
  9660     04D0  00BB               	movwf	efgtoa@h^(0+128)
  9661     04D1                     l2978:
  9662                           
  9663                           ;C:\Program Files\Microchip\xc8\v2.50\pic\sources\c99\common\doprnt.c: 758:  if (h >= (o
      +                          u.f*10.0)) {
  9664     04D1  083E               	movf	(efgtoa@h+3)^(0+128),w
  9665     04D2  1283               	bcf	3,5	;RP0=0, select bank0
  9666     04D3  1303               	bcf	3,6	;RP1=0, select bank0
  9667     04D4  00BD               	movwf	___flge@ff1+3
  9668     04D5  1683               	bsf	3,5	;RP0=1, select bank1
  9669     04D6  1303               	bcf	3,6	;RP1=0, select bank1
  9670     04D7  083D               	movf	(efgtoa@h+2)^(0+128),w
  9671     04D8  1283               	bcf	3,5	;RP0=0, select bank0
  9672     04D9  1303               	bcf	3,6	;RP1=0, select bank0
  9673     04DA  00BC               	movwf	___flge@ff1+2
  9674     04DB  1683               	bsf	3,5	;RP0=1, select bank1
  9675     04DC  1303               	bcf	3,6	;RP1=0, select bank1
  9676     04DD  083C               	movf	(efgtoa@h+1)^(0+128),w
  9677     04DE  1283               	bcf	3,5	;RP0=0, select bank0
  9678     04DF  1303               	bcf	3,6	;RP1=0, select bank0
  9679     04E0  00BB               	movwf	___flge@ff1+1
  9680     04E1  1683               	bsf	3,5	;RP0=1, select bank1
  9681     04E2  1303               	bcf	3,6	;RP1=0, select bank1
  9682     04E3  083B               	movf	efgtoa@h^(0+128),w
  9683     04E4  1283               	bcf	3,5	;RP0=0, select bank0
  9684     04E5  1303               	bcf	3,6	;RP1=0, select bank0
  9685     04E6  00BA               	movwf	___flge@ff1
  9686     04E7  3041               	movlw	65
  9687     04E8  00A3               	movwf	___flmul@b+3
  9688     04E9  3020               	movlw	32
  9689     04EA  00A2               	movwf	___flmul@b+2
  9690     04EB  3000               	movlw	0
  9691     04EC  00A1               	movwf	___flmul@b+1
  9692     04ED  3000               	movlw	0
  9693     04EE  00A0               	movwf	___flmul@b
  9694     04EF  1683               	bsf	3,5	;RP0=1, select bank1
  9695     04F0  1303               	bcf	3,6	;RP1=0, select bank1
  9696     04F1  083A               	movf	(efgtoa@ou+3)^(0+128),w
  9697     04F2  1283               	bcf	3,5	;RP0=0, select bank0
  9698     04F3  1303               	bcf	3,6	;RP1=0, select bank0
  9699     04F4  00A7               	movwf	___flmul@a+3
  9700     04F5  1683               	bsf	3,5	;RP0=1, select bank1
  9701     04F6  1303               	bcf	3,6	;RP1=0, select bank1
  9702     04F7  0839               	movf	(efgtoa@ou+2)^(0+128),w
  9703     04F8  1283               	bcf	3,5	;RP0=0, select bank0
  9704     04F9  1303               	bcf	3,6	;RP1=0, select bank0
  9705     04FA  00A6               	movwf	___flmul@a+2
  9706     04FB  1683               	bsf	3,5	;RP0=1, select bank1
  9707     04FC  1303               	bcf	3,6	;RP1=0, select bank1
  9708     04FD  0838               	movf	(efgtoa@ou+1)^(0+128),w
  9709     04FE  1283               	bcf	3,5	;RP0=0, select bank0
  9710     04FF  1303               	bcf	3,6	;RP1=0, select bank0
  9711     0500  00A5               	movwf	___flmul@a+1
  9712     0501  1683               	bsf	3,5	;RP0=1, select bank1
  9713     0502  1303               	bcf	3,6	;RP1=0, select bank1
  9714     0503  0837               	movf	efgtoa@ou^(0+128),w
  9715     0504  1283               	bcf	3,5	;RP0=0, select bank0
  9716     0505  1303               	bcf	3,6	;RP1=0, select bank0
  9717     0506  00A4               	movwf	___flmul@a
  9718     0507  120A  158A  24BE  120A  118A  	fcall	___flmul
  9719     050C  1283               	bcf	3,5	;RP0=0, select bank0
  9720     050D  1303               	bcf	3,6	;RP1=0, select bank0
  9721     050E  0823               	movf	?___flmul+3,w
  9722     050F  00C1               	movwf	___flge@ff2+3
  9723     0510  0822               	movf	?___flmul+2,w
  9724     0511  00C0               	movwf	___flge@ff2+2
  9725     0512  0821               	movf	?___flmul+1,w
  9726     0513  00BF               	movwf	___flge@ff2+1
  9727     0514  0820               	movf	?___flmul,w
  9728     0515  00BE               	movwf	___flge@ff2
  9729     0516  160A  118A  217C  120A  118A  	fcall	___flge
  9730     051B  1C03               	btfss	3,0
  9731     051C  2D1E               	goto	u4671
  9732     051D  2D1F               	goto	u4670
  9733     051E                     u4671:
  9734     051E  2D72               	goto	l687
  9735     051F                     u4670:
  9736     051F                     l2980:
  9737                           
  9738                           ;C:\Program Files\Microchip\xc8\v2.50\pic\sources\c99\common\doprnt.c: 759:   e++;
  9739     051F  3001               	movlw	1
  9740     0520  1683               	bsf	3,5	;RP0=1, select bank1
  9741     0521  1303               	bcf	3,6	;RP1=0, select bank1
  9742     0522  07B3               	addwf	efgtoa@e^(0+128),f
  9743     0523  1803               	skipnc
  9744     0524  0AB4               	incf	(efgtoa@e+1)^(0+128),f
  9745     0525  3000               	movlw	0
  9746     0526  07B4               	addwf	(efgtoa@e+1)^(0+128),f
  9747     0527                     l2982:
  9748                           
  9749                           ;C:\Program Files\Microchip\xc8\v2.50\pic\sources\c99\common\doprnt.c: 760:   ou.f *= 10
      +                          .0;
  9750     0527  3041               	movlw	65
  9751     0528  1283               	bcf	3,5	;RP0=0, select bank0
  9752     0529  1303               	bcf	3,6	;RP1=0, select bank0
  9753     052A  00A3               	movwf	___flmul@b+3
  9754     052B  3020               	movlw	32
  9755     052C  00A2               	movwf	___flmul@b+2
  9756     052D  3000               	movlw	0
  9757     052E  00A1               	movwf	___flmul@b+1
  9758     052F  3000               	movlw	0
  9759     0530  00A0               	movwf	___flmul@b
  9760     0531  1683               	bsf	3,5	;RP0=1, select bank1
  9761     0532  1303               	bcf	3,6	;RP1=0, select bank1
  9762     0533  083A               	movf	(efgtoa@ou+3)^(0+128),w
  9763     0534  1283               	bcf	3,5	;RP0=0, select bank0
  9764     0535  1303               	bcf	3,6	;RP1=0, select bank0
  9765     0536  00A7               	movwf	___flmul@a+3
  9766     0537  1683               	bsf	3,5	;RP0=1, select bank1
  9767     0538  1303               	bcf	3,6	;RP1=0, select bank1
  9768     0539  0839               	movf	(efgtoa@ou+2)^(0+128),w
  9769     053A  1283               	bcf	3,5	;RP0=0, select bank0
  9770     053B  1303               	bcf	3,6	;RP1=0, select bank0
  9771     053C  00A6               	movwf	___flmul@a+2
  9772     053D  1683               	bsf	3,5	;RP0=1, select bank1
  9773     053E  1303               	bcf	3,6	;RP1=0, select bank1
  9774     053F  0838               	movf	(efgtoa@ou+1)^(0+128),w
  9775     0540  1283               	bcf	3,5	;RP0=0, select bank0
  9776     0541  1303               	bcf	3,6	;RP1=0, select bank0
  9777     0542  00A5               	movwf	___flmul@a+1
  9778     0543  1683               	bsf	3,5	;RP0=1, select bank1
  9779     0544  1303               	bcf	3,6	;RP1=0, select bank1
  9780     0545  0837               	movf	efgtoa@ou^(0+128),w
  9781     0546  1283               	bcf	3,5	;RP0=0, select bank0
  9782     0547  1303               	bcf	3,6	;RP1=0, select bank0
  9783     0548  00A4               	movwf	___flmul@a
  9784     0549  120A  158A  24BE  120A  118A  	fcall	___flmul
  9785     054E  1283               	bcf	3,5	;RP0=0, select bank0
  9786     054F  1303               	bcf	3,6	;RP1=0, select bank0
  9787     0550  0823               	movf	?___flmul+3,w
  9788     0551  1683               	bsf	3,5	;RP0=1, select bank1
  9789     0552  1303               	bcf	3,6	;RP1=0, select bank1
  9790     0553  00BA               	movwf	(efgtoa@ou+3)^(0+128)
  9791     0554  1283               	bcf	3,5	;RP0=0, select bank0
  9792     0555  1303               	bcf	3,6	;RP1=0, select bank0
  9793     0556  0822               	movf	?___flmul+2,w
  9794     0557  1683               	bsf	3,5	;RP0=1, select bank1
  9795     0558  1303               	bcf	3,6	;RP1=0, select bank1
  9796     0559  00B9               	movwf	(efgtoa@ou+2)^(0+128)
  9797     055A  1283               	bcf	3,5	;RP0=0, select bank0
  9798     055B  1303               	bcf	3,6	;RP1=0, select bank0
  9799     055C  0821               	movf	?___flmul+1,w
  9800     055D  1683               	bsf	3,5	;RP0=1, select bank1
  9801     055E  1303               	bcf	3,6	;RP1=0, select bank1
  9802     055F  00B8               	movwf	(efgtoa@ou+1)^(0+128)
  9803     0560  1283               	bcf	3,5	;RP0=0, select bank0
  9804     0561  1303               	bcf	3,6	;RP1=0, select bank0
  9805     0562  0820               	movf	?___flmul,w
  9806     0563  1683               	bsf	3,5	;RP0=1, select bank1
  9807     0564  1303               	bcf	3,6	;RP1=0, select bank1
  9808     0565  00B7               	movwf	efgtoa@ou^(0+128)
  9809     0566                     l2984:
  9810                           
  9811                           ;C:\Program Files\Microchip\xc8\v2.50\pic\sources\c99\common\doprnt.c: 762:   if (nmode 
      +                          == 'f') {
  9812     0566  3066               	movlw	102
  9813     0567  062E               	xorwf	efgtoa@nmode^(0+128),w
  9814     0568  1D03               	btfss	3,2
  9815     0569  2D6B               	goto	u4681
  9816     056A  2D6C               	goto	u4680
  9817     056B                     u4681:
  9818     056B  2D72               	goto	l687
  9819     056C                     u4680:
  9820     056C                     l2986:
  9821                           
  9822                           ;C:\Program Files\Microchip\xc8\v2.50\pic\sources\c99\common\doprnt.c: 764:    m++;
  9823     056C  3001               	movlw	1
  9824     056D  07B1               	addwf	efgtoa@m^(0+128),f
  9825     056E  1803               	skipnc
  9826     056F  0AB2               	incf	(efgtoa@m+1)^(0+128),f
  9827     0570  3000               	movlw	0
  9828     0571  07B2               	addwf	(efgtoa@m+1)^(0+128),f
  9829     0572                     l687:	
  9830                           ;C:\Program Files\Microchip\xc8\v2.50\pic\sources\c99\common\doprnt.c: 767:  }
  9831                           
  9832                           
  9833                           ;C:\Program Files\Microchip\xc8\v2.50\pic\sources\c99\common\doprnt.c: 770:     u = ou;
  9834     0572  1683               	bsf	3,5	;RP0=1, select bank1
  9835     0573  1303               	bcf	3,6	;RP1=0, select bank1
  9836     0574  083A               	movf	(efgtoa@ou+3)^(0+128),w
  9837     0575  00CF               	movwf	(efgtoa@u+3)^(0+128)
  9838     0576  0839               	movf	(efgtoa@ou+2)^(0+128),w
  9839     0577  00CE               	movwf	(efgtoa@u+2)^(0+128)
  9840     0578  0838               	movf	(efgtoa@ou+1)^(0+128),w
  9841     0579  00CD               	movwf	(efgtoa@u+1)^(0+128)
  9842     057A  0837               	movf	efgtoa@ou^(0+128),w
  9843     057B  00CC               	movwf	efgtoa@u^(0+128)
  9844                           
  9845                           ;C:\Program Files\Microchip\xc8\v2.50\pic\sources\c99\common\doprnt.c: 774:  ne = e;
  9846     057C  0834               	movf	(efgtoa@e+1)^(0+128),w
  9847     057D  00A5               	movwf	(efgtoa@ne+1)^(0+128)
  9848     057E  0833               	movf	efgtoa@e^(0+128),w
  9849     057F  00A4               	movwf	efgtoa@ne^(0+128)
  9850     0580                     l2988:
  9851                           
  9852                           ;C:\Program Files\Microchip\xc8\v2.50\pic\sources\c99\common\doprnt.c: 776:     pp = 0;
  9853     0580  01AC               	clrf	efgtoa@pp^(0+128)
  9854     0581                     l2990:
  9855                           
  9856                           ;C:\Program Files\Microchip\xc8\v2.50\pic\sources\c99\common\doprnt.c: 777:     t = 0;
  9857     0581  01A8               	clrf	efgtoa@t^(0+128)
  9858     0582  01A9               	clrf	(efgtoa@t+1)^(0+128)
  9859     0583                     l2992:
  9860                           
  9861                           ;C:\Program Files\Microchip\xc8\v2.50\pic\sources\c99\common\doprnt.c: 778:     i = 0;
  9862     0583  01C3               	clrf	efgtoa@i^(0+128)
  9863     0584  01C4               	clrf	(efgtoa@i+1)^(0+128)
  9864                           
  9865                           ;C:\Program Files\Microchip\xc8\v2.50\pic\sources\c99\common\doprnt.c: 779:     while ((
      +                          i < m) && (n < (80 - 5))) {
  9866     0585  2F24               	goto	l3036
  9867     0586                     l2994:
  9868                           
  9869                           ;C:\Program Files\Microchip\xc8\v2.50\pic\sources\c99\common\doprnt.c: 780:         l = 
      +                          floorf(h/u.f);
  9870     0586  1683               	bsf	3,5	;RP0=1, select bank1
  9871     0587  1303               	bcf	3,6	;RP1=0, select bank1
  9872     0588  084F               	movf	(efgtoa@u+3)^(0+128),w
  9873     0589  1283               	bcf	3,5	;RP0=0, select bank0
  9874     058A  1303               	bcf	3,6	;RP1=0, select bank0
  9875     058B  00BD               	movwf	___fldiv@a+3
  9876     058C  1683               	bsf	3,5	;RP0=1, select bank1
  9877     058D  1303               	bcf	3,6	;RP1=0, select bank1
  9878     058E  084E               	movf	(efgtoa@u+2)^(0+128),w
  9879     058F  1283               	bcf	3,5	;RP0=0, select bank0
  9880     0590  1303               	bcf	3,6	;RP1=0, select bank0
  9881     0591  00BC               	movwf	___fldiv@a+2
  9882     0592  1683               	bsf	3,5	;RP0=1, select bank1
  9883     0593  1303               	bcf	3,6	;RP1=0, select bank1
  9884     0594  084D               	movf	(efgtoa@u+1)^(0+128),w
  9885     0595  1283               	bcf	3,5	;RP0=0, select bank0
  9886     0596  1303               	bcf	3,6	;RP1=0, select bank0
  9887     0597  00BB               	movwf	___fldiv@a+1
  9888     0598  1683               	bsf	3,5	;RP0=1, select bank1
  9889     0599  1303               	bcf	3,6	;RP1=0, select bank1
  9890     059A  084C               	movf	efgtoa@u^(0+128),w
  9891     059B  1283               	bcf	3,5	;RP0=0, select bank0
  9892     059C  1303               	bcf	3,6	;RP1=0, select bank0
  9893     059D  00BA               	movwf	___fldiv@a
  9894     059E  1683               	bsf	3,5	;RP0=1, select bank1
  9895     059F  1303               	bcf	3,6	;RP1=0, select bank1
  9896     05A0  083E               	movf	(efgtoa@h+3)^(0+128),w
  9897     05A1  1283               	bcf	3,5	;RP0=0, select bank0
  9898     05A2  1303               	bcf	3,6	;RP1=0, select bank0
  9899     05A3  00C1               	movwf	___fldiv@b+3
  9900     05A4  1683               	bsf	3,5	;RP0=1, select bank1
  9901     05A5  1303               	bcf	3,6	;RP1=0, select bank1
  9902     05A6  083D               	movf	(efgtoa@h+2)^(0+128),w
  9903     05A7  1283               	bcf	3,5	;RP0=0, select bank0
  9904     05A8  1303               	bcf	3,6	;RP1=0, select bank0
  9905     05A9  00C0               	movwf	___fldiv@b+2
  9906     05AA  1683               	bsf	3,5	;RP0=1, select bank1
  9907     05AB  1303               	bcf	3,6	;RP1=0, select bank1
  9908     05AC  083C               	movf	(efgtoa@h+1)^(0+128),w
  9909     05AD  1283               	bcf	3,5	;RP0=0, select bank0
  9910     05AE  1303               	bcf	3,6	;RP1=0, select bank0
  9911     05AF  00BF               	movwf	___fldiv@b+1
  9912     05B0  1683               	bsf	3,5	;RP0=1, select bank1
  9913     05B1  1303               	bcf	3,6	;RP1=0, select bank1
  9914     05B2  083B               	movf	efgtoa@h^(0+128),w
  9915     05B3  1283               	bcf	3,5	;RP0=0, select bank0
  9916     05B4  1303               	bcf	3,6	;RP1=0, select bank0
  9917     05B5  00BE               	movwf	___fldiv@b
  9918     05B6  120A  158A  2098  120A  118A  	fcall	___fldiv
  9919     05BB  1283               	bcf	3,5	;RP0=0, select bank0
  9920     05BC  1303               	bcf	3,6	;RP1=0, select bank0
  9921     05BD  083D               	movf	?___fldiv+3,w
  9922     05BE  00D7               	movwf	floorf@x+3
  9923     05BF  083C               	movf	?___fldiv+2,w
  9924     05C0  00D6               	movwf	floorf@x+2
  9925     05C1  083B               	movf	?___fldiv+1,w
  9926     05C2  00D5               	movwf	floorf@x+1
  9927     05C3  083A               	movf	?___fldiv,w
  9928     05C4  00D4               	movwf	floorf@x
  9929     05C5  160A  118A  2567  120A  118A  	fcall	_floorf
  9930     05CA  1283               	bcf	3,5	;RP0=0, select bank0
  9931     05CB  1303               	bcf	3,6	;RP1=0, select bank0
  9932     05CC  0857               	movf	?_floorf+3,w
  9933     05CD  1683               	bsf	3,5	;RP0=1, select bank1
  9934     05CE  1303               	bcf	3,6	;RP1=0, select bank1
  9935     05CF  00C2               	movwf	(efgtoa@l+3)^(0+128)
  9936     05D0  1283               	bcf	3,5	;RP0=0, select bank0
  9937     05D1  1303               	bcf	3,6	;RP1=0, select bank0
  9938     05D2  0856               	movf	?_floorf+2,w
  9939     05D3  1683               	bsf	3,5	;RP0=1, select bank1
  9940     05D4  1303               	bcf	3,6	;RP1=0, select bank1
  9941     05D5  00C1               	movwf	(efgtoa@l+2)^(0+128)
  9942     05D6  1283               	bcf	3,5	;RP0=0, select bank0
  9943     05D7  1303               	bcf	3,6	;RP1=0, select bank0
  9944     05D8  0855               	movf	?_floorf+1,w
  9945     05D9  1683               	bsf	3,5	;RP0=1, select bank1
  9946     05DA  1303               	bcf	3,6	;RP1=0, select bank1
  9947     05DB  00C0               	movwf	(efgtoa@l+1)^(0+128)
  9948     05DC  1283               	bcf	3,5	;RP0=0, select bank0
  9949     05DD  1303               	bcf	3,6	;RP1=0, select bank0
  9950     05DE  0854               	movf	?_floorf,w
  9951     05DF  1683               	bsf	3,5	;RP0=1, select bank1
  9952     05E0  1303               	bcf	3,6	;RP1=0, select bank1
  9953     05E1  00BF               	movwf	efgtoa@l^(0+128)
  9954                           
  9955                           ;C:\Program Files\Microchip\xc8\v2.50\pic\sources\c99\common\doprnt.c: 781:         d = 
      +                          (int)l > 9 ? 9 : (int)l;
  9956     05E2  0842               	movf	(efgtoa@l+3)^(0+128),w
  9957     05E3  00F3               	movwf	___fltol@f1+3
  9958     05E4  0841               	movf	(efgtoa@l+2)^(0+128),w
  9959     05E5  00F2               	movwf	___fltol@f1+2
  9960     05E6  0840               	movf	(efgtoa@l+1)^(0+128),w
  9961     05E7  00F1               	movwf	___fltol@f1+1
  9962     05E8  083F               	movf	efgtoa@l^(0+128),w
  9963     05E9  00F0               	movwf	___fltol@f1
  9964     05EA  120A  158A  2024  120A  118A  	fcall	___fltol
  9965     05EF  0871               	movf	?___fltol+1,w
  9966     05F0  3A80               	xorlw	128
  9967     05F1  00FF               	movwf	btemp+1
  9968     05F2  3080               	movlw	128
  9969     05F3  027F               	subwf	btemp+1,w
  9970     05F4  1D03               	skipz
  9971     05F5  2DF8               	goto	u4695
  9972     05F6  300A               	movlw	10
  9973     05F7  0270               	subwf	?___fltol,w
  9974     05F8                     u4695:
  9975     05F8  1803               	skipnc
  9976     05F9  2DFB               	goto	u4691
  9977     05FA  2DFC               	goto	u4690
  9978     05FB                     u4691:
  9979     05FB  2E12               	goto	l2998
  9980     05FC                     u4690:
  9981     05FC                     l2996:
  9982     05FC  1683               	bsf	3,5	;RP0=1, select bank1
  9983     05FD  1303               	bcf	3,6	;RP1=0, select bank1
  9984     05FE  0842               	movf	(efgtoa@l+3)^(0+128),w
  9985     05FF  00F3               	movwf	___fltol@f1+3
  9986     0600  0841               	movf	(efgtoa@l+2)^(0+128),w
  9987     0601  00F2               	movwf	___fltol@f1+2
  9988     0602  0840               	movf	(efgtoa@l+1)^(0+128),w
  9989     0603  00F1               	movwf	___fltol@f1+1
  9990     0604  083F               	movf	efgtoa@l^(0+128),w
  9991     0605  00F0               	movwf	___fltol@f1
  9992     0606  120A  158A  2024  120A  118A  	fcall	___fltol
  9993     060B  0871               	movf	?___fltol+1,w
  9994     060C  1683               	bsf	3,5	;RP0=1, select bank1
  9995     060D  1303               	bcf	3,6	;RP1=0, select bank1
  9996     060E  00B0               	movwf	(efgtoa@d+1)^(0+128)
  9997     060F  0870               	movf	?___fltol,w
  9998     0610  00AF               	movwf	efgtoa@d^(0+128)
  9999     0611  2E18               	goto	l3000
 10000     0612                     l2998:
 10001     0612  3009               	movlw	9
 10002     0613  1683               	bsf	3,5	;RP0=1, select bank1
 10003     0614  1303               	bcf	3,6	;RP1=0, select bank1
 10004     0615  00AF               	movwf	efgtoa@d^(0+128)
 10005     0616  3000               	movlw	0
 10006     0617  00B0               	movwf	(efgtoa@d^(0+128)+1)
 10007     0618                     l3000:
 10008                           
 10009                           ;C:\Program Files\Microchip\xc8\v2.50\pic\sources\c99\common\doprnt.c: 792:   {;C:\Progr
      +                          am Files\Microchip\xc8\v2.50\pic\sources\c99\common\doprnt.c: 793:             if (!pp &
      +                          & (ne < 0)) {
 10010     0618  082C               	movf	efgtoa@pp^(0+128),w
 10011     0619  1D03               	btfss	3,2
 10012     061A  2E1C               	goto	u4701
 10013     061B  2E1D               	goto	u4700
 10014     061C                     u4701:
 10015     061C  2E4E               	goto	l3020
 10016     061D                     u4700:
 10017     061D                     l3002:
 10018     061D  1FA5               	btfss	(efgtoa@ne+1)^(0+128),7
 10019     061E  2E20               	goto	u4711
 10020     061F  2E21               	goto	u4710
 10021     0620                     u4711:
 10022     0620  2E4E               	goto	l3020
 10023     0621                     u4710:
 10024     0621                     l3004:
 10025                           
 10026                           ;C:\Program Files\Microchip\xc8\v2.50\pic\sources\c99\common\doprnt.c: 794:             
      +                              dbuf[n++] = '.';
 10027     0621  084A               	movf	efgtoa@n^(0+128),w
 10028     0622  3E10               	addlw	(low (_dbuf| (0+256)))& (0+255)
 10029     0623  0084               	movwf	4
 10030     0624  302E               	movlw	46
 10031     0625  1783               	bsf	3,7	;select IRP bank2
 10032     0626  0080               	movwf	0
 10033     0627                     l3006:
 10034     0627  3001               	movlw	1
 10035     0628  07CA               	addwf	efgtoa@n^(0+128),f
 10036     0629  1803               	skipnc
 10037     062A  0ACB               	incf	(efgtoa@n+1)^(0+128),f
 10038     062B  3000               	movlw	0
 10039     062C  07CB               	addwf	(efgtoa@n+1)^(0+128),f
 10040     062D                     l3008:
 10041                           
 10042                           ;C:\Program Files\Microchip\xc8\v2.50\pic\sources\c99\common\doprnt.c: 795:             
      +                              --w;
 10043     062D  30FF               	movlw	255
 10044     062E  07B5               	addwf	efgtoa@w^(0+128),f
 10045     062F  1803               	skipnc
 10046     0630  0AB6               	incf	(efgtoa@w+1)^(0+128),f
 10047     0631  30FF               	movlw	255
 10048     0632  07B6               	addwf	(efgtoa@w+1)^(0+128),f
 10049     0633                     l3010:
 10050                           
 10051                           ;C:\Program Files\Microchip\xc8\v2.50\pic\sources\c99\common\doprnt.c: 796:             
      +                              pp = 1;
 10052     0633  3001               	movlw	1
 10053     0634  00AC               	movwf	efgtoa@pp^(0+128)
 10054     0635  2E4E               	goto	l3020
 10055     0636                     l3012:
 10056                           
 10057                           ;C:\Program Files\Microchip\xc8\v2.50\pic\sources\c99\common\doprnt.c: 799:             
      +                              dbuf[n++] = '0';
 10058     0636  084A               	movf	efgtoa@n^(0+128),w
 10059     0637  3E10               	addlw	(low (_dbuf| (0+256)))& (0+255)
 10060     0638  0084               	movwf	4
 10061     0639  3030               	movlw	48
 10062     063A  1783               	bsf	3,7	;select IRP bank2
 10063     063B  0080               	movwf	0
 10064     063C                     l3014:
 10065     063C  3001               	movlw	1
 10066     063D  07CA               	addwf	efgtoa@n^(0+128),f
 10067     063E  1803               	skipnc
 10068     063F  0ACB               	incf	(efgtoa@n+1)^(0+128),f
 10069     0640  3000               	movlw	0
 10070     0641  07CB               	addwf	(efgtoa@n+1)^(0+128),f
 10071     0642                     l3016:
 10072                           
 10073                           ;C:\Program Files\Microchip\xc8\v2.50\pic\sources\c99\common\doprnt.c: 800:             
      +                              --w;
 10074     0642  30FF               	movlw	255
 10075     0643  07B5               	addwf	efgtoa@w^(0+128),f
 10076     0644  1803               	skipnc
 10077     0645  0AB6               	incf	(efgtoa@w+1)^(0+128),f
 10078     0646  30FF               	movlw	255
 10079     0647  07B6               	addwf	(efgtoa@w+1)^(0+128),f
 10080     0648                     l3018:
 10081                           
 10082                           ;C:\Program Files\Microchip\xc8\v2.50\pic\sources\c99\common\doprnt.c: 801:             
      +                              --t;
 10083     0648  30FF               	movlw	255
 10084     0649  07A8               	addwf	efgtoa@t^(0+128),f
 10085     064A  1803               	skipnc
 10086     064B  0AA9               	incf	(efgtoa@t+1)^(0+128),f
 10087     064C  30FF               	movlw	255
 10088     064D  07A9               	addwf	(efgtoa@t+1)^(0+128),f
 10089     064E                     l3020:
 10090                           
 10091                           ;C:\Program Files\Microchip\xc8\v2.50\pic\sources\c99\common\doprnt.c: 798:             
      +                          while (t) {
 10092     064E  0828               	movf	efgtoa@t^(0+128),w
 10093     064F  0429               	iorwf	(efgtoa@t+1)^(0+128),w
 10094     0650  1D03               	btfss	3,2
 10095     0651  2E53               	goto	u4721
 10096     0652  2E54               	goto	u4720
 10097     0653                     u4721:
 10098     0653  2E36               	goto	l3012
 10099     0654                     u4720:
 10100     0654                     l3022:
 10101                           
 10102                           ;C:\Program Files\Microchip\xc8\v2.50\pic\sources\c99\common\doprnt.c: 803:             
      +                          dbuf[n++] = (char)((int)'0' + d);
 10103     0654  084A               	movf	efgtoa@n^(0+128),w
 10104     0655  3E10               	addlw	(low (_dbuf| (0+256)))& (0+255)
 10105     0656  0084               	movwf	4
 10106     0657  082F               	movf	efgtoa@d^(0+128),w
 10107     0658  3E30               	addlw	48
 10108     0659  1783               	bsf	3,7	;select IRP bank2
 10109     065A  0080               	movwf	0
 10110     065B                     l3024:
 10111     065B  3001               	movlw	1
 10112     065C  07CA               	addwf	efgtoa@n^(0+128),f
 10113     065D  1803               	skipnc
 10114     065E  0ACB               	incf	(efgtoa@n+1)^(0+128),f
 10115     065F  3000               	movlw	0
 10116     0660  07CB               	addwf	(efgtoa@n+1)^(0+128),f
 10117     0661                     l3026:
 10118                           
 10119                           ;C:\Program Files\Microchip\xc8\v2.50\pic\sources\c99\common\doprnt.c: 804:             
      +                          --w;
 10120     0661  30FF               	movlw	255
 10121     0662  07B5               	addwf	efgtoa@w^(0+128),f
 10122     0663  1803               	skipnc
 10123     0664  0AB6               	incf	(efgtoa@w+1)^(0+128),f
 10124     0665  30FF               	movlw	255
 10125     0666  07B6               	addwf	(efgtoa@w+1)^(0+128),f
 10126     0667                     l3028:
 10127                           
 10128                           ;C:\Program Files\Microchip\xc8\v2.50\pic\sources\c99\common\doprnt.c: 805:         };C:
      +                          \Program Files\Microchip\xc8\v2.50\pic\sources\c99\common\doprnt.c: 806:         h -= l*
      +                          u.f;
 10129     0667  084F               	movf	(efgtoa@u+3)^(0+128),w
 10130     0668  1283               	bcf	3,5	;RP0=0, select bank0
 10131     0669  1303               	bcf	3,6	;RP1=0, select bank0
 10132     066A  00A7               	movwf	___flmul@a+3
 10133     066B  1683               	bsf	3,5	;RP0=1, select bank1
 10134     066C  1303               	bcf	3,6	;RP1=0, select bank1
 10135     066D  084E               	movf	(efgtoa@u+2)^(0+128),w
 10136     066E  1283               	bcf	3,5	;RP0=0, select bank0
 10137     066F  1303               	bcf	3,6	;RP1=0, select bank0
 10138     0670  00A6               	movwf	___flmul@a+2
 10139     0671  1683               	bsf	3,5	;RP0=1, select bank1
 10140     0672  1303               	bcf	3,6	;RP1=0, select bank1
 10141     0673  084D               	movf	(efgtoa@u+1)^(0+128),w
 10142     0674  1283               	bcf	3,5	;RP0=0, select bank0
 10143     0675  1303               	bcf	3,6	;RP1=0, select bank0
 10144     0676  00A5               	movwf	___flmul@a+1
 10145     0677  1683               	bsf	3,5	;RP0=1, select bank1
 10146     0678  1303               	bcf	3,6	;RP1=0, select bank1
 10147     0679  084C               	movf	efgtoa@u^(0+128),w
 10148     067A  1283               	bcf	3,5	;RP0=0, select bank0
 10149     067B  1303               	bcf	3,6	;RP1=0, select bank0
 10150     067C  00A4               	movwf	___flmul@a
 10151     067D  1683               	bsf	3,5	;RP0=1, select bank1
 10152     067E  1303               	bcf	3,6	;RP1=0, select bank1
 10153     067F  0842               	movf	(efgtoa@l+3)^(0+128),w
 10154     0680  1283               	bcf	3,5	;RP0=0, select bank0
 10155     0681  1303               	bcf	3,6	;RP1=0, select bank0
 10156     0682  00A3               	movwf	___flmul@b+3
 10157     0683  1683               	bsf	3,5	;RP0=1, select bank1
 10158     0684  1303               	bcf	3,6	;RP1=0, select bank1
 10159     0685  0841               	movf	(efgtoa@l+2)^(0+128),w
 10160     0686  1283               	bcf	3,5	;RP0=0, select bank0
 10161     0687  1303               	bcf	3,6	;RP1=0, select bank0
 10162     0688  00A2               	movwf	___flmul@b+2
 10163     0689  1683               	bsf	3,5	;RP0=1, select bank1
 10164     068A  1303               	bcf	3,6	;RP1=0, select bank1
 10165     068B  0840               	movf	(efgtoa@l+1)^(0+128),w
 10166     068C  1283               	bcf	3,5	;RP0=0, select bank0
 10167     068D  1303               	bcf	3,6	;RP1=0, select bank0
 10168     068E  00A1               	movwf	___flmul@b+1
 10169     068F  1683               	bsf	3,5	;RP0=1, select bank1
 10170     0690  1303               	bcf	3,6	;RP1=0, select bank1
 10171     0691  083F               	movf	efgtoa@l^(0+128),w
 10172     0692  1283               	bcf	3,5	;RP0=0, select bank0
 10173     0693  1303               	bcf	3,6	;RP1=0, select bank0
 10174     0694  00A0               	movwf	___flmul@b
 10175     0695  120A  158A  24BE  120A  118A  	fcall	___flmul
 10176     069A  1283               	bcf	3,5	;RP0=0, select bank0
 10177     069B  1303               	bcf	3,6	;RP1=0, select bank0
 10178     069C  0823               	movf	?___flmul+3,w
 10179     069D  00BD               	movwf	___flsub@a+3
 10180     069E  0822               	movf	?___flmul+2,w
 10181     069F  00BC               	movwf	___flsub@a+2
 10182     06A0  0821               	movf	?___flmul+1,w
 10183     06A1  00BB               	movwf	___flsub@a+1
 10184     06A2  0820               	movf	?___flmul,w
 10185     06A3  00BA               	movwf	___flsub@a
 10186     06A4  1683               	bsf	3,5	;RP0=1, select bank1
 10187     06A5  1303               	bcf	3,6	;RP1=0, select bank1
 10188     06A6  083E               	movf	(efgtoa@h+3)^(0+128),w
 10189     06A7  1283               	bcf	3,5	;RP0=0, select bank0
 10190     06A8  1303               	bcf	3,6	;RP1=0, select bank0
 10191     06A9  00C1               	movwf	___flsub@b+3
 10192     06AA  1683               	bsf	3,5	;RP0=1, select bank1
 10193     06AB  1303               	bcf	3,6	;RP1=0, select bank1
 10194     06AC  083D               	movf	(efgtoa@h+2)^(0+128),w
 10195     06AD  1283               	bcf	3,5	;RP0=0, select bank0
 10196     06AE  1303               	bcf	3,6	;RP1=0, select bank0
 10197     06AF  00C0               	movwf	___flsub@b+2
 10198     06B0  1683               	bsf	3,5	;RP0=1, select bank1
 10199     06B1  1303               	bcf	3,6	;RP1=0, select bank1
 10200     06B2  083C               	movf	(efgtoa@h+1)^(0+128),w
 10201     06B3  1283               	bcf	3,5	;RP0=0, select bank0
 10202     06B4  1303               	bcf	3,6	;RP1=0, select bank0
 10203     06B5  00BF               	movwf	___flsub@b+1
 10204     06B6  1683               	bsf	3,5	;RP0=1, select bank1
 10205     06B7  1303               	bcf	3,6	;RP1=0, select bank1
 10206     06B8  083B               	movf	efgtoa@h^(0+128),w
 10207     06B9  1283               	bcf	3,5	;RP0=0, select bank0
 10208     06BA  1303               	bcf	3,6	;RP1=0, select bank0
 10209     06BB  00BE               	movwf	___flsub@b
 10210     06BC  120A  158A  2000  120A  118A  	fcall	___flsub
 10211     06C1  1283               	bcf	3,5	;RP0=0, select bank0
 10212     06C2  1303               	bcf	3,6	;RP1=0, select bank0
 10213     06C3  083D               	movf	?___flsub+3,w
 10214     06C4  1683               	bsf	3,5	;RP0=1, select bank1
 10215     06C5  1303               	bcf	3,6	;RP1=0, select bank1
 10216     06C6  00BE               	movwf	(efgtoa@h+3)^(0+128)
 10217     06C7  1283               	bcf	3,5	;RP0=0, select bank0
 10218     06C8  1303               	bcf	3,6	;RP1=0, select bank0
 10219     06C9  083C               	movf	?___flsub+2,w
 10220     06CA  1683               	bsf	3,5	;RP0=1, select bank1
 10221     06CB  1303               	bcf	3,6	;RP1=0, select bank1
 10222     06CC  00BD               	movwf	(efgtoa@h+2)^(0+128)
 10223     06CD  1283               	bcf	3,5	;RP0=0, select bank0
 10224     06CE  1303               	bcf	3,6	;RP1=0, select bank0
 10225     06CF  083B               	movf	?___flsub+1,w
 10226     06D0  1683               	bsf	3,5	;RP0=1, select bank1
 10227     06D1  1303               	bcf	3,6	;RP1=0, select bank1
 10228     06D2  00BC               	movwf	(efgtoa@h+1)^(0+128)
 10229     06D3  1283               	bcf	3,5	;RP0=0, select bank0
 10230     06D4  1303               	bcf	3,6	;RP1=0, select bank0
 10231     06D5  083A               	movf	?___flsub,w
 10232     06D6  1683               	bsf	3,5	;RP0=1, select bank1
 10233     06D7  1303               	bcf	3,6	;RP1=0, select bank1
 10234     06D8  00BB               	movwf	efgtoa@h^(0+128)
 10235     06D9                     l3030:
 10236                           
 10237                           ;C:\Program Files\Microchip\xc8\v2.50\pic\sources\c99\common\doprnt.c: 807:         u.f 
      +                          = u.f/10.0;
 10238     06D9  3041               	movlw	65
 10239     06DA  1283               	bcf	3,5	;RP0=0, select bank0
 10240     06DB  1303               	bcf	3,6	;RP1=0, select bank0
 10241     06DC  00BD               	movwf	___fldiv@a+3
 10242     06DD  3020               	movlw	32
 10243     06DE  00BC               	movwf	___fldiv@a+2
 10244     06DF  3000               	movlw	0
 10245     06E0  00BB               	movwf	___fldiv@a+1
 10246     06E1  3000               	movlw	0
 10247     06E2  00BA               	movwf	___fldiv@a
 10248     06E3  1683               	bsf	3,5	;RP0=1, select bank1
 10249     06E4  1303               	bcf	3,6	;RP1=0, select bank1
 10250     06E5  084F               	movf	(efgtoa@u+3)^(0+128),w
 10251     06E6  1283               	bcf	3,5	;RP0=0, select bank0
 10252     06E7  1303               	bcf	3,6	;RP1=0, select bank0
 10253     06E8  00C1               	movwf	___fldiv@b+3
 10254     06E9  1683               	bsf	3,5	;RP0=1, select bank1
 10255     06EA  1303               	bcf	3,6	;RP1=0, select bank1
 10256     06EB  084E               	movf	(efgtoa@u+2)^(0+128),w
 10257     06EC  1283               	bcf	3,5	;RP0=0, select bank0
 10258     06ED  1303               	bcf	3,6	;RP1=0, select bank0
 10259     06EE  00C0               	movwf	___fldiv@b+2
 10260     06EF  1683               	bsf	3,5	;RP0=1, select bank1
 10261     06F0  1303               	bcf	3,6	;RP1=0, select bank1
 10262     06F1  084D               	movf	(efgtoa@u+1)^(0+128),w
 10263     06F2  1283               	bcf	3,5	;RP0=0, select bank0
 10264     06F3  1303               	bcf	3,6	;RP1=0, select bank0
 10265     06F4  00BF               	movwf	___fldiv@b+1
 10266     06F5  1683               	bsf	3,5	;RP0=1, select bank1
 10267     06F6  1303               	bcf	3,6	;RP1=0, select bank1
 10268     06F7  084C               	movf	efgtoa@u^(0+128),w
 10269     06F8  1283               	bcf	3,5	;RP0=0, select bank0
 10270     06F9  1303               	bcf	3,6	;RP1=0, select bank0
 10271     06FA  00BE               	movwf	___fldiv@b
 10272     06FB  120A  158A  2098  120A  118A  	fcall	___fldiv
 10273     0700  1283               	bcf	3,5	;RP0=0, select bank0
 10274     0701  1303               	bcf	3,6	;RP1=0, select bank0
 10275     0702  083D               	movf	?___fldiv+3,w
 10276     0703  1683               	bsf	3,5	;RP0=1, select bank1
 10277     0704  1303               	bcf	3,6	;RP1=0, select bank1
 10278     0705  00CF               	movwf	(efgtoa@u+3)^(0+128)
 10279     0706  1283               	bcf	3,5	;RP0=0, select bank0
 10280     0707  1303               	bcf	3,6	;RP1=0, select bank0
 10281     0708  083C               	movf	?___fldiv+2,w
 10282     0709  1683               	bsf	3,5	;RP0=1, select bank1
 10283     070A  1303               	bcf	3,6	;RP1=0, select bank1
 10284     070B  00CE               	movwf	(efgtoa@u+2)^(0+128)
 10285     070C  1283               	bcf	3,5	;RP0=0, select bank0
 10286     070D  1303               	bcf	3,6	;RP1=0, select bank0
 10287     070E  083B               	movf	?___fldiv+1,w
 10288     070F  1683               	bsf	3,5	;RP0=1, select bank1
 10289     0710  1303               	bcf	3,6	;RP1=0, select bank1
 10290     0711  00CD               	movwf	(efgtoa@u+1)^(0+128)
 10291     0712  1283               	bcf	3,5	;RP0=0, select bank0
 10292     0713  1303               	bcf	3,6	;RP1=0, select bank0
 10293     0714  083A               	movf	?___fldiv,w
 10294     0715  1683               	bsf	3,5	;RP0=1, select bank1
 10295     0716  1303               	bcf	3,6	;RP1=0, select bank1
 10296     0717  00CC               	movwf	efgtoa@u^(0+128)
 10297     0718                     l3032:
 10298                           
 10299                           ;C:\Program Files\Microchip\xc8\v2.50\pic\sources\c99\common\doprnt.c: 808:         --ne
      +                          ;
 10300     0718  30FF               	movlw	255
 10301     0719  07A4               	addwf	efgtoa@ne^(0+128),f
 10302     071A  1803               	skipnc
 10303     071B  0AA5               	incf	(efgtoa@ne+1)^(0+128),f
 10304     071C  30FF               	movlw	255
 10305     071D  07A5               	addwf	(efgtoa@ne+1)^(0+128),f
 10306     071E                     l3034:
 10307                           
 10308                           ;C:\Program Files\Microchip\xc8\v2.50\pic\sources\c99\common\doprnt.c: 809:         ++i;
 10309     071E  3001               	movlw	1
 10310     071F  07C3               	addwf	efgtoa@i^(0+128),f
 10311     0720  1803               	skipnc
 10312     0721  0AC4               	incf	(efgtoa@i+1)^(0+128),f
 10313     0722  3000               	movlw	0
 10314     0723  07C4               	addwf	(efgtoa@i+1)^(0+128),f
 10315     0724                     l3036:
 10316                           
 10317                           ;C:\Program Files\Microchip\xc8\v2.50\pic\sources\c99\common\doprnt.c: 779:     while ((
      +                          i < m) && (n < (80 - 5))) {
 10318     0724  0844               	movf	(efgtoa@i+1)^(0+128),w
 10319     0725  3A80               	xorlw	128
 10320     0726  00A0               	movwf	??_efgtoa^(0+128)
 10321     0727  0832               	movf	(efgtoa@m+1)^(0+128),w
 10322     0728  3A80               	xorlw	128
 10323     0729  0220               	subwf	??_efgtoa^(0+128),w
 10324     072A  1D03               	skipz
 10325     072B  2F2E               	goto	u4735
 10326     072C  0831               	movf	efgtoa@m^(0+128),w
 10327     072D  0243               	subwf	efgtoa@i^(0+128),w
 10328     072E                     u4735:
 10329     072E  1803               	skipnc
 10330     072F  2F31               	goto	u4731
 10331     0730  2F32               	goto	u4730
 10332     0731                     u4731:
 10333     0731  2F41               	goto	l3040
 10334     0732                     u4730:
 10335     0732                     l3038:
 10336     0732  1683               	bsf	3,5	;RP0=1, select bank1
 10337     0733  1303               	bcf	3,6	;RP1=0, select bank1
 10338     0734  084B               	movf	(efgtoa@n+1)^(0+128),w
 10339     0735  3A80               	xorlw	128
 10340     0736  00FF               	movwf	btemp+1
 10341     0737  3080               	movlw	128
 10342     0738  027F               	subwf	btemp+1,w
 10343     0739  1D03               	skipz
 10344     073A  2F3D               	goto	u4745
 10345     073B  304B               	movlw	75
 10346     073C  024A               	subwf	efgtoa@n^(0+128),w
 10347     073D                     u4745:
 10348     073D  1C03               	skipc
 10349     073E  2F40               	goto	u4741
 10350     073F  2F41               	goto	u4740
 10351     0740                     u4741:
 10352     0740  2D86               	goto	l2994
 10353     0741                     u4740:
 10354     0741                     l3040:
 10355                           
 10356                           ;C:\Program Files\Microchip\xc8\v2.50\pic\sources\c99\common\doprnt.c: 816:  i = sizeof(
      +                          dbuf) - 1;
 10357     0741  304F               	movlw	79
 10358     0742  1683               	bsf	3,5	;RP0=1, select bank1
 10359     0743  1303               	bcf	3,6	;RP1=0, select bank1
 10360     0744  00C3               	movwf	efgtoa@i^(0+128)
 10361     0745  3000               	movlw	0
 10362     0746  00C4               	movwf	(efgtoa@i^(0+128)+1)
 10363     0747                     l3042:
 10364                           
 10365                           ;C:\Program Files\Microchip\xc8\v2.50\pic\sources\c99\common\doprnt.c: 817:     dbuf[i] 
      +                          = '\0';
 10366     0747  0843               	movf	efgtoa@i^(0+128),w
 10367     0748  3E10               	addlw	(low (_dbuf| (0+256)))& (0+255)
 10368     0749  0084               	movwf	4
 10369     074A  1783               	bsf	3,7	;select IRP bank2
 10370     074B  0180               	clrf	0
 10371     074C                     l3044:
 10372                           
 10373                           ;C:\Program Files\Microchip\xc8\v2.50\pic\sources\c99\common\doprnt.c: 848:  memcpy(&dbu
      +                          f[i-n], &dbuf[0], (size_t)n);
 10374     074C  3010               	movlw	(low (_dbuf| (0+256)))& (0+255)
 10375     074D  00A0               	movwf	??_efgtoa^(0+128)
 10376     074E  084A               	movf	efgtoa@n^(0+128),w
 10377     074F  02A0               	subwf	??_efgtoa^(0+128),f
 10378     0750  0843               	movf	efgtoa@i^(0+128),w
 10379     0751  0720               	addwf	??_efgtoa^(0+128),w
 10380     0752  00F0               	movwf	memcpy@d1
 10381     0753  3010               	movlw	(low (_dbuf| (0+256)))& (0+255)
 10382     0754  00F1               	movwf	memcpy@s1
 10383     0755  084B               	movf	(efgtoa@n+1)^(0+128),w
 10384     0756  00F3               	movwf	memcpy@n+1
 10385     0757  084A               	movf	efgtoa@n^(0+128),w
 10386     0758  00F2               	movwf	memcpy@n
 10387     0759  160A  158A  2677  120A  118A  	fcall	_memcpy
 10388     075E                     l3046:
 10389                           
 10390                           ;C:\Program Files\Microchip\xc8\v2.50\pic\sources\c99\common\doprnt.c: 849:  n = i-n;
 10391     075E  1683               	bsf	3,5	;RP0=1, select bank1
 10392     075F  1303               	bcf	3,6	;RP1=0, select bank1
 10393     0760  084A               	movf	efgtoa@n^(0+128),w
 10394     0761  0243               	subwf	efgtoa@i^(0+128),w
 10395     0762  00CA               	movwf	efgtoa@n^(0+128)
 10396     0763  084B               	movf	(efgtoa@n+1)^(0+128),w
 10397     0764  1C03               	skipc
 10398     0765  0A4B               	incf	(efgtoa@n+1)^(0+128),w
 10399     0766  0244               	subwf	(efgtoa@i+1)^(0+128),w
 10400     0767  00CB               	movwf	(efgtoa@n+1)^(0+128)
 10401     0768                     l3048:
 10402                           
 10403                           ;C:\Program Files\Microchip\xc8\v2.50\pic\sources\c99\common\doprnt.c: 850:  i = sign ==
      +                           0 ? 0 : 1;
 10404     0768  0845               	movf	efgtoa@sign^(0+128),w
 10405     0769  1D03               	btfss	3,2
 10406     076A  2F6C               	goto	u4751
 10407     076B  2F6E               	goto	u4750
 10408     076C                     u4751:
 10409     076C  3001               	movlw	1
 10410     076D  2F6F               	goto	u4760
 10411     076E                     u4750:
 10412     076E  3000               	movlw	0
 10413     076F                     u4760:
 10414     076F  00A0               	movwf	??_efgtoa^(0+128)
 10415     0770  01A1               	clrf	(??_efgtoa^(0+128)+1)
 10416     0771  0820               	movf	??_efgtoa^(0+128),w
 10417     0772  00C3               	movwf	efgtoa@i^(0+128)
 10418     0773  0821               	movf	(??_efgtoa+1)^(0+128),w
 10419     0774  00C4               	movwf	(efgtoa@i+1)^(0+128)
 10420     0775                     l3050:
 10421                           
 10422                           ;C:\Program Files\Microchip\xc8\v2.50\pic\sources\c99\common\doprnt.c: 853:  if (flags &
      +                           (1 << 1)) {
 10423     0775  1CEF               	btfss	_flags^(0+128),1
 10424     0776  2F78               	goto	u4771
 10425     0777  2F79               	goto	u4770
 10426     0778                     u4771:
 10427     0778  2FAC               	goto	l3062
 10428     0779                     u4770:
 10429     0779  2F8E               	goto	l3058
 10430     077A                     l3054:
 10431                           
 10432                           ;C:\Program Files\Microchip\xc8\v2.50\pic\sources\c99\common\doprnt.c: 855:    dbuf[--n]
      +                           = '0';
 10433     077A  30FF               	movlw	255
 10434     077B  1683               	bsf	3,5	;RP0=1, select bank1
 10435     077C  1303               	bcf	3,6	;RP1=0, select bank1
 10436     077D  07CA               	addwf	efgtoa@n^(0+128),f
 10437     077E  1803               	skipnc
 10438     077F  0ACB               	incf	(efgtoa@n+1)^(0+128),f
 10439     0780  30FF               	movlw	255
 10440     0781  07CB               	addwf	(efgtoa@n+1)^(0+128),f
 10441     0782  084A               	movf	efgtoa@n^(0+128),w
 10442     0783  3E10               	addlw	(low (_dbuf| (0+256)))& (0+255)
 10443     0784  0084               	movwf	4
 10444     0785  3030               	movlw	48
 10445     0786  1783               	bsf	3,7	;select IRP bank2
 10446     0787  0080               	movwf	0
 10447     0788                     l3056:
 10448                           
 10449                           ;C:\Program Files\Microchip\xc8\v2.50\pic\sources\c99\common\doprnt.c: 856:    w--;
 10450     0788  30FF               	movlw	255
 10451     0789  07B5               	addwf	efgtoa@w^(0+128),f
 10452     078A  1803               	skipnc
 10453     078B  0AB6               	incf	(efgtoa@w+1)^(0+128),f
 10454     078C  30FF               	movlw	255
 10455     078D  07B6               	addwf	(efgtoa@w+1)^(0+128),f
 10456     078E                     l3058:
 10457                           
 10458                           ;C:\Program Files\Microchip\xc8\v2.50\pic\sources\c99\common\doprnt.c: 854:   while (w >
      +                           i && n > i) {
 10459     078E  0844               	movf	(efgtoa@i+1)^(0+128),w
 10460     078F  3A80               	xorlw	128
 10461     0790  00A0               	movwf	??_efgtoa^(0+128)
 10462     0791  0836               	movf	(efgtoa@w+1)^(0+128),w
 10463     0792  3A80               	xorlw	128
 10464     0793  0220               	subwf	??_efgtoa^(0+128),w
 10465     0794  1D03               	skipz
 10466     0795  2F98               	goto	u4785
 10467     0796  0835               	movf	efgtoa@w^(0+128),w
 10468     0797  0243               	subwf	efgtoa@i^(0+128),w
 10469     0798                     u4785:
 10470     0798  1803               	skipnc
 10471     0799  2F9B               	goto	u4781
 10472     079A  2F9C               	goto	u4780
 10473     079B                     u4781:
 10474     079B  2FAC               	goto	l3062
 10475     079C                     u4780:
 10476     079C                     l3060:
 10477     079C  1683               	bsf	3,5	;RP0=1, select bank1
 10478     079D  1303               	bcf	3,6	;RP1=0, select bank1
 10479     079E  0844               	movf	(efgtoa@i+1)^(0+128),w
 10480     079F  3A80               	xorlw	128
 10481     07A0  00A0               	movwf	??_efgtoa^(0+128)
 10482     07A1  084B               	movf	(efgtoa@n+1)^(0+128),w
 10483     07A2  3A80               	xorlw	128
 10484     07A3  0220               	subwf	??_efgtoa^(0+128),w
 10485     07A4  1D03               	skipz
 10486     07A5  2FA8               	goto	u4795
 10487     07A6  084A               	movf	efgtoa@n^(0+128),w
 10488     07A7  0243               	subwf	efgtoa@i^(0+128),w
 10489     07A8                     u4795:
 10490     07A8  1C03               	skipc
 10491     07A9  2FAB               	goto	u4791
 10492     07AA  2FAC               	goto	u4790
 10493     07AB                     u4791:
 10494     07AB  2F7A               	goto	l3054
 10495     07AC                     u4790:
 10496     07AC                     l3062:
 10497                           
 10498                           ;C:\Program Files\Microchip\xc8\v2.50\pic\sources\c99\common\doprnt.c: 861:  if (sign) {
 10499     07AC  1683               	bsf	3,5	;RP0=1, select bank1
 10500     07AD  1303               	bcf	3,6	;RP1=0, select bank1
 10501     07AE  0845               	movf	efgtoa@sign^(0+128),w
 10502     07AF  1903               	btfsc	3,2
 10503     07B0  2FB2               	goto	u4801
 10504     07B1  2FB3               	goto	u4800
 10505     07B2                     u4801:
 10506     07B2  2FBF               	goto	l3066
 10507     07B3                     u4800:
 10508     07B3                     l3064:
 10509                           
 10510                           ;C:\Program Files\Microchip\xc8\v2.50\pic\sources\c99\common\doprnt.c: 862:   dbuf[--n] 
      +                          = sign;
 10511     07B3  30FF               	movlw	255
 10512     07B4  07CA               	addwf	efgtoa@n^(0+128),f
 10513     07B5  1803               	skipnc
 10514     07B6  0ACB               	incf	(efgtoa@n+1)^(0+128),f
 10515     07B7  30FF               	movlw	255
 10516     07B8  07CB               	addwf	(efgtoa@n+1)^(0+128),f
 10517     07B9  084A               	movf	efgtoa@n^(0+128),w
 10518     07BA  3E10               	addlw	(low (_dbuf| (0+256)))& (0+255)
 10519     07BB  0084               	movwf	4
 10520     07BC  0845               	movf	efgtoa@sign^(0+128),w
 10521     07BD  1783               	bsf	3,7	;select IRP bank2
 10522     07BE  0080               	movwf	0
 10523     07BF                     l3066:
 10524                           
 10525                           ;C:\Program Files\Microchip\xc8\v2.50\pic\sources\c99\common\doprnt.c: 864:  w -= i;
 10526     07BF  0843               	movf	efgtoa@i^(0+128),w
 10527     07C0  02B5               	subwf	efgtoa@w^(0+128),f
 10528     07C1  0844               	movf	(efgtoa@i+1)^(0+128),w
 10529     07C2  1C03               	skipc
 10530     07C3  03B6               	decf	(efgtoa@w+1)^(0+128),f
 10531     07C4  02B6               	subwf	(efgtoa@w+1)^(0+128),f
 10532     07C5                     l3068:
 10533                           
 10534                           ;C:\Program Files\Microchip\xc8\v2.50\pic\sources\c99\common\doprnt.c: 867:     return (
      +                          void) pad(fp, &dbuf[n], w);
 10535     07C5  1283               	bcf	3,5	;RP0=0, select bank0
 10536     07C6  1303               	bcf	3,6	;RP1=0, select bank0
 10537     07C7  0868               	movf	efgtoa@fp,w
 10538     07C8  00A8               	movwf	pad@fp
 10539     07C9  0869               	movf	efgtoa@fp+1,w
 10540     07CA  00A9               	movwf	pad@fp+1
 10541     07CB  1683               	bsf	3,5	;RP0=1, select bank1
 10542     07CC  1303               	bcf	3,6	;RP1=0, select bank1
 10543     07CD  084A               	movf	efgtoa@n^(0+128),w
 10544     07CE  3E10               	addlw	(low (_dbuf| (0+256)))& (0+255)
 10545     07CF  1283               	bcf	3,5	;RP0=0, select bank0
 10546     07D0  1303               	bcf	3,6	;RP1=0, select bank0
 10547     07D1  00AA               	movwf	pad@buf
 10548     07D2  1683               	bsf	3,5	;RP0=1, select bank1
 10549     07D3  1303               	bcf	3,6	;RP1=0, select bank1
 10550     07D4  0836               	movf	(efgtoa@w+1)^(0+128),w
 10551     07D5  1283               	bcf	3,5	;RP0=0, select bank0
 10552     07D6  1303               	bcf	3,6	;RP1=0, select bank0
 10553     07D7  00AC               	movwf	pad@p+1
 10554     07D8  1683               	bsf	3,5	;RP0=1, select bank1
 10555     07D9  1303               	bcf	3,6	;RP1=0, select bank1
 10556     07DA  0835               	movf	efgtoa@w^(0+128),w
 10557     07DB  1283               	bcf	3,5	;RP0=0, select bank0
 10558     07DC  1303               	bcf	3,6	;RP1=0, select bank0
 10559     07DD  00AB               	movwf	pad@p
 10560     07DE  160A  118A  208B  120A  118A  	fcall	_pad
 10561     07E3                     l661:
 10562     07E3  0008               	return
 10563     07E4                     __end_of_efgtoa:

Data Sizes:
    Strings     28
    Constant    0
    Data        0
    BSS         109
    Persistent  0
    Stack       0

Auto Spaces:
    Space          Size  Autos    Used
    COMMON           14     14      14
    BANK0            80     80      80
    BANK1            80     75      80
    BANK3            96     18      42
    BANK2            96      0      80

Pointer List with Targets:

    efgtoa@fp	PTR struct _IO_FILE size(2) Largest target is 11
		 -> sprintf@f(BANK3[11]), 

    f$.$buffer	PTR unsigned char  size(2) Largest target is 16
		 -> buffer(BANK3[16]), 

    f$.$source	PTR const unsigned char  size(1) Largest target is 0

    fputc@fp	PTR struct _IO_FILE size(2) Largest target is 11
		 -> sprintf@f(BANK3[11]), 

    fputc@fp$.$buffer	PTR unsigned char  size(2) Largest target is 16
		 -> buffer(BANK3[16]), 

    fputc@fp$.$source	PTR const unsigned char  size(1) Largest target is 0

    fputs@fp	PTR struct _IO_FILE size(2) Largest target is 11
		 -> sprintf@f(BANK3[11]), 

    fputs@s	PTR const unsigned char  size(1) Largest target is 80
		 -> dbuf(BANK2[80]), 

    lcd_string@str	PTR const unsigned char  size(1) Largest target is 16
		 -> buffer(BANK3[16]), 

    memcpy@d	PTR unsigned char  size(1) Largest target is 80
		 -> dbuf(BANK2[80]), 

    memcpy@d1	PTR void  size(1) Largest target is 80
		 -> dbuf(BANK2[80]), 

    memcpy@s	PTR const unsigned char  size(1) Largest target is 80
		 -> dbuf(BANK2[80]), 

    memcpy@s1	PTR const void  size(1) Largest target is 80
		 -> dbuf(BANK2[80]), 

    pad@buf	PTR unsigned char  size(1) Largest target is 80
		 -> dbuf(BANK2[80]), 

    pad@fp	PTR struct _IO_FILE size(2) Largest target is 11
		 -> sprintf@f(BANK3[11]), 

    read_prec_or_width@ap	PTR PTR void [1] size(1) Largest target is 1
		 -> sprintf@ap(BANK3[1]), 

    read_prec_or_width@fmt	PTR PTR const unsigned char  size(1) Largest target is 1
		 -> vfprintf@cfmt(BANK0[1]), 

    S587$buffer	PTR unsigned char  size(2) Largest target is 16
		 -> buffer(BANK3[16]), 

    S587$source	PTR const unsigned char  size(1) Largest target is 0

    sp__memcpy	PTR void  size(1) Largest target is 80
		 -> dbuf(BANK2[80]), 

    sp__strcpy	PTR unsigned char  size(1) Largest target is 80
		 -> dbuf(BANK2[80]), 

    sprintf@ap	PTR void [1] size(1) Largest target is 2
		 -> ?_sprintf(BANK1[2]), 

    sprintf@fmt	PTR const unsigned char  size(1) Largest target is 10
		 -> STR_1(CODE[10]), STR_2(CODE[10]), 

    sprintf@s	PTR unsigned char  size(1) Largest target is 16
		 -> buffer(BANK3[16]), 

    strcpy@d	PTR unsigned char  size(1) Largest target is 80
		 -> dbuf(BANK2[80]), 

    strcpy@dest	PTR unsigned char  size(1) Largest target is 80
		 -> dbuf(BANK2[80]), 

    strcpy@src	PTR const unsigned char  size(1) Largest target is 4
		 -> STR_3(CODE[4]), STR_6(CODE[4]), 

    utoa@fp	PTR struct _IO_FILE size(2) Largest target is 11
		 -> sprintf@f(BANK3[11]), 

    vfpfcnvrt@ap	PTR PTR void  size(1) Largest target is 1
		 -> sprintf@ap(BANK3[1]), 

    vfpfcnvrt@cp	PTR unsigned char  size(1) Largest target is 10
		 -> STR_1(CODE[10]), STR_2(CODE[10]), 

    vfpfcnvrt@fmt	PTR PTR unsigned char  size(1) Largest target is 1
		 -> vfprintf@cfmt(BANK0[1]), 

    vfpfcnvrt@fp	PTR struct _IO_FILE size(2) Largest target is 11
		 -> sprintf@f(BANK3[11]), 

    vfprintf@ap	PTR PTR void  size(1) Largest target is 1
		 -> sprintf@ap(BANK3[1]), 

    vfprintf@cfmt	PTR unsigned char  size(1) Largest target is 10
		 -> STR_1(CODE[10]), STR_2(CODE[10]), 

    vfprintf@fmt	PTR const unsigned char  size(1) Largest target is 10
		 -> STR_1(CODE[10]), STR_2(CODE[10]), 

    vfprintf@fp	PTR struct _IO_FILE size(2) Largest target is 11
		 -> sprintf@f(BANK3[11]), 


Critical Paths under _main in COMMON

    _main->___xxtofl
    _utoa->_pad
    _read_prec_or_width->___wmul
    _efgtoa->_pad
    _pad->_fputc
    _fputs->_fputc
    ___flmul->___xxtofl
    ___fldiv->___xxtofl
    _lcd_string->_lcd_data
    _lcd_initialise->_lcd_command

Critical Paths under _main in BANK0

    _sprintf->_vfprintf
    _vfpfcnvrt->_efgtoa
    _utoa->_pad
    _efgtoa->_floorf
    _pad->_fputs
    _floorf->___fldiv
    ___flsub->___flmul
    ___flge->___flmul
    ___fldiv->___flmul

Critical Paths under _main in BANK1

    _main->_sprintf
    _sprintf->_vfprintf
    _vfprintf->_vfpfcnvrt
    _vfpfcnvrt->_efgtoa

Critical Paths under _main in BANK3

    _main->_sprintf

Critical Paths under _main in BANK2

    None.

Call Graph Tables:

 ---------------------------------------------------------------------------------
 (Depth) Function   	        Calls       Base Space   Used Autos Params    Refs
 ---------------------------------------------------------------------------------
 (0) _main                                                 9     9      0   17505
                                             72 BANK1      3     3      0
                                             12 BANK3      6     6      0
                            ___fldiv
                            ___flmul
                           ___xxtofl
                     _adc_initialise
                        _lcd_command
                     _lcd_initialise
                         _lcd_string
                           _read_adc
                            _sprintf
 ---------------------------------------------------------------------------------
 (1) _sprintf                                             21    15      6   14212
                                             65 BANK1      7     1      6
                                              0 BANK3     12    12      0
                           _vfprintf
 ---------------------------------------------------------------------------------
 (2) _vfprintf                                             5     1      4   14003
                                             79 BANK0      1     1      0
                                             61 BANK1      4     0      4
                          _vfpfcnvrt
 ---------------------------------------------------------------------------------
 (3) _vfpfcnvrt                                           13     9      4   13863
                                             48 BANK1     13     9      4
                             _efgtoa
                              _fputc
                 _read_prec_or_width
                               _utoa
 ---------------------------------------------------------------------------------
 (4) _utoa                                                10     6      4    1333
                                             15 BANK0     10     6      4
                            ___lwdiv
                            ___lwmod
                                _pad
 ---------------------------------------------------------------------------------
 (5) ___lwmod                                              5     1      4     161
                                              0 COMMON     5     1      4
 ---------------------------------------------------------------------------------
 (5) ___lwdiv                                              7     3      4     164
                                              0 COMMON     7     3      4
 ---------------------------------------------------------------------------------
 (4) _read_prec_or_width                                   5     3      2     278
                                              6 COMMON     5     3      2
                             ___wmul
 ---------------------------------------------------------------------------------
 (5) ___wmul                                               6     2      4      94
                                              0 COMMON     6     2      4
 ---------------------------------------------------------------------------------
 (4) _efgtoa                                              56    49      7   11214
                                             72 BANK0      7     0      7
                                              0 BANK1     48    48      0
                            ___fladd
                            ___fldiv
                             ___fleq
                             ___flge
                            ___flmul
                            ___flneg
                            ___flsub
                            ___fltol
                      ___fpclassifyf
                             _floorf
                               _labs
                             _memcpy
                                _pad
                             _strcpy
 ---------------------------------------------------------------------------------
 (6) _strcpy                                               3     1      2      77
                                              0 COMMON     3     1      2
 ---------------------------------------------------------------------------------
 (5) _pad                                                  8     3      5     756
                                             13 COMMON     1     1      0
                                              8 BANK0      7     2      5
                              _fputc
                              _fputs
 ---------------------------------------------------------------------------------
 (6) _fputs                                                8     5      3     333
                                              0 BANK0      8     5      3
                              _fputc
 ---------------------------------------------------------------------------------
 (7) _fputc                                               13     9      4     232
                                              0 COMMON    13     9      4
                              _putch
 ---------------------------------------------------------------------------------
 (8) _putch                                                1     1      0       0
 ---------------------------------------------------------------------------------
 (5) _memcpy                                               7     3      4     146
                                              0 COMMON     7     3      4
 ---------------------------------------------------------------------------------
 (5) _labs                                                 4     0      4      69
                                              0 COMMON     4     0      4
 ---------------------------------------------------------------------------------
 (5) _floorf                                              20    16      4     340
                                             52 BANK0     20    16      4
                            ___fldiv (ARG)
 ---------------------------------------------------------------------------------
 (5) ___fpclassifyf                                       16    12      4     137
                                              0 COMMON    10     6      4
                                              0 BANK0      6     6      0
 ---------------------------------------------------------------------------------
 (5) ___fltol                                             10     6      4     232
                                              0 COMMON    10     6      4
 ---------------------------------------------------------------------------------
 (5) ___flsub                                              8     0      8    2039
                                             26 BANK0      8     0      8
                            ___fladd
                            ___flmul (ARG)
 ---------------------------------------------------------------------------------
 (6) ___fladd                                             20    12      8    1990
                                              0 COMMON    12     4      8
                                              0 BANK0      8     8      0
 ---------------------------------------------------------------------------------
 (5) ___flneg                                              4     0      4      46
                                              0 COMMON     4     0      4
 ---------------------------------------------------------------------------------
 (5) ___flmul                                             26    18      8    1620
                                              0 BANK0     26    18      8
                          __Umul8_16
                           ___xxtofl (ARG)
 ---------------------------------------------------------------------------------
 (6) __Umul8_16                                            9     7      2     139
                                              0 COMMON     9     7      2
 ---------------------------------------------------------------------------------
 (5) ___flge                                              12     4      8     192
                                             26 BANK0     12     4      8
                            ___flmul (ARG)
 ---------------------------------------------------------------------------------
 (5) ___fleq                                              12     4      8      94
                                              0 COMMON    12     4      8
 ---------------------------------------------------------------------------------
 (5) ___fldiv                                             26    18      8    1134
                                             26 BANK0     26    18      8
                            ___flmul (ARG)
                           ___xxtofl (ARG)
 ---------------------------------------------------------------------------------
 (1) _read_adc                                             3     1      2       0
                                              0 COMMON     3     1      2
 ---------------------------------------------------------------------------------
 (1) _lcd_string                                           1     0      1      76
                                              3 COMMON     1     0      1
                           _lcd_data
 ---------------------------------------------------------------------------------
 (2) _lcd_data                                             3     3      0      29
                                              0 COMMON     3     3      0
 ---------------------------------------------------------------------------------
 (1) _lcd_initialise                                       0     0      0      29
                        _lcd_command
 ---------------------------------------------------------------------------------
 (2) _lcd_command                                          3     3      0      29
                                              0 COMMON     3     3      0
 ---------------------------------------------------------------------------------
 (1) _adc_initialise                                       0     0      0       0
 ---------------------------------------------------------------------------------
 (1) ___xxtofl                                            14    10      4     337
                                              0 COMMON    14    10      4
 ---------------------------------------------------------------------------------
 Estimated maximum stack depth 8
 ---------------------------------------------------------------------------------

 Call Graph Graphs:

 _main (ROOT)
   ___fldiv
     ___flmul (ARG)
       __Umul8_16
       ___xxtofl (ARG)
     ___xxtofl (ARG)
   ___flmul
   ___xxtofl
   _adc_initialise
   _lcd_command
   _lcd_initialise
     _lcd_command
   _lcd_string
     _lcd_data
   _read_adc
   _sprintf
     _vfprintf
       _vfpfcnvrt
         _efgtoa
           ___fladd
           ___fldiv
           ___fleq
           ___flge
             ___flmul (ARG)
           ___flmul
           ___flneg
           ___flsub
             ___fladd
             ___flmul (ARG)
           ___fltol
           ___fpclassifyf
           _floorf
             ___fldiv (ARG)
           _labs
           _memcpy
           _pad
             _fputc
               _putch
             _fputs
               _fputc
           _strcpy
         _fputc
         _read_prec_or_width
           ___wmul
         _utoa
           ___lwdiv
           ___lwmod
           _pad

Address spaces:
Name               Size   Autos  Total    Usage
BITCOMMON           14      0       0      0.0%
BITBANK0            80      0       0      0.0%
BITBANK1            80      0       0      0.0%
BITBANK3            96      0       0      0.0%
BITBANK2            96      0       0      0.0%
COMMON              14     14      14    100.0%
BANK0               80     80      80    100.0%
BANK1               80     75      80    100.0%
BANK3               96     18      42     43.8%
BANK2               96      0      80     83.3%
STACK                0      0       0      0.0%
DATA                 0      0     296      0.0%


Microchip Technology PIC Macro Assembler V2.50 build 20240725155939 
Symbol Table                                                                                   Mon Dec 16 15:27:31 2024

              ___fldiv@aexp 0053                ___fldiv@bexp 0052                           pc 0002  
              lcd_data@data 0072                ___fldiv@sign 004B                          l50 1DE9  
                        l53 1DF3                          l62 1E5D                          l47 1DE1  
                        l56 1E07                          l59 1E1B                          l68 1E2F  
                        fsr 0004         ___wmul@multiplicand 0072         __Umul8_16@word_mpld 0076  
                       l154 1EA4                         l323 1FCE                         l324 1FEA  
                       l340 121F                         l332 119A                         l156 1EBC  
                       l501 0823                         l511 08ED                         l335 1206  
                       l344 100A                         l601 1331                         l513 0A61  
                       l329 1FFF                         l450 0A8E                         l434 1FB1  
                       l355 0882                         l348 0897                         l444 1F6F  
                       l533 0A4D                         l461 0B17                         l358 0897  
                       l535 0A59                         l527 09DB                         l551 0FFF  
                       l455 0ABF                         l608 134D                         l480 0C30  
                       l609 1359                         l617 1035                         l570 1ED1  
                       l650 10E1                         l563 0FF5                         l459 0B3E  
                       l803 1E44                         l731 108A                         l723 12CF  
                       l715 123D                         l572 1EE3                         l476 0C0A  
                       l468 0CBD                         l740 169B                         l557 0F71  
                       l821 117B                         l645 10A6                         l661 07E3  
                       l486 0C53                         l806 1E89                         l832 0004  
                       l648 10CE                         l497 0CB1                         l489 0C91  
                       l809 1E97                         l498 0CBD                         l658 14D4  
                       l738 1695                         l595 12F2                         l755 1748  
                       l596 1303                         l772 1F0C                         l597 1383  
                       l829 1F37                         l677 0295                         l749 17FF  
                       l782 0091                         l838 1E76                         l687 0572  
                       l793 166D                         l788 15B4                         l789 1675  
                       _pad 108B                         fsr0 0004                         indf 0000  
              ___flmul@aexp 0032                ___flmul@bexp 0033                ___flmul@sign 002D  
              ___flmul@temp 0038                ___flmul@prod 0034                ___fltol@exp1 0079  
                      l2100 110D                        l2110 0A66                        l2102 113F  
                      l2200 0B2B                        l2120 0A7B                        l2112 0A6C  
                      l3000 0618                        l2202 0B36                        l2130 0A92  
                      l2122 0A83                        l2114 0A70                        l2106 0A62  
                      l3010 0633                        l3002 061D                        l2300 0CB8  
                      l2220 0B78                        l2212 0B50                        l2204 0B38  
                      l2140 0AA2                        l2132 0A98                        l2124 0A84  
                      l2116 0A71                        l2108 0A64                        l3012 0636  
                      l3004 0621                        l3020 064E                        l3100 12A8  
                      l2310 1ECB                        l2302 0CBC                        l2222 0B7A  
                      l2214 0B67                        l2206 0B42                        l2230 0B8D  
                      l2142 0AA7                        l2150 0AB7                        l2134 0A99  
                      l2118 0A76                        l2126 0A86                        l3030 06D9  
                      l3022 0654                        l3014 063C                        l3006 0627  
                      l3110 1038                        l3102 12B7                        l2312 1EDA  
                      l2304 1EBE                        l2240 0BED                        l2232 0BA3  
                      l2224 0B7E                        l2216 0B6B                        l2208 0B47  
                      l2160 0ACF                        l2152 0AC5                        l2144 0AAC  
                      l2136 0A9D                        l2128 0A90                        l2320 1F12  
                      l3040 0741                        l3032 0718                        l3024 065B  
                      l3016 0642                        l3008 062D                        l3112 1047  
                      l3120 1075                        l3104 12BD                        l2314 1EDF  
                      l2306 1EC0                        l2250 0C20                        l2234 0BE3  
                      l2242 0BFC                        l2226 0B7F                        l2218 0B6F  
                      l2170 0AD9                        l2162 0AD1                        l2154 0AC9  
                      l2146 0AB4                        l2138 0AA1                        l2410 0877  
                      l2402 0860                        l2322 1F22                        l3050 0775  
                      l3042 0747                        l3034 071E                        l3026 0661  
                      l3018 0648                        l2330 1E9E                        l3122 1086  
                      l3114 104B                        l3130 168B                        l3210 17E6  
                      l3300 1343                        l3220 1DFA                        l2500 08D0  
                      l2340 1FB2                        l2308 1EC7                        l2260 0C3A  
                      l2252 0C2B                        l2244 0C12                        l2236 0BE5  
                      l2228 0B8A                        l2180 0AE3                        l2172 0ADB  
                      l2164 0AD3                        l2156 0ACB                        l2148 0AB5  
                      l2412 0887                        l2404 0870                        l2092 10E2  
                      l2324 1F2A                        l3060 079C                        l3044 074C  
                      l3028 0667                        l3036 0724                        l2332 1EAB  
                      l3116 105B                        l3108 1036                        l2420 1F78  
                      l3204 17D3                        l3140 169E                        l3132 168F  
                      l3310 1376                        l3302 1347                        l3222 1E04  
                      l3230 1E18                        l2502 08D5                        l2510 08E5  
                      l2342 1FC6                        l2270 0C4A                        l2262 0C3F  
                      l2254 0C2F                        l2246 0C17                        l2238 0BE8  
                      l2190 0B01                        l2182 0AE5                        l2174 0ADD  
                      l2166 0AD5                        l2158 0ACD                        l2414 088C  
                      l2094 10E8                        l2318 1F0D                        l3054 077A  
                      l3062 07AC                        l3046 075E                        l3038 0732  
                      l2334 1EB2                        l2326 1E98                        l3118 1070  
                      l2430 1F99                        l2422 1F7B                        l3206 17DE  
                      l3150 16C4                        l3142 16AB                        l3134 1693  
                      l3126 1676                        l3312 137A                        l3304 1351  
                      l3216 1DF5                        l3224 1E09                        l2600 0A44  
                      l2512 08F5                        l2520 090C                        l2504 08DA  
                      l2344 1FE2                        l2360 11BA                        l2352 117C  
                      l2280 0C6B                        l2272 0C50                        l2256 0C34  
                      l2264 0C41                        l2192 0B1B                        l2184 0AE7  
                      l2176 0ADF                        l2168 0AD7                        l2096 10EE  
                      l3064 07B3                        l3056 0788                        l3048 0768  
                      l2336 1EB8                        l2328 1E9A                        l2432 1F9F  
                      l2424 1F82                        l2416 1F70                        l3080 1233  
                      l3072 1220                        l3160 16F0                        l3152 16C9  
                      l3144 16B0                        l3136 1696                        l3128 1687  
                      l3232 1EE4                        l3320 1388                        l3314 137B  
                      l3306 135B                        l3218 1DF9                        l3242 1E45  
                      l3226 1E0D                        l3250 1DED                        l2602 0A4C  
                      l2530 0934                        l2522 0911                        l2514 0901  
                      l2506 08E2                        l2346 1FFC                        l2362 11DE  
                      l2354 1192                        l2290 0CA3                        l2282 0C6F  
                      l2258 0C38                        l2266 0C45                        l2194 0B24  
                      l2178 0AE1                        l2186 0AE9                        l2098 10F5  
                      l3066 07BF                        l3058 078E                        l2434 1FA0  
                      l2426 1F84                        l2418 1F72                        l2450 1F4A  
                      l2442 1F38                        l3090 1275                        l3082 124D  
                      l3074 1226                        l3162 16FC                        l3154 16D8  
                      l3146 16BF                        l3234 1EEB                        l3330 13F5  
                      l3322 138A                        l3308 1371                        l3244 1DD9  
                      l3228 1E0E                        l2604 0A51                        l2540 095D  
                      l2532 093C                        l2516 0903                        l2508 08E3  
                      l2348 1FFE                        l2364 11E2                        l2356 11AE  
                      l2700 0F26                        l2620 0CC8                        l2372 1000  
                      l2292 0CA8                        l2284 0C8F                        l2276 0C58  
                      l2268 0C46                        l2196 0B26                        l2188 0AEA  
                      l2380 0824                        l3068 07C5                        l2436 1FA7  
                      l2428 1F88                        l2452 1F4E                        l2444 1F3E  
                      l2460 1F6B                        l3092 127B                        l3084 1251  
                      l3076 1228                        l3180 174B                        l3172 172D  
                      l3164 170B                        l3156 16DC                        l3148 16C3  
                      l3236 1EFA                        l3260 1019                        l3340 1442  
                      l3332 13FB                        l3324 138F                        l3270 1E1D  
                      l3246 1DE2                        l2606 0A55                        l2550 097E  
                      l2542 0961                        l2534 0944                        l2526 091A  
                      l2470 0898                        l2366 121C                        l2358 11B6  
                      l2710 0F4B                        l2702 0F34                        l2630 0CDF  
                      l2622 0CCC                        l2614 0CBE                        l2374 1008  
                      l2294 0CA9                        l2286 0C96                        l2278 0C5D  
                      l2198 0B2A                        l2390 084A                        l2382 082D  
                      l2438 1FAD                        l2454 1F58                        l2446 1F41  
                      l3086 1259                        l3094 128E                        l3078 122C  
                      l3190 177B                        l3166 1711                        l3174 1738  
                      l3158 16EB                        l3238 1F08                        l3262 101B  
                      l3254 100B                        l3342 1449                        l3334 1412  
                      l3326 1394                        l3318 1384                        l3280 12DA  
                      l3272 1E25                        l3248 1DE6                        l2608 0A57  
                      l2560 099E                        l2552 098C                        l2544 0962  
                      l2536 0946                        l2528 092C                        l2480 08A7  
                      l2472 089C                        l2368 121E                        l2720 0F6E  
                      l2704 0F3D                        l2712 0F51                        l2640 0CF4  
                      l2632 0CE1                        l2624 0CCD                        l2616 0CC2  
                      l2376 100A                        l2296 0CAD                        l2288 0C9B  
                      l2464 0800                        l2392 0852                        l2800 1E30  
                      l2456 1F5E                        l2448 1F48                        l3096 1295  
                      l3088 126D                        l3184 174D                        l3176 173C  
                      l3264 102A                        l3256 100F                        l3336 1419  
                      l3328 139F                        l3290 1311                        l3282 12EA  
                      l3274 1E27                        l2562 09A7                        l2570 09BB  
                      l2538 094B                        l2546 096B                        l2554 098E  
                      l2482 08AC                        l2490 08BC                        l2474 089E  
                      l2730 0F8D                        l2714 0F55                        l2706 0F41  
                      l2650 0D09                        l2642 0CF5                        l2634 0CE9  
                      l2626 0CD2                        l2618 0CC4                        l2298 0CAF  
                      l2466 0804                        l2394 0854                        l2386 0836  
                      l2810 1587                        l2802 1E34                        l2458 1F65  
                      l3098 129B                        l3194 1791                        l3186 1758  
                      l3178 1745                        l3258 1017                        l3338 141F  
                      l3292 1318                        l3284 12FA                        l3276 12D1  
                      l3268 1E1C                        l2572 09BF                        l2564 09AB  
                      l2556 0994                        l2548 097D                        l2492 08C4  
                      l2484 08B1                        l2476 08A2                        l2740 0FD3  
                      l2732 0FA6                        l2724 0F76                        l2716 0F56  
                      l2708 0F42                        l2660 0D24                        l2652 0D11  
                      l2644 0CFA                        l2636 0CEC                        l2628 0CD7  
                      l2396 0858                        l2388 0849                        l2812 15A6  
                      l2804 1E35                        l2900 009E                        l3196 1799  
                      l3188 1765                        l3294 131A                        l3278 12D6  
                      l2590 0A10                        l2582 09E0                        l2574 09C0  
                      l2566 09AC                        l2558 099C                        l2494 08C7  
                      l2486 08B9                        l2478 08A6                        l2750 0FF0  
                      l2742 0FDD                        l2726 0F7B                        l2734 0FAC  
                      l2718 0F5A                        l2670 0DA0                        l2662 0D32  
                      l2654 0D16                        l2646 0CFF                        l2638 0CF0  
                      l2830 1643                        l2822 15E9                        l2814 15B3  
                      l2910 0143                        l3198 179F                        l3296 1328  
                      l3288 1306                        l2584 09E5                        l2592 0A16  
                      l2576 09C4                        l2568 09B5                        l2496 08CB  
                      l2488 08BA                        l2752 0FF7                        l2744 0FDF  
                      l2736 0FB9                        l2728 0F89                        l2680 0E0C  
                      l2672 0DBC                        l2664 0D3F                        l2656 0D1B  
                      l2648 0D07                        l2832 164C                        l2824 1602  
                      l2816 15BA                        l2808 1567                        l2840 1E7C  
                      l2760 109E                        l2920 020A                        l2912 017C  
                      l2904 00B8                        l3298 1338                        l2594 0A23  
                      l2586 09F3                        l2578 09D8                        l2498 08CF  
                      l2746 0FEB                        l2738 0FC4                        l2690 0E96  
                      l2682 0E1A                        l2674 0DD8                        l2666 0D5A  
                      l2834 1665                        l2826 1619                        l2818 15D4  
                      l2842 1E81                        l2770 10D4                        l2762 10A4  
                      l2930 028C                        l2914 01BA                        l2906 00C8  
                      l2850 1477                        l2596 0A31                        l2588 09F7  
                      l2748 0FEF                        l2692 0EA4                        l2684 0E37  
                      l2676 0DE1                        l2668 0D76                        l2780 005B  
                      l2772 0005                        l2828 162A                        l2844 1E83  
                      l2764 10A9                        l2756 108B                        l2940 02B1  
                      l2932 0291                        l2916 01C5                        l2924 0247  
                      l2908 0107                        l2860 14C1                        l2852 149E  
                      l2598 0A40                        l2694 0ECF                        l2686 0E4E  
                      l2678 0DEF                        l2782 0060                        l2774 0025  
                      l2838 1E77                        l2766 10B8                        l2758 1091  
                      l2950 02C9                        l2942 02B3                        l2934 029F  
                      l2918 0204                        l2926 0280                        l2870 14E9  
                      l2862 14C6                        l2854 14A2                        l2846 145C  
                      ?_pad 0028                        l2696 0EF5                        l2688 0E6B  
                      l2792 008D                        l2776 003C                        l2768 10C0  
                      l2960 03F2                        l2952 02D2                        l2944 02B9  
                      l2936 02A5                        l2928 0288                        l2872 14F0  
                      l2864 14CB                        l2856 14B9                        l2848 145F  
                      l2698 0F1D                        l2778 0042                        l2786 0065  
                      l2970 0487                        l2954 032E                        l2962 03F8  
                      l2938 02A9                        l2946 02BF                        l2874 1500  
                      l2882 152E                        l2866 14D0                        l2858 14BD  
                      l2788 006B                        l2796 1E5E                        l2980 051F  
                      l2972 04A2                        l2964 0406                        l2956 0341  
                      l2948 02C1                        l2884 1545                        l2876 150A  
                      l2868 14D6                        l2798 1E60                        l2990 0581  
                      l2982 0527                        l2974 04A8                        l2966 0445  
                      l2958 03B3                        l2886 154C                        l2878 1512  
                      l2992 0583                        l2984 0566                        l2976 04B0  
                      l2968 047C                        l2888 155C                        l2896 0092  
                      l2994 0586                        l2986 056C                        l2978 04D1  
                      l2898 009C                        l2996 05FC                        l2988 0580  
                      l2998 0612                        STR_1 1810                        STR_2 1806  
                      STR_3 181A                        STR_6 181E                        u3000 0C6F  
                      u3001 0C6E                        u3010 0C80                        u3100 1EDF  
                      u3020 0C8F                        u3101 1EDE                        u3021 0C8E  
                      u3030 0C96                        u3110 1F37                        u3031 0C95  
                      u3015 0C7B                        u3111 1F36                        u3200 11AE  
                      u4000 0F03                        u3040 0C9B                        u3120 1E9E  
                      u3201 11AD                        u3041 0C9A                        u3121 1E9D  
                      u3210 11BA                        u3050 0CA8                        u3211 11B9  
                      u4011 0F0F                        u3051 0CA7                        u4100 0F7B  
                      u4012 0F16                        u3060 0CAD                        u3300 085F  
                      u3221 11C9                        u4101 0F7A                        u4013 0F1D  
                      u4005 0EFE                        u3061 0CAC                        u3301 085E  
                      u3230 11E2                        u3222 11CA                        u4110 0F8D  
                      u3070 0CBC                        u3150 1EB8                        u3231 11E1  
                      u3223 11CF                        u4111 0F8C                        u3071 0CBB  
                      u3151 1EB7                        u3135 1EA5                        u5000 12DA  
                      u3160 1FC6                        u3224 11D0                        u3080 1ECB  
                      u4120 0F9C                        u4040 0F41                        u3320 086F  
                      u4200 0033                        u2600 113F                        u5001 12D9  
                      u3161 1FC5                        u3241 11F1                        u3225 11D5  
                      u3081 1ECA                        u4041 0F40                        u4025 0F1F  
                      u3321 086E                        u2601 113E                        u3145 1EAC  
                      u5010 12FA                        u3170 1FE2                        u3250 121C  
                      u3242 11F2                        u3226 11D6                        u4130 0FB9  
                      u3330 0876                        u4210 0042                        u2610 1160  
                      u3410 1F99                        u5011 12F9                        u3171 1FE1  
                      u3251 121B                        u3243 11F7                        u4131 0FB8  
                      u4035 0F36                        u3331 0875                        u3315 0861  
                      u4211 0041                        u3411 1F98                        u5100 1366  
                      u3500 08A6                        u3180 1FFC                        u3244 11F8  
                      u4140 0FD3                        u4060 0F55                        u3260 1008  
                      u2700 0AC9                        u2620 0A70                        u4220 0050  
                      u4300 1595                        u3501 08A5                        u3181 1FFB  
                      u3245 11FD                        u4141 0FD2                        u4125 0F97  
                      u4061 0F54                        u3261 1007                        u2701 0AC8  
                      u2621 0A6F                        u4205 002E                        u2605 113B  
                      u3405 1F89                        u5110 1376                        u5030 1317  
                      u3510 08AC                        u3246 11FE                        u3190 1192  
                      u4150 0FEF                        u4070 0F5A                        u2710 0B01  
                      u2630 0A76                        u3350 0887                        u3270 082D  
                      u4230 005B                        u4310 15B3                        u3430 1FAD  
                      u5111 1375                        u5031 1316                        u3511 08AB  
                      u3255 1218                        u3191 1191                        u3095 1ED2  
                      u4151 0FEE                        u4135 0FB5                        u4071 0F59  
                      u4055 0F44                        u2711 0B00                        u2631 0A75  
                      u3351 0886                        u3271 082C                        u4231 005A  
                      u4311 15B2                        u3431 1FAC                        u3415 1F95  
                      u5120 137A                        u3520 08B1                        u4080 0F6E  
                      u2720 0B0A                        u2640 0A7B                        u3360 088C  
                      u3280 0844                        u4240 006B                        u4400 165A  
                      u4320 15BA                        u4160 1091                        u3440 1F3E  
                      u5121 1379                        u5105 1361                        u5025 1309  
                      u3521 08B0                        u3185 1FF8                        u4145 0FCF  
                      u4081 0F6D                        u2801 0B59                        u2721 0B08  
                      u2641 0A7A                        u3361 088B                        u3345 0879  
                      u4241 006A                        u4225 004B                        u4321 15B9  
                      u4305 1590                        u4161 1090                        u3425 1FA1  
                      u3441 1F3D                        u5050 1337                        u3610 0961  
                      u3530 08CF                        u4090 0F75                        u2810 0B6B  
                      u2802 0B60                        u2730 0B0B                        u2650 0A98  
                      u3290 0858                        u4250 0079                        u4410 1665  
                      u4330 15CA                        u2570 10E8                        u4170 10A4  
                      u3370 1F78                        u5051 1336                        u3611 0960  
                      u3531 08CE                        u4091 0F74                        u2811 0B6A  
                      u2803 0B67                        u2715 0AFD                        u2651 0A97  
                      u3291 0857                        u4411 1664                        u4315 15AF  
                      u2571 10E7                        u4171 10A3                        u3371 1F77  
                      u3700 09C4                        u3540 08D5                        u2900 0C17  
                      u2820 0B6F                        u2740 0B1B                        u2660 0AA1  
                      u4260 0085                        u4340 15E8                        u4420 1E97  
                      u2580 10EE                        u4180 10CE                        u4500 00B7  
                      u3460 1F4E                        u5045 1329                        u3701 09C3  
                      u3605 0956                        u3541 08D4                        u2901 0C16  
                      u2821 0B6E                        u2741 0B1A                        u2661 0AA0  
                      u3285 083F                        u4261 0083                        u4405 1655  
                      u4341 15E7                        u4421 1E96                        u2581 10ED  
                      u4181 10CD                        u4501 00B6                        u3461 1F4D  
                      u5070 1347                        u3710 09D8                        u3630 097D  
                      u3550 08DA                        u2830 0B7E                        u2750 0B2A  
                      u2670 0AA7                        u4270 0086                        u4350 15F7  
                      u2590 110D                        u4190 10D4                        u4430 149E  
                      u3390 1F88                        u3470 1F58                        u5071 1346  
                      u3711 09D7                        u3631 097C                        u3551 08D9  
                      u2831 0B7D                        u2751 0B29                        u2671 0AA6  
                      u4255 0074                        u4335 15C5                        u2591 110C  
                      u4191 10D3                        u4511 0116                        u4431 149D  
                      u3391 1F87                        u3471 1F57                        u3455 1F42  
                      u5080 134D                        u3720 09DF                        u3640 0994  
                      u3560 08F5                        u3800 0CD2                        u2920 0C2F  
                      u2680 0AAC                        u4360 1602                        u4280 1E76  
                      u4600 02A5                        u4520 0143                        u4512 0117  
                      u4440 14C6                        u5081 134C                        u5065 133C  
                      u3721 09DE                        u3641 0993                        u3625 0964  
                      u3561 08F4                        u3801 0CD1                        u2921 0C2E  
                      u2681 0AAB                        u4361 1601                        u4185 10CA  
                      u4281 1E75                        u4601 02A4                        u4521 0142  
                      u4513 011C                        u4441 14C5                        u3385 1F7C  
                      u5137 1451                        u5090 1351                        u3730 09E5  
                      u3650 099C                        u3570 0911                        u3810 0CD7  
                      u2930 0C34                        u2850 0BA3                        u2770 0B3E  
                      u2690 0AC5                        u4290 1E34                        u4610 02A9  
                      u4530 017C                        u4514 011D                        u4450 14CB  
                      u3490 1F6B                        u5091 1350                        u5147 1DE4  
                      u3731 09E4                        u3651 099B                        u3635 0979  
                      u3571 0910                        u3811 0CD6                        u2931 0C33  
                      u2915 0C24                        u2851 0BA2                        u2771 0B3D  
                      u2691 0AC4                        u4371 160B                        u4355 15F2  
                      u4291 1E33                        u4611 02A8                        u4531 017B  
                      u4523 013F                        u4515 0122                        u4451 14CA  
                      u3491 1F6A                        u3475 1F54                        u3740 09F7  
                      u3580 094B                        u3820 0CF4                        u2940 0C3F  
                      u2780 0B42                        u4380 1638                        u4372 1612  
                      u4700 061D                        u4620 02B9                        u4516 0123  
                      u4460 14E9                        u5157 1E13                        u3741 09F6  
                      u3581 094A                        u3901 0DCA                        u3821 0CF3  
                      u2941 0C3E                        u2861 0BBC                        u2853 0B9F  
                      u2845 0B83                        u2781 0B41                        u2765 0B2F  
                      u4373 1619                        u4701 061C                        u4621 02B8  
                      u4541 018D                        u4461 14E8                        u3485 1F5F  
                      u3750 0A06                        u3670 09AB                        u3902 0DD1  
                      u3830 0CFA                        u2950 0C45                        u2870 0BD0  
                      u2862 0BBD                        u2790 0B47                        u4390 1643  
                      u4710 0621                        u4630 0406                        u4550 01BA  
                      u4542 018E                        u4470 14F0                        u5167 1DFF  
                      u3671 09AA                        u3903 0DD8                        u3831 0CF9  
                      u2951 0C44                        u2871 0BD1                        u2863 0BC2  
                      u2791 0B46                        u4391 1642                        u4711 0620  
                      u4631 0405                        u4551 01B9                        u4543 0193  
                      u4471 14EF                        u3760 0A23                        u3840 0CFF  
                      u2960 0C4A                        u2880 0BED                        u2872 0BD6  
                      u2864 0BC3                        u4800 07B3                        u4720 0654  
                      u4640 047C                        u4544 0194                        u4480 1545  
                      u3761 0A22                        u3665 09A0                        u3921 0DFE  
                      u3841 0CFE                        u2961 0C49                        u2881 0BEC  
                      u2873 0BD7                        u2865 0BC8                        u4385 1633  
                      u4801 07B2                        u4721 0653                        u4641 047B  
                      u4561 0219                        u4553 01B6                        u4545 0199  
                      u4481 1542                        u3770 0A40                        u3690 09BF  
                      u3922 0E05                        u3850 0D16                        u2970 0C50  
                      u2890 0C12                        u2866 0BC9                        u4730 0732  
                      u4650 04A2                        u4570 0246                        u4562 021A  
                      u4546 019A                        u4490 154C                        u4810 1226  
                      u3771 0A3F                        u3755 0A01                        u3691 09BE  
                      u3595 094D                        u3931 0E29                        u3923 0E0C  
                      u3915 0DDA                        u3851 0D15                        u2971 0C4F  
                      u2891 0C11                        u4731 0731                        u4651 04A1  
                      u4635 0402                        u4571 0245                        u4563 021F  
                      u4491 154B                        u4811 1225                        u3780 0A55  
                      u3932 0E30                        u3860 0D1B                        u2980 0C57  
                      u4740 0741                        u4660 04A8                        u4580 0280  
                      u4564 0220                        u4820 122C                        u4900 1687  
                      u3781 0A54                        u3765 0A1F                        u3685 09AE  
                      u3933 0E37                        u3861 0D1A                        u2981 0C56  
                      u4741 0740                        u4661 04A7                        u4581 027F  
                      u4573 0242                        u4565 0225                        u4821 122B  
                      u4901 1686                        u3790 0CCC                        u2990 0C5D  
                      u4750 076E                        u4670 051F                        u4590 028C  
                      u4566 0226                        u4830 1295                        u4910 16B0  
                      u3775 0A3C                        u3951 0E5D                        u3871 0D68  
                      u3791 0CCB                        u2991 0C5C                        u4751 076C  
                      u4735 072E                        u4671 051E                        u4591 028B  
                      u4831 1294                        u4911 16AF                        u3952 0E64  
                      u3872 0D6F                        u4760 076F                        u4680 056C  
                      u4840 129B                        u4920 16C3                        u3961 0E88  
                      u3953 0E6B                        u3945 0E39                        u3881 0D84  
                      u3873 0D76                        u4745 073D                        u4681 056B  
                      u4841 129A                        u4921 16C2                        u3962 0E8F  
                      u3882 0D8B                        u4770 0779                        u4690 05FC  
                      u4850 12A8                        u4930 16D8                        u3971 0EB3  
                      u3963 0E96                        u3891 0DAE                        u3883 0D92  
                      u4771 0778                        u4691 05FB                        u4851 12A7  
                      u4931 16D7                        u3980 0EDB                        u3972 0EBA  
                      u3892 0DB5                        u4780 079C                        u4860 12B7  
                      u4940 16FC                        u3973 0EC1                        u3893 0DBC  
                      u4781 079B                        u4861 12B6                        u4941 16FB  
                      u4790 07AC                        u4870 12BD                        u4950 1764  
                      u3991 0EE7                        u4791 07AB                        u4695 05F8  
                      u4871 12BC                        u4855 12A4                        u4951 1763  
                      u3992 0EEE                        u4880 1047                        u4960 1F08  
                      u3993 0EF5                        u3985 0ED6                        u4785 0798  
                      u4881 1046                        u4865 12B3                        u4961 1F07  
                      u4970 1DED                        u4890 1086                        u4971 1DEC  
                      u4795 07A8                        u4891 1085                        u4980 1E2F  
                      u4981 1E2E                        u4990 12D6                        u4991 12D5  
                      _dbuf 0110                        _labs 1E30                        _main 1384  
                      _prec 00ED                        pad@i 002D                        pad@p 002B  
                      btemp 007E                        _utoa 1220               ___fpclassifyf 0005  
                      start 0000             ___fldiv@new_exp 004C                 main@voltage 01B4  
                     ??_pad 007D               ___fltol@sign1 0078                       ?_labs 0070  
           __end_of___fladd 0CBE                       ?_main 0070             __end_of___fldiv 0A62  
           __end_of___flneg 100B             __end_of___flmul 1000             __end_of___flsub 0824  
           __end_of___fltol 0898                       ?_utoa 002F             __end_of___lwdiv 1FB2  
           __end_of___lwmod 1F70                vfpfcnvrt@fmt 00D2                       _PORTD 0008  
                     _TRISA 0085                       _TRISD 0088                       _TRISE 0089  
                     _flags 00EF         read_prec_or_width@c 0078         read_prec_or_width@n 0079  
                     _fputc 10E2                       _fputs 1F0D                       labs@a 0070  
                     pad@fp 0028                       _width 00EB                       _putch 0004  
                     pclath 000A                       utoa@d 0031                       utoa@i 0037  
                     utoa@p 0033                       utoa@w 0035                       status 0003  
                     wtemp0 007E             __end_of_sprintf 1036              ?___fpclassifyf 0070  
             main@adc_value 01B8             __initialization 07E4                __end_of_labs 1E45  
              __end_of_main 145C                __end_of_utoa 12D0                      ??_labs 0074  
                    ??_main 00E8                      ??_utoa 007E              lcd_command@cmd 0072  
__end_of_read_prec_or_width 108B                      _ADCON0 001F                      _ADCON1 009F  
                    ?_fputc 0070                      ?_fputs 0020                      _ADRESH 001E  
                    _ADRESL 009E                      ?_putch 0070               vfpfcnvrt@done 00D6  
          __end_of___xxtofl 1384            __end_of_lcd_data 1E1C                vfprintf@cfmt 006F  
                    ___flge 117C                      ___fleq 1FB2                   ??___fladd 0020  
                    ___wmul 1E98                   ??___fldiv 0042                   ??___flneg 0074  
                 ??___flmul 0028                   ??___flsub 007E                   ??___fltol 0074  
                    _efgtoa 145C                   ??___lwdiv 0074                   ??___lwmod 0074  
                    _buffer 0198                      _floorf 1567                      _memcpy 1E77  
      read_prec_or_width@ap 0077            __end_of_read_adc 1DF4                      pad@buf 002A  
                    _strcpy 1E5E                      fputc@c 0070                      fputs@c 0025  
                    fputs@i 0026                      fputs@s 0020             ___fpclassifyf@e 0020  
           ___fpclassifyf@u 0022             ___fpclassifyf@x 0070                      putch@c 0070  
          __end_of_vfprintf 1F0D                      utoa@fp 002F            ??_lcd_initialise 0073  
                 ??_sprintf 00E7                  ___flge@ff1 003A                  ___flge@ff2 003E  
           ??___fpclassifyf 0074                ___xxtofl@arg 007A               lcd_string@str 0073  
              ___xxtofl@exp 0079                ___xxtofl@val 0070                  ___fleq@ff1 0070  
                ___fleq@ff2 0074     __end_of__initialization 07FC                  ___flneg@f1 0070  
                ___fltol@f1 0070              __pcstackCOMMON 0070               __end_of_fputc 117C  
             __end_of_fputs 1F38               __end_of_putch 0005                     ??_fputc 0074  
                   ??_fputs 0023                     ??_putch 0070                  __pbssBANK1 00EB  
                __pbssBANK2 0110                  __pbssBANK3 0190           __end_of__Umul8_16 1EE4  
                _efgtoa$714 00AA                  __pmaintext 1384                     ?___flge 003A  
                   ?___fleq 0070                     ?___wmul 0070                     ?_efgtoa 0068  
                   ?_floorf 0054                     ?_memcpy 0070                     ?_strcpy 0070  
                 ?___xxtofl 0070                   ?_lcd_data 0070                  _lcd_string 1E1C  
                __stringtab 1800                   ?_read_adc 0070              _adc_initialise 1DD9  
                   ___fladd 0A62                     ___fldiv 0898                     ___flneg 1000  
                   ___flmul 0CBE                     ___flsub 0800                     ___fltol 0824  
                   ___lwdiv 1F70                     ___lwmod 1F38                   ?_vfprintf 00DD  
                   __ptext1 100B                     __ptext2 1EE4                     __ptext3 1676  
                   __ptext4 1220                     __ptext5 1F38                     __ptext6 1F70  
                   __ptext7 1036                     __ptext8 1E98                     __ptext9 145C  
     read_prec_or_width@fmt 0076                  ??___xxtofl 0074                     efgtoa@c 006E  
                   efgtoa@d 00AF                     efgtoa@e 00B3                     efgtoa@f 006A  
                   efgtoa@g 00C6                     efgtoa@h 00BB                     efgtoa@i 00C3  
                   efgtoa@l 00BF                     efgtoa@m 00B1                     efgtoa@n 00CA  
                   efgtoa@p 00A6                     efgtoa@t 00A8                     efgtoa@u 00CC  
                   efgtoa@w 00B5                  ??_lcd_data 0070                     _sprintf 100B  
                   clrloop0 1DD2        end_of_initialization 07FC                     floorf@e 0062  
                   floorf@m 005E                     floorf@u 0064                     floorf@x 0054  
                   memcpy@d 0075                     memcpy@n 0072                     memcpy@s 0076  
                   fputc@fp 0072                  ??_read_adc 0072                     fputs@fp 0021  
        _read_prec_or_width 1036      __end_of_adc_initialise 1DE2           __end_of_vfpfcnvrt 1800  
                efgtoa@mode 00AD                  efgtoa@sign 00C5         ?_read_prec_or_width 0076  
                   psplit$0 150030            vfpfcnvrt@convarg 00D7                  ??_vfprintf 007E  
                   strcpy@d 0072                   _PORTEbits 0009                 ___fladd@grs 007B  
             ___xxtofl@sign 0078        ??_read_prec_or_width 0078                 ___fldiv@grs 004E  
               ___fldiv@rem 0047                 ?_lcd_string 0073                 ___flmul@grs 002E  
             ??_lcd_command 0070             ?_adc_initialise 0070              __end_of___flge 1220  
            __end_of___fleq 2000                 vfpfcnvrt@ap 00D3                 vfpfcnvrt@cp 00DC  
               vfpfcnvrt@fp 00D0              __end_of___wmul 1EBD              __end_of_efgtoa 07E4  
            __end_of_floorf 1676              __end_of_memcpy 1E98                  floorf@F521 0190  
            __end_of_strcpy 1E77         start_initialization 07E4                 __end_of_pad 10E2  
         pnum$text9_split_1 0030       __end_of___fpclassifyf 0092                 vfprintf@fmt 00DF  
                  ??___flge 0042                    ??___fleq 0078                    ??___wmul 0074  
       __end_of_lcd_command 1E08                    ??_efgtoa 00A0                   __Umul8_16 1EBD  
                  ??_floorf 0058                    ??_memcpy 0074                    ??_strcpy 0072  
                 ___fladd@a 0074                   ___fladd@b 0070                   ___fldiv@a 003A  
                 ___fldiv@b 003E                   ___flmul@a 0024                   ___flmul@b 0020  
                 ___flsub@a 003A                   ___flsub@b 003E                   ___latbits 0002  
             __pcstackBANK0 0020               __pcstackBANK1 00A0               __pcstackBANK3 01A8  
          ___lwdiv@dividend 0072                    ?___fladd 0070                    ?___fldiv 003A  
                  ?___flneg 0070                    ?___flmul 0020                    ?___flsub 003A  
                  ?___fltol 0070                  ?__Umul8_16 0070                    ?___lwdiv 0070  
                  ?___lwmod 0070                   __pstrings 1800            ___lwdiv@quotient 0074  
                  ?_sprintf 00E1              ___wmul@product 0074                   clear_ram0 1DD1  
               _lcd_command 1DF4                   _vfpfcnvrt 1676                  _ADCON0bits 001F  
               __stringbase 1805           ___wmul@multiplier 0070                ??_lcd_string 0074  
                vfpfcnvrt@c 00DB            ??_adc_initialise 0070                   memcpy@tmp 0074  
                vfprintf@ap 00E0                  vfprintf@fp 00DD                 ??__Umul8_16 0072  
                ?_vfpfcnvrt 00D0          __end_of_lcd_string 1E30          __end_of__stringtab 1806  
        ___fpclassifyf@F465 0194                  sprintf@fmt 00E2                    ___xxtofl 12D0  
           ___lwdiv@divisor 0070             ___lwdiv@counter 0076                    __ptext10 1E5E  
                  __ptext11 108B                    __ptext20 0800                    __ptext12 1F0D  
                  __ptext21 0A62                    __ptext13 10E2                    __ptext30 1E08  
                  __ptext22 1000                    __ptext14 0004                    __ptext31 1E45  
                  __ptext23 0CBE                    __ptext15 1E77                    __ptext32 1DF4  
                  __ptext24 1EBD                    __ptext16 1E30                    __ptext33 1DD9  
                  __ptext25 117C                    __ptext17 1567                    __ptext34 12D0  
                  __ptext26 1FB2                    __ptext18 0005                    __ptext27 0898  
                  __ptext19 0824                    __ptext28 1DE2                    __ptext29 1E1C  
                  _lcd_data 1E08                  strcpy@dest 0070                    _read_adc 1DE2  
                 pnum$text9 0015              _lcd_initialise 1E45                    efgtoa@fp 0068  
                  efgtoa@ne 00A4                    efgtoa@pp 00AC                    efgtoa@ou 00B7  
                  _vfprintf 1EE4                    memcpy@d1 0070                    memcpy@s1 0071  
                 sprintf@ap 01A8            ___lwmod@dividend 0072      __end_of_lcd_initialise 1E5E  
                 strcpy@src 0071                   stringcode 1800                 efgtoa@nmode 00AE  
               ??_vfpfcnvrt 00D4      __Umul8_16@multiplicand 0070                    sprintf@f 01A9  
                  sprintf@s 00E1             ___lwmod@divisor 0070             ___lwmod@counter 0074  
                  stringdir 1800                    stringtab 1800               ___fladd@signs 0078  
              ___fladd@aexp 0079                ___fladd@bexp 007A             ?_lcd_initialise 0070  
      __Umul8_16@multiplier 0078                ?_lcd_command 0070           __Umul8_16@product 0074  
