

Microchip MPLAB XC8 Assembler V2.50 build 20240725155939 
                                                                                               Tue Feb 04 14:19:54 2025

Microchip MPLAB XC8 C Compiler v2.50 (Free license) build 20240725155939 Og1 
     1                           	processor	16F877
     2                           	pagewidth 120
     3                           	opt	flic
     4                           	psect	strings,global,class=STRING,space=0,delta=2,noexec
     5                           	psect	cinit,global,class=CODE,space=0,merge=1,delta=2
     6                           	psect	bssBANK3,global,class=BANK3,space=1,delta=1,noexec
     7                           	psect	bssBANK2,global,class=BANK2,space=1,delta=1,noexec
     8                           	psect	clrtext,global,class=CODE,space=0,delta=2
     9                           	psect	cstackBANK3,global,class=BANK3,space=1,delta=1,noexec
    10                           	psect	cstackBANK1,global,class=BANK1,space=1,delta=1,noexec
    11                           	psect	cstackCOMMON,global,class=COMMON,space=1,delta=1,noexec
    12                           	psect	cstackBANK0,global,class=BANK0,space=1,delta=1,noexec
    13                           	psect	maintext,global,class=CODE,space=0,split=1,delta=2
    14                           	psect	text1,local,class=CODE,space=0,merge=1,delta=2,group=3
    15                           	psect	text2,local,class=CODE,space=0,merge=1,delta=2,group=1
    16                           	psect	text3,local,class=CODE,space=0,merge=1,delta=2,group=1
    17                           	psect	text4,local,class=CODE,space=0,merge=1,delta=2,group=1
    18                           	psect	text5,local,class=CODE,space=0,merge=1,delta=2,group=2
    19                           	psect	text6,local,class=CODE,space=0,merge=1,delta=2,group=1
    20                           	psect	text7,local,class=CODE,space=0,merge=1,delta=2,group=3
    21                           	psect	text8,local,class=CODE,space=0,merge=1,delta=2,group=1
    22                           	psect	text9,local,class=CODE,space=0,merge=1,delta=2,group=3
    23                           	psect	text10,local,class=CODE,space=0,merge=1,delta=2,group=3
    24                           	psect	text11,local,class=CODE,space=0,merge=1,delta=2,group=3
    25                           	psect	text12,local,class=CODE,space=0,merge=1,delta=2,group=3
    26                           	psect	text13,local,class=CODE,space=0,merge=1,delta=2,group=3
    27                           	psect	text14,local,class=CODE,space=0,merge=1,delta=2,group=3
    28                           	psect	text15,local,class=CODE,space=0,merge=1,delta=2,group=3
    29                           	psect	text16,local,class=CODE,space=0,merge=1,delta=2,group=2
    30                           	psect	text17,local,class=CODE,space=0,merge=1,delta=2,group=2
    31                           	psect	text18,local,class=CODE,space=0,merge=1,delta=2,group=2
    32                           	psect	text19,local,class=CODE,space=0,merge=1,delta=2,group=2
    33                           	psect	text20,local,class=CODE,space=0,merge=1,delta=2,group=2
    34                           	psect	text21,local,class=CODE,space=0,merge=1,delta=2,group=2
    35                           	psect	text22,local,class=CODE,space=0,merge=1,delta=2,group=2
    36                           	psect	text23,local,class=CODE,space=0,merge=1,delta=2,group=2
    37                           	psect	text24,local,class=CODE,space=0,merge=1,delta=2,group=2
    38                           	psect	text25,local,class=CODE,space=0,merge=1,delta=2
    39                           	psect	text26,local,class=CODE,space=0,merge=1,delta=2
    40                           	psect	text27,local,class=CODE,space=0,merge=1,delta=2
    41                           	psect	text28,local,class=CODE,space=0,merge=1,delta=2
    42                           	psect	text29,local,class=CODE,space=0,merge=1,delta=2
    43                           	psect	text30,local,class=CODE,space=0,merge=1,delta=2
    44                           	psect	text31,local,class=CODE,space=0,merge=1,delta=2,group=2
    45                           	psect	config,global,abs,ovrld,class=CONFIG,space=4,delta=2,noexec
    46                           	psect	text6_split_1,local,class=CODE,space=0,merge=1,delta=2
    47                           	dabs	1,0x7E,2
    48     0000                     
    49                           ; Generated 12/10/2023 GMT
    50                           ; 
    51                           ; Copyright © 2023, Microchip Technology Inc. and its subsidiaries ("Microchip")
    52                           ; All rights reserved.
    53                           ; 
    54                           ; This software is developed by Microchip Technology Inc. and its subsidiaries ("Microch
      +                          ip").
    55                           ; 
    56                           ; Redistribution and use in source and binary forms, with or without modification, are
    57                           ; permitted provided that the following conditions are met:
    58                           ; 
    59                           ;     1. Redistributions of source code must retain the above copyright notice, this lis
      +                          t of
    60                           ;        conditions and the following disclaimer.
    61                           ; 
    62                           ;     2. Redistributions in binary form must reproduce the above copyright notice, this 
      +                          list
    63                           ;        of conditions and the following disclaimer in the documentation and/or other
    64                           ;        materials provided with the distribution. Publication is not required when
    65                           ;        this file is used in an embedded application.
    66                           ; 
    67                           ;     3. Microchip's name may not be used to endorse or promote products derived from th
      +                          is
    68                           ;        software without specific prior written permission.
    69                           ; 
    70                           ; THIS SOFTWARE IS PROVIDED BY MICROCHIP "AS IS" AND ANY EXPRESS OR IMPLIED WARRANTIES,
    71                           ; INCLUDING, BUT NOT LIMITED TO, THE IMPLIED WARRANTIES OF MERCHANTABILITY AND FITNESS F
      +                          OR
    72                           ; PURPOSE ARE DISCLAIMED.  IN NO EVENT SHALL MICROCHIP BE LIABLE FOR ANY DIRECT, INDIREC
      +                          T,
    73                           ; INCIDENTAL, SPECIAL, EXEMPLARY, OR CONSEQUENTIAL DAMAGES (INCLUDING BUT NOT LIMITED TO
    74                           ; PROCUREMENT OF SUBSTITUTE GOODS OR SERVICES; LOSS OF USE, DATA OR PROFITS; OR BUSINESS
    75                           ; INTERRUPTION) HOWSOEVER CAUSED AND ON ANY THEORY OF LIABILITY, WHETHER IN CONTRACT, ST
      +                          RICT
    76                           ; LIABILITY, OR TORT (INCLUDING NEGLIGENCE OR OTHERWISE) ARISING IN ANY WAY OUT OF THE U
      +                          SE OF
    77                           ; THIS SOFTWARE, EVEN IF ADVISED OF THE POSSIBILITY OF SUCH DAMAGE.
    78                           ; 
    79                           ; 
    80                           ; Code-generator required, PIC16F877 Definitions
    81                           ; 
    82                           ; SFR Addresses
    83     0004                     fsr             equ	4
    84     0004                     fsr0            equ	4
    85     0000                     indf            equ	0
    86     0000                     indf0           equ	0
    87     0002                     pc              equ	2
    88     0002                     pcl             equ	2
    89     000A                     pclath          equ	10
    90     0003                     status          equ	3
    91     0000                     INDF            equ	0	;# 
    92     0001                     TMR0            equ	1	;# 
    93     0002                     PCL             equ	2	;# 
    94     0003                     STATUS          equ	3	;# 
    95     0004                     FSR             equ	4	;# 
    96     0005                     PORTA           equ	5	;# 
    97     0006                     PORTB           equ	6	;# 
    98     0007                     PORTC           equ	7	;# 
    99     0008                     PORTD           equ	8	;# 
   100     0009                     PORTE           equ	9	;# 
   101     000A                     PCLATH          equ	10	;# 
   102     000B                     INTCON          equ	11	;# 
   103     000C                     PIR1            equ	12	;# 
   104     000D                     PIR2            equ	13	;# 
   105     000E                     TMR1            equ	14	;# 
   106     000E                     TMR1L           equ	14	;# 
   107     000F                     TMR1H           equ	15	;# 
   108     0010                     T1CON           equ	16	;# 
   109     0011                     TMR2            equ	17	;# 
   110     0012                     T2CON           equ	18	;# 
   111     0013                     SSPBUF          equ	19	;# 
   112     0014                     SSPCON          equ	20	;# 
   113     0015                     CCPR1           equ	21	;# 
   114     0015                     CCPR1L          equ	21	;# 
   115     0016                     CCPR1H          equ	22	;# 
   116     0017                     CCP1CON         equ	23	;# 
   117     0018                     RCSTA           equ	24	;# 
   118     0019                     TXREG           equ	25	;# 
   119     001A                     RCREG           equ	26	;# 
   120     001B                     CCPR2           equ	27	;# 
   121     001B                     CCPR2L          equ	27	;# 
   122     001C                     CCPR2H          equ	28	;# 
   123     001D                     CCP2CON         equ	29	;# 
   124     001E                     ADRESH          equ	30	;# 
   125     001F                     ADCON0          equ	31	;# 
   126     0081                     OPTION_REG      equ	129	;# 
   127     0085                     TRISA           equ	133	;# 
   128     0086                     TRISB           equ	134	;# 
   129     0087                     TRISC           equ	135	;# 
   130     0088                     TRISD           equ	136	;# 
   131     0089                     TRISE           equ	137	;# 
   132     008C                     PIE1            equ	140	;# 
   133     008D                     PIE2            equ	141	;# 
   134     008E                     PCON            equ	142	;# 
   135     0091                     SSPCON2         equ	145	;# 
   136     0092                     PR2             equ	146	;# 
   137     0093                     SSPADD          equ	147	;# 
   138     0094                     SSPSTAT         equ	148	;# 
   139     0098                     TXSTA           equ	152	;# 
   140     0099                     SPBRG           equ	153	;# 
   141     009E                     ADRESL          equ	158	;# 
   142     009F                     ADCON1          equ	159	;# 
   143     010C                     EEDATA          equ	268	;# 
   144     010D                     EEADR           equ	269	;# 
   145     010E                     EEDATH          equ	270	;# 
   146     010F                     EEADRH          equ	271	;# 
   147     018C                     EECON1          equ	396	;# 
   148     018D                     EECON2          equ	397	;# 
   149     0000                     INDF            equ	0	;# 
   150     0001                     TMR0            equ	1	;# 
   151     0002                     PCL             equ	2	;# 
   152     0003                     STATUS          equ	3	;# 
   153     0004                     FSR             equ	4	;# 
   154     0005                     PORTA           equ	5	;# 
   155     0006                     PORTB           equ	6	;# 
   156     0007                     PORTC           equ	7	;# 
   157     0008                     PORTD           equ	8	;# 
   158     0009                     PORTE           equ	9	;# 
   159     000A                     PCLATH          equ	10	;# 
   160     000B                     INTCON          equ	11	;# 
   161     000C                     PIR1            equ	12	;# 
   162     000D                     PIR2            equ	13	;# 
   163     000E                     TMR1            equ	14	;# 
   164     000E                     TMR1L           equ	14	;# 
   165     000F                     TMR1H           equ	15	;# 
   166     0010                     T1CON           equ	16	;# 
   167     0011                     TMR2            equ	17	;# 
   168     0012                     T2CON           equ	18	;# 
   169     0013                     SSPBUF          equ	19	;# 
   170     0014                     SSPCON          equ	20	;# 
   171     0015                     CCPR1           equ	21	;# 
   172     0015                     CCPR1L          equ	21	;# 
   173     0016                     CCPR1H          equ	22	;# 
   174     0017                     CCP1CON         equ	23	;# 
   175     0018                     RCSTA           equ	24	;# 
   176     0019                     TXREG           equ	25	;# 
   177     001A                     RCREG           equ	26	;# 
   178     001B                     CCPR2           equ	27	;# 
   179     001B                     CCPR2L          equ	27	;# 
   180     001C                     CCPR2H          equ	28	;# 
   181     001D                     CCP2CON         equ	29	;# 
   182     001E                     ADRESH          equ	30	;# 
   183     001F                     ADCON0          equ	31	;# 
   184     0081                     OPTION_REG      equ	129	;# 
   185     0085                     TRISA           equ	133	;# 
   186     0086                     TRISB           equ	134	;# 
   187     0087                     TRISC           equ	135	;# 
   188     0088                     TRISD           equ	136	;# 
   189     0089                     TRISE           equ	137	;# 
   190     008C                     PIE1            equ	140	;# 
   191     008D                     PIE2            equ	141	;# 
   192     008E                     PCON            equ	142	;# 
   193     0091                     SSPCON2         equ	145	;# 
   194     0092                     PR2             equ	146	;# 
   195     0093                     SSPADD          equ	147	;# 
   196     0094                     SSPSTAT         equ	148	;# 
   197     0098                     TXSTA           equ	152	;# 
   198     0099                     SPBRG           equ	153	;# 
   199     009E                     ADRESL          equ	158	;# 
   200     009F                     ADCON1          equ	159	;# 
   201     010C                     EEDATA          equ	268	;# 
   202     010D                     EEADR           equ	269	;# 
   203     010E                     EEDATH          equ	270	;# 
   204     010F                     EEADRH          equ	271	;# 
   205     018C                     EECON1          equ	396	;# 
   206     018D                     EECON2          equ	397	;# 
   207     0009                     _PORTEbits      set	9
   208     0008                     _PORTD          set	8
   209     001E                     _ADRESH         set	30
   210     001F                     _ADCON0bits     set	31
   211     001F                     _ADCON0         set	31
   212     009E                     _ADRESL         set	158
   213     009F                     _ADCON1         set	159
   214     0085                     _TRISA          set	133
   215     0088                     _TRISD          set	136
   216     0089                     _TRISE          set	137
   217                           
   218                           	psect	strings
   219     1000                     __pstrings:
   220     1000                     stringtab:
   221     1000                     __stringtab:
   222                           
   223                           ;	String table - string pointers are 1 byte each
   224     1000  1BFF               	btfsc	btemp+1,7
   225     1001  280A               	ljmp	stringcode
   226     1002  1383               	bcf	3,7
   227     1003  187F               	btfsc	btemp+1,0
   228     1004  1783               	bsf	3,7
   229     1005  0800               	movf	0,w
   230     1006  0A84               	incf	4,f
   231     1007  1903               	skipnz
   232     1008  0AFF               	incf	btemp+1,f
   233     1009  0008               	return
   234     100A                     stringcode:
   235     100A                     stringdir:
   236     100A  3010               	movlw	high stringdir
   237     100B  008A               	movwf	10
   238     100C  0804               	movf	4,w
   239     100D  0A84               	incf	4,f
   240     100E  0782               	addwf	2,f
   241     100F                     __stringbase:
   242     100F  3400               	retlw	0
   243     1010                     __end_of__stringtab:
   244     1010                     STR_2:
   245     1010  3456               	retlw	86	;'V'
   246     1011  343A               	retlw	58	;':'
   247     1012  3420               	retlw	32	;' '
   248     1013  3425               	retlw	37	;'%'
   249     1014  342E               	retlw	46	;'.'
   250     1015  3432               	retlw	50	;'2'
   251     1016  3466               	retlw	102	;'f'
   252     1017  3420               	retlw	32	;' '
   253     1018  3456               	retlw	86	;'V'
   254     1019  3400               	retlw	0
   255     101A                     STR_1:
   256     101A  3454               	retlw	84	;'T'
   257     101B  3465               	retlw	101	;'e'
   258     101C  346E               	retlw	110	;'n'
   259     101D  3473               	retlw	115	;'s'
   260     101E  3461               	retlw	97	;'a'
   261     101F  346F               	retlw	111	;'o'
   262     1020  343A               	retlw	58	;':'
   263     1021  3400               	retlw	0
   264     1022                     STR_3:
   265     1022  3469               	retlw	105	;'i'
   266     1023  346E               	retlw	110	;'n'
   267     1024  3466               	retlw	102	;'f'
   268     1025  3400               	retlw	0
   269     1026                     STR_6:
   270     1026  346E               	retlw	110	;'n'
   271     1027  3461               	retlw	97	;'a'
   272     1028  346E               	retlw	110	;'n'
   273     1029  3400               	retlw	0
   274     1026                     STR_7           equ	STR_6
   275     1026                     STR_8           equ	STR_6
   276     1022                     STR_4           equ	STR_3
   277     1022                     STR_5           equ	STR_3
   278                           
   279                           	psect	cinit
   280     07EB                     start_initialization:	
   281                           ; #config settings
   282                           
   283     07EB                     __initialization:
   284                           
   285                           ; Clear objects allocated to BANK3
   286     07EB  1783               	bsf	3,7	;select IRP bank2
   287     07EC  3090               	movlw	low __pbssBANK3
   288     07ED  0084               	movwf	4
   289     07EE  30AD               	movlw	low (__pbssBANK3+29)
   290     07EF  160A  118A  202A  120A  118A  	fcall	clear_ram0
   291                           
   292                           ; Clear objects allocated to BANK2
   293     07F4  3010               	movlw	low __pbssBANK2
   294     07F5  0084               	movwf	4
   295     07F6  3060               	movlw	low (__pbssBANK2+80)
   296     07F7  160A  118A  202A  120A  118A  	fcall	clear_ram0
   297     07FC                     end_of_initialization:	
   298                           ;End of C runtime variable initialization code
   299                           
   300     07FC                     __end_of__initialization:
   301     07FC  0183               	clrf	3
   302     07FD  120A  118A  2812   	ljmp	_main	;jump to C main() function
   303                           
   304                           	psect	bssBANK3
   305     0190                     __pbssBANK3:
   306     0190                     floorf@F521:
   307     0190                     	ds	4
   308     0194                     ___fpclassifyf@F465:
   309     0194                     	ds	4
   310     0198                     _width:
   311     0198                     	ds	2
   312     019A                     _prec:
   313     019A                     	ds	2
   314     019C                     _flags:
   315     019C                     	ds	1
   316     019D                     _buffer:
   317     019D                     	ds	16
   318                           
   319                           	psect	bssBANK2
   320     0110                     __pbssBANK2:
   321     0110                     _dbuf:
   322     0110                     	ds	80
   323                           
   324                           	psect	clrtext
   325     102A                     clear_ram0:	
   326                           ;	Called with FSR containing the base address, and
   327                           ;	W with the last address+1
   328                           
   329     102A  0064               	clrwdt	;clear the watchdog before getting into this loop
   330     102B                     clrloop0:
   331     102B  0180               	clrf	0	;clear RAM location pointed to by FSR
   332     102C  0A84               	incf	4,f	;increment pointer
   333     102D  0604               	xorwf	4,w	;XOR with final address
   334     102E  1903               	btfsc	3,2	;have we reached the end yet?
   335     102F  3400               	retlw	0	;all done for this memory range, return
   336     1030  0604               	xorwf	4,w	;XOR again to restore value
   337     1031  282B               	goto	clrloop0	;do the next byte
   338                           
   339                           	psect	cstackBANK3
   340     01AD                     __pcstackBANK3:
   341     01AD                     sprintf@ap:
   342                           
   343                           ; 1 bytes @ 0x0
   344     01AD                     	ds	1
   345     01AE                     sprintf@f:
   346                           
   347                           ; 11 bytes @ 0x1
   348     01AE                     	ds	11
   349                           
   350                           	psect	cstackBANK1
   351     00A0                     __pcstackBANK1:
   352     00A0                     ??_efgtoa:
   353                           
   354                           ; 1 bytes @ 0x0
   355     00A0                     	ds	4
   356     00A4                     efgtoa@ne:
   357                           
   358                           ; 2 bytes @ 0x4
   359     00A4                     	ds	2
   360     00A6                     efgtoa@p:
   361                           
   362                           ; 2 bytes @ 0x6
   363     00A6                     	ds	2
   364     00A8                     efgtoa@t:
   365                           
   366                           ; 2 bytes @ 0x8
   367     00A8                     	ds	2
   368     00AA                     _efgtoa$717:
   369                           
   370                           ; 2 bytes @ 0xA
   371     00AA                     	ds	2
   372     00AC                     efgtoa@pp:
   373                           
   374                           ; 1 bytes @ 0xC
   375     00AC                     	ds	1
   376     00AD                     efgtoa@mode:
   377                           
   378                           ; 1 bytes @ 0xD
   379     00AD                     	ds	1
   380     00AE                     efgtoa@nmode:
   381                           
   382                           ; 1 bytes @ 0xE
   383     00AE                     	ds	1
   384     00AF                     efgtoa@d:
   385                           
   386                           ; 2 bytes @ 0xF
   387     00AF                     	ds	2
   388     00B1                     efgtoa@m:
   389                           
   390                           ; 2 bytes @ 0x11
   391     00B1                     	ds	2
   392     00B3                     efgtoa@e:
   393                           
   394                           ; 2 bytes @ 0x13
   395     00B3                     	ds	2
   396     00B5                     efgtoa@w:
   397                           
   398                           ; 2 bytes @ 0x15
   399     00B5                     	ds	2
   400     00B7                     efgtoa@ou:
   401                           
   402                           ; 4 bytes @ 0x17
   403     00B7                     	ds	4
   404     00BB                     efgtoa@i:
   405                           
   406                           ; 2 bytes @ 0x1B
   407     00BB                     	ds	2
   408     00BD                     efgtoa@h:
   409                           
   410                           ; 4 bytes @ 0x1D
   411     00BD                     	ds	4
   412     00C1                     efgtoa@l:
   413                           
   414                           ; 4 bytes @ 0x21
   415     00C1                     	ds	4
   416     00C5                     efgtoa@sign:
   417                           
   418                           ; 1 bytes @ 0x25
   419     00C5                     	ds	1
   420     00C6                     efgtoa@n:
   421                           
   422                           ; 2 bytes @ 0x26
   423     00C6                     	ds	2
   424     00C8                     efgtoa@g:
   425                           
   426                           ; 4 bytes @ 0x28
   427     00C8                     	ds	4
   428     00CC                     efgtoa@u:
   429                           
   430                           ; 4 bytes @ 0x2C
   431     00CC                     	ds	4
   432     00D0                     ?_vfpfcnvrt:
   433     00D0                     vfpfcnvrt@fp:	
   434                           ; 1 bytes @ 0x30
   435                           
   436                           
   437                           ; 2 bytes @ 0x30
   438     00D0                     	ds	2
   439     00D2                     vfpfcnvrt@fmt:
   440                           
   441                           ; 1 bytes @ 0x32
   442     00D2                     	ds	1
   443     00D3                     vfpfcnvrt@ap:
   444                           
   445                           ; 1 bytes @ 0x33
   446     00D3                     	ds	1
   447     00D4                     ??_vfpfcnvrt:
   448                           
   449                           ; 1 bytes @ 0x34
   450     00D4                     	ds	2
   451     00D6                     vfpfcnvrt@convarg:
   452                           
   453                           ; 4 bytes @ 0x36
   454     00D6                     	ds	4
   455     00DA                     vfpfcnvrt@c:
   456                           
   457                           ; 1 bytes @ 0x3A
   458     00DA                     	ds	1
   459     00DB                     vfpfcnvrt@cp:
   460                           
   461                           ; 1 bytes @ 0x3B
   462     00DB                     	ds	1
   463     00DC                     ?_vfprintf:
   464     00DC                     vfprintf@fp:	
   465                           ; 2 bytes @ 0x3C
   466                           
   467                           
   468                           ; 2 bytes @ 0x3C
   469     00DC                     	ds	2
   470     00DE                     vfprintf@fmt:
   471                           
   472                           ; 1 bytes @ 0x3E
   473     00DE                     	ds	1
   474     00DF                     vfprintf@ap:
   475                           
   476                           ; 1 bytes @ 0x3F
   477     00DF                     	ds	1
   478     00E0                     ?_sprintf:
   479     00E0                     sprintf@s:	
   480                           ; 2 bytes @ 0x40
   481                           
   482                           
   483                           ; 1 bytes @ 0x40
   484     00E0                     	ds	1
   485     00E1                     sprintf@fmt:
   486                           
   487                           ; 1 bytes @ 0x41
   488     00E1                     	ds	5
   489     00E6                     ??_sprintf:
   490                           
   491                           ; 1 bytes @ 0x46
   492     00E6                     	ds	1
   493     00E7                     ??_main:
   494                           
   495                           ; 1 bytes @ 0x47
   496     00E7                     	ds	3
   497     00EA                     main@voltage:
   498                           
   499                           ; 4 bytes @ 0x4A
   500     00EA                     	ds	4
   501     00EE                     main@adc_value:
   502                           
   503                           ; 2 bytes @ 0x4E
   504     00EE                     	ds	2
   505                           
   506                           	psect	cstackCOMMON
   507     0070                     __pcstackCOMMON:
   508     0070                     ?_lcd_initialise:
   509     0070                     ?_adc_initialise:	
   510                           ; 1 bytes @ 0x0
   511                           
   512     0070                     ?_lcd_command:	
   513                           ; 1 bytes @ 0x0
   514                           
   515     0070                     ?_strcpy:	
   516                           ; 1 bytes @ 0x0
   517                           
   518     0070                     ?_memcpy:	
   519                           ; 1 bytes @ 0x0
   520                           
   521     0070                     ?_putch:	
   522                           ; 1 bytes @ 0x0
   523                           
   524     0070                     ?_main:	
   525                           ; 1 bytes @ 0x0
   526                           
   527     0070                     ?_lcd_data:	
   528                           ; 1 bytes @ 0x0
   529                           
   530     0070                     ?___fleq:	
   531                           ; 1 bytes @ 0x0
   532                           
   533     0070                     ?_read_adc:	
   534                           ; 1 bit 
   535                           
   536     0070                     ?__Umul8_16:	
   537                           ; 2 bytes @ 0x0
   538                           
   539     0070                     ?_fputc:	
   540                           ; 2 bytes @ 0x0
   541                           
   542     0070                     ?___fpclassifyf:	
   543                           ; 2 bytes @ 0x0
   544                           
   545     0070                     ?___wmul:	
   546                           ; 2 bytes @ 0x0
   547                           
   548     0070                     ?_labs:	
   549                           ; 2 bytes @ 0x0
   550                           
   551     0070                     ?___flneg:	
   552                           ; 4 bytes @ 0x0
   553                           
   554     0070                     ?___fltol:	
   555                           ; 4 bytes @ 0x0
   556                           
   557     0070                     ?___fladd:	
   558                           ; 4 bytes @ 0x0
   559                           
   560     0070                     ?___xxtofl:	
   561                           ; 4 bytes @ 0x0
   562                           
   563     0070                     __Umul8_16@multiplicand:	
   564                           ; 4 bytes @ 0x0
   565                           
   566     0070                     memcpy@d1:	
   567                           ; 1 bytes @ 0x0
   568                           
   569     0070                     putch@c:	
   570                           ; 1 bytes @ 0x0
   571                           
   572     0070                     strcpy@dest:	
   573                           ; 1 bytes @ 0x0
   574                           
   575     0070                     ___wmul@multiplier:	
   576                           ; 1 bytes @ 0x0
   577                           
   578     0070                     fputc@c:	
   579                           ; 2 bytes @ 0x0
   580                           
   581     0070                     ___fleq@ff1:	
   582                           ; 2 bytes @ 0x0
   583                           
   584     0070                     ___flneg@f1:	
   585                           ; 4 bytes @ 0x0
   586                           
   587     0070                     ___fltol@f1:	
   588                           ; 4 bytes @ 0x0
   589                           
   590     0070                     ___fladd@b:	
   591                           ; 4 bytes @ 0x0
   592                           
   593     0070                     ___xxtofl@val:	
   594                           ; 4 bytes @ 0x0
   595                           
   596     0070                     ___fpclassifyf@x:	
   597                           ; 4 bytes @ 0x0
   598                           
   599     0070                     labs@a:	
   600                           ; 4 bytes @ 0x0
   601                           
   602     0070                     ??_adc_initialise:	
   603                           ; 4 bytes @ 0x0
   604                           
   605     0070                     ??_lcd_command:	
   606                           ; 1 bytes @ 0x0
   607                           
   608     0070                     ??_putch:	
   609                           ; 1 bytes @ 0x0
   610                           
   611     0070                     ??_lcd_data:	
   612                           ; 1 bytes @ 0x0
   613                           
   614                           
   615                           ; 1 bytes @ 0x0
   616     0070                     	ds	1
   617     0071                     memcpy@s1:
   618     0071                     strcpy@src:	
   619                           ; 1 bytes @ 0x1
   620                           
   621                           
   622                           ; 1 bytes @ 0x1
   623     0071                     	ds	1
   624     0072                     lcd_command@cmd:
   625     0072                     lcd_data@data:	
   626                           ; 1 bytes @ 0x2
   627                           
   628     0072                     strcpy@d:	
   629                           ; 1 bytes @ 0x2
   630                           
   631     0072                     ___wmul@multiplicand:	
   632                           ; 1 bytes @ 0x2
   633                           
   634     0072                     memcpy@n:	
   635                           ; 2 bytes @ 0x2
   636                           
   637     0072                     fputc@fp:	
   638                           ; 2 bytes @ 0x2
   639                           
   640     0072                     ??_read_adc:	
   641                           ; 2 bytes @ 0x2
   642                           
   643     0072                     ??__Umul8_16:	
   644                           ; 1 bytes @ 0x2
   645                           
   646     0072                     ??_strcpy:	
   647                           ; 1 bytes @ 0x2
   648                           
   649                           
   650                           ; 1 bytes @ 0x2
   651     0072                     	ds	1
   652     0073                     ?_lcd_string:
   653     0073                     read_adc@canal:	
   654                           ; 1 bytes @ 0x3
   655                           
   656     0073                     lcd_string@str:	
   657                           ; 1 bytes @ 0x3
   658                           
   659     0073                     ??_lcd_initialise:	
   660                           ; 2 bytes @ 0x3
   661                           
   662                           
   663                           ; 1 bytes @ 0x3
   664     0073                     	ds	1
   665     0074                     memcpy@tmp:
   666     0074                     ___wmul@product:	
   667                           ; 1 bytes @ 0x4
   668                           
   669     0074                     __Umul8_16@product:	
   670                           ; 2 bytes @ 0x4
   671                           
   672     0074                     ___fleq@ff2:	
   673                           ; 2 bytes @ 0x4
   674                           
   675     0074                     ___fladd@a:	
   676                           ; 4 bytes @ 0x4
   677                           
   678     0074                     ??_fputc:	
   679                           ; 4 bytes @ 0x4
   680                           
   681     0074                     ??___fpclassifyf:	
   682                           ; 1 bytes @ 0x4
   683                           
   684     0074                     ??_labs:	
   685                           ; 1 bytes @ 0x4
   686                           
   687     0074                     ??_memcpy:	
   688                           ; 1 bytes @ 0x4
   689                           
   690     0074                     ??___wmul:	
   691                           ; 1 bytes @ 0x4
   692                           
   693     0074                     ??___flneg:	
   694                           ; 1 bytes @ 0x4
   695                           
   696     0074                     ??___fltol:	
   697                           ; 1 bytes @ 0x4
   698                           
   699     0074                     ??___xxtofl:	
   700                           ; 1 bytes @ 0x4
   701                           
   702                           
   703                           ; 1 bytes @ 0x4
   704     0074                     	ds	1
   705     0075                     memcpy@d:
   706     0075                     ??_lcd_string:	
   707                           ; 1 bytes @ 0x5
   708                           
   709                           
   710                           ; 1 bytes @ 0x5
   711     0075                     	ds	1
   712     0076                     ?_read_prec_or_width:
   713     0076                     read_prec_or_width@fmt:	
   714                           ; 2 bytes @ 0x6
   715                           
   716     0076                     memcpy@s:	
   717                           ; 1 bytes @ 0x6
   718                           
   719     0076                     __Umul8_16@word_mpld:	
   720                           ; 1 bytes @ 0x6
   721                           
   722                           
   723                           ; 2 bytes @ 0x6
   724     0076                     	ds	1
   725     0077                     read_prec_or_width@ap:
   726                           
   727                           ; 1 bytes @ 0x7
   728     0077                     	ds	1
   729     0078                     ___fltol@sign1:
   730     0078                     ___fladd@signs:	
   731                           ; 1 bytes @ 0x8
   732                           
   733     0078                     __Umul8_16@multiplier:	
   734                           ; 1 bytes @ 0x8
   735                           
   736     0078                     ___xxtofl@sign:	
   737                           ; 1 bytes @ 0x8
   738                           
   739     0078                     read_prec_or_width@c:	
   740                           ; 1 bytes @ 0x8
   741                           
   742     0078                     ??___fleq:	
   743                           ; 1 bytes @ 0x8
   744                           
   745     0078                     ??_read_prec_or_width:	
   746                           ; 1 bytes @ 0x8
   747                           
   748                           
   749                           ; 1 bytes @ 0x8
   750     0078                     	ds	1
   751     0079                     ___fltol@exp1:
   752     0079                     ___fladd@aexp:	
   753                           ; 1 bytes @ 0x9
   754                           
   755     0079                     ___xxtofl@exp:	
   756                           ; 1 bytes @ 0x9
   757                           
   758     0079                     read_prec_or_width@n:	
   759                           ; 1 bytes @ 0x9
   760                           
   761                           
   762                           ; 2 bytes @ 0x9
   763     0079                     	ds	1
   764     007A                     ___fladd@bexp:
   765     007A                     ___xxtofl@arg:	
   766                           ; 1 bytes @ 0xA
   767                           
   768                           
   769                           ; 4 bytes @ 0xA
   770     007A                     	ds	1
   771     007B                     ___fladd@grs:
   772                           
   773                           ; 1 bytes @ 0xB
   774     007B                     	ds	2
   775     007D                     ??_pad:
   776                           
   777                           ; 1 bytes @ 0xD
   778     007D                     	ds	1
   779     007E                     ??_vfprintf:
   780     007E                     ??___flsub:	
   781                           ; 1 bytes @ 0xE
   782                           
   783                           
   784                           	psect	cstackBANK0
   785     0020                     __pcstackBANK0:	
   786                           ; 1 bytes @ 0xE
   787                           
   788     0020                     ?_fputs:
   789     0020                     ?___flmul:	
   790                           ; 2 bytes @ 0x0
   791                           
   792     0020                     fputs@s:	
   793                           ; 4 bytes @ 0x0
   794                           
   795     0020                     ___fpclassifyf@e:	
   796                           ; 1 bytes @ 0x0
   797                           
   798     0020                     ___flmul@b:	
   799                           ; 2 bytes @ 0x0
   800                           
   801     0020                     ??___fladd:	
   802                           ; 4 bytes @ 0x0
   803                           
   804                           
   805                           ; 1 bytes @ 0x0
   806     0020                     	ds	1
   807     0021                     fputs@fp:
   808                           
   809                           ; 2 bytes @ 0x1
   810     0021                     	ds	1
   811     0022                     ___fpclassifyf@u:
   812                           
   813                           ; 4 bytes @ 0x2
   814     0022                     	ds	1
   815     0023                     ??_fputs:
   816                           
   817                           ; 1 bytes @ 0x3
   818     0023                     	ds	1
   819     0024                     ___flmul@a:
   820                           
   821                           ; 4 bytes @ 0x4
   822     0024                     	ds	1
   823     0025                     fputs@c:
   824                           
   825                           ; 1 bytes @ 0x5
   826     0025                     	ds	1
   827     0026                     fputs@i:
   828                           
   829                           ; 2 bytes @ 0x6
   830     0026                     	ds	2
   831     0028                     ?_pad:
   832     0028                     pad@fp:	
   833                           ; 1 bytes @ 0x8
   834                           
   835     0028                     ??___flmul:	
   836                           ; 2 bytes @ 0x8
   837                           
   838                           
   839                           ; 1 bytes @ 0x8
   840     0028                     	ds	2
   841     002A                     pad@buf:
   842                           
   843                           ; 1 bytes @ 0xA
   844     002A                     	ds	1
   845     002B                     pad@p:
   846                           
   847                           ; 2 bytes @ 0xB
   848     002B                     	ds	2
   849     002D                     ___flmul@sign:
   850     002D                     pad@i:	
   851                           ; 1 bytes @ 0xD
   852                           
   853                           
   854                           ; 2 bytes @ 0xD
   855     002D                     	ds	1
   856     002E                     ___flmul@grs:
   857                           
   858                           ; 4 bytes @ 0xE
   859     002E                     	ds	4
   860     0032                     ___flmul@aexp:
   861                           
   862                           ; 1 bytes @ 0x12
   863     0032                     	ds	1
   864     0033                     ___flmul@bexp:
   865                           
   866                           ; 1 bytes @ 0x13
   867     0033                     	ds	1
   868     0034                     ___flmul@prod:
   869                           
   870                           ; 4 bytes @ 0x14
   871     0034                     	ds	4
   872     0038                     ___flmul@temp:
   873                           
   874                           ; 2 bytes @ 0x18
   875     0038                     	ds	2
   876     003A                     ?___flge:
   877     003A                     ?___flsub:	
   878                           ; 1 bit 
   879                           
   880     003A                     ?___fldiv:	
   881                           ; 4 bytes @ 0x1A
   882                           
   883     003A                     ___flge@ff1:	
   884                           ; 4 bytes @ 0x1A
   885                           
   886     003A                     ___flsub@a:	
   887                           ; 4 bytes @ 0x1A
   888                           
   889     003A                     ___fldiv@a:	
   890                           ; 4 bytes @ 0x1A
   891                           
   892                           
   893                           ; 4 bytes @ 0x1A
   894     003A                     	ds	4
   895     003E                     ___flge@ff2:
   896     003E                     ___flsub@b:	
   897                           ; 4 bytes @ 0x1E
   898                           
   899     003E                     ___fldiv@b:	
   900                           ; 4 bytes @ 0x1E
   901                           
   902                           
   903                           ; 4 bytes @ 0x1E
   904     003E                     	ds	4
   905     0042                     ??___flge:
   906     0042                     ??___fldiv:	
   907                           ; 1 bytes @ 0x22
   908                           
   909                           
   910                           ; 1 bytes @ 0x22
   911     0042                     	ds	5
   912     0047                     ___fldiv@rem:
   913                           
   914                           ; 4 bytes @ 0x27
   915     0047                     	ds	4
   916     004B                     ___fldiv@sign:
   917                           
   918                           ; 1 bytes @ 0x2B
   919     004B                     	ds	1
   920     004C                     ___fldiv@new_exp:
   921                           
   922                           ; 2 bytes @ 0x2C
   923     004C                     	ds	2
   924     004E                     ___fldiv@grs:
   925                           
   926                           ; 4 bytes @ 0x2E
   927     004E                     	ds	4
   928     0052                     ___fldiv@bexp:
   929                           
   930                           ; 1 bytes @ 0x32
   931     0052                     	ds	1
   932     0053                     ___fldiv@aexp:
   933                           
   934                           ; 1 bytes @ 0x33
   935     0053                     	ds	1
   936     0054                     ?_floorf:
   937     0054                     floorf@x:	
   938                           ; 4 bytes @ 0x34
   939                           
   940                           
   941                           ; 4 bytes @ 0x34
   942     0054                     	ds	4
   943     0058                     ??_floorf:
   944                           
   945                           ; 1 bytes @ 0x38
   946     0058                     	ds	6
   947     005E                     floorf@m:
   948                           
   949                           ; 4 bytes @ 0x3E
   950     005E                     	ds	4
   951     0062                     floorf@e:
   952                           
   953                           ; 2 bytes @ 0x42
   954     0062                     	ds	2
   955     0064                     floorf@u:
   956                           
   957                           ; 4 bytes @ 0x44
   958     0064                     	ds	4
   959     0068                     ?_efgtoa:
   960     0068                     efgtoa@fp:	
   961                           ; 1 bytes @ 0x48
   962                           
   963                           
   964                           ; 2 bytes @ 0x48
   965     0068                     	ds	2
   966     006A                     efgtoa@f:
   967                           
   968                           ; 4 bytes @ 0x4A
   969     006A                     	ds	4
   970     006E                     efgtoa@c:
   971                           
   972                           ; 1 bytes @ 0x4E
   973     006E                     	ds	1
   974     006F                     vfprintf@cfmt:
   975                           
   976                           ; 1 bytes @ 0x4F
   977     006F                     	ds	1
   978                           
   979                           	psect	maintext
   980     0012                     __pmaintext:	
   981 ;;
   982 ;;Main: autosize = 0, tempsize = 3, incstack = 0, save=0
   983 ;;
   984 ;; *************** function _main *****************
   985 ;; Defined at:
   986 ;;		line 29 in file "atividade7.c"
   987 ;; Parameters:    Size  Location     Type
   988 ;;		None
   989 ;; Auto vars:     Size  Location     Type
   990 ;;  voltage         4   74[BANK1 ] float 
   991 ;;  adc_value       2   78[BANK1 ] unsigned int 
   992 ;; Return value:  Size  Location     Type
   993 ;;                  1    wreg      void 
   994 ;; Registers used:
   995 ;;		wreg, fsr0l, fsr0h, status,2, status,0, btemp+1, pclath, cstack
   996 ;; Tracked objects:
   997 ;;		On entry : B00/0
   998 ;;		On exit  : 0/0
   999 ;;		Unchanged: 0/0
  1000 ;; Data sizes:     COMMON   BANK0   BANK1   BANK3   BANK2
  1001 ;;      Params:         0       0       0       0       0
  1002 ;;      Locals:         0       0       6       0       0
  1003 ;;      Temps:          0       0       3       0       0
  1004 ;;      Totals:         0       0       9       0       0
  1005 ;;Total ram usage:        9 bytes
  1006 ;; Hardware stack levels required when called: 8
  1007 ;; This function calls:
  1008 ;;		___fldiv
  1009 ;;		___flmul
  1010 ;;		___xxtofl
  1011 ;;		_adc_initialise
  1012 ;;		_lcd_command
  1013 ;;		_lcd_initialise
  1014 ;;		_lcd_string
  1015 ;;		_read_adc
  1016 ;;		_sprintf
  1017 ;; This function is called by:
  1018 ;;		Startup code after reset
  1019 ;; This function uses a non-reentrant model
  1020 ;;
  1021                           
  1022     0012                     _main:	
  1023                           ;psect for function _main
  1024                           
  1025     0012                     l3019:	
  1026                           ;incstack = 0
  1027                           ; Regs used in _main: [wreg-fsr0h+status,2+status,0+btemp+1+pclath+cstack]
  1028                           
  1029                           
  1030                           ;atividade7.c: 31: 
  1031     0012  1683               	bsf	3,5	;RP0=1, select bank1
  1032     0013  1303               	bcf	3,6	;RP1=0, select bank1
  1033     0014  0189               	clrf	9	;volatile
  1034                           
  1035                           ;atividade7.c: 32: 
  1036     0015  0188               	clrf	8	;volatile
  1037     0016                     l3021:
  1038                           
  1039                           ;atividade7.c: 33:         lcd_command(0xC0);
  1040     0016  30FF               	movlw	255
  1041     0017  0085               	movwf	5	;volatile
  1042     0018                     l3023:
  1043                           
  1044                           ;atividade7.c: 36: 
  1045     0018  160A  118A  2032  120A  118A  	fcall	_lcd_initialise
  1046     001D                     l3025:
  1047                           
  1048                           ;atividade7.c: 37:         _delay((unsigned long)((500)*(20000000/4000.0)));
  1049     001D  120A  158A  2002  120A  118A  	fcall	_adc_initialise
  1050     0022                     l3027:
  1051                           
  1052                           ;atividade7.c: 39: }
  1053     0022  3080               	movlw	128
  1054     0023  160A  158A  2789  120A  118A  	fcall	_lcd_command
  1055     0028                     l3029:
  1056                           
  1057                           ;atividade7.c: 40: 
  1058     0028  300B               	movlw	(low ((STR_1-__stringbase)| (0+32768)))& (0+255)
  1059     0029  00F3               	movwf	lcd_string@str
  1060     002A  3080               	movlw	128
  1061     002B  00F4               	movwf	lcd_string@str+1
  1062     002C  160A  118A  20BF  120A  118A  	fcall	_lcd_string
  1063     0031                     l3031:
  1064                           
  1065                           ;atividade7.c: 44:     ADCON1 = 0b10000010;
  1066     0031  3003               	movlw	3
  1067     0032  160A  118A  2054  120A  118A  	fcall	_read_adc
  1068     0037  0871               	movf	?_read_adc+1,w
  1069     0038  1683               	bsf	3,5	;RP0=1, select bank1
  1070     0039  1303               	bcf	3,6	;RP1=0, select bank1
  1071     003A  00EF               	movwf	(main@adc_value+1)^(0+128)
  1072     003B  0870               	movf	?_read_adc,w
  1073     003C  00EE               	movwf	main@adc_value^(0+128)
  1074     003D                     l3033:
  1075                           
  1076                           ;atividade7.c: 45: }
  1077     003D  3044               	movlw	68
  1078     003E  1283               	bcf	3,5	;RP0=0, select bank0
  1079     003F  1303               	bcf	3,6	;RP1=0, select bank0
  1080     0040  00BD               	movwf	___fldiv@a+3
  1081     0041  307F               	movlw	127
  1082     0042  00BC               	movwf	___fldiv@a+2
  1083     0043  30C0               	movlw	192
  1084     0044  00BB               	movwf	___fldiv@a+1
  1085     0045  3000               	movlw	0
  1086     0046  00BA               	movwf	___fldiv@a
  1087     0047  3040               	movlw	64
  1088     0048  00A3               	movwf	___flmul@b+3
  1089     0049  30A0               	movlw	160
  1090     004A  00A2               	movwf	___flmul@b+2
  1091     004B  3000               	movlw	0
  1092     004C  00A1               	movwf	___flmul@b+1
  1093     004D  3000               	movlw	0
  1094     004E  00A0               	movwf	___flmul@b
  1095     004F  1683               	bsf	3,5	;RP0=1, select bank1
  1096     0050  1303               	bcf	3,6	;RP1=0, select bank1
  1097     0051  086E               	movf	main@adc_value^(0+128),w
  1098     0052  00F0               	movwf	___xxtofl@val
  1099     0053  086F               	movf	(main@adc_value+1)^(0+128),w
  1100     0054  00F1               	movwf	___xxtofl@val+1
  1101     0055  01F2               	clrf	___xxtofl@val+2
  1102     0056  01F3               	clrf	___xxtofl@val+3
  1103     0057  3000               	movlw	0
  1104     0058  160A  118A  241E  120A  118A  	fcall	___xxtofl
  1105     005D  0873               	movf	?___xxtofl+3,w
  1106     005E  1283               	bcf	3,5	;RP0=0, select bank0
  1107     005F  1303               	bcf	3,6	;RP1=0, select bank0
  1108     0060  00A7               	movwf	___flmul@a+3
  1109     0061  0872               	movf	?___xxtofl+2,w
  1110     0062  00A6               	movwf	___flmul@a+2
  1111     0063  0871               	movf	?___xxtofl+1,w
  1112     0064  00A5               	movwf	___flmul@a+1
  1113     0065  0870               	movf	?___xxtofl,w
  1114     0066  00A4               	movwf	___flmul@a
  1115     0067  120A  158A  24BE  120A  118A  	fcall	___flmul
  1116     006C  1283               	bcf	3,5	;RP0=0, select bank0
  1117     006D  1303               	bcf	3,6	;RP1=0, select bank0
  1118     006E  0823               	movf	?___flmul+3,w
  1119     006F  00C1               	movwf	___fldiv@b+3
  1120     0070  0822               	movf	?___flmul+2,w
  1121     0071  00C0               	movwf	___fldiv@b+2
  1122     0072  0821               	movf	?___flmul+1,w
  1123     0073  00BF               	movwf	___fldiv@b+1
  1124     0074  0820               	movf	?___flmul,w
  1125     0075  00BE               	movwf	___fldiv@b
  1126     0076  120A  158A  2098  120A  118A  	fcall	___fldiv
  1127     007B  1283               	bcf	3,5	;RP0=0, select bank0
  1128     007C  1303               	bcf	3,6	;RP1=0, select bank0
  1129     007D  083D               	movf	?___fldiv+3,w
  1130     007E  1683               	bsf	3,5	;RP0=1, select bank1
  1131     007F  1303               	bcf	3,6	;RP1=0, select bank1
  1132     0080  00ED               	movwf	(main@voltage+3)^(0+128)
  1133     0081  1283               	bcf	3,5	;RP0=0, select bank0
  1134     0082  1303               	bcf	3,6	;RP1=0, select bank0
  1135     0083  083C               	movf	?___fldiv+2,w
  1136     0084  1683               	bsf	3,5	;RP0=1, select bank1
  1137     0085  1303               	bcf	3,6	;RP1=0, select bank1
  1138     0086  00EC               	movwf	(main@voltage+2)^(0+128)
  1139     0087  1283               	bcf	3,5	;RP0=0, select bank0
  1140     0088  1303               	bcf	3,6	;RP1=0, select bank0
  1141     0089  083B               	movf	?___fldiv+1,w
  1142     008A  1683               	bsf	3,5	;RP0=1, select bank1
  1143     008B  1303               	bcf	3,6	;RP1=0, select bank1
  1144     008C  00EB               	movwf	(main@voltage+1)^(0+128)
  1145     008D  1283               	bcf	3,5	;RP0=0, select bank0
  1146     008E  1303               	bcf	3,6	;RP1=0, select bank0
  1147     008F  083A               	movf	?___fldiv,w
  1148     0090  1683               	bsf	3,5	;RP0=1, select bank1
  1149     0091  1303               	bcf	3,6	;RP1=0, select bank1
  1150     0092  00EA               	movwf	main@voltage^(0+128)
  1151     0093                     l3035:
  1152                           
  1153                           ;atividade7.c: 48: unsigned int read_adc(unsigned char canal) {
  1154     0093  30C0               	movlw	192
  1155     0094  160A  158A  2789  120A  118A  	fcall	_lcd_command
  1156     0099                     l3037:
  1157                           
  1158                           ;atividade7.c: 49: 
  1159     0099  309D               	movlw	(low (_buffer| (0+256)))& (0+255)
  1160     009A  1683               	bsf	3,5	;RP0=1, select bank1
  1161     009B  1303               	bcf	3,6	;RP1=0, select bank1
  1162     009C  00E0               	movwf	sprintf@s^(0+128)
  1163     009D  3001               	movlw	(low ((STR_2-__stringbase)| (0+32768)))& (0+255)
  1164     009E  00E1               	movwf	sprintf@fmt^(0+128)
  1165     009F  086D               	movf	(main@voltage+3)^(0+128),w
  1166     00A0  00E5               	movwf	((?_sprintf+3)^(0+128)+2)
  1167     00A1  086C               	movf	(main@voltage+2)^(0+128),w
  1168     00A2  00E4               	movwf	((?_sprintf+2)^(0+128)+2)
  1169     00A3  086B               	movf	(main@voltage+1)^(0+128),w
  1170     00A4  00E3               	movwf	((?_sprintf+1)^(0+128)+2)
  1171     00A5  086A               	movf	main@voltage^(0+128),w
  1172     00A6  00E2               	movwf	(?_sprintf^(0+128)+2)
  1173     00A7  160A  118A  2160  120A  118A  	fcall	_sprintf
  1174     00AC                     l3039:
  1175                           
  1176                           ;atividade7.c: 50:     ADCON0 &= 0xC5;
  1177     00AC  309D               	movlw	(low (_buffer| (0+256)))& (0+255)
  1178     00AD  00F3               	movwf	lcd_string@str
  1179     00AE  3001               	movlw	1
  1180     00AF  00F4               	movwf	lcd_string@str+1
  1181     00B0  160A  118A  20BF  120A  118A  	fcall	_lcd_string
  1182     00B5                     l3041:
  1183                           
  1184                           ;atividade7.c: 52:     _delay((unsigned long)((20)*(20000000/4000000.0)));
  1185     00B5  300D               	movlw	13
  1186     00B6  1683               	bsf	3,5	;RP0=1, select bank1
  1187     00B7  1303               	bcf	3,6	;RP1=0, select bank1
  1188     00B8  00E9               	movwf	(??_main^(0+128)+2)
  1189     00B9  30AF               	movlw	175
  1190     00BA  00E8               	movwf	(??_main^(0+128)+1)
  1191     00BB  30B5               	movlw	181
  1192     00BC  00E7               	movwf	??_main^(0+128)
  1193     00BD                     u4597:
  1194     00BD  0BE7               	decfsz	??_main^(0+128),f
  1195     00BE  28BD               	goto	u4597
  1196     00BF  0BE8               	decfsz	(??_main^(0+128)+1),f
  1197     00C0  28BD               	goto	u4597
  1198     00C1  0BE9               	decfsz	(??_main^(0+128)+2),f
  1199     00C2  28BD               	goto	u4597
  1200     00C3  28C4               	nop2
  1201     00C4  2831               	goto	l3031
  1202     00C5  120A  118A  2800   	ljmp	start
  1203     00C8                     __end_of_main:
  1204                           
  1205                           	psect	text1
  1206     1160                     __ptext1:	
  1207 ;; *************** function _sprintf *****************
  1208 ;; Defined at:
  1209 ;;		line 9 in file "C:\Program Files\Microchip\xc8\v2.50\pic\sources\c99\common\nf_sprintf.c"
  1210 ;; Parameters:    Size  Location     Type
  1211 ;;  s               1   64[BANK1 ] PTR unsigned char 
  1212 ;;		 -> buffer(16), 
  1213 ;;  fmt             1   65[BANK1 ] PTR const unsigned char 
  1214 ;;		 -> STR_2(10), 
  1215 ;; Auto vars:     Size  Location     Type
  1216 ;;  f              11    1[BANK3 ] struct _IO_FILE
  1217 ;;  ret             2    0        int 
  1218 ;;  ap              1    0[BANK3 ] PTR void [1]
  1219 ;;		 -> ?_sprintf(2), 
  1220 ;; Return value:  Size  Location     Type
  1221 ;;                  2   64[BANK1 ] int 
  1222 ;; Registers used:
  1223 ;;		wreg, fsr0l, fsr0h, status,2, status,0, btemp+1, pclath, cstack
  1224 ;; Tracked objects:
  1225 ;;		On entry : 0/0
  1226 ;;		On exit  : 0/0
  1227 ;;		Unchanged: 0/0
  1228 ;; Data sizes:     COMMON   BANK0   BANK1   BANK3   BANK2
  1229 ;;      Params:         0       0       6       0       0
  1230 ;;      Locals:         0       0       0      12       0
  1231 ;;      Temps:          0       0       1       0       0
  1232 ;;      Totals:         0       0       7      12       0
  1233 ;;Total ram usage:       19 bytes
  1234 ;; Hardware stack levels used: 1
  1235 ;; Hardware stack levels required when called: 7
  1236 ;; This function calls:
  1237 ;;		_vfprintf
  1238 ;; This function is called by:
  1239 ;;		_main
  1240 ;; This function uses a non-reentrant model
  1241 ;;
  1242                           
  1243     1160                     _sprintf:	
  1244                           ;psect for function _sprintf
  1245                           
  1246     1160                     l2963:	
  1247                           ;incstack = 0
  1248                           ; Regs used in _sprintf: [wreg-fsr0h+status,2+status,0+btemp+1+pclath+cstack]
  1249                           
  1250     1160  30E2               	movlw	(low ((?_sprintf| 0+2)))& (0+255)
  1251     1161  1683               	bsf	3,5	;RP0=1, select bank3
  1252     1162  1703               	bsf	3,6	;RP1=1, select bank3
  1253     1163  00AD               	movwf	sprintf@ap^(0+384)
  1254     1164                     l2965:
  1255     1164  1683               	bsf	3,5	;RP0=1, select bank1
  1256     1165  1303               	bcf	3,6	;RP1=0, select bank1
  1257     1166  0860               	movf	sprintf@s^(0+128),w
  1258     1167  1683               	bsf	3,5	;RP0=1, select bank3
  1259     1168  1703               	bsf	3,6	;RP1=1, select bank3
  1260     1169  00AE               	movwf	sprintf@f^(0+384)
  1261     116A  3001               	movlw	1
  1262     116B  00AF               	movwf	(sprintf@f+1)^(0+384)
  1263     116C                     l2967:
  1264     116C  01B0               	clrf	(sprintf@f^(0+384)+2)
  1265     116D  01B1               	clrf	((sprintf@f+1)^(0+384)+2)
  1266     116E                     l2969:
  1267     116E  01B7               	clrf	(sprintf@f^(0+384)+9)
  1268     116F  01B8               	clrf	((sprintf@f+1)^(0+384)+9)
  1269     1170                     l2971:
  1270     1170  30AE               	movlw	low sprintf@f
  1271     1171  1683               	bsf	3,5	;RP0=1, select bank1
  1272     1172  1303               	bcf	3,6	;RP1=0, select bank1
  1273     1173  00DC               	movwf	vfprintf@fp^(0+128)
  1274     1174  3001               	movlw	high sprintf@f
  1275     1175  00DD               	movwf	(vfprintf@fp^(0+128)+1)
  1276     1176  0861               	movf	sprintf@fmt^(0+128),w
  1277     1177  00DE               	movwf	vfprintf@fmt^(0+128)
  1278     1178  30AD               	movlw	(low (sprintf@ap| (0+256)))& (0+255)
  1279     1179  00DF               	movwf	vfprintf@ap^(0+128)
  1280     117A  160A  118A  210C  160A  118A  	fcall	_vfprintf
  1281     117F                     l2973:
  1282     117F  1683               	bsf	3,5	;RP0=1, select bank3
  1283     1180  1703               	bsf	3,6	;RP1=1, select bank3
  1284     1181  0830               	movf	(sprintf@f^(0+384)+2),w
  1285     1182  1683               	bsf	3,5	;RP0=1, select bank1
  1286     1183  1303               	bcf	3,6	;RP1=0, select bank1
  1287     1184  0760               	addwf	sprintf@s^(0+128),w
  1288     1185  00E6               	movwf	??_sprintf^(0+128)
  1289     1186  0866               	movf	??_sprintf^(0+128),w
  1290     1187  0084               	movwf	4
  1291     1188  1783               	bsf	3,7	;select IRP bank2
  1292     1189  0180               	clrf	0
  1293     118A                     l617:
  1294     118A  0008               	return
  1295     118B                     __end_of_sprintf:
  1296                           
  1297                           	psect	text2
  1298     110C                     __ptext2:	
  1299 ;; *************** function _vfprintf *****************
  1300 ;; Defined at:
  1301 ;;		line 1817 in file "C:\Program Files\Microchip\xc8\v2.50\pic\sources\c99\common\doprnt.c"
  1302 ;; Parameters:    Size  Location     Type
  1303 ;;  fp              2   60[BANK1 ] PTR struct _IO_FILE
  1304 ;;		 -> sprintf@f(11), 
  1305 ;;  fmt             1   62[BANK1 ] PTR const unsigned char 
  1306 ;;		 -> STR_2(10), 
  1307 ;;  ap              1   63[BANK1 ] PTR PTR void 
  1308 ;;		 -> sprintf@ap(1), 
  1309 ;; Auto vars:     Size  Location     Type
  1310 ;;  cfmt            1   79[BANK0 ] PTR unsigned char 
  1311 ;;		 -> STR_2(10), 
  1312 ;; Return value:  Size  Location     Type
  1313 ;;                  2   60[BANK1 ] int 
  1314 ;; Registers used:
  1315 ;;		wreg, fsr0l, fsr0h, status,2, status,0, btemp+1, pclath, cstack
  1316 ;; Tracked objects:
  1317 ;;		On entry : 0/0
  1318 ;;		On exit  : 0/0
  1319 ;;		Unchanged: 0/0
  1320 ;; Data sizes:     COMMON   BANK0   BANK1   BANK3   BANK2
  1321 ;;      Params:         0       0       4       0       0
  1322 ;;      Locals:         0       1       0       0       0
  1323 ;;      Temps:          0       0       0       0       0
  1324 ;;      Totals:         0       1       4       0       0
  1325 ;;Total ram usage:        5 bytes
  1326 ;; Hardware stack levels used: 1
  1327 ;; Hardware stack levels required when called: 6
  1328 ;; This function calls:
  1329 ;;		_vfpfcnvrt
  1330 ;; This function is called by:
  1331 ;;		_sprintf
  1332 ;; This function uses a non-reentrant model
  1333 ;;
  1334                           
  1335     110C                     _vfprintf:	
  1336                           ;psect for function _vfprintf
  1337                           
  1338     110C                     l2929:	
  1339                           ;incstack = 0
  1340 ;; using string table level
  1341                           ; Regs used in _vfprintf: [wreg-fsr0h+status,2+status,0+btemp+1+pclath+cstack]
  1342                           
  1343                           
  1344                           ;C:\Program Files\Microchip\xc8\v2.50\pic\sources\c99\common\doprnt.c: 1817: int vfprint
      +                          f(FILE *fp, const char *fmt, va_list ap);C:\Program Files\Microchip\xc8\v2.50\pic\source
      +                          s\c99\common\doprnt.c: 1818: {;C:\Program Files\Microchip\xc8\v2.50\pic\sources\c99\comm
      +                          on\doprnt.c: 1820:     char *cfmt;;C:\Program Files\Microchip\xc8\v2.50\pic\sources\c99\
      +                          common\doprnt.c: 1822:     cfmt = (char *)fmt;
  1345     110C  1683               	bsf	3,5	;RP0=1, select bank1
  1346     110D  1303               	bcf	3,6	;RP1=0, select bank1
  1347     110E  085E               	movf	vfprintf@fmt^(0+128),w
  1348     110F  1283               	bcf	3,5	;RP0=0, select bank0
  1349     1110  1303               	bcf	3,6	;RP1=0, select bank0
  1350     1111  00EF               	movwf	vfprintf@cfmt
  1351                           
  1352                           ;C:\Program Files\Microchip\xc8\v2.50\pic\sources\c99\common\doprnt.c: 1826:     while (
      +                          *cfmt) {
  1353     1112  2922               	goto	l2933
  1354     1113                     l2931:
  1355                           
  1356                           ;C:\Program Files\Microchip\xc8\v2.50\pic\sources\c99\common\doprnt.c: 1830:    vfpfcnvr
      +                          t(fp, &cfmt, ap);
  1357     1113  1683               	bsf	3,5	;RP0=1, select bank1
  1358     1114  1303               	bcf	3,6	;RP1=0, select bank1
  1359     1115  085C               	movf	vfprintf@fp^(0+128),w
  1360     1116  00D0               	movwf	vfpfcnvrt@fp^(0+128)
  1361     1117  085D               	movf	(vfprintf@fp+1)^(0+128),w
  1362     1118  00D1               	movwf	(vfpfcnvrt@fp+1)^(0+128)
  1363     1119  306F               	movlw	(low (vfprintf@cfmt| 0))& (0+255)
  1364     111A  00D2               	movwf	vfpfcnvrt@fmt^(0+128)
  1365     111B  085F               	movf	vfprintf@ap^(0+128),w
  1366     111C  00D3               	movwf	vfpfcnvrt@ap^(0+128)
  1367     111D  160A  118A  24D2  160A  118A  	fcall	_vfpfcnvrt
  1368     1122                     l2933:
  1369                           
  1370                           ;C:\Program Files\Microchip\xc8\v2.50\pic\sources\c99\common\doprnt.c: 1826:     while (
      +                          *cfmt) {
  1371     1122  1283               	bcf	3,5	;RP0=0, select bank0
  1372     1123  1303               	bcf	3,6	;RP1=0, select bank0
  1373     1124  086F               	movf	vfprintf@cfmt,w
  1374     1125  0084               	movwf	4
  1375     1126  160A  118A  200A  160A  118A  	fcall	stringdir
  1376     112B  3A00               	xorlw	0
  1377     112C  1D03               	skipz
  1378     112D  292F               	goto	u4411
  1379     112E  2930               	goto	u4410
  1380     112F                     u4411:
  1381     112F  2913               	goto	l2931
  1382     1130                     u4410:
  1383     1130                     l2935:
  1384                           
  1385                           ;C:\Program Files\Microchip\xc8\v2.50\pic\sources\c99\common\doprnt.c: 1835:  return 0;
  1386     1130  1683               	bsf	3,5	;RP0=1, select bank1
  1387     1131  1303               	bcf	3,6	;RP1=0, select bank1
  1388     1132  01DC               	clrf	?_vfprintf^(0+128)
  1389     1133  01DD               	clrf	(?_vfprintf+1)^(0+128)
  1390     1134                     l735:
  1391     1134  0008               	return
  1392     1135                     __end_of_vfprintf:
  1393                           
  1394                           	psect	text3
  1395     14D2                     __ptext3:	
  1396 ;; *************** function _vfpfcnvrt *****************
  1397 ;; Defined at:
  1398 ;;		line 1177 in file "C:\Program Files\Microchip\xc8\v2.50\pic\sources\c99\common\doprnt.c"
  1399 ;; Parameters:    Size  Location     Type
  1400 ;;  fp              2   48[BANK1 ] PTR struct _IO_FILE
  1401 ;;		 -> sprintf@f(11), 
  1402 ;;  fmt             1   50[BANK1 ] PTR PTR unsigned char 
  1403 ;;		 -> vfprintf@cfmt(1), 
  1404 ;;  ap              1   51[BANK1 ] PTR PTR void 
  1405 ;;		 -> sprintf@ap(1), 
  1406 ;; Auto vars:     Size  Location     Type
  1407 ;;  convarg         4   54[BANK1 ] struct .
  1408 ;;  cp              1   59[BANK1 ] PTR unsigned char 
  1409 ;;		 -> STR_2(10), 
  1410 ;;  c               1   58[BANK1 ] unsigned char 
  1411 ;;  done            1    0        _Bool 
  1412 ;; Return value:  Size  Location     Type
  1413 ;;                  1    wreg      void 
  1414 ;; Registers used:
  1415 ;;		wreg, fsr0l, fsr0h, status,2, status,0, btemp+1, pclath, cstack
  1416 ;; Tracked objects:
  1417 ;;		On entry : 0/0
  1418 ;;		On exit  : 0/0
  1419 ;;		Unchanged: 0/0
  1420 ;; Data sizes:     COMMON   BANK0   BANK1   BANK3   BANK2
  1421 ;;      Params:         0       0       4       0       0
  1422 ;;      Locals:         0       0       6       0       0
  1423 ;;      Temps:          0       0       2       0       0
  1424 ;;      Totals:         0       0      12       0       0
  1425 ;;Total ram usage:       12 bytes
  1426 ;; Hardware stack levels used: 1
  1427 ;; Hardware stack levels required when called: 5
  1428 ;; This function calls:
  1429 ;;		_efgtoa
  1430 ;;		_fputc
  1431 ;;		_read_prec_or_width
  1432 ;; This function is called by:
  1433 ;;		_vfprintf
  1434 ;; This function uses a non-reentrant model
  1435 ;;
  1436                           
  1437     14D2                     _vfpfcnvrt:	
  1438                           ;psect for function _vfpfcnvrt
  1439                           
  1440     14D2                     l2857:	
  1441                           ;incstack = 0
  1442 ;; using string table level
  1443                           ; Regs used in _vfpfcnvrt: [wreg-fsr0h+status,2+status,0+btemp+1+pclath+cstack]
  1444                           
  1445                           
  1446                           ;C:\Program Files\Microchip\xc8\v2.50\pic\sources\c99\common\doprnt.c: 1177: vfpfcnvrt(F
      +                          ILE *fp, char *fmt[], va_list ap);C:\Program Files\Microchip\xc8\v2.50\pic\sources\c99\c
      +                          ommon\doprnt.c: 1178: {;C:\Program Files\Microchip\xc8\v2.50\pic\sources\c99\common\dopr
      +                          nt.c: 1179:     char c, *cp;;C:\Program Files\Microchip\xc8\v2.50\pic\sources\c99\common
      +                          \doprnt.c: 1180:     _Bool done;;C:\Program Files\Microchip\xc8\v2.50\pic\sources\c99\co
      +                          mmon\doprnt.c: 1188:  } convarg;;C:\Program Files\Microchip\xc8\v2.50\pic\sources\c99\co
      +                          mmon\doprnt.c: 1201:     if ((*fmt)[0] == '%') {
  1447     14D2  1683               	bsf	3,5	;RP0=1, select bank1
  1448     14D3  1303               	bcf	3,6	;RP1=0, select bank1
  1449     14D4  0852               	movf	vfpfcnvrt@fmt^(0+128),w
  1450     14D5  0084               	movwf	4
  1451     14D6  1383               	bcf	3,7	;select IRP bank0
  1452     14D7  0800               	movf	0,w
  1453     14D8  0084               	movwf	4
  1454     14D9  160A  118A  200A  160A  118A  	fcall	stringdir
  1455     14DE  3A25               	xorlw	37
  1456     14DF  1D03               	skipz
  1457     14E0  2CE2               	goto	u4381
  1458     14E1  2CE3               	goto	u4380
  1459     14E2                     u4381:
  1460     14E2  2DC4               	goto	l2907
  1461     14E3                     u4380:
  1462     14E3                     l2859:
  1463                           
  1464                           ;C:\Program Files\Microchip\xc8\v2.50\pic\sources\c99\common\doprnt.c: 1202:         ++*
      +                          fmt;
  1465     14E3  0852               	movf	vfpfcnvrt@fmt^(0+128),w
  1466     14E4  0084               	movwf	4
  1467     14E5  3001               	movlw	1
  1468     14E6  0780               	addwf	0,f
  1469     14E7                     l2861:
  1470                           
  1471                           ;C:\Program Files\Microchip\xc8\v2.50\pic\sources\c99\common\doprnt.c: 1204:         fla
      +                          gs = width = 0;
  1472     14E7  1683               	bsf	3,5	;RP0=1, select bank3
  1473     14E8  1703               	bsf	3,6	;RP1=1, select bank3
  1474     14E9  0198               	clrf	_width^(0+384)
  1475     14EA  0199               	clrf	(_width+1)^(0+384)
  1476     14EB  3000               	movlw	0
  1477     14EC  009C               	movwf	_flags^(0+384)
  1478     14ED                     l2863:
  1479                           
  1480                           ;C:\Program Files\Microchip\xc8\v2.50\pic\sources\c99\common\doprnt.c: 1205:         pre
      +                          c = -1;
  1481     14ED  30FF               	movlw	255
  1482     14EE  009A               	movwf	_prec^(0+384)
  1483     14EF  30FF               	movlw	255
  1484     14F0  009B               	movwf	(_prec^(0+384)+1)
  1485     14F1                     l2865:
  1486                           
  1487                           ;C:\Program Files\Microchip\xc8\v2.50\pic\sources\c99\common\doprnt.c: 1265:         if 
      +                          ((*fmt)[0] == '.') {
  1488     14F1  1683               	bsf	3,5	;RP0=1, select bank1
  1489     14F2  1303               	bcf	3,6	;RP1=0, select bank1
  1490     14F3  0852               	movf	vfpfcnvrt@fmt^(0+128),w
  1491     14F4  0084               	movwf	4
  1492     14F5  0800               	movf	0,w
  1493     14F6  0084               	movwf	4
  1494     14F7  160A  118A  200A  160A  118A  	fcall	stringdir
  1495     14FC  3A2E               	xorlw	46
  1496     14FD  1D03               	skipz
  1497     14FE  2D00               	goto	u4391
  1498     14FF  2D01               	goto	u4390
  1499     1500                     u4391:
  1500     1500  2D14               	goto	l2871
  1501     1501                     u4390:
  1502     1501                     l2867:
  1503                           
  1504                           ;C:\Program Files\Microchip\xc8\v2.50\pic\sources\c99\common\doprnt.c: 1266:            
      +                           ++*fmt;
  1505     1501  0852               	movf	vfpfcnvrt@fmt^(0+128),w
  1506     1502  0084               	movwf	4
  1507     1503  3001               	movlw	1
  1508     1504  0780               	addwf	0,f
  1509     1505                     l2869:
  1510                           
  1511                           ;C:\Program Files\Microchip\xc8\v2.50\pic\sources\c99\common\doprnt.c: 1267:    prec = r
      +                          ead_prec_or_width(fmt, ap);
  1512     1505  0852               	movf	vfpfcnvrt@fmt^(0+128),w
  1513     1506  00F6               	movwf	read_prec_or_width@fmt
  1514     1507  0853               	movf	vfpfcnvrt@ap^(0+128),w
  1515     1508  00F7               	movwf	read_prec_or_width@ap
  1516     1509  160A  118A  2217  160A  118A  	fcall	_read_prec_or_width
  1517     150E  0877               	movf	?_read_prec_or_width+1,w
  1518     150F  1683               	bsf	3,5	;RP0=1, select bank3
  1519     1510  1703               	bsf	3,6	;RP1=1, select bank3
  1520     1511  009B               	movwf	(_prec+1)^(0+384)
  1521     1512  0876               	movf	?_read_prec_or_width,w
  1522     1513  009A               	movwf	_prec^(0+384)
  1523     1514                     l2871:
  1524                           
  1525                           ;C:\Program Files\Microchip\xc8\v2.50\pic\sources\c99\common\doprnt.c: 1689:   cp = *fmt
      +                          ;
  1526     1514  1303               	bcf	3,6	;RP1=0, select bank1
  1527     1515  0852               	movf	vfpfcnvrt@fmt^(0+128),w
  1528     1516  0084               	movwf	4
  1529     1517  1383               	bcf	3,7	;select IRP bank0
  1530     1518  0800               	movf	0,w
  1531     1519  00DB               	movwf	vfpfcnvrt@cp^(0+128)
  1532     151A                     l2873:
  1533                           
  1534                           ;C:\Program Files\Microchip\xc8\v2.50\pic\sources\c99\common\doprnt.c: 1690:   c = *cp;
  1535     151A  085B               	movf	vfpfcnvrt@cp^(0+128),w
  1536     151B  0084               	movwf	4
  1537     151C  160A  118A  200A  160A  118A  	fcall	stringdir
  1538     1521  00DA               	movwf	vfpfcnvrt@c^(0+128)
  1539                           
  1540                           ;C:\Program Files\Microchip\xc8\v2.50\pic\sources\c99\common\doprnt.c: 1691:   switch(c)
      +                           {
  1541     1522  2D2B               	goto	l2881
  1542     1523                     l2875:
  1543                           
  1544                           ;C:\Program Files\Microchip\xc8\v2.50\pic\sources\c99\common\doprnt.c: 1695:     cp++;
  1545     1523  3001               	movlw	1
  1546     1524  07DB               	addwf	vfpfcnvrt@cp^(0+128),f
  1547                           
  1548                           ;C:\Program Files\Microchip\xc8\v2.50\pic\sources\c99\common\doprnt.c: 1696:     break;
  1549     1525  2D36               	goto	l2883
  1550     1526                     l717:	
  1551                           ;C:\Program Files\Microchip\xc8\v2.50\pic\sources\c99\common\doprnt.c: 1710:    case 'f'
      +                          :
  1552                           
  1553                           
  1554                           ;C:\Program Files\Microchip\xc8\v2.50\pic\sources\c99\common\doprnt.c: 1721:     c = 'l'
      +                          ;
  1555     1526  306C               	movlw	108
  1556     1527  00DA               	movwf	vfpfcnvrt@c^(0+128)
  1557                           
  1558                           ;C:\Program Files\Microchip\xc8\v2.50\pic\sources\c99\common\doprnt.c: 1722:     break;
  1559     1528  2D36               	goto	l2883
  1560     1529                     l2877:
  1561                           
  1562                           ;C:\Program Files\Microchip\xc8\v2.50\pic\sources\c99\common\doprnt.c: 1724:     c = 0;
  1563     1529  01DA               	clrf	vfpfcnvrt@c^(0+128)
  1564                           
  1565                           ;C:\Program Files\Microchip\xc8\v2.50\pic\sources\c99\common\doprnt.c: 1725:     break;
  1566     152A  2D36               	goto	l2883
  1567     152B                     l2881:
  1568     152B  085A               	movf	vfpfcnvrt@c^(0+128),w
  1569                           
  1570                           ; Switch size 1, requested type "simple"
  1571                           ; Number of cases is 3, Range of values is 76 to 108
  1572                           ; switch strategies available:
  1573                           ; Name         Instructions Cycles
  1574                           ; simple_byte           10     6 (average)
  1575                           ; direct_byte          110    11 (fixed)
  1576                           ; jumptable            263     9 (fixed)
  1577                           ;	Chosen strategy is simple_byte
  1578     152C  3A4C               	xorlw	76	; case 76
  1579     152D  1903               	skipnz
  1580     152E  2D23               	goto	l2875
  1581     152F  3A2A               	xorlw	42	; case 102
  1582     1530  1903               	skipnz
  1583     1531  2D26               	goto	l717
  1584     1532  3A0A               	xorlw	10	; case 108
  1585     1533  1903               	skipnz
  1586     1534  2D23               	goto	l2875
  1587     1535  2D29               	goto	l2877
  1588     1536                     l2883:
  1589     1536  085B               	movf	vfpfcnvrt@cp^(0+128),w
  1590     1537  0084               	movwf	4
  1591     1538  160A  118A  200A  160A  118A  	fcall	stringdir
  1592     153D  3A66               	xorlw	102
  1593     153E  1D03               	skipz
  1594     153F  2D41               	goto	u4401
  1595     1540  2D42               	goto	u4400
  1596     1541                     u4401:
  1597     1541  2DBC               	goto	l2903
  1598     1542                     u4400:
  1599     1542  2D6F               	goto	l2891
  1600     1543                     l2885:
  1601                           
  1602                           ;C:\Program Files\Microchip\xc8\v2.50\pic\sources\c99\common\doprnt.c: 1756:      convar
      +                          g.f = (long double)(*(double *)__va_arg(*(double **)ap, (double)0));
  1603     1543  0853               	movf	vfpfcnvrt@ap^(0+128),w
  1604     1544  0084               	movwf	4
  1605     1545  1783               	bsf	3,7	;select IRP bank2
  1606     1546  0800               	movf	0,w
  1607     1547  00FF               	movwf	btemp+1
  1608     1548  3004               	movlw	4
  1609     1549  0780               	addwf	0,f
  1610     154A  087F               	movf	btemp+1,w
  1611     154B  0084               	movwf	4
  1612     154C  1383               	bcf	3,7	;select IRP bank0
  1613     154D  0800               	movf	0,w
  1614     154E  00D6               	movwf	vfpfcnvrt@convarg^(0+128)
  1615     154F  0A84               	incf	4,f
  1616     1550  0800               	movf	0,w
  1617     1551  00D7               	movwf	(vfpfcnvrt@convarg+1)^(0+128)
  1618     1552  0A84               	incf	4,f
  1619     1553  0800               	movf	0,w
  1620     1554  00D8               	movwf	(vfpfcnvrt@convarg+2)^(0+128)
  1621     1555  0A84               	incf	4,f
  1622     1556  0800               	movf	0,w
  1623     1557  00D9               	movwf	(vfpfcnvrt@convarg+3)^(0+128)
  1624                           
  1625                           ;C:\Program Files\Microchip\xc8\v2.50\pic\sources\c99\common\doprnt.c: 1757:      break;
  1626     1558  2D77               	goto	l2893
  1627     1559                     l2887:
  1628                           
  1629                           ;C:\Program Files\Microchip\xc8\v2.50\pic\sources\c99\common\doprnt.c: 1759:      convar
      +                          g.f = (long double)(*(long double *)__va_arg(*(long double **)ap, (long double)0));
  1630     1559  0853               	movf	vfpfcnvrt@ap^(0+128),w
  1631     155A  0084               	movwf	4
  1632     155B  1783               	bsf	3,7	;select IRP bank2
  1633     155C  0800               	movf	0,w
  1634     155D  00FF               	movwf	btemp+1
  1635     155E  3004               	movlw	4
  1636     155F  0780               	addwf	0,f
  1637     1560  087F               	movf	btemp+1,w
  1638     1561  0084               	movwf	4
  1639     1562  1383               	bcf	3,7	;select IRP bank0
  1640     1563  0800               	movf	0,w
  1641     1564  00D6               	movwf	vfpfcnvrt@convarg^(0+128)
  1642     1565  0A84               	incf	4,f
  1643     1566  0800               	movf	0,w
  1644     1567  00D7               	movwf	(vfpfcnvrt@convarg+1)^(0+128)
  1645     1568  0A84               	incf	4,f
  1646     1569  0800               	movf	0,w
  1647     156A  00D8               	movwf	(vfpfcnvrt@convarg+2)^(0+128)
  1648     156B  0A84               	incf	4,f
  1649     156C  0800               	movf	0,w
  1650     156D  00D9               	movwf	(vfpfcnvrt@convarg+3)^(0+128)
  1651                           
  1652                           ;C:\Program Files\Microchip\xc8\v2.50\pic\sources\c99\common\doprnt.c: 1760:      break;
  1653     156E  2D77               	goto	l2893
  1654     156F                     l2891:
  1655     156F  085A               	movf	vfpfcnvrt@c^(0+128),w
  1656                           
  1657                           ; Switch size 1, requested type "simple"
  1658                           ; Number of cases is 2, Range of values is 76 to 108
  1659                           ; switch strategies available:
  1660                           ; Name         Instructions Cycles
  1661                           ; simple_byte            7     4 (average)
  1662                           ; direct_byte          110    11 (fixed)
  1663                           ; jumptable            263     9 (fixed)
  1664                           ;	Chosen strategy is simple_byte
  1665     1570  3A4C               	xorlw	76	; case 76
  1666     1571  1903               	skipnz
  1667     1572  2D59               	goto	l2887
  1668     1573  3A20               	xorlw	32	; case 108
  1669     1574  1903               	skipnz
  1670     1575  2D43               	goto	l2885
  1671     1576  2D77               	goto	l2893
  1672     1577                     l2893:
  1673                           
  1674                           ;C:\Program Files\Microchip\xc8\v2.50\pic\sources\c99\common\doprnt.c: 1762:    *fmt = c
      +                          p+1;
  1675     1577  0852               	movf	vfpfcnvrt@fmt^(0+128),w
  1676     1578  0084               	movwf	4
  1677     1579  085B               	movf	vfpfcnvrt@cp^(0+128),w
  1678     157A  3E01               	addlw	1
  1679     157B  0080               	movwf	0
  1680                           
  1681                           ;C:\Program Files\Microchip\xc8\v2.50\pic\sources\c99\common\doprnt.c: 1763:    switch (
      +                          *cp) {
  1682     157C  2DB1               	goto	l2901
  1683     157D                     l2895:
  1684                           
  1685                           ;C:\Program Files\Microchip\xc8\v2.50\pic\sources\c99\common\doprnt.c: 1790:      return
      +                           (void) efgtoa(fp, convarg.f, *cp);;	Return value of _vfpfcnvrt is never used
  1686     157D  0850               	movf	vfpfcnvrt@fp^(0+128),w
  1687     157E  1283               	bcf	3,5	;RP0=0, select bank0
  1688     157F  1303               	bcf	3,6	;RP1=0, select bank0
  1689     1580  00E8               	movwf	efgtoa@fp
  1690     1581  1683               	bsf	3,5	;RP0=1, select bank1
  1691     1582  1303               	bcf	3,6	;RP1=0, select bank1
  1692     1583  0851               	movf	(vfpfcnvrt@fp+1)^(0+128),w
  1693     1584  1283               	bcf	3,5	;RP0=0, select bank0
  1694     1585  1303               	bcf	3,6	;RP1=0, select bank0
  1695     1586  00E9               	movwf	efgtoa@fp+1
  1696     1587  1683               	bsf	3,5	;RP0=1, select bank1
  1697     1588  1303               	bcf	3,6	;RP1=0, select bank1
  1698     1589  0859               	movf	(vfpfcnvrt@convarg+3)^(0+128),w
  1699     158A  1283               	bcf	3,5	;RP0=0, select bank0
  1700     158B  1303               	bcf	3,6	;RP1=0, select bank0
  1701     158C  00ED               	movwf	efgtoa@f+3
  1702     158D  1683               	bsf	3,5	;RP0=1, select bank1
  1703     158E  1303               	bcf	3,6	;RP1=0, select bank1
  1704     158F  0858               	movf	(vfpfcnvrt@convarg+2)^(0+128),w
  1705     1590  1283               	bcf	3,5	;RP0=0, select bank0
  1706     1591  1303               	bcf	3,6	;RP1=0, select bank0
  1707     1592  00EC               	movwf	efgtoa@f+2
  1708     1593  1683               	bsf	3,5	;RP0=1, select bank1
  1709     1594  1303               	bcf	3,6	;RP1=0, select bank1
  1710     1595  0857               	movf	(vfpfcnvrt@convarg+1)^(0+128),w
  1711     1596  1283               	bcf	3,5	;RP0=0, select bank0
  1712     1597  1303               	bcf	3,6	;RP1=0, select bank0
  1713     1598  00EB               	movwf	efgtoa@f+1
  1714     1599  1683               	bsf	3,5	;RP0=1, select bank1
  1715     159A  1303               	bcf	3,6	;RP1=0, select bank1
  1716     159B  0856               	movf	vfpfcnvrt@convarg^(0+128),w
  1717     159C  1283               	bcf	3,5	;RP0=0, select bank0
  1718     159D  1303               	bcf	3,6	;RP1=0, select bank0
  1719     159E  00EA               	movwf	efgtoa@f
  1720     159F  1683               	bsf	3,5	;RP0=1, select bank1
  1721     15A0  1303               	bcf	3,6	;RP1=0, select bank1
  1722     15A1  085B               	movf	vfpfcnvrt@cp^(0+128),w
  1723     15A2  0084               	movwf	4
  1724     15A3  160A  118A  200A  160A  118A  	fcall	stringdir
  1725     15A8  1283               	bcf	3,5	;RP0=0, select bank0
  1726     15A9  1303               	bcf	3,6	;RP1=0, select bank0
  1727     15AA  00EE               	movwf	efgtoa@c
  1728     15AB  160A  118A  26ED  160A  118A  	fcall	_efgtoa
  1729     15B0  2DDD               	goto	l728
  1730     15B1                     l2901:
  1731     15B1  085B               	movf	vfpfcnvrt@cp^(0+128),w
  1732     15B2  0084               	movwf	4
  1733     15B3  160A  118A  200A  160A  118A  	fcall	stringdir
  1734                           
  1735                           ; Switch size 1, requested type "simple"
  1736                           ; Number of cases is 1, Range of values is 102 to 102
  1737                           ; switch strategies available:
  1738                           ; Name         Instructions Cycles
  1739                           ; simple_byte            4     3 (average)
  1740                           ; direct_byte           14    11 (fixed)
  1741                           ; jumptable            263     9 (fixed)
  1742                           ;	Chosen strategy is simple_byte
  1743     15B8  3A66               	xorlw	102	; case 102
  1744     15B9  1903               	skipnz
  1745     15BA  2D7D               	goto	l2895
  1746     15BB  2DBC               	goto	l2903
  1747     15BC                     l2903:
  1748                           
  1749                           ;C:\Program Files\Microchip\xc8\v2.50\pic\sources\c99\common\doprnt.c: 1806:         ++*
      +                          fmt;
  1750     15BC  1683               	bsf	3,5	;RP0=1, select bank1
  1751     15BD  1303               	bcf	3,6	;RP1=0, select bank1
  1752     15BE  0852               	movf	vfpfcnvrt@fmt^(0+128),w
  1753     15BF  0084               	movwf	4
  1754     15C0  3001               	movlw	1
  1755     15C1  1383               	bcf	3,7	;select IRP bank0
  1756     15C2  0780               	addwf	0,f
  1757     15C3  2DDD               	goto	l728
  1758     15C4                     l2907:
  1759                           
  1760                           ;C:\Program Files\Microchip\xc8\v2.50\pic\sources\c99\common\doprnt.c: 1811:     fputc((
      +                          int)(*fmt)[0], fp);
  1761     15C4  0852               	movf	vfpfcnvrt@fmt^(0+128),w
  1762     15C5  0084               	movwf	4
  1763     15C6  0800               	movf	0,w
  1764     15C7  0084               	movwf	4
  1765     15C8  160A  118A  200A  160A  118A  	fcall	stringdir
  1766     15CD  00D4               	movwf	??_vfpfcnvrt^(0+128)
  1767     15CE  01D5               	clrf	(??_vfpfcnvrt^(0+128)+1)
  1768     15CF  0854               	movf	??_vfpfcnvrt^(0+128),w
  1769     15D0  00F0               	movwf	fputc@c
  1770     15D1  0855               	movf	(??_vfpfcnvrt+1)^(0+128),w
  1771     15D2  00F1               	movwf	fputc@c+1
  1772     15D3  0850               	movf	vfpfcnvrt@fp^(0+128),w
  1773     15D4  00F2               	movwf	fputc@fp
  1774     15D5  0851               	movf	(vfpfcnvrt@fp+1)^(0+128),w
  1775     15D6  00F3               	movwf	fputc@fp+1
  1776     15D7  160A  118A  22E0  160A  118A  	fcall	_fputc
  1777     15DC  2DBC               	goto	l2903
  1778     15DD                     l728:
  1779     15DD  0008               	return
  1780     15DE                     __end_of_vfpfcnvrt:
  1781                           
  1782                           	psect	text4
  1783     1217                     __ptext4:	
  1784 ;; *************** function _read_prec_or_width *****************
  1785 ;; Defined at:
  1786 ;;		line 1158 in file "C:\Program Files\Microchip\xc8\v2.50\pic\sources\c99\common\doprnt.c"
  1787 ;; Parameters:    Size  Location     Type
  1788 ;;  fmt             1    6[COMMON] PTR PTR const unsigned c
  1789 ;;		 -> vfprintf@cfmt(1), 
  1790 ;;  ap              1    7[COMMON] PTR PTR void [1]
  1791 ;;		 -> sprintf@ap(1), 
  1792 ;; Auto vars:     Size  Location     Type
  1793 ;;  c               1    8[COMMON] unsigned char 
  1794 ;;  n               2    9[COMMON] int 
  1795 ;; Return value:  Size  Location     Type
  1796 ;;                  2    6[COMMON] int 
  1797 ;; Registers used:
  1798 ;;		wreg, fsr0l, fsr0h, status,2, status,0, btemp+1, pclath, cstack
  1799 ;; Tracked objects:
  1800 ;;		On entry : 0/0
  1801 ;;		On exit  : 0/0
  1802 ;;		Unchanged: 0/0
  1803 ;; Data sizes:     COMMON   BANK0   BANK1   BANK3   BANK2
  1804 ;;      Params:         2       0       0       0       0
  1805 ;;      Locals:         3       0       0       0       0
  1806 ;;      Temps:          0       0       0       0       0
  1807 ;;      Totals:         5       0       0       0       0
  1808 ;;Total ram usage:        5 bytes
  1809 ;; Hardware stack levels used: 1
  1810 ;; Hardware stack levels required when called: 1
  1811 ;; This function calls:
  1812 ;;		___wmul
  1813 ;; This function is called by:
  1814 ;;		_vfpfcnvrt
  1815 ;; This function uses a non-reentrant model
  1816 ;;
  1817                           
  1818     1217                     _read_prec_or_width:	
  1819                           ;psect for function _read_prec_or_width
  1820                           
  1821     1217                     l2839:	
  1822                           ;incstack = 0
  1823                           ; Regs used in _read_prec_or_width: [wreg-fsr0h+status,2+status,0+btemp+1+pclath+cstack]
  1824                           
  1825                           
  1826                           ;C:\Program Files\Microchip\xc8\v2.50\pic\sources\c99\common\doprnt.c: 1159:     int n =
      +                           0;
  1827     1217  01F9               	clrf	read_prec_or_width@n
  1828     1218  01FA               	clrf	read_prec_or_width@n+1
  1829     1219                     l2841:
  1830                           
  1831                           ;C:\Program Files\Microchip\xc8\v2.50\pic\sources\c99\common\doprnt.c: 1160:     if ((*f
      +                          mt)[0] == '*') {
  1832     1219  0876               	movf	read_prec_or_width@fmt,w
  1833     121A  0084               	movwf	4
  1834     121B  1383               	bcf	3,7	;select IRP bank0
  1835     121C  0800               	movf	0,w
  1836     121D  0084               	movwf	4
  1837     121E  160A  118A  200A  160A  118A  	fcall	stringdir
  1838     1223  3A2A               	xorlw	42
  1839     1224  1D03               	skipz
  1840     1225  2A27               	goto	u4361
  1841     1226  2A28               	goto	u4360
  1842     1227                     u4361:
  1843     1227  2A56               	goto	l2851
  1844     1228                     u4360:
  1845     1228                     l2843:
  1846                           
  1847                           ;C:\Program Files\Microchip\xc8\v2.50\pic\sources\c99\common\doprnt.c: 1161:         ++*
      +                          fmt;
  1848     1228  0876               	movf	read_prec_or_width@fmt,w
  1849     1229  0084               	movwf	4
  1850     122A  3001               	movlw	1
  1851     122B  0780               	addwf	0,f
  1852     122C                     l2845:
  1853                           
  1854                           ;C:\Program Files\Microchip\xc8\v2.50\pic\sources\c99\common\doprnt.c: 1162:         n =
      +                           (*(int *)__va_arg(*(int **)*ap, (int)0));
  1855     122C  0877               	movf	read_prec_or_width@ap,w
  1856     122D  0084               	movwf	4
  1857     122E  1783               	bsf	3,7	;select IRP bank2
  1858     122F  0800               	movf	0,w
  1859     1230  00FF               	movwf	btemp+1
  1860     1231  3002               	movlw	2
  1861     1232  0780               	addwf	0,f
  1862     1233  087F               	movf	btemp+1,w
  1863     1234  0084               	movwf	4
  1864     1235  1383               	bcf	3,7	;select IRP bank0
  1865     1236  0800               	movf	0,w
  1866     1237  00F9               	movwf	read_prec_or_width@n
  1867     1238  0A84               	incf	4,f
  1868     1239  0800               	movf	0,w
  1869     123A  00FA               	movwf	read_prec_or_width@n+1
  1870                           
  1871                           ;C:\Program Files\Microchip\xc8\v2.50\pic\sources\c99\common\doprnt.c: 1163:     } else 
      +                          {
  1872     123B  2A67               	goto	l2853
  1873     123C                     l2847:
  1874                           
  1875                           ;C:\Program Files\Microchip\xc8\v2.50\pic\sources\c99\common\doprnt.c: 1166:            
      +                           n = n * 10 + c;
  1876     123C  087A               	movf	read_prec_or_width@n+1,w
  1877     123D  00F1               	movwf	___wmul@multiplier+1
  1878     123E  0879               	movf	read_prec_or_width@n,w
  1879     123F  00F0               	movwf	___wmul@multiplier
  1880     1240  300A               	movlw	10
  1881     1241  00F2               	movwf	___wmul@multiplicand
  1882     1242  3000               	movlw	0
  1883     1243  00F3               	movwf	___wmul@multiplicand+1
  1884     1244  160A  118A  209A  160A  118A  	fcall	___wmul
  1885     1249  0878               	movf	read_prec_or_width@c,w
  1886     124A  0770               	addwf	?___wmul,w
  1887     124B  00F9               	movwf	read_prec_or_width@n
  1888     124C  3000               	movlw	0
  1889     124D  1803               	skipnc
  1890     124E  3001               	movlw	1
  1891     124F  0771               	addwf	?___wmul+1,w
  1892     1250  00FA               	movwf	read_prec_or_width@n+1
  1893     1251                     l2849:
  1894                           
  1895                           ;C:\Program Files\Microchip\xc8\v2.50\pic\sources\c99\common\doprnt.c: 1167:            
      +                           ++*fmt;
  1896     1251  0876               	movf	read_prec_or_width@fmt,w
  1897     1252  0084               	movwf	4
  1898     1253  3001               	movlw	1
  1899     1254  1383               	bcf	3,7	;select IRP bank0
  1900     1255  0780               	addwf	0,f
  1901     1256                     l2851:
  1902                           
  1903                           ;C:\Program Files\Microchip\xc8\v2.50\pic\sources\c99\common\doprnt.c: 1165:         whi
      +                          le ((c = ((unsigned)(*fmt)[0]) - '0') < 10) {
  1904     1256  0876               	movf	read_prec_or_width@fmt,w
  1905     1257  0084               	movwf	4
  1906     1258  0800               	movf	0,w
  1907     1259  0084               	movwf	4
  1908     125A  160A  118A  200A  160A  118A  	fcall	stringdir
  1909     125F  3ED0               	addlw	208
  1910     1260  00F8               	movwf	read_prec_or_width@c
  1911     1261  300A               	movlw	10
  1912     1262  0278               	subwf	read_prec_or_width@c,w
  1913     1263  1C03               	skipc
  1914     1264  2A66               	goto	u4371
  1915     1265  2A67               	goto	u4370
  1916     1266                     u4371:
  1917     1266  2A3C               	goto	l2847
  1918     1267                     u4370:
  1919     1267                     l2853:
  1920                           
  1921                           ;C:\Program Files\Microchip\xc8\v2.50\pic\sources\c99\common\doprnt.c: 1170:     return 
      +                          n;
  1922     1267  087A               	movf	read_prec_or_width@n+1,w
  1923     1268  00F7               	movwf	?_read_prec_or_width+1
  1924     1269  0879               	movf	read_prec_or_width@n,w
  1925     126A  00F6               	movwf	?_read_prec_or_width
  1926     126B                     l708:
  1927     126B  0008               	return
  1928     126C                     __end_of_read_prec_or_width:
  1929                           
  1930                           	psect	text5
  1931     109A                     __ptext5:	
  1932 ;; *************** function ___wmul *****************
  1933 ;; Defined at:
  1934 ;;		line 15 in file "C:\Program Files\Microchip\xc8\v2.50\pic\sources\c99\common\Umul16.c"
  1935 ;; Parameters:    Size  Location     Type
  1936 ;;  multiplier      2    0[COMMON] unsigned int 
  1937 ;;  multiplicand    2    2[COMMON] unsigned int 
  1938 ;; Auto vars:     Size  Location     Type
  1939 ;;  product         2    4[COMMON] unsigned int 
  1940 ;; Return value:  Size  Location     Type
  1941 ;;                  2    0[COMMON] unsigned int 
  1942 ;; Registers used:
  1943 ;;		wreg, status,2, status,0
  1944 ;; Tracked objects:
  1945 ;;		On entry : 0/0
  1946 ;;		On exit  : 0/0
  1947 ;;		Unchanged: 0/0
  1948 ;; Data sizes:     COMMON   BANK0   BANK1   BANK3   BANK2
  1949 ;;      Params:         4       0       0       0       0
  1950 ;;      Locals:         2       0       0       0       0
  1951 ;;      Temps:          0       0       0       0       0
  1952 ;;      Totals:         6       0       0       0       0
  1953 ;;Total ram usage:        6 bytes
  1954 ;; Hardware stack levels used: 1
  1955 ;; This function calls:
  1956 ;;		Nothing
  1957 ;; This function is called by:
  1958 ;;		_read_prec_or_width
  1959 ;; This function uses a non-reentrant model
  1960 ;;
  1961                           
  1962     109A                     ___wmul:	
  1963                           ;psect for function ___wmul
  1964                           
  1965     109A                     l2157:	
  1966                           ;incstack = 0
  1967                           ; Regs used in ___wmul: [wreg+status,2+status,0]
  1968                           
  1969     109A  01F4               	clrf	___wmul@product
  1970     109B  01F5               	clrf	___wmul@product+1
  1971     109C                     l2159:
  1972     109C  1C70               	btfss	___wmul@multiplier,0
  1973     109D  289F               	goto	u2851
  1974     109E  28A0               	goto	u2850
  1975     109F                     u2851:
  1976     109F  28A6               	goto	l154
  1977     10A0                     u2850:
  1978     10A0                     l2161:
  1979     10A0  0872               	movf	___wmul@multiplicand,w
  1980     10A1  07F4               	addwf	___wmul@product,f
  1981     10A2  1803               	skipnc
  1982     10A3  0AF5               	incf	___wmul@product+1,f
  1983     10A4  0873               	movf	___wmul@multiplicand+1,w
  1984     10A5  07F5               	addwf	___wmul@product+1,f
  1985     10A6                     l154:
  1986     10A6  3001               	movlw	1
  1987     10A7                     u2865:
  1988     10A7  1003               	clrc
  1989     10A8  0DF2               	rlf	___wmul@multiplicand,f
  1990     10A9  0DF3               	rlf	___wmul@multiplicand+1,f
  1991     10AA  3EFF               	addlw	-1
  1992     10AB  1D03               	skipz
  1993     10AC  28A7               	goto	u2865
  1994     10AD                     l2163:
  1995     10AD  3001               	movlw	1
  1996     10AE                     u2875:
  1997     10AE  1003               	clrc
  1998     10AF  0CF1               	rrf	___wmul@multiplier+1,f
  1999     10B0  0CF0               	rrf	___wmul@multiplier,f
  2000     10B1  3EFF               	addlw	-1
  2001     10B2  1D03               	skipz
  2002     10B3  28AE               	goto	u2875
  2003     10B4                     l2165:
  2004     10B4  0870               	movf	___wmul@multiplier,w
  2005     10B5  0471               	iorwf	___wmul@multiplier+1,w
  2006     10B6  1D03               	btfss	3,2
  2007     10B7  28B9               	goto	u2881
  2008     10B8  28BA               	goto	u2880
  2009     10B9                     u2881:
  2010     10B9  289C               	goto	l2159
  2011     10BA                     u2880:
  2012     10BA                     l2167:
  2013     10BA  0875               	movf	___wmul@product+1,w
  2014     10BB  00F1               	movwf	?___wmul+1
  2015     10BC  0874               	movf	___wmul@product,w
  2016     10BD  00F0               	movwf	?___wmul
  2017     10BE                     l156:
  2018     10BE  0008               	return
  2019     10BF                     __end_of___wmul:
  2020                           
  2021                           	psect	text6
  2022     16ED                     __ptext6:	
  2023 ;; *************** function _efgtoa *****************
  2024 ;; Defined at:
  2025 ;;		line 587 in file "C:\Program Files\Microchip\xc8\v2.50\pic\sources\c99\common\doprnt.c"
  2026 ;; Parameters:    Size  Location     Type
  2027 ;;  fp              2   72[BANK0 ] PTR struct _IO_FILE
  2028 ;;		 -> sprintf@f(11), 
  2029 ;;  f               4   74[BANK0 ] PTR struct _IO_FILE
  2030 ;;  c               1   78[BANK0 ] unsigned char 
  2031 ;; Auto vars:     Size  Location     Type
  2032 ;;  u               4   44[BANK1 ] struct flui
  2033 ;;  g               4   40[BANK1 ] struct flui
  2034 ;;  l               4   33[BANK1 ] struct flui
  2035 ;;  h               4   29[BANK1 ] struct flui
  2036 ;;  ou              4   23[BANK1 ] struct flui
  2037 ;;  n               2   38[BANK1 ] int 
  2038 ;;  i               2   27[BANK1 ] int 
  2039 ;;  w               2   21[BANK1 ] int 
  2040 ;;  e               2   19[BANK1 ] int 
  2041 ;;  m               2   17[BANK1 ] int 
  2042 ;;  d               2   15[BANK1 ] int 
  2043 ;;  t               2    8[BANK1 ] int 
  2044 ;;  p               2    6[BANK1 ] int 
  2045 ;;  ne              2    4[BANK1 ] int 
  2046 ;;  sign            1   37[BANK1 ] unsigned char 
  2047 ;;  nmode           1   14[BANK1 ] unsigned char 
  2048 ;;  mode            1   13[BANK1 ] unsigned char 
  2049 ;;  pp              1   12[BANK1 ] unsigned char 
  2050 ;;  esign           1    0        unsigned char 
  2051 ;; Return value:  Size  Location     Type
  2052 ;;                  1    wreg      void 
  2053 ;; Registers used:
  2054 ;;		wreg, fsr0l, fsr0h, status,2, status,0, btemp+1, pclath, cstack
  2055 ;; Tracked objects:
  2056 ;;		On entry : 0/0
  2057 ;;		On exit  : 0/0
  2058 ;;		Unchanged: 0/0
  2059 ;; Data sizes:     COMMON   BANK0   BANK1   BANK3   BANK2
  2060 ;;      Params:         0       7       0       0       0
  2061 ;;      Locals:         0       0      44       0       0
  2062 ;;      Temps:          0       0       4       0       0
  2063 ;;      Totals:         0       7      48       0       0
  2064 ;;Total ram usage:       55 bytes
  2065 ;; Hardware stack levels used: 1
  2066 ;; Hardware stack levels required when called: 4
  2067 ;; This function calls:
  2068 ;;		___fladd
  2069 ;;		___fldiv
  2070 ;;		___fleq
  2071 ;;		___flge
  2072 ;;		___flmul
  2073 ;;		___flneg
  2074 ;;		___flsub
  2075 ;;		___fltol
  2076 ;;		___fpclassifyf
  2077 ;;		_floorf
  2078 ;;		_labs
  2079 ;;		_memcpy
  2080 ;;		_pad
  2081 ;;		_strcpy
  2082 ;; This function is called by:
  2083 ;;		_vfpfcnvrt
  2084 ;; This function uses a non-reentrant model
  2085 ;;
  2086                           
  2087     16ED                     _efgtoa:	
  2088                           ;psect for function _efgtoa
  2089                           
  2090     16ED                     l2625:	
  2091                           ;incstack = 0
  2092                           ; Regs used in _efgtoa: [wreg-fsr0h+status,2+status,0+btemp+1+pclath+cstack]
  2093                           
  2094                           
  2095                           ;C:\Program Files\Microchip\xc8\v2.50\pic\sources\c99\common\doprnt.c: 587: static void 
      +                          efgtoa(FILE *fp, long double f, char c);C:\Program Files\Microchip\xc8\v2.50\pic\sources
      +                          \c99\common\doprnt.c: 588: {;C:\Program Files\Microchip\xc8\v2.50\pic\sources\c99\common
      +                          \doprnt.c: 589:     char mode, nmode, pp, sign, esign;;C:\Program Files\Microchip\xc8\v2
      +                          .50\pic\sources\c99\common\doprnt.c: 590:     int d, e, i, m, n, ne, p, t, w;;C:\Program
      +                           Files\Microchip\xc8\v2.50\pic\sources\c99\common\doprnt.c: 591:     long double h, l;
  2096     16ED  1683               	bsf	3,5	;RP0=1, select bank1
  2097     16EE  1303               	bcf	3,6	;RP1=0, select bank1
  2098     16EF  01C5               	clrf	efgtoa@sign^(0+128)
  2099     16F0                     l2627:
  2100                           
  2101                           ;C:\Program Files\Microchip\xc8\v2.50\pic\sources\c99\common\doprnt.c: 596:     g.f = f;
  2102     16F0  1283               	bcf	3,5	;RP0=0, select bank0
  2103     16F1  1303               	bcf	3,6	;RP1=0, select bank0
  2104     16F2  086D               	movf	efgtoa@f+3,w
  2105     16F3  1683               	bsf	3,5	;RP0=1, select bank1
  2106     16F4  1303               	bcf	3,6	;RP1=0, select bank1
  2107     16F5  00CB               	movwf	(efgtoa@g+3)^(0+128)
  2108     16F6  1283               	bcf	3,5	;RP0=0, select bank0
  2109     16F7  1303               	bcf	3,6	;RP1=0, select bank0
  2110     16F8  086C               	movf	efgtoa@f+2,w
  2111     16F9  1683               	bsf	3,5	;RP0=1, select bank1
  2112     16FA  1303               	bcf	3,6	;RP1=0, select bank1
  2113     16FB  00CA               	movwf	(efgtoa@g+2)^(0+128)
  2114     16FC  1283               	bcf	3,5	;RP0=0, select bank0
  2115     16FD  1303               	bcf	3,6	;RP1=0, select bank0
  2116     16FE  086B               	movf	efgtoa@f+1,w
  2117     16FF  1683               	bsf	3,5	;RP0=1, select bank1
  2118     1700  1303               	bcf	3,6	;RP1=0, select bank1
  2119     1701  00C9               	movwf	(efgtoa@g+1)^(0+128)
  2120     1702  1283               	bcf	3,5	;RP0=0, select bank0
  2121     1703  1303               	bcf	3,6	;RP1=0, select bank0
  2122     1704  086A               	movf	efgtoa@f,w
  2123     1705  1683               	bsf	3,5	;RP0=1, select bank1
  2124     1706  1303               	bcf	3,6	;RP1=0, select bank1
  2125     1707  00C8               	movwf	efgtoa@g^(0+128)
  2126     1708                     l2629:
  2127                           
  2128                           ;C:\Program Files\Microchip\xc8\v2.50\pic\sources\c99\common\doprnt.c: 597:     if (g.f 
      +                          < 0.0) {
  2129     1708  084B               	movf	(efgtoa@g+3)^(0+128),w
  2130     1709  1283               	bcf	3,5	;RP0=0, select bank0
  2131     170A  1303               	bcf	3,6	;RP1=0, select bank0
  2132     170B  00BD               	movwf	___flge@ff1+3
  2133     170C  1683               	bsf	3,5	;RP0=1, select bank1
  2134     170D  1303               	bcf	3,6	;RP1=0, select bank1
  2135     170E  084A               	movf	(efgtoa@g+2)^(0+128),w
  2136     170F  1283               	bcf	3,5	;RP0=0, select bank0
  2137     1710  1303               	bcf	3,6	;RP1=0, select bank0
  2138     1711  00BC               	movwf	___flge@ff1+2
  2139     1712  1683               	bsf	3,5	;RP0=1, select bank1
  2140     1713  1303               	bcf	3,6	;RP1=0, select bank1
  2141     1714  0849               	movf	(efgtoa@g+1)^(0+128),w
  2142     1715  1283               	bcf	3,5	;RP0=0, select bank0
  2143     1716  1303               	bcf	3,6	;RP1=0, select bank0
  2144     1717  00BB               	movwf	___flge@ff1+1
  2145     1718  1683               	bsf	3,5	;RP0=1, select bank1
  2146     1719  1303               	bcf	3,6	;RP1=0, select bank1
  2147     171A  0848               	movf	efgtoa@g^(0+128),w
  2148     171B  1283               	bcf	3,5	;RP0=0, select bank0
  2149     171C  1303               	bcf	3,6	;RP1=0, select bank0
  2150     171D  00BA               	movwf	___flge@ff1
  2151     171E  3000               	movlw	0
  2152     171F  00C1               	movwf	___flge@ff2+3
  2153     1720  3000               	movlw	0
  2154     1721  00C0               	movwf	___flge@ff2+2
  2155     1722  3000               	movlw	0
  2156     1723  00BF               	movwf	___flge@ff2+1
  2157     1724  3000               	movlw	0
  2158     1725  00BE               	movwf	___flge@ff2
  2159     1726  160A  118A  237A  160A  118A  	fcall	___flge
  2160     172B  1803               	btfsc	3,0
  2161     172C  2F2E               	goto	u4011
  2162     172D  2F2F               	goto	u4010
  2163     172E                     u4011:
  2164     172E  2F4A               	goto	l2635
  2165     172F                     u4010:
  2166     172F                     l2631:
  2167                           
  2168                           ;C:\Program Files\Microchip\xc8\v2.50\pic\sources\c99\common\doprnt.c: 598:         sign
      +                           = 1;
  2169     172F  3001               	movlw	1
  2170     1730  1683               	bsf	3,5	;RP0=1, select bank1
  2171     1731  1303               	bcf	3,6	;RP1=0, select bank1
  2172     1732  00C5               	movwf	efgtoa@sign^(0+128)
  2173     1733                     l2633:
  2174                           
  2175                           ;C:\Program Files\Microchip\xc8\v2.50\pic\sources\c99\common\doprnt.c: 599:         g.f 
      +                          = -g.f;
  2176     1733  084B               	movf	(efgtoa@g+3)^(0+128),w
  2177     1734  00F3               	movwf	___flneg@f1+3
  2178     1735  084A               	movf	(efgtoa@g+2)^(0+128),w
  2179     1736  00F2               	movwf	___flneg@f1+2
  2180     1737  0849               	movf	(efgtoa@g+1)^(0+128),w
  2181     1738  00F1               	movwf	___flneg@f1+1
  2182     1739  0848               	movf	efgtoa@g^(0+128),w
  2183     173A  00F0               	movwf	___flneg@f1
  2184     173B  120A  118A  2007  160A  118A  	fcall	___flneg
  2185     1740  0873               	movf	?___flneg+3,w
  2186     1741  1683               	bsf	3,5	;RP0=1, select bank1
  2187     1742  1303               	bcf	3,6	;RP1=0, select bank1
  2188     1743  00CB               	movwf	(efgtoa@g+3)^(0+128)
  2189     1744  0872               	movf	?___flneg+2,w
  2190     1745  00CA               	movwf	(efgtoa@g+2)^(0+128)
  2191     1746  0871               	movf	?___flneg+1,w
  2192     1747  00C9               	movwf	(efgtoa@g+1)^(0+128)
  2193     1748  0870               	movf	?___flneg,w
  2194     1749  00C8               	movwf	efgtoa@g^(0+128)
  2195     174A                     l2635:
  2196                           
  2197                           ;C:\Program Files\Microchip\xc8\v2.50\pic\sources\c99\common\doprnt.c: 603:     n = 0;
  2198     174A  1683               	bsf	3,5	;RP0=1, select bank1
  2199     174B  1303               	bcf	3,6	;RP1=0, select bank1
  2200     174C  01C6               	clrf	efgtoa@n^(0+128)
  2201     174D  01C7               	clrf	(efgtoa@n+1)^(0+128)
  2202     174E                     l2637:
  2203                           
  2204                           ;C:\Program Files\Microchip\xc8\v2.50\pic\sources\c99\common\doprnt.c: 604:     w = widt
      +                          h;
  2205     174E  1683               	bsf	3,5	;RP0=1, select bank3
  2206     174F  1703               	bsf	3,6	;RP1=1, select bank3
  2207     1750  0819               	movf	(_width+1)^(0+384),w
  2208     1751  1683               	bsf	3,5	;RP0=1, select bank1
  2209     1752  1303               	bcf	3,6	;RP1=0, select bank1
  2210     1753  00B6               	movwf	(efgtoa@w+1)^(0+128)
  2211     1754  1683               	bsf	3,5	;RP0=1, select bank3
  2212     1755  1703               	bsf	3,6	;RP1=1, select bank3
  2213     1756  0818               	movf	_width^(0+384),w
  2214     1757  1683               	bsf	3,5	;RP0=1, select bank1
  2215     1758  1303               	bcf	3,6	;RP1=0, select bank1
  2216     1759  00B5               	movwf	efgtoa@w^(0+128)
  2217     175A                     l2639:
  2218                           
  2219                           ;C:\Program Files\Microchip\xc8\v2.50\pic\sources\c99\common\doprnt.c: 605:     if (sign
  2220     175A  0845               	movf	efgtoa@sign^(0+128),w
  2221     175B  1903               	btfsc	3,2
  2222     175C  2F5E               	goto	u4021
  2223     175D  2F5F               	goto	u4020
  2224     175E                     u4021:
  2225     175E  2F6F               	goto	l2647
  2226     175F                     u4020:
  2227     175F                     l2641:
  2228                           
  2229                           ;C:\Program Files\Microchip\xc8\v2.50\pic\sources\c99\common\doprnt.c: 609:    ) {;C:\Pr
      +                          ogram Files\Microchip\xc8\v2.50\pic\sources\c99\common\doprnt.c: 610:   sign = sign ? '-
      +                          ' : '+';
  2230     175F  0845               	movf	efgtoa@sign^(0+128),w
  2231     1760  1D03               	btfss	3,2
  2232     1761  2F63               	goto	u4031
  2233     1762  2F64               	goto	u4030
  2234     1763                     u4031:
  2235     1763  2F69               	goto	l2645
  2236     1764                     u4030:
  2237     1764                     l2643:
  2238     1764  302B               	movlw	43
  2239     1765  00AA               	movwf	_efgtoa$717^(0+128)
  2240     1766  3000               	movlw	0
  2241     1767  00AB               	movwf	(_efgtoa$717^(0+128)+1)
  2242     1768  2F6D               	goto	l656
  2243     1769                     l2645:
  2244     1769  302D               	movlw	45
  2245     176A  00AA               	movwf	_efgtoa$717^(0+128)
  2246     176B  3000               	movlw	0
  2247     176C  00AB               	movwf	(_efgtoa$717^(0+128)+1)
  2248     176D                     l656:
  2249     176D  082A               	movf	_efgtoa$717^(0+128),w
  2250     176E  00C5               	movwf	efgtoa@sign^(0+128)
  2251     176F                     l2647:
  2252                           
  2253                           ;C:\Program Files\Microchip\xc8\v2.50\pic\sources\c99\common\doprnt.c: 619:     if (( __
      +                          fpclassifyf(g.f) == 1 )) {
  2254     176F  084B               	movf	(efgtoa@g+3)^(0+128),w
  2255     1770  00F3               	movwf	___fpclassifyf@x+3
  2256     1771  084A               	movf	(efgtoa@g+2)^(0+128),w
  2257     1772  00F2               	movwf	___fpclassifyf@x+2
  2258     1773  0849               	movf	(efgtoa@g+1)^(0+128),w
  2259     1774  00F1               	movwf	___fpclassifyf@x+1
  2260     1775  0848               	movf	efgtoa@g^(0+128),w
  2261     1776  00F0               	movwf	___fpclassifyf@x
  2262     1777  120A  158A  200B  160A  118A  	fcall	___fpclassifyf
  2263     177C  0370               	decf	?___fpclassifyf,w
  2264     177D  0471               	iorwf	?___fpclassifyf+1,w
  2265     177E  1D03               	btfss	3,2
  2266     177F  2F81               	goto	u4041
  2267     1780  2F82               	goto	u4040
  2268     1781                     u4041:
  2269     1781  2FC7               	goto	l2661
  2270     1782                     u4040:
  2271     1782                     l2649:
  2272                           
  2273                           ;C:\Program Files\Microchip\xc8\v2.50\pic\sources\c99\common\doprnt.c: 620:   if (sign) 
      +                          {
  2274     1782  1683               	bsf	3,5	;RP0=1, select bank1
  2275     1783  1303               	bcf	3,6	;RP1=0, select bank1
  2276     1784  0845               	movf	efgtoa@sign^(0+128),w
  2277     1785  1903               	btfsc	3,2
  2278     1786  2F88               	goto	u4051
  2279     1787  2F89               	goto	u4050
  2280     1788                     u4051:
  2281     1788  2F99               	goto	l2653
  2282     1789                     u4050:
  2283     1789                     l2651:
  2284                           
  2285                           ;C:\Program Files\Microchip\xc8\v2.50\pic\sources\c99\common\doprnt.c: 621:    dbuf[0] =
      +                           sign;
  2286     1789  0845               	movf	efgtoa@sign^(0+128),w
  2287     178A  1283               	bcf	3,5	;RP0=0, select bank2
  2288     178B  1703               	bsf	3,6	;RP1=1, select bank2
  2289     178C  0090               	movwf	_dbuf^(0+256)
  2290                           
  2291                           ;C:\Program Files\Microchip\xc8\v2.50\pic\sources\c99\common\doprnt.c: 622:    w--;
  2292     178D  30FF               	movlw	255
  2293     178E  1683               	bsf	3,5	;RP0=1, select bank1
  2294     178F  1303               	bcf	3,6	;RP1=0, select bank1
  2295     1790  07B5               	addwf	efgtoa@w^(0+128),f
  2296     1791  1803               	skipnc
  2297     1792  0AB6               	incf	(efgtoa@w+1)^(0+128),f
  2298     1793  30FF               	movlw	255
  2299     1794  07B6               	addwf	(efgtoa@w+1)^(0+128),f
  2300                           
  2301                           ;C:\Program Files\Microchip\xc8\v2.50\pic\sources\c99\common\doprnt.c: 623:    n = 1;
  2302     1795  3001               	movlw	1
  2303     1796  00C6               	movwf	efgtoa@n^(0+128)
  2304     1797  3000               	movlw	0
  2305     1798  00C7               	movwf	(efgtoa@n^(0+128)+1)
  2306     1799                     l2653:
  2307                           
  2308                           ;C:\Program Files\Microchip\xc8\v2.50\pic\sources\c99\common\doprnt.c: 631:   {;C:\Progr
      +                          am Files\Microchip\xc8\v2.50\pic\sources\c99\common\doprnt.c: 632:             strcpy(&d
      +                          buf[n], "inf");
  2309     1799  0846               	movf	efgtoa@n^(0+128),w
  2310     179A  3E10               	addlw	(low (_dbuf| (0+256)))& (0+255)
  2311     179B  00F0               	movwf	strcpy@dest
  2312     179C  3013               	movlw	(low ((STR_3-__stringbase)| (0+32768)))& (0+255)
  2313     179D  00F1               	movwf	strcpy@src
  2314     179E  160A  158A  27C6  160A  118A  	fcall	_strcpy
  2315     17A3                     l2655:
  2316                           
  2317                           ;C:\Program Files\Microchip\xc8\v2.50\pic\sources\c99\common\doprnt.c: 633:         };C:
      +                          \Program Files\Microchip\xc8\v2.50\pic\sources\c99\common\doprnt.c: 634:         w -= ((
      +                          sizeof("inf")/sizeof("inf"[0]))-1);
  2318     17A3  30FD               	movlw	253
  2319     17A4  1683               	bsf	3,5	;RP0=1, select bank1
  2320     17A5  1303               	bcf	3,6	;RP1=0, select bank1
  2321     17A6  07B5               	addwf	efgtoa@w^(0+128),f
  2322     17A7  1803               	skipnc
  2323     17A8  0AB6               	incf	(efgtoa@w+1)^(0+128),f
  2324     17A9  30FF               	movlw	255
  2325     17AA  07B6               	addwf	(efgtoa@w+1)^(0+128),f
  2326     17AB                     l2657:
  2327                           
  2328                           ;C:\Program Files\Microchip\xc8\v2.50\pic\sources\c99\common\doprnt.c: 635:         retu
      +                          rn (void) pad(fp, &dbuf[0], w);
  2329     17AB  1283               	bcf	3,5	;RP0=0, select bank0
  2330     17AC  1303               	bcf	3,6	;RP1=0, select bank0
  2331     17AD  0868               	movf	efgtoa@fp,w
  2332     17AE  00A8               	movwf	pad@fp
  2333     17AF  0869               	movf	efgtoa@fp+1,w
  2334     17B0  00A9               	movwf	pad@fp+1
  2335     17B1  3010               	movlw	(low (_dbuf| (0+256)))& (0+255)
  2336     17B2  00AA               	movwf	pad@buf
  2337     17B3  1683               	bsf	3,5	;RP0=1, select bank1
  2338     17B4  1303               	bcf	3,6	;RP1=0, select bank1
  2339     17B5  0836               	movf	(efgtoa@w+1)^(0+128),w
  2340     17B6  1283               	bcf	3,5	;RP0=0, select bank0
  2341     17B7  1303               	bcf	3,6	;RP1=0, select bank0
  2342     17B8  00AC               	movwf	pad@p+1
  2343     17B9  1683               	bsf	3,5	;RP0=1, select bank1
  2344     17BA  1303               	bcf	3,6	;RP1=0, select bank1
  2345     17BB  0835               	movf	efgtoa@w^(0+128),w
  2346     17BC  1283               	bcf	3,5	;RP0=0, select bank0
  2347     17BD  1303               	bcf	3,6	;RP1=0, select bank0
  2348     17BE  00AB               	movwf	pad@p
  2349     17BF  160A  118A  218B  160A  118A  	fcall	_pad
  2350     17C4  120A  118A  2FEA   	goto	l659
  2351     17C7                     l2661:
  2352                           
  2353                           ;C:\Program Files\Microchip\xc8\v2.50\pic\sources\c99\common\doprnt.c: 637:     if (( __
      +                          fpclassifyf(g.f) == 0 )) {
  2354     17C7  1683               	bsf	3,5	;RP0=1, select bank1
  2355     17C8  1303               	bcf	3,6	;RP1=0, select bank1
  2356     17C9  084B               	movf	(efgtoa@g+3)^(0+128),w
  2357     17CA  00F3               	movwf	___fpclassifyf@x+3
  2358     17CB  084A               	movf	(efgtoa@g+2)^(0+128),w
  2359     17CC  00F2               	movwf	___fpclassifyf@x+2
  2360     17CD  0849               	movf	(efgtoa@g+1)^(0+128),w
  2361     17CE  00F1               	movwf	___fpclassifyf@x+1
  2362     17CF  0848               	movf	efgtoa@g^(0+128),w
  2363     17D0  00F0               	movwf	___fpclassifyf@x
  2364     17D1  120A  158A  200B  160A  118A  	fcall	___fpclassifyf
  2365     17D6  0870               	movf	?___fpclassifyf,w
  2366     17D7  0471               	iorwf	?___fpclassifyf+1,w
  2367     17D8  1D03               	btfss	3,2
  2368     17D9  2FDB               	goto	u4061
  2369     17DA  2FDE               	goto	u4060
  2370     17DB                     u4061:
  2371     17DB  120A  118A  28C8   	goto	l2675
  2372     17DE                     u4060:
  2373     17DE                     l2663:
  2374                           
  2375                           ;C:\Program Files\Microchip\xc8\v2.50\pic\sources\c99\common\doprnt.c: 638:   if (sign) 
      +                          {
  2376     17DE  1683               	bsf	3,5	;RP0=1, select bank1
  2377     17DF  1303               	bcf	3,6	;RP1=0, select bank1
  2378     17E0  0845               	movf	efgtoa@sign^(0+128),w
  2379     17E1  1903               	btfsc	3,2
  2380     17E2  2FE4               	goto	u4071
  2381     17E3  2FE5               	goto	u4070
  2382     17E4                     u4071:
  2383     17E4  2FF5               	goto	l2667
  2384     17E5                     u4070:
  2385     17E5                     l2665:
  2386                           
  2387                           ;C:\Program Files\Microchip\xc8\v2.50\pic\sources\c99\common\doprnt.c: 639:    dbuf[0] =
      +                           sign;
  2388     17E5  0845               	movf	efgtoa@sign^(0+128),w
  2389     17E6  1283               	bcf	3,5	;RP0=0, select bank2
  2390     17E7  1703               	bsf	3,6	;RP1=1, select bank2
  2391     17E8  0090               	movwf	_dbuf^(0+256)
  2392                           
  2393                           ;C:\Program Files\Microchip\xc8\v2.50\pic\sources\c99\common\doprnt.c: 640:    w--;
  2394     17E9  30FF               	movlw	255
  2395     17EA  1683               	bsf	3,5	;RP0=1, select bank1
  2396     17EB  1303               	bcf	3,6	;RP1=0, select bank1
  2397     17EC  07B5               	addwf	efgtoa@w^(0+128),f
  2398     17ED  1803               	skipnc
  2399     17EE  0AB6               	incf	(efgtoa@w+1)^(0+128),f
  2400     17EF  30FF               	movlw	255
  2401     17F0  07B6               	addwf	(efgtoa@w+1)^(0+128),f
  2402                           
  2403                           ;C:\Program Files\Microchip\xc8\v2.50\pic\sources\c99\common\doprnt.c: 641:    n = 1;
  2404     17F1  3001               	movlw	1
  2405     17F2  00C6               	movwf	efgtoa@n^(0+128)
  2406     17F3  3000               	movlw	0
  2407     17F4  00C7               	movwf	(efgtoa@n^(0+128)+1)
  2408     17F5                     l2667:
  2409                           
  2410                           ;C:\Program Files\Microchip\xc8\v2.50\pic\sources\c99\common\doprnt.c: 649:   {;C:\Progr
      +                          am Files\Microchip\xc8\v2.50\pic\sources\c99\common\doprnt.c: 650:             strcpy(&d
      +                          buf[n], "nan");
  2411     17F5  0846               	movf	efgtoa@n^(0+128),w
  2412     17F6  3E10               	addlw	(low (_dbuf| (0+256)))& (0+255)
  2413     17F7  00F0               	movwf	strcpy@dest
  2414     17F8  3017               	movlw	(low ((STR_6-__stringbase)| (0+32768)))& (0+255)
  2415     17F9  00F1               	movwf	strcpy@src
  2416     17FA  160A  158A  27C6  160A  118A  	fcall	_strcpy
  2417     17FF  2FA3               	goto	l2655
  2418                           
  2419                           	psect	text7
  2420     1FC6                     __ptext7:	
  2421 ;; *************** function _strcpy *****************
  2422 ;; Defined at:
  2423 ;;		line 3 in file "C:\Program Files\Microchip\xc8\v2.50\pic\sources\c99\common\strcpy.c"
  2424 ;; Parameters:    Size  Location     Type
  2425 ;;  dest            1    0[COMMON] PTR unsigned char 
  2426 ;;		 -> dbuf(80), 
  2427 ;;  src             1    1[COMMON] PTR const unsigned char 
  2428 ;;		 -> STR_6(4), STR_3(4), 
  2429 ;; Auto vars:     Size  Location     Type
  2430 ;;  d               1    2[COMMON] PTR unsigned char 
  2431 ;;		 -> dbuf(80), 
  2432 ;; Return value:  Size  Location     Type
  2433 ;;                  1    0[COMMON] PTR unsigned char 
  2434 ;; Registers used:
  2435 ;;		wreg, fsr0l, fsr0h, status,2, status,0, btemp+1, pclath
  2436 ;; Tracked objects:
  2437 ;;		On entry : 0/0
  2438 ;;		On exit  : 0/0
  2439 ;;		Unchanged: 0/0
  2440 ;; Data sizes:     COMMON   BANK0   BANK1   BANK3   BANK2
  2441 ;;      Params:         2       0       0       0       0
  2442 ;;      Locals:         1       0       0       0       0
  2443 ;;      Temps:          0       0       0       0       0
  2444 ;;      Totals:         3       0       0       0       0
  2445 ;;Total ram usage:        3 bytes
  2446 ;; Hardware stack levels used: 2
  2447 ;; This function calls:
  2448 ;;		Nothing
  2449 ;; This function is called by:
  2450 ;;		_efgtoa
  2451 ;; This function uses a non-reentrant model
  2452 ;;
  2453                           
  2454     1FC6                     _strcpy:	
  2455                           ;psect for function _strcpy
  2456                           
  2457     1FC6                     l2575:	
  2458                           ;incstack = 0
  2459                           ; Regs used in _strcpy: [wreg-fsr0h+status,2+status,0+btemp+1+pclath]
  2460                           
  2461     1FC6  0870               	movf	strcpy@dest,w
  2462     1FC7  00F2               	movwf	strcpy@d
  2463     1FC8                     l2577:
  2464     1FC8  3001               	movlw	1
  2465     1FC9  07F1               	addwf	strcpy@src,f
  2466     1FCA  30FF               	movlw	-1
  2467     1FCB  0771               	addwf	strcpy@src,w
  2468     1FCC  0084               	movwf	4
  2469     1FCD  160A  118A  200A  160A  158A  	fcall	stringdir
  2470     1FD2  00FF               	movwf	btemp+1
  2471     1FD3  0872               	movf	strcpy@d,w
  2472     1FD4  0AF2               	incf	strcpy@d,f
  2473     1FD5  0084               	movwf	4
  2474     1FD6  087F               	movf	btemp+1,w
  2475     1FD7  1783               	bsf	3,7	;select IRP bank2
  2476     1FD8  0080               	movwf	0
  2477     1FD9  0800               	movf	0,w
  2478     1FDA  1D03               	btfss	3,2
  2479     1FDB  2FDD               	goto	u3861
  2480     1FDC  2FDE               	goto	u3860
  2481     1FDD                     u3861:
  2482     1FDD  2FC8               	goto	l2577
  2483     1FDE                     u3860:
  2484     1FDE                     l801:
  2485     1FDE  0008               	return
  2486     1FDF                     __end_of_strcpy:
  2487                           
  2488                           	psect	text8
  2489     118B                     __ptext8:	
  2490 ;; *************** function _pad *****************
  2491 ;; Defined at:
  2492 ;;		line 193 in file "C:\Program Files\Microchip\xc8\v2.50\pic\sources\c99\common\doprnt.c"
  2493 ;; Parameters:    Size  Location     Type
  2494 ;;  fp              2    8[BANK0 ] PTR struct _IO_FILE
  2495 ;;		 -> sprintf@f(11), 
  2496 ;;  buf             1   10[BANK0 ] PTR unsigned char 
  2497 ;;		 -> dbuf(80), 
  2498 ;;  p               2   11[BANK0 ] int 
  2499 ;; Auto vars:     Size  Location     Type
  2500 ;;  i               2   13[BANK0 ] int 
  2501 ;; Return value:  Size  Location     Type
  2502 ;;                  1    wreg      void 
  2503 ;; Registers used:
  2504 ;;		wreg, fsr0l, fsr0h, status,2, status,0, pclath, cstack
  2505 ;; Tracked objects:
  2506 ;;		On entry : 0/0
  2507 ;;		On exit  : 0/0
  2508 ;;		Unchanged: 0/0
  2509 ;; Data sizes:     COMMON   BANK0   BANK1   BANK3   BANK2
  2510 ;;      Params:         0       5       0       0       0
  2511 ;;      Locals:         0       2       0       0       0
  2512 ;;      Temps:          1       0       0       0       0
  2513 ;;      Totals:         1       7       0       0       0
  2514 ;;Total ram usage:        8 bytes
  2515 ;; Hardware stack levels used: 1
  2516 ;; Hardware stack levels required when called: 3
  2517 ;; This function calls:
  2518 ;;		_fputc
  2519 ;;		_fputs
  2520 ;; This function is called by:
  2521 ;;		_efgtoa
  2522 ;; This function uses a non-reentrant model
  2523 ;;
  2524                           
  2525     118B                     _pad:	
  2526                           ;psect for function _pad
  2527                           
  2528     118B                     l2539:	
  2529                           ;incstack = 0
  2530                           ; Regs used in _pad: [wreg-fsr0h+status,2+status,0+pclath+cstack]
  2531                           
  2532                           
  2533                           ;C:\Program Files\Microchip\xc8\v2.50\pic\sources\c99\common\doprnt.c: 193: static void 
      +                          pad(FILE *fp, char *buf, int p);C:\Program Files\Microchip\xc8\v2.50\pic\sources\c99\com
      +                          mon\doprnt.c: 194: {;C:\Program Files\Microchip\xc8\v2.50\pic\sources\c99\common\doprnt.
      +                          c: 195:     int i;;C:\Program Files\Microchip\xc8\v2.50\pic\sources\c99\common\doprnt.c:
      +                           205:  if (p < 0) {
  2534     118B  1283               	bcf	3,5	;RP0=0, select bank0
  2535     118C  1303               	bcf	3,6	;RP1=0, select bank0
  2536     118D  1FAC               	btfss	pad@p+1,7
  2537     118E  2990               	goto	u3761
  2538     118F  2991               	goto	u3760
  2539     1190                     u3761:
  2540     1190  2993               	goto	l644
  2541     1191                     u3760:
  2542     1191                     l2541:
  2543                           
  2544                           ;C:\Program Files\Microchip\xc8\v2.50\pic\sources\c99\common\doprnt.c: 206:   p = 0;
  2545     1191  01AB               	clrf	pad@p
  2546     1192  01AC               	clrf	pad@p+1
  2547     1193                     l644:	
  2548                           ;C:\Program Files\Microchip\xc8\v2.50\pic\sources\c99\common\doprnt.c: 207:  }
  2549                           
  2550                           
  2551                           ;C:\Program Files\Microchip\xc8\v2.50\pic\sources\c99\common\doprnt.c: 208:     i = 0;
  2552     1193  01AD               	clrf	pad@i
  2553     1194  01AE               	clrf	pad@i+1
  2554                           
  2555                           ;C:\Program Files\Microchip\xc8\v2.50\pic\sources\c99\common\doprnt.c: 209:     while (i
      +                           < p) {
  2556     1195  29AD               	goto	l2547
  2557     1196                     l2543:
  2558                           
  2559                           ;C:\Program Files\Microchip\xc8\v2.50\pic\sources\c99\common\doprnt.c: 210:         fput
      +                          c(' ', fp);
  2560     1196  3020               	movlw	32
  2561     1197  00F0               	movwf	fputc@c
  2562     1198  3000               	movlw	0
  2563     1199  00F1               	movwf	fputc@c+1
  2564     119A  1283               	bcf	3,5	;RP0=0, select bank0
  2565     119B  1303               	bcf	3,6	;RP1=0, select bank0
  2566     119C  0828               	movf	pad@fp,w
  2567     119D  00F2               	movwf	fputc@fp
  2568     119E  0829               	movf	pad@fp+1,w
  2569     119F  00F3               	movwf	fputc@fp+1
  2570     11A0  160A  118A  22E0  160A  118A  	fcall	_fputc
  2571     11A5                     l2545:
  2572                           
  2573                           ;C:\Program Files\Microchip\xc8\v2.50\pic\sources\c99\common\doprnt.c: 211:         ++i;
  2574     11A5  3001               	movlw	1
  2575     11A6  1283               	bcf	3,5	;RP0=0, select bank0
  2576     11A7  1303               	bcf	3,6	;RP1=0, select bank0
  2577     11A8  07AD               	addwf	pad@i,f
  2578     11A9  1803               	skipnc
  2579     11AA  0AAE               	incf	pad@i+1,f
  2580     11AB  3000               	movlw	0
  2581     11AC  07AE               	addwf	pad@i+1,f
  2582     11AD                     l2547:
  2583                           
  2584                           ;C:\Program Files\Microchip\xc8\v2.50\pic\sources\c99\common\doprnt.c: 209:     while (i
      +                           < p) {
  2585     11AD  082E               	movf	pad@i+1,w
  2586     11AE  3A80               	xorlw	128
  2587     11AF  00FD               	movwf	??_pad
  2588     11B0  082C               	movf	pad@p+1,w
  2589     11B1  3A80               	xorlw	128
  2590     11B2  027D               	subwf	??_pad,w
  2591     11B3  1D03               	skipz
  2592     11B4  29B7               	goto	u3775
  2593     11B5  082B               	movf	pad@p,w
  2594     11B6  022D               	subwf	pad@i,w
  2595     11B7                     u3775:
  2596     11B7  1C03               	skipc
  2597     11B8  29BA               	goto	u3771
  2598     11B9  29BB               	goto	u3770
  2599     11BA                     u3771:
  2600     11BA  2996               	goto	l2543
  2601     11BB                     u3770:
  2602     11BB                     l2549:
  2603                           
  2604                           ;C:\Program Files\Microchip\xc8\v2.50\pic\sources\c99\common\doprnt.c: 218:         fput
      +                          s((const char *)buf, fp);
  2605     11BB  1283               	bcf	3,5	;RP0=0, select bank0
  2606     11BC  1303               	bcf	3,6	;RP1=0, select bank0
  2607     11BD  082A               	movf	pad@buf,w
  2608     11BE  00A0               	movwf	fputs@s
  2609     11BF  0828               	movf	pad@fp,w
  2610     11C0  00A1               	movwf	fputs@fp
  2611     11C1  0829               	movf	pad@fp+1,w
  2612     11C2  00A2               	movwf	fputs@fp+1
  2613     11C3  160A  118A  2135  160A  118A  	fcall	_fputs
  2614     11C8                     l648:
  2615     11C8  0008               	return
  2616     11C9                     __end_of_pad:
  2617                           
  2618                           	psect	text9
  2619     1135                     __ptext9:	
  2620 ;; *************** function _fputs *****************
  2621 ;; Defined at:
  2622 ;;		line 8 in file "C:\Program Files\Microchip\xc8\v2.50\pic\sources\c99\common\nf_fputs.c"
  2623 ;; Parameters:    Size  Location     Type
  2624 ;;  s               1    0[BANK0 ] PTR const unsigned char 
  2625 ;;		 -> dbuf(80), 
  2626 ;;  fp              2    1[BANK0 ] PTR struct _IO_FILE
  2627 ;;		 -> sprintf@f(11), 
  2628 ;; Auto vars:     Size  Location     Type
  2629 ;;  i               2    6[BANK0 ] int 
  2630 ;;  c               1    5[BANK0 ] unsigned char 
  2631 ;; Return value:  Size  Location     Type
  2632 ;;                  2    0[BANK0 ] int 
  2633 ;; Registers used:
  2634 ;;		wreg, fsr0l, fsr0h, status,2, status,0, pclath, cstack
  2635 ;; Tracked objects:
  2636 ;;		On entry : 0/0
  2637 ;;		On exit  : 0/0
  2638 ;;		Unchanged: 0/0
  2639 ;; Data sizes:     COMMON   BANK0   BANK1   BANK3   BANK2
  2640 ;;      Params:         0       3       0       0       0
  2641 ;;      Locals:         0       3       0       0       0
  2642 ;;      Temps:          0       2       0       0       0
  2643 ;;      Totals:         0       8       0       0       0
  2644 ;;Total ram usage:        8 bytes
  2645 ;; Hardware stack levels used: 1
  2646 ;; Hardware stack levels required when called: 2
  2647 ;; This function calls:
  2648 ;;		_fputc
  2649 ;; This function is called by:
  2650 ;;		_pad
  2651 ;; This function uses a non-reentrant model
  2652 ;;
  2653                           
  2654     1135                     _fputs:	
  2655                           ;psect for function _fputs
  2656                           
  2657     1135                     l2149:	
  2658                           ;incstack = 0
  2659                           ; Regs used in _fputs: [wreg-fsr0h+status,2+status,0+pclath+cstack]
  2660                           
  2661     1135  1283               	bcf	3,5	;RP0=0, select bank0
  2662     1136  1303               	bcf	3,6	;RP1=0, select bank0
  2663     1137  01A6               	clrf	fputs@i
  2664     1138  01A7               	clrf	fputs@i+1
  2665     1139  2952               	goto	l2155
  2666     113A                     l2151:
  2667     113A  0825               	movf	fputs@c,w
  2668     113B  00A3               	movwf	??_fputs
  2669     113C  01A4               	clrf	??_fputs+1
  2670     113D  0823               	movf	??_fputs,w
  2671     113E  00F0               	movwf	fputc@c
  2672     113F  0824               	movf	??_fputs+1,w
  2673     1140  00F1               	movwf	fputc@c+1
  2674     1141  0821               	movf	fputs@fp,w
  2675     1142  00F2               	movwf	fputc@fp
  2676     1143  0822               	movf	fputs@fp+1,w
  2677     1144  00F3               	movwf	fputc@fp+1
  2678     1145  160A  118A  22E0  160A  118A  	fcall	_fputc
  2679     114A                     l2153:
  2680     114A  3001               	movlw	1
  2681     114B  1283               	bcf	3,5	;RP0=0, select bank0
  2682     114C  1303               	bcf	3,6	;RP1=0, select bank0
  2683     114D  07A6               	addwf	fputs@i,f
  2684     114E  1803               	skipnc
  2685     114F  0AA7               	incf	fputs@i+1,f
  2686     1150  3000               	movlw	0
  2687     1151  07A7               	addwf	fputs@i+1,f
  2688     1152                     l2155:
  2689     1152  0826               	movf	fputs@i,w
  2690     1153  0720               	addwf	fputs@s,w
  2691     1154  00A3               	movwf	??_fputs
  2692     1155  0823               	movf	??_fputs,w
  2693     1156  0084               	movwf	4
  2694     1157  1783               	bsf	3,7	;select IRP bank2
  2695     1158  0800               	movf	0,w
  2696     1159  00A5               	movwf	fputs@c
  2697     115A  0825               	movf	fputs@c,w
  2698     115B  1D03               	btfss	3,2
  2699     115C  295E               	goto	u2841
  2700     115D  295F               	goto	u2840
  2701     115E                     u2841:
  2702     115E  293A               	goto	l2151
  2703     115F                     u2840:
  2704     115F                     l792:
  2705     115F  0008               	return
  2706     1160                     __end_of_fputs:
  2707                           
  2708                           	psect	text10
  2709     12E0                     __ptext10:	
  2710 ;; *************** function _fputc *****************
  2711 ;; Defined at:
  2712 ;;		line 8 in file "C:\Program Files\Microchip\xc8\v2.50\pic\sources\c99\common\nf_fputc.c"
  2713 ;; Parameters:    Size  Location     Type
  2714 ;;  c               2    0[COMMON] int 
  2715 ;;  fp              2    2[COMMON] PTR struct _IO_FILE
  2716 ;;		 -> sprintf@f(11), 
  2717 ;; Auto vars:     Size  Location     Type
  2718 ;;		None
  2719 ;; Return value:  Size  Location     Type
  2720 ;;                  2    0[COMMON] int 
  2721 ;; Registers used:
  2722 ;;		wreg, fsr0l, fsr0h, status,2, status,0, pclath, cstack
  2723 ;; Tracked objects:
  2724 ;;		On entry : 0/0
  2725 ;;		On exit  : 0/0
  2726 ;;		Unchanged: 0/0
  2727 ;; Data sizes:     COMMON   BANK0   BANK1   BANK3   BANK2
  2728 ;;      Params:         4       0       0       0       0
  2729 ;;      Locals:         0       0       0       0       0
  2730 ;;      Temps:          9       0       0       0       0
  2731 ;;      Totals:        13       0       0       0       0
  2732 ;;Total ram usage:       13 bytes
  2733 ;; Hardware stack levels used: 1
  2734 ;; Hardware stack levels required when called: 1
  2735 ;; This function calls:
  2736 ;;		_putch
  2737 ;; This function is called by:
  2738 ;;		_pad
  2739 ;;		_vfpfcnvrt
  2740 ;;		_fputs
  2741 ;; This function uses a non-reentrant model
  2742 ;;
  2743                           
  2744     12E0                     _fputc:	
  2745                           ;psect for function _fputc
  2746                           
  2747     12E0                     l1923:	
  2748                           ;incstack = 0
  2749                           ; Regs used in _fputc: [wreg-fsr0h+status,2+status,0+pclath+cstack]
  2750                           
  2751     12E0  0872               	movf	fputc@fp,w
  2752     12E1  0473               	iorwf	fputc@fp+1,w
  2753     12E2  1903               	btfsc	3,2
  2754     12E3  2AE5               	goto	u2301
  2755     12E4  2AE6               	goto	u2300
  2756     12E5                     u2301:
  2757     12E5  2AEC               	goto	l1927
  2758     12E6                     u2300:
  2759     12E6                     l1925:
  2760     12E6  0872               	movf	fputc@fp,w
  2761     12E7  0473               	iorwf	fputc@fp+1,w
  2762     12E8  1D03               	btfss	3,2
  2763     12E9  2AEB               	goto	u2311
  2764     12EA  2AEC               	goto	u2310
  2765     12EB                     u2311:
  2766     12EB  2AF3               	goto	l1929
  2767     12EC                     u2310:
  2768     12EC                     l1927:
  2769     12EC  0870               	movf	fputc@c,w
  2770     12ED  120A  118A  2006  160A  118A  	fcall	_putch
  2771     12F2  2B79               	goto	l784
  2772     12F3                     l1929:
  2773     12F3  0872               	movf	fputc@fp,w
  2774     12F4  3E09               	addlw	9
  2775     12F5  00F4               	movwf	??_fputc
  2776     12F6  0873               	movf	fputc@fp+1,w
  2777     12F7  1803               	skipnc
  2778     12F8  3E01               	addlw	1
  2779     12F9  3E00               	addlw	0
  2780     12FA  00F5               	movwf	??_fputc+1
  2781     12FB  0874               	movf	??_fputc,w
  2782     12FC  0084               	movwf	4
  2783     12FD  1783               	bsf	3,7
  2784     12FE  1C75               	btfss	??_fputc+1,0
  2785     12FF  1383               	bcf	3,7
  2786     1300  0800               	movf	0,w
  2787     1301  00F6               	movwf	??_fputc+2
  2788     1302  0A84               	incf	4,f
  2789     1303  0800               	movf	0,w
  2790     1304  00F7               	movwf	??_fputc+3
  2791     1305  0876               	movf	??_fputc+2,w
  2792     1306  0477               	iorwf	??_fputc+3,w
  2793     1307  1903               	btfsc	3,2
  2794     1308  2B0A               	goto	u2321
  2795     1309  2B0B               	goto	u2320
  2796     130A                     u2321:
  2797     130A  2B3D               	goto	l1933
  2798     130B                     u2320:
  2799     130B                     l1931:
  2800     130B  0872               	movf	fputc@fp,w
  2801     130C  3E09               	addlw	9
  2802     130D  00F4               	movwf	??_fputc
  2803     130E  0873               	movf	fputc@fp+1,w
  2804     130F  1803               	skipnc
  2805     1310  3E01               	addlw	1
  2806     1311  3E00               	addlw	0
  2807     1312  00F5               	movwf	??_fputc+1
  2808     1313  0874               	movf	??_fputc,w
  2809     1314  0084               	movwf	4
  2810     1315  1783               	bsf	3,7
  2811     1316  1C75               	btfss	??_fputc+1,0
  2812     1317  1383               	bcf	3,7
  2813     1318  0800               	movf	0,w
  2814     1319  00F6               	movwf	??_fputc+2
  2815     131A  0A84               	incf	4,f
  2816     131B  0800               	movf	0,w
  2817     131C  00F7               	movwf	??_fputc+3
  2818     131D  0872               	movf	fputc@fp,w
  2819     131E  3E02               	addlw	2
  2820     131F  00F8               	movwf	??_fputc+4
  2821     1320  0873               	movf	fputc@fp+1,w
  2822     1321  1803               	skipnc
  2823     1322  3E01               	addlw	1
  2824     1323  3E00               	addlw	0
  2825     1324  00F9               	movwf	??_fputc+5
  2826     1325  0878               	movf	??_fputc+4,w
  2827     1326  0084               	movwf	4
  2828     1327  1783               	bsf	3,7
  2829     1328  1C79               	btfss	??_fputc+5,0
  2830     1329  1383               	bcf	3,7
  2831     132A  0800               	movf	0,w
  2832     132B  00FA               	movwf	??_fputc+6
  2833     132C  0A84               	incf	4,f
  2834     132D  0800               	movf	0,w
  2835     132E  00FB               	movwf	??_fputc+7
  2836     132F  087B               	movf	??_fputc+7,w
  2837     1330  3A80               	xorlw	128
  2838     1331  00FC               	movwf	??_fputc+8
  2839     1332  0877               	movf	??_fputc+3,w
  2840     1333  3A80               	xorlw	128
  2841     1334  027C               	subwf	??_fputc+8,w
  2842     1335  1D03               	skipz
  2843     1336  2B39               	goto	u2335
  2844     1337  0876               	movf	??_fputc+2,w
  2845     1338  027A               	subwf	??_fputc+6,w
  2846     1339                     u2335:
  2847     1339  1803               	skipnc
  2848     133A  2B3C               	goto	u2331
  2849     133B  2B3D               	goto	u2330
  2850     133C                     u2331:
  2851     133C  2B79               	goto	l784
  2852     133D                     u2330:
  2853     133D                     l1933:
  2854     133D  0872               	movf	fputc@fp,w
  2855     133E  0084               	movwf	4
  2856     133F  1783               	bsf	3,7
  2857     1340  1C73               	btfss	fputc@fp+1,0
  2858     1341  1383               	bcf	3,7
  2859     1342  0800               	movf	0,w
  2860     1343  00F4               	movwf	??_fputc
  2861     1344  0A84               	incf	4,f
  2862     1345  0800               	movf	0,w
  2863     1346  00F5               	movwf	??_fputc+1
  2864     1347  0872               	movf	fputc@fp,w
  2865     1348  3E02               	addlw	2
  2866     1349  00F6               	movwf	??_fputc+2
  2867     134A  0873               	movf	fputc@fp+1,w
  2868     134B  1803               	skipnc
  2869     134C  3E01               	addlw	1
  2870     134D  3E00               	addlw	0
  2871     134E  00F7               	movwf	??_fputc+3
  2872     134F  0876               	movf	??_fputc+2,w
  2873     1350  0084               	movwf	4
  2874     1351  1783               	bsf	3,7
  2875     1352  1C77               	btfss	??_fputc+3,0
  2876     1353  1383               	bcf	3,7
  2877     1354  0800               	movf	0,w
  2878     1355  0774               	addwf	??_fputc,w
  2879     1356  00F9               	movwf	??_fputc+5
  2880     1357  0875               	movf	??_fputc+1,w
  2881     1358  00F8               	movwf	??_fputc+4
  2882     1359  1803               	skipnc
  2883     135A  0AF8               	incf	??_fputc+4,f
  2884     135B  1F80               	btfss	0,7
  2885     135C  2B5E               	goto	u2340
  2886     135D  03F8               	decf	??_fputc+4,f
  2887     135E                     u2340:
  2888     135E  0878               	movf	??_fputc+4,w
  2889     135F  00FA               	movwf	??_fputc+6
  2890     1360  0879               	movf	??_fputc+5,w
  2891     1361  0084               	movwf	4
  2892     1362  1783               	bsf	3,7
  2893     1363  1C7A               	btfss	??_fputc+6,0
  2894     1364  1383               	bcf	3,7
  2895     1365  0870               	movf	fputc@c,w
  2896     1366  0080               	movwf	0
  2897     1367  0872               	movf	fputc@fp,w
  2898     1368  3E02               	addlw	2
  2899     1369  00F4               	movwf	??_fputc
  2900     136A  0873               	movf	fputc@fp+1,w
  2901     136B  1803               	skipnc
  2902     136C  3E01               	addlw	1
  2903     136D  3E00               	addlw	0
  2904     136E  00F5               	movwf	??_fputc+1
  2905     136F  0874               	movf	??_fputc,w
  2906     1370  0084               	movwf	4
  2907     1371  1783               	bsf	3,7
  2908     1372  1C75               	btfss	??_fputc+1,0
  2909     1373  1383               	bcf	3,7
  2910     1374  3001               	movlw	1
  2911     1375  0780               	addwf	0,f
  2912     1376  0A84               	incf	4,f
  2913     1377  1803               	skipnc
  2914     1378  0A80               	incf	0,f
  2915     1379                     l784:
  2916     1379  0008               	return
  2917     137A                     __end_of_fputc:
  2918                           
  2919                           	psect	text11
  2920     0006                     __ptext11:	
  2921 ;; *************** function _putch *****************
  2922 ;; Defined at:
  2923 ;;		line 7 in file "C:\Program Files\Microchip\xc8\v2.50\pic\sources\c99\common\putch.c"
  2924 ;; Parameters:    Size  Location     Type
  2925 ;;  c               1    wreg     unsigned char 
  2926 ;; Auto vars:     Size  Location     Type
  2927 ;;  c               1    0[COMMON] unsigned char 
  2928 ;; Return value:  Size  Location     Type
  2929 ;;                  1    wreg      void 
  2930 ;; Registers used:
  2931 ;;		wreg
  2932 ;; Tracked objects:
  2933 ;;		On entry : 0/0
  2934 ;;		On exit  : 0/0
  2935 ;;		Unchanged: 0/0
  2936 ;; Data sizes:     COMMON   BANK0   BANK1   BANK3   BANK2
  2937 ;;      Params:         0       0       0       0       0
  2938 ;;      Locals:         0       0       0       0       0
  2939 ;;      Temps:          0       0       0       0       0
  2940 ;;      Totals:         0       0       0       0       0
  2941 ;;Total ram usage:        0 bytes
  2942 ;; Hardware stack levels used: 1
  2943 ;; This function calls:
  2944 ;;		Nothing
  2945 ;; This function is called by:
  2946 ;;		_fputc
  2947 ;; This function uses a non-reentrant model
  2948 ;;
  2949                           
  2950     0006                     _putch:	
  2951                           ;psect for function _putch
  2952                           
  2953     0006                     l795:	
  2954                           ;incstack = 0
  2955                           ; Regs used in _putch: [wreg]
  2956                           
  2957     0006  0008               	return
  2958     0007                     __end_of_putch:
  2959                           
  2960                           	psect	text12
  2961     1FDF                     __ptext12:	
  2962 ;; *************** function _memcpy *****************
  2963 ;; Defined at:
  2964 ;;		line 4 in file "C:\Program Files\Microchip\xc8\v2.50\pic\sources\c99\common\memcpy.c"
  2965 ;; Parameters:    Size  Location     Type
  2966 ;;  d1              1    0[COMMON] PTR void 
  2967 ;;		 -> dbuf(80), 
  2968 ;;  s1              1    1[COMMON] PTR const void 
  2969 ;;		 -> dbuf(80), 
  2970 ;;  n               2    2[COMMON] unsigned int 
  2971 ;; Auto vars:     Size  Location     Type
  2972 ;;  s               1    6[COMMON] PTR const unsigned char 
  2973 ;;		 -> dbuf(80), 
  2974 ;;  d               1    5[COMMON] PTR unsigned char 
  2975 ;;		 -> dbuf(80), 
  2976 ;;  tmp             1    4[COMMON] unsigned char 
  2977 ;; Return value:  Size  Location     Type
  2978 ;;                  1    0[COMMON] PTR void 
  2979 ;; Registers used:
  2980 ;;		wreg, fsr0l, fsr0h, status,2, status,0
  2981 ;; Tracked objects:
  2982 ;;		On entry : 0/0
  2983 ;;		On exit  : 0/0
  2984 ;;		Unchanged: 0/0
  2985 ;; Data sizes:     COMMON   BANK0   BANK1   BANK3   BANK2
  2986 ;;      Params:         4       0       0       0       0
  2987 ;;      Locals:         3       0       0       0       0
  2988 ;;      Temps:          0       0       0       0       0
  2989 ;;      Totals:         7       0       0       0       0
  2990 ;;Total ram usage:        7 bytes
  2991 ;; Hardware stack levels used: 1
  2992 ;; This function calls:
  2993 ;;		Nothing
  2994 ;; This function is called by:
  2995 ;;		_efgtoa
  2996 ;; This function uses a non-reentrant model
  2997 ;;
  2998                           
  2999     1FDF                     _memcpy:	
  3000                           ;psect for function _memcpy
  3001                           
  3002     1FDF                     l2617:	
  3003                           ;incstack = 0
  3004                           ; Regs used in _memcpy: [wreg-fsr0h+status,2+status,0]
  3005                           
  3006     1FDF  0871               	movf	memcpy@s1,w
  3007     1FE0  00F6               	movwf	memcpy@s
  3008     1FE1  0870               	movf	memcpy@d1,w
  3009     1FE2  00F5               	movwf	memcpy@d
  3010     1FE3  2FF1               	goto	l769
  3011     1FE4                     l2619:
  3012     1FE4  0876               	movf	memcpy@s,w
  3013     1FE5  0084               	movwf	4
  3014     1FE6  1783               	bsf	3,7	;select IRP bank2
  3015     1FE7  0800               	movf	0,w
  3016     1FE8  00F4               	movwf	memcpy@tmp
  3017     1FE9                     l2621:
  3018     1FE9  3001               	movlw	1
  3019     1FEA  07F6               	addwf	memcpy@s,f
  3020     1FEB                     l2623:
  3021     1FEB  0875               	movf	memcpy@d,w
  3022     1FEC  0084               	movwf	4
  3023     1FED  0874               	movf	memcpy@tmp,w
  3024     1FEE  0080               	movwf	0
  3025     1FEF  3001               	movlw	1
  3026     1FF0  07F5               	addwf	memcpy@d,f
  3027     1FF1                     l769:
  3028     1FF1  3001               	movlw	1
  3029     1FF2  02F2               	subwf	memcpy@n,f
  3030     1FF3  3000               	movlw	0
  3031     1FF4  1C03               	skipc
  3032     1FF5  03F3               	decf	memcpy@n+1,f
  3033     1FF6  02F3               	subwf	memcpy@n+1,f
  3034     1FF7  0A72               	incf	memcpy@n,w
  3035     1FF8  1D03               	skipz
  3036     1FF9  2FFE               	goto	u4001
  3037     1FFA  0A73               	incf	memcpy@n+1,w
  3038     1FFB  1D03               	btfss	3,2
  3039     1FFC  2FFE               	goto	u4001
  3040     1FFD  2FFF               	goto	u4000
  3041     1FFE                     u4001:
  3042     1FFE  2FE4               	goto	l2619
  3043     1FFF                     u4000:
  3044     1FFF                     l772:
  3045     1FFF  0008               	return
  3046     2000                     __end_of_memcpy:
  3047                           
  3048                           	psect	text13
  3049     1FB1                     __ptext13:	
  3050 ;; *************** function _labs *****************
  3051 ;; Defined at:
  3052 ;;		line 1 in file "C:\Program Files\Microchip\xc8\v2.50\pic\sources\c99\common\labs.c"
  3053 ;; Parameters:    Size  Location     Type
  3054 ;;  a               4    0[COMMON] long 
  3055 ;; Auto vars:     Size  Location     Type
  3056 ;;		None
  3057 ;; Return value:  Size  Location     Type
  3058 ;;                  4    0[COMMON] long 
  3059 ;; Registers used:
  3060 ;;		wreg, status,2, status,0
  3061 ;; Tracked objects:
  3062 ;;		On entry : 0/0
  3063 ;;		On exit  : 0/0
  3064 ;;		Unchanged: 0/0
  3065 ;; Data sizes:     COMMON   BANK0   BANK1   BANK3   BANK2
  3066 ;;      Params:         4       0       0       0       0
  3067 ;;      Locals:         0       0       0       0       0
  3068 ;;      Temps:          0       0       0       0       0
  3069 ;;      Totals:         4       0       0       0       0
  3070 ;;Total ram usage:        4 bytes
  3071 ;; Hardware stack levels used: 1
  3072 ;; This function calls:
  3073 ;;		Nothing
  3074 ;; This function is called by:
  3075 ;;		_efgtoa
  3076 ;; This function uses a non-reentrant model
  3077 ;;
  3078                           
  3079     1FB1                     _labs:	
  3080                           ;psect for function _labs
  3081                           
  3082     1FB1                     l2579:	
  3083                           ;incstack = 0
  3084                           ; Regs used in _labs: [wreg+status,2+status,0]
  3085                           
  3086     1FB1  1BF3               	btfsc	labs@a+3,7
  3087     1FB2  2FB4               	goto	u3871
  3088     1FB3  2FB5               	goto	u3870
  3089     1FB4                     u3871:
  3090     1FB4  2FB6               	goto	l2583
  3091     1FB5                     u3870:
  3092     1FB5                     l2581:
  3093     1FB5  2FC5               	goto	l766
  3094     1FB6                     l2583:
  3095     1FB6  0970               	comf	labs@a,w
  3096     1FB7  00F0               	movwf	?_labs
  3097     1FB8  0971               	comf	labs@a+1,w
  3098     1FB9  00F1               	movwf	?_labs+1
  3099     1FBA  0972               	comf	labs@a+2,w
  3100     1FBB  00F2               	movwf	?_labs+2
  3101     1FBC  0973               	comf	labs@a+3,w
  3102     1FBD  00F3               	movwf	?_labs+3
  3103     1FBE  0AF0               	incf	?_labs,f
  3104     1FBF  1903               	skipnz
  3105     1FC0  0AF1               	incf	?_labs+1,f
  3106     1FC1  1903               	skipnz
  3107     1FC2  0AF2               	incf	?_labs+2,f
  3108     1FC3  1903               	skipnz
  3109     1FC4  0AF3               	incf	?_labs+3,f
  3110     1FC5                     l766:
  3111     1FC5  0008               	return
  3112     1FC6                     __end_of_labs:
  3113                           
  3114                           	psect	text14
  3115     15DE                     __ptext14:	
  3116 ;; *************** function _floorf *****************
  3117 ;; Defined at:
  3118 ;;		line 3 in file "C:\Program Files\Microchip\xc8\v2.50\pic\sources\c99\common\floorf.c"
  3119 ;; Parameters:    Size  Location     Type
  3120 ;;  x               4   52[BANK0 ] float 
  3121 ;; Auto vars:     Size  Location     Type
  3122 ;;  u               4   68[BANK0 ] struct .
  3123 ;;  m               4   62[BANK0 ] unsigned long 
  3124 ;;  e               2   66[BANK0 ] int 
  3125 ;; Return value:  Size  Location     Type
  3126 ;;                  4   52[BANK0 ] float 
  3127 ;; Registers used:
  3128 ;;		wreg, status,2, status,0, btemp+1
  3129 ;; Tracked objects:
  3130 ;;		On entry : 0/0
  3131 ;;		On exit  : 0/0
  3132 ;;		Unchanged: 0/0
  3133 ;; Data sizes:     COMMON   BANK0   BANK1   BANK3   BANK2
  3134 ;;      Params:         0       4       0       0       0
  3135 ;;      Locals:         0      10       0       0       0
  3136 ;;      Temps:          0       6       0       0       0
  3137 ;;      Totals:         0      20       0       0       0
  3138 ;;Total ram usage:       20 bytes
  3139 ;; Hardware stack levels used: 1
  3140 ;; This function calls:
  3141 ;;		Nothing
  3142 ;; This function is called by:
  3143 ;;		_efgtoa
  3144 ;; This function uses a non-reentrant model
  3145 ;;
  3146                           
  3147     15DE                     _floorf:	
  3148                           ;psect for function _floorf
  3149                           
  3150     15DE                     l2587:	
  3151                           ;incstack = 0
  3152                           ; Regs used in _floorf: [wreg+status,2+status,0+btemp+1]
  3153                           
  3154     15DE  1683               	bsf	3,5	;RP0=1, select bank3
  3155     15DF  1703               	bsf	3,6	;RP1=1, select bank3
  3156     15E0  0813               	movf	(floorf@F521+3)^(0+384),w
  3157     15E1  1283               	bcf	3,5	;RP0=0, select bank0
  3158     15E2  1303               	bcf	3,6	;RP1=0, select bank0
  3159     15E3  00E7               	movwf	floorf@u+3
  3160     15E4  1683               	bsf	3,5	;RP0=1, select bank3
  3161     15E5  1703               	bsf	3,6	;RP1=1, select bank3
  3162     15E6  0812               	movf	(floorf@F521+2)^(0+384),w
  3163     15E7  1283               	bcf	3,5	;RP0=0, select bank0
  3164     15E8  1303               	bcf	3,6	;RP1=0, select bank0
  3165     15E9  00E6               	movwf	floorf@u+2
  3166     15EA  1683               	bsf	3,5	;RP0=1, select bank3
  3167     15EB  1703               	bsf	3,6	;RP1=1, select bank3
  3168     15EC  0811               	movf	(floorf@F521+1)^(0+384),w
  3169     15ED  1283               	bcf	3,5	;RP0=0, select bank0
  3170     15EE  1303               	bcf	3,6	;RP1=0, select bank0
  3171     15EF  00E5               	movwf	floorf@u+1
  3172     15F0  1683               	bsf	3,5	;RP0=1, select bank3
  3173     15F1  1703               	bsf	3,6	;RP1=1, select bank3
  3174     15F2  0810               	movf	floorf@F521^(0+384),w
  3175     15F3  1283               	bcf	3,5	;RP0=0, select bank0
  3176     15F4  1303               	bcf	3,6	;RP1=0, select bank0
  3177     15F5  00E4               	movwf	floorf@u
  3178     15F6  0857               	movf	floorf@x+3,w
  3179     15F7  00E7               	movwf	floorf@u+3
  3180     15F8  0856               	movf	floorf@x+2,w
  3181     15F9  00E6               	movwf	floorf@u+2
  3182     15FA  0855               	movf	floorf@x+1,w
  3183     15FB  00E5               	movwf	floorf@u+1
  3184     15FC  0854               	movf	floorf@x,w
  3185     15FD  00E4               	movwf	floorf@u
  3186     15FE                     l2589:
  3187     15FE  0864               	movf	floorf@u,w
  3188     15FF  00D8               	movwf	??_floorf
  3189     1600  0865               	movf	floorf@u+1,w
  3190     1601  00D9               	movwf	??_floorf+1
  3191     1602  0866               	movf	floorf@u+2,w
  3192     1603  00DA               	movwf	??_floorf+2
  3193     1604  0867               	movf	floorf@u+3,w
  3194     1605  00DB               	movwf	??_floorf+3
  3195     1606  3017               	movlw	23
  3196     1607                     u3885:
  3197     1607  1003               	clrc
  3198     1608  0CDB               	rrf	??_floorf+3,f
  3199     1609  0CDA               	rrf	??_floorf+2,f
  3200     160A  0CD9               	rrf	??_floorf+1,f
  3201     160B  0CD8               	rrf	??_floorf,f
  3202     160C                     u3880:
  3203     160C  3EFF               	addlw	-1
  3204     160D  1D03               	skipz
  3205     160E  2E07               	goto	u3885
  3206     160F  30FF               	movlw	255
  3207     1610  0558               	andwf	??_floorf,w
  3208     1611  00DC               	movwf	??_floorf+4
  3209     1612  3000               	movlw	0
  3210     1613  0559               	andwf	??_floorf+1,w
  3211     1614  00DD               	movwf	??_floorf+5
  3212     1615  085C               	movf	??_floorf+4,w
  3213     1616  3E81               	addlw	129
  3214     1617  00E2               	movwf	floorf@e
  3215     1618  085D               	movf	??_floorf+5,w
  3216     1619  1803               	skipnc
  3217     161A  3E01               	addlw	1
  3218     161B  3EFF               	addlw	255
  3219     161C  00E3               	movwf	floorf@e+1
  3220     161D                     l2591:
  3221     161D  0863               	movf	floorf@e+1,w
  3222     161E  3A80               	xorlw	128
  3223     161F  00FF               	movwf	btemp+1
  3224     1620  3080               	movlw	128
  3225     1621  027F               	subwf	btemp+1,w
  3226     1622  1D03               	skipz
  3227     1623  2E26               	goto	u3895
  3228     1624  3017               	movlw	23
  3229     1625  0262               	subwf	floorf@e,w
  3230     1626                     u3895:
  3231     1626  1C03               	skipc
  3232     1627  2E29               	goto	u3891
  3233     1628  2E2A               	goto	u3890
  3234     1629                     u3891:
  3235     1629  2E2B               	goto	l751
  3236     162A                     u3890:
  3237     162A                     l2593:
  3238     162A  2EEC               	goto	l752
  3239     162B                     l751:
  3240     162B  1283               	bcf	3,5	;RP0=0, select bank0
  3241     162C  1303               	bcf	3,6	;RP1=0, select bank0
  3242     162D  1BE3               	btfsc	floorf@e+1,7
  3243     162E  2E30               	goto	u3901
  3244     162F  2E31               	goto	u3900
  3245     1630                     u3901:
  3246     1630  2EA1               	goto	l2607
  3247     1631                     u3900:
  3248     1631                     l2595:
  3249     1631  0A62               	incf	floorf@e,w
  3250     1632  00FF               	movwf	btemp+1
  3251     1633  30FF               	movlw	255
  3252     1634  00D8               	movwf	??_floorf
  3253     1635  30FF               	movlw	255
  3254     1636  00D9               	movwf	??_floorf+1
  3255     1637  307F               	movlw	127
  3256     1638  00DA               	movwf	??_floorf+2
  3257     1639  3000               	movlw	0
  3258     163A  00DB               	movwf	??_floorf+3
  3259     163B  2E41               	goto	u3910
  3260     163C                     u3915:
  3261     163C  0D5B               	rlf	??_floorf+3,w
  3262     163D  0CDB               	rrf	??_floorf+3,f
  3263     163E  0CDA               	rrf	??_floorf+2,f
  3264     163F  0CD9               	rrf	??_floorf+1,f
  3265     1640  0CD8               	rrf	??_floorf,f
  3266     1641                     u3910:
  3267     1641  0BFF               	decfsz	btemp+1,f
  3268     1642  2E3C               	goto	u3915
  3269     1643  085B               	movf	??_floorf+3,w
  3270     1644  00E1               	movwf	floorf@m+3
  3271     1645  085A               	movf	??_floorf+2,w
  3272     1646  00E0               	movwf	floorf@m+2
  3273     1647  0859               	movf	??_floorf+1,w
  3274     1648  00DF               	movwf	floorf@m+1
  3275     1649  0858               	movf	??_floorf,w
  3276     164A  00DE               	movwf	floorf@m
  3277     164B                     l2597:
  3278     164B  085E               	movf	floorf@m,w
  3279     164C  0564               	andwf	floorf@u,w
  3280     164D  00D8               	movwf	??_floorf
  3281     164E  085F               	movf	floorf@m+1,w
  3282     164F  0565               	andwf	floorf@u+1,w
  3283     1650  00D9               	movwf	??_floorf+1
  3284     1651  0860               	movf	floorf@m+2,w
  3285     1652  0566               	andwf	floorf@u+2,w
  3286     1653  00DA               	movwf	??_floorf+2
  3287     1654  0861               	movf	floorf@m+3,w
  3288     1655  0567               	andwf	floorf@u+3,w
  3289     1656  00DB               	movwf	??_floorf+3
  3290     1657  085B               	movf	??_floorf+3,w
  3291     1658  045A               	iorwf	??_floorf+2,w
  3292     1659  0459               	iorwf	??_floorf+1,w
  3293     165A  0458               	iorwf	??_floorf,w
  3294     165B  1D03               	skipz
  3295     165C  2E5E               	goto	u3921
  3296     165D  2E5F               	goto	u3920
  3297     165E                     u3921:
  3298     165E  2E60               	goto	l2601
  3299     165F                     u3920:
  3300     165F  2E2A               	goto	l2593
  3301     1660                     l2601:
  3302     1660  0864               	movf	floorf@u,w
  3303     1661  00D8               	movwf	??_floorf
  3304     1662  0865               	movf	floorf@u+1,w
  3305     1663  00D9               	movwf	??_floorf+1
  3306     1664  0866               	movf	floorf@u+2,w
  3307     1665  00DA               	movwf	??_floorf+2
  3308     1666  0867               	movf	floorf@u+3,w
  3309     1667  00DB               	movwf	??_floorf+3
  3310     1668  301F               	movlw	31
  3311     1669                     u3935:
  3312     1669  1003               	clrc
  3313     166A  0CDB               	rrf	??_floorf+3,f
  3314     166B  0CDA               	rrf	??_floorf+2,f
  3315     166C  0CD9               	rrf	??_floorf+1,f
  3316     166D  0CD8               	rrf	??_floorf,f
  3317     166E                     u3930:
  3318     166E  3EFF               	addlw	-1
  3319     166F  1D03               	skipz
  3320     1670  2E69               	goto	u3935
  3321     1671  085B               	movf	??_floorf+3,w
  3322     1672  045A               	iorwf	??_floorf+2,w
  3323     1673  0459               	iorwf	??_floorf+1,w
  3324     1674  0458               	iorwf	??_floorf,w
  3325     1675  1903               	skipnz
  3326     1676  2E78               	goto	u3941
  3327     1677  2E79               	goto	u3940
  3328     1678                     u3941:
  3329     1678  2E90               	goto	l2605
  3330     1679                     u3940:
  3331     1679                     l2603:
  3332     1679  085E               	movf	floorf@m,w
  3333     167A  07E4               	addwf	floorf@u,f
  3334     167B  085F               	movf	floorf@m+1,w
  3335     167C  1103               	clrz
  3336     167D  1803               	skipnc
  3337     167E  3E01               	addlw	1
  3338     167F  1903               	skipnz
  3339     1680  2E82               	goto	u3951
  3340     1681  07E5               	addwf	floorf@u+1,f
  3341     1682                     u3951:
  3342     1682  0860               	movf	floorf@m+2,w
  3343     1683  1103               	clrz
  3344     1684  1803               	skipnc
  3345     1685  3E01               	addlw	1
  3346     1686  1903               	skipnz
  3347     1687  2E89               	goto	u3952
  3348     1688  07E6               	addwf	floorf@u+2,f
  3349     1689                     u3952:
  3350     1689  0861               	movf	floorf@m+3,w
  3351     168A  1103               	clrz
  3352     168B  1803               	skipnc
  3353     168C  3E01               	addlw	1
  3354     168D  1903               	skipnz
  3355     168E  2E90               	goto	u3953
  3356     168F  07E7               	addwf	floorf@u+3,f
  3357     1690                     u3953:
  3358     1690                     l2605:
  3359     1690  095E               	comf	floorf@m,w
  3360     1691  00D8               	movwf	??_floorf
  3361     1692  095F               	comf	floorf@m+1,w
  3362     1693  00D9               	movwf	??_floorf+1
  3363     1694  0960               	comf	floorf@m+2,w
  3364     1695  00DA               	movwf	??_floorf+2
  3365     1696  0961               	comf	floorf@m+3,w
  3366     1697  00DB               	movwf	??_floorf+3
  3367     1698  0858               	movf	??_floorf,w
  3368     1699  05E4               	andwf	floorf@u,f
  3369     169A  0859               	movf	??_floorf+1,w
  3370     169B  05E5               	andwf	floorf@u+1,f
  3371     169C  085A               	movf	??_floorf+2,w
  3372     169D  05E6               	andwf	floorf@u+2,f
  3373     169E  085B               	movf	??_floorf+3,w
  3374     169F  05E7               	andwf	floorf@u+3,f
  3375     16A0  2EE4               	goto	l756
  3376     16A1                     l2607:
  3377     16A1  0864               	movf	floorf@u,w
  3378     16A2  00D8               	movwf	??_floorf
  3379     16A3  0865               	movf	floorf@u+1,w
  3380     16A4  00D9               	movwf	??_floorf+1
  3381     16A5  0866               	movf	floorf@u+2,w
  3382     16A6  00DA               	movwf	??_floorf+2
  3383     16A7  0867               	movf	floorf@u+3,w
  3384     16A8  00DB               	movwf	??_floorf+3
  3385     16A9  301F               	movlw	31
  3386     16AA                     u3965:
  3387     16AA  1003               	clrc
  3388     16AB  0CDB               	rrf	??_floorf+3,f
  3389     16AC  0CDA               	rrf	??_floorf+2,f
  3390     16AD  0CD9               	rrf	??_floorf+1,f
  3391     16AE  0CD8               	rrf	??_floorf,f
  3392     16AF                     u3960:
  3393     16AF  3EFF               	addlw	-1
  3394     16B0  1D03               	skipz
  3395     16B1  2EAA               	goto	u3965
  3396     16B2  085B               	movf	??_floorf+3,w
  3397     16B3  045A               	iorwf	??_floorf+2,w
  3398     16B4  0459               	iorwf	??_floorf+1,w
  3399     16B5  0458               	iorwf	??_floorf,w
  3400     16B6  1D03               	skipz
  3401     16B7  2EB9               	goto	u3971
  3402     16B8  2EBA               	goto	u3970
  3403     16B9                     u3971:
  3404     16B9  2EC3               	goto	l2611
  3405     16BA                     u3970:
  3406     16BA                     l2609:
  3407     16BA  3000               	movlw	0
  3408     16BB  00E7               	movwf	floorf@u+3
  3409     16BC  3000               	movlw	0
  3410     16BD  00E6               	movwf	floorf@u+2
  3411     16BE  3000               	movlw	0
  3412     16BF  00E5               	movwf	floorf@u+1
  3413     16C0  3000               	movlw	0
  3414     16C1  00E4               	movwf	floorf@u
  3415     16C2  2EE4               	goto	l756
  3416     16C3                     l2611:
  3417     16C3  0864               	movf	floorf@u,w
  3418     16C4  00D8               	movwf	??_floorf
  3419     16C5  0865               	movf	floorf@u+1,w
  3420     16C6  00D9               	movwf	??_floorf+1
  3421     16C7  0866               	movf	floorf@u+2,w
  3422     16C8  00DA               	movwf	??_floorf+2
  3423     16C9  0867               	movf	floorf@u+3,w
  3424     16CA  00DB               	movwf	??_floorf+3
  3425     16CB  3001               	movlw	1
  3426     16CC                     u3985:
  3427     16CC  1003               	clrc
  3428     16CD  0DD8               	rlf	??_floorf,f
  3429     16CE  0DD9               	rlf	??_floorf+1,f
  3430     16CF  0DDA               	rlf	??_floorf+2,f
  3431     16D0  0DDB               	rlf	??_floorf+3,f
  3432     16D1                     u3980:
  3433     16D1  3EFF               	addlw	-1
  3434     16D2  1D03               	skipz
  3435     16D3  2ECC               	goto	u3985
  3436     16D4  085B               	movf	??_floorf+3,w
  3437     16D5  045A               	iorwf	??_floorf+2,w
  3438     16D6  0459               	iorwf	??_floorf+1,w
  3439     16D7  0458               	iorwf	??_floorf,w
  3440     16D8  1903               	skipnz
  3441     16D9  2EDB               	goto	u3991
  3442     16DA  2EDC               	goto	u3990
  3443     16DB                     u3991:
  3444     16DB  2EE4               	goto	l756
  3445     16DC                     u3990:
  3446     16DC                     l2613:
  3447     16DC  30BF               	movlw	191
  3448     16DD  00E7               	movwf	floorf@u+3
  3449     16DE  3080               	movlw	128
  3450     16DF  00E6               	movwf	floorf@u+2
  3451     16E0  3000               	movlw	0
  3452     16E1  00E5               	movwf	floorf@u+1
  3453     16E2  3000               	movlw	0
  3454     16E3  00E4               	movwf	floorf@u
  3455     16E4                     l756:
  3456     16E4  0867               	movf	floorf@u+3,w
  3457     16E5  00D7               	movwf	?_floorf+3
  3458     16E6  0866               	movf	floorf@u+2,w
  3459     16E7  00D6               	movwf	?_floorf+2
  3460     16E8  0865               	movf	floorf@u+1,w
  3461     16E9  00D5               	movwf	?_floorf+1
  3462     16EA  0864               	movf	floorf@u,w
  3463     16EB  00D4               	movwf	?_floorf
  3464     16EC                     l752:
  3465     16EC  0008               	return
  3466     16ED                     __end_of_floorf:
  3467                           
  3468                           	psect	text15
  3469     080B                     __ptext15:	
  3470 ;; *************** function ___fpclassifyf *****************
  3471 ;; Defined at:
  3472 ;;		line 4 in file "C:\Program Files\Microchip\xc8\v2.50\pic\sources\c99\common\__fpclassifyf.c"
  3473 ;; Parameters:    Size  Location     Type
  3474 ;;  x               4    0[COMMON] float 
  3475 ;; Auto vars:     Size  Location     Type
  3476 ;;  u               4    2[BANK0 ] struct .
  3477 ;;  e               2    0[BANK0 ] int 
  3478 ;; Return value:  Size  Location     Type
  3479 ;;                  2    0[COMMON] int 
  3480 ;; Registers used:
  3481 ;;		wreg, status,2, status,0
  3482 ;; Tracked objects:
  3483 ;;		On entry : 0/0
  3484 ;;		On exit  : 0/0
  3485 ;;		Unchanged: 0/0
  3486 ;; Data sizes:     COMMON   BANK0   BANK1   BANK3   BANK2
  3487 ;;      Params:         4       0       0       0       0
  3488 ;;      Locals:         0       6       0       0       0
  3489 ;;      Temps:          6       0       0       0       0
  3490 ;;      Totals:        10       6       0       0       0
  3491 ;;Total ram usage:       16 bytes
  3492 ;; Hardware stack levels used: 1
  3493 ;; This function calls:
  3494 ;;		Nothing
  3495 ;; This function is called by:
  3496 ;;		_efgtoa
  3497 ;; This function uses a non-reentrant model
  3498 ;;
  3499                           
  3500     080B                     ___fpclassifyf:	
  3501                           ;psect for function ___fpclassifyf
  3502                           
  3503     080B                     l2551:	
  3504                           ;incstack = 0
  3505                           ; Regs used in ___fpclassifyf: [wreg+status,2+status,0]
  3506                           
  3507     080B  1683               	bsf	3,5	;RP0=1, select bank3
  3508     080C  1703               	bsf	3,6	;RP1=1, select bank3
  3509     080D  0817               	movf	(___fpclassifyf@F465+3)^(0+384),w
  3510     080E  1283               	bcf	3,5	;RP0=0, select bank0
  3511     080F  1303               	bcf	3,6	;RP1=0, select bank0
  3512     0810  00A5               	movwf	___fpclassifyf@u+3
  3513     0811  1683               	bsf	3,5	;RP0=1, select bank3
  3514     0812  1703               	bsf	3,6	;RP1=1, select bank3
  3515     0813  0816               	movf	(___fpclassifyf@F465+2)^(0+384),w
  3516     0814  1283               	bcf	3,5	;RP0=0, select bank0
  3517     0815  1303               	bcf	3,6	;RP1=0, select bank0
  3518     0816  00A4               	movwf	___fpclassifyf@u+2
  3519     0817  1683               	bsf	3,5	;RP0=1, select bank3
  3520     0818  1703               	bsf	3,6	;RP1=1, select bank3
  3521     0819  0815               	movf	(___fpclassifyf@F465+1)^(0+384),w
  3522     081A  1283               	bcf	3,5	;RP0=0, select bank0
  3523     081B  1303               	bcf	3,6	;RP1=0, select bank0
  3524     081C  00A3               	movwf	___fpclassifyf@u+1
  3525     081D  1683               	bsf	3,5	;RP0=1, select bank3
  3526     081E  1703               	bsf	3,6	;RP1=1, select bank3
  3527     081F  0814               	movf	___fpclassifyf@F465^(0+384),w
  3528     0820  1283               	bcf	3,5	;RP0=0, select bank0
  3529     0821  1303               	bcf	3,6	;RP1=0, select bank0
  3530     0822  00A2               	movwf	___fpclassifyf@u
  3531     0823  0873               	movf	___fpclassifyf@x+3,w
  3532     0824  00A5               	movwf	___fpclassifyf@u+3
  3533     0825  0872               	movf	___fpclassifyf@x+2,w
  3534     0826  00A4               	movwf	___fpclassifyf@u+2
  3535     0827  0871               	movf	___fpclassifyf@x+1,w
  3536     0828  00A3               	movwf	___fpclassifyf@u+1
  3537     0829  0870               	movf	___fpclassifyf@x,w
  3538     082A  00A2               	movwf	___fpclassifyf@u
  3539     082B                     l2553:
  3540     082B  0822               	movf	___fpclassifyf@u,w
  3541     082C  00F4               	movwf	??___fpclassifyf
  3542     082D  0823               	movf	___fpclassifyf@u+1,w
  3543     082E  00F5               	movwf	??___fpclassifyf+1
  3544     082F  0824               	movf	___fpclassifyf@u+2,w
  3545     0830  00F6               	movwf	??___fpclassifyf+2
  3546     0831  0825               	movf	___fpclassifyf@u+3,w
  3547     0832  00F7               	movwf	??___fpclassifyf+3
  3548     0833  3017               	movlw	23
  3549     0834                     u3785:
  3550     0834  1003               	clrc
  3551     0835  0CF7               	rrf	??___fpclassifyf+3,f
  3552     0836  0CF6               	rrf	??___fpclassifyf+2,f
  3553     0837  0CF5               	rrf	??___fpclassifyf+1,f
  3554     0838  0CF4               	rrf	??___fpclassifyf,f
  3555     0839                     u3780:
  3556     0839  3EFF               	addlw	-1
  3557     083A  1D03               	skipz
  3558     083B  2834               	goto	u3785
  3559     083C  30FF               	movlw	255
  3560     083D  0574               	andwf	??___fpclassifyf,w
  3561     083E  00A0               	movwf	___fpclassifyf@e
  3562     083F  3000               	movlw	0
  3563     0840  0575               	andwf	??___fpclassifyf+1,w
  3564     0841  00A1               	movwf	___fpclassifyf@e+1
  3565     0842                     l2555:
  3566     0842  0820               	movf	___fpclassifyf@e,w
  3567     0843  0421               	iorwf	___fpclassifyf@e+1,w
  3568     0844  1D03               	btfss	3,2
  3569     0845  2847               	goto	u3791
  3570     0846  2848               	goto	u3790
  3571     0847                     u3791:
  3572     0847  286B               	goto	l2565
  3573     0848                     u3790:
  3574     0848                     l2557:
  3575     0848  0822               	movf	___fpclassifyf@u,w
  3576     0849  00F4               	movwf	??___fpclassifyf
  3577     084A  0823               	movf	___fpclassifyf@u+1,w
  3578     084B  00F5               	movwf	??___fpclassifyf+1
  3579     084C  0824               	movf	___fpclassifyf@u+2,w
  3580     084D  00F6               	movwf	??___fpclassifyf+2
  3581     084E  0825               	movf	___fpclassifyf@u+3,w
  3582     084F  00F7               	movwf	??___fpclassifyf+3
  3583     0850  3001               	movlw	1
  3584     0851                     u3805:
  3585     0851  1003               	clrc
  3586     0852  0DF4               	rlf	??___fpclassifyf,f
  3587     0853  0DF5               	rlf	??___fpclassifyf+1,f
  3588     0854  0DF6               	rlf	??___fpclassifyf+2,f
  3589     0855  0DF7               	rlf	??___fpclassifyf+3,f
  3590     0856                     u3800:
  3591     0856  3EFF               	addlw	-1
  3592     0857  1D03               	skipz
  3593     0858  2851               	goto	u3805
  3594     0859  0877               	movf	??___fpclassifyf+3,w
  3595     085A  0476               	iorwf	??___fpclassifyf+2,w
  3596     085B  0475               	iorwf	??___fpclassifyf+1,w
  3597     085C  0474               	iorwf	??___fpclassifyf,w
  3598     085D  1D03               	skipz
  3599     085E  2860               	goto	u3811
  3600     085F  2861               	goto	u3810
  3601     0860                     u3811:
  3602     0860  2866               	goto	l2561
  3603     0861                     u3810:
  3604     0861                     l2559:
  3605     0861  3002               	movlw	2
  3606     0862  00F0               	movwf	?___fpclassifyf
  3607     0863  3000               	movlw	0
  3608     0864  00F1               	movwf	?___fpclassifyf+1
  3609     0865  2897               	goto	l745
  3610     0866                     l2561:
  3611     0866  3003               	movlw	3
  3612     0867  00F0               	movwf	?___fpclassifyf
  3613     0868  3000               	movlw	0
  3614     0869  00F1               	movwf	?___fpclassifyf+1
  3615     086A  2897               	goto	l745
  3616     086B                     l2565:
  3617     086B  0A20               	incf	___fpclassifyf@e,w
  3618     086C  0421               	iorwf	___fpclassifyf@e+1,w
  3619     086D  1D03               	btfss	3,2
  3620     086E  2870               	goto	u3821
  3621     086F  2871               	goto	u3820
  3622     0870                     u3821:
  3623     0870  2893               	goto	l2571
  3624     0871                     u3820:
  3625     0871                     l2567:
  3626     0871  0822               	movf	___fpclassifyf@u,w
  3627     0872  00F4               	movwf	??___fpclassifyf
  3628     0873  0823               	movf	___fpclassifyf@u+1,w
  3629     0874  00F5               	movwf	??___fpclassifyf+1
  3630     0875  0824               	movf	___fpclassifyf@u+2,w
  3631     0876  00F6               	movwf	??___fpclassifyf+2
  3632     0877  0825               	movf	___fpclassifyf@u+3,w
  3633     0878  00F7               	movwf	??___fpclassifyf+3
  3634     0879  3009               	movlw	9
  3635     087A                     u3835:
  3636     087A  1003               	clrc
  3637     087B  0DF4               	rlf	??___fpclassifyf,f
  3638     087C  0DF5               	rlf	??___fpclassifyf+1,f
  3639     087D  0DF6               	rlf	??___fpclassifyf+2,f
  3640     087E  0DF7               	rlf	??___fpclassifyf+3,f
  3641     087F                     u3830:
  3642     087F  3EFF               	addlw	-1
  3643     0880  1D03               	skipz
  3644     0881  287A               	goto	u3835
  3645     0882  0877               	movf	??___fpclassifyf+3,w
  3646     0883  0476               	iorwf	??___fpclassifyf+2,w
  3647     0884  0475               	iorwf	??___fpclassifyf+1,w
  3648     0885  0474               	iorwf	??___fpclassifyf,w
  3649     0886  1903               	skipnz
  3650     0887  2889               	goto	u3841
  3651     0888  288B               	goto	u3840
  3652     0889                     u3841:
  3653     0889  3001               	movlw	1
  3654     088A  288C               	goto	u3850
  3655     088B                     u3840:
  3656     088B  3000               	movlw	0
  3657     088C                     u3850:
  3658     088C  00F8               	movwf	??___fpclassifyf+4
  3659     088D  01F9               	clrf	??___fpclassifyf+5
  3660     088E  0878               	movf	??___fpclassifyf+4,w
  3661     088F  00F0               	movwf	?___fpclassifyf
  3662     0890  0879               	movf	??___fpclassifyf+5,w
  3663     0891  00F1               	movwf	?___fpclassifyf+1
  3664     0892  2897               	goto	l745
  3665     0893                     l2571:
  3666     0893  3004               	movlw	4
  3667     0894  00F0               	movwf	?___fpclassifyf
  3668     0895  3000               	movlw	0
  3669     0896  00F1               	movwf	?___fpclassifyf+1
  3670     0897                     l745:
  3671     0897  0008               	return
  3672     0898                     __end_of___fpclassifyf:
  3673                           
  3674                           	psect	text16
  3675     126C                     __ptext16:	
  3676 ;; *************** function ___fltol *****************
  3677 ;; Defined at:
  3678 ;;		line 43 in file "C:\Program Files\Microchip\xc8\v2.50\pic\sources\c99\common\fltol.c"
  3679 ;; Parameters:    Size  Location     Type
  3680 ;;  f1              4    0[COMMON] int 
  3681 ;; Auto vars:     Size  Location     Type
  3682 ;;  exp1            1    9[COMMON] unsigned char 
  3683 ;;  sign1           1    8[COMMON] unsigned char 
  3684 ;; Return value:  Size  Location     Type
  3685 ;;                  4    0[COMMON] long 
  3686 ;; Registers used:
  3687 ;;		wreg, status,2, status,0
  3688 ;; Tracked objects:
  3689 ;;		On entry : 0/0
  3690 ;;		On exit  : 0/0
  3691 ;;		Unchanged: 0/0
  3692 ;; Data sizes:     COMMON   BANK0   BANK1   BANK3   BANK2
  3693 ;;      Params:         4       0       0       0       0
  3694 ;;      Locals:         2       0       0       0       0
  3695 ;;      Temps:          4       0       0       0       0
  3696 ;;      Totals:        10       0       0       0       0
  3697 ;;Total ram usage:       10 bytes
  3698 ;; Hardware stack levels used: 1
  3699 ;; This function calls:
  3700 ;;		Nothing
  3701 ;; This function is called by:
  3702 ;;		_efgtoa
  3703 ;; This function uses a non-reentrant model
  3704 ;;
  3705                           
  3706     126C                     ___fltol:	
  3707                           ;psect for function ___fltol
  3708                           
  3709     126C                     l2211:	
  3710                           ;incstack = 0
  3711                           ; Regs used in ___fltol: [wreg+status,2+status,0]
  3712                           
  3713     126C  1003               	clrc
  3714     126D  0D72               	rlf	___fltol@f1+2,w
  3715     126E  0D73               	rlf	___fltol@f1+3,w
  3716     126F  00F9               	movwf	___fltol@exp1
  3717     1270  0879               	movf	___fltol@exp1,w
  3718     1271  1D03               	btfss	3,2
  3719     1272  2A74               	goto	u3001
  3720     1273  2A75               	goto	u3000
  3721     1274                     u3001:
  3722     1274  2A7E               	goto	l2217
  3723     1275                     u3000:
  3724     1275                     l2213:
  3725     1275  3000               	movlw	0
  3726     1276  00F3               	movwf	?___fltol+3
  3727     1277  3000               	movlw	0
  3728     1278  00F2               	movwf	?___fltol+2
  3729     1279  3000               	movlw	0
  3730     127A  00F1               	movwf	?___fltol+1
  3731     127B  3000               	movlw	0
  3732     127C  00F0               	movwf	?___fltol
  3733     127D  2ADF               	goto	l348
  3734     127E                     l2217:
  3735     127E  0870               	movf	___fltol@f1,w
  3736     127F  00F4               	movwf	??___fltol
  3737     1280  0871               	movf	___fltol@f1+1,w
  3738     1281  00F5               	movwf	??___fltol+1
  3739     1282  0872               	movf	___fltol@f1+2,w
  3740     1283  00F6               	movwf	??___fltol+2
  3741     1284  0873               	movf	___fltol@f1+3,w
  3742     1285  00F7               	movwf	??___fltol+3
  3743     1286  301F               	movlw	31
  3744     1287                     u3015:
  3745     1287  1003               	clrc
  3746     1288  0CF7               	rrf	??___fltol+3,f
  3747     1289  0CF6               	rrf	??___fltol+2,f
  3748     128A  0CF5               	rrf	??___fltol+1,f
  3749     128B  0CF4               	rrf	??___fltol,f
  3750     128C                     u3010:
  3751     128C  3EFF               	addlw	-1
  3752     128D  1D03               	skipz
  3753     128E  2A87               	goto	u3015
  3754     128F  0874               	movf	??___fltol,w
  3755     1290  00F8               	movwf	___fltol@sign1
  3756     1291                     l2219:
  3757     1291  17F2               	bsf	___fltol@f1+2,7
  3758     1292                     l2221:
  3759     1292  30FF               	movlw	255
  3760     1293  05F0               	andwf	___fltol@f1,f
  3761     1294  30FF               	movlw	255
  3762     1295  05F1               	andwf	___fltol@f1+1,f
  3763     1296  30FF               	movlw	255
  3764     1297  05F2               	andwf	___fltol@f1+2,f
  3765     1298  3000               	movlw	0
  3766     1299  05F3               	andwf	___fltol@f1+3,f
  3767     129A                     l2223:
  3768     129A  3096               	movlw	150
  3769     129B  02F9               	subwf	___fltol@exp1,f
  3770     129C                     l2225:
  3771     129C  1FF9               	btfss	___fltol@exp1,7
  3772     129D  2A9F               	goto	u3021
  3773     129E  2AA0               	goto	u3020
  3774     129F                     u3021:
  3775     129F  2AB8               	goto	l2235
  3776     12A0                     u3020:
  3777     12A0                     l2227:
  3778     12A0  0879               	movf	___fltol@exp1,w
  3779     12A1  3A80               	xorlw	128
  3780     12A2  3E97               	addlw	151
  3781     12A3  1803               	skipnc
  3782     12A4  2AA6               	goto	u3031
  3783     12A5  2AA7               	goto	u3030
  3784     12A6                     u3031:
  3785     12A6  2AA8               	goto	l2233
  3786     12A7                     u3030:
  3787     12A7  2A75               	goto	l2213
  3788     12A8                     l2233:
  3789     12A8  3001               	movlw	1
  3790     12A9                     u3045:
  3791     12A9  1003               	clrc
  3792     12AA  0CF3               	rrf	___fltol@f1+3,f
  3793     12AB  0CF2               	rrf	___fltol@f1+2,f
  3794     12AC  0CF1               	rrf	___fltol@f1+1,f
  3795     12AD  0CF0               	rrf	___fltol@f1,f
  3796     12AE  3EFF               	addlw	-1
  3797     12AF  1D03               	skipz
  3798     12B0  2AA9               	goto	u3045
  3799     12B1  3001               	movlw	1
  3800     12B2  07F9               	addwf	___fltol@exp1,f
  3801     12B3  1D03               	btfss	3,2
  3802     12B4  2AB6               	goto	u3051
  3803     12B5  2AB7               	goto	u3050
  3804     12B6                     u3051:
  3805     12B6  2AA8               	goto	l2233
  3806     12B7                     u3050:
  3807     12B7  2ACF               	goto	l2243
  3808     12B8                     l2235:
  3809     12B8  3020               	movlw	32
  3810     12B9  0279               	subwf	___fltol@exp1,w
  3811     12BA  1C03               	skipc
  3812     12BB  2ABD               	goto	u3061
  3813     12BC  2ABE               	goto	u3060
  3814     12BD                     u3061:
  3815     12BD  2ACA               	goto	l355
  3816     12BE                     u3060:
  3817     12BE  2A75               	goto	l2213
  3818     12BF                     l2241:
  3819     12BF  3001               	movlw	1
  3820     12C0  00F4               	movwf	??___fltol
  3821     12C1                     u3075:
  3822     12C1  1003               	clrc
  3823     12C2  0DF0               	rlf	___fltol@f1,f
  3824     12C3  0DF1               	rlf	___fltol@f1+1,f
  3825     12C4  0DF2               	rlf	___fltol@f1+2,f
  3826     12C5  0DF3               	rlf	___fltol@f1+3,f
  3827     12C6  0BF4               	decfsz	??___fltol,f
  3828     12C7  2AC1               	goto	u3075
  3829     12C8  3001               	movlw	1
  3830     12C9  02F9               	subwf	___fltol@exp1,f
  3831     12CA                     l355:
  3832     12CA  0879               	movf	___fltol@exp1,w
  3833     12CB  1D03               	btfss	3,2
  3834     12CC  2ACE               	goto	u3081
  3835     12CD  2ACF               	goto	u3080
  3836     12CE                     u3081:
  3837     12CE  2ABF               	goto	l2241
  3838     12CF                     u3080:
  3839     12CF                     l2243:
  3840     12CF  0878               	movf	___fltol@sign1,w
  3841     12D0  1903               	btfsc	3,2
  3842     12D1  2AD3               	goto	u3091
  3843     12D2  2AD4               	goto	u3090
  3844     12D3                     u3091:
  3845     12D3  2ADF               	goto	l358
  3846     12D4                     u3090:
  3847     12D4                     l2245:
  3848     12D4  09F0               	comf	___fltol@f1,f
  3849     12D5  09F1               	comf	___fltol@f1+1,f
  3850     12D6  09F2               	comf	___fltol@f1+2,f
  3851     12D7  09F3               	comf	___fltol@f1+3,f
  3852     12D8  0AF0               	incf	___fltol@f1,f
  3853     12D9  1903               	skipnz
  3854     12DA  0AF1               	incf	___fltol@f1+1,f
  3855     12DB  1903               	skipnz
  3856     12DC  0AF2               	incf	___fltol@f1+2,f
  3857     12DD  1903               	skipnz
  3858     12DE  0AF3               	incf	___fltol@f1+3,f
  3859     12DF                     l358:
  3860     12DF                     l348:
  3861     12DF  0008               	return
  3862     12E0                     __end_of___fltol:
  3863                           
  3864                           	psect	text17
  3865     1076                     __ptext17:	
  3866 ;; *************** function ___flsub *****************
  3867 ;; Defined at:
  3868 ;;		line 242 in file "C:\Program Files\Microchip\xc8\v2.50\pic\sources\c99\common\sprcadd.c"
  3869 ;; Parameters:    Size  Location     Type
  3870 ;;  a               4   26[BANK0 ] long 
  3871 ;;  b               4   30[BANK0 ] long 
  3872 ;; Auto vars:     Size  Location     Type
  3873 ;;		None
  3874 ;; Return value:  Size  Location     Type
  3875 ;;                  4   26[BANK0 ] long 
  3876 ;; Registers used:
  3877 ;;		wreg, status,2, status,0, btemp+1, pclath, cstack
  3878 ;; Tracked objects:
  3879 ;;		On entry : 0/0
  3880 ;;		On exit  : 0/0
  3881 ;;		Unchanged: 0/0
  3882 ;; Data sizes:     COMMON   BANK0   BANK1   BANK3   BANK2
  3883 ;;      Params:         0       8       0       0       0
  3884 ;;      Locals:         0       0       0       0       0
  3885 ;;      Temps:          0       0       0       0       0
  3886 ;;      Totals:         0       8       0       0       0
  3887 ;;Total ram usage:        8 bytes
  3888 ;; Hardware stack levels used: 1
  3889 ;; Hardware stack levels required when called: 1
  3890 ;; This function calls:
  3891 ;;		___fladd
  3892 ;; This function is called by:
  3893 ;;		_efgtoa
  3894 ;; This function uses a non-reentrant model
  3895 ;;
  3896                           
  3897     1076                     ___flsub:	
  3898                           ;psect for function ___flsub
  3899                           
  3900     1076                     l2247:	
  3901                           ;incstack = 0
  3902                           ; Regs used in ___flsub: [wreg+status,2+status,0+btemp+1+pclath+cstack]
  3903                           
  3904     1076  3080               	movlw	128
  3905     1077  1283               	bcf	3,5	;RP0=0, select bank0
  3906     1078  1303               	bcf	3,6	;RP1=0, select bank0
  3907     1079  06BD               	xorwf	___flsub@a+3,f
  3908     107A                     l2249:
  3909     107A  0841               	movf	___flsub@b+3,w
  3910     107B  00F3               	movwf	___fladd@b+3
  3911     107C  0840               	movf	___flsub@b+2,w
  3912     107D  00F2               	movwf	___fladd@b+2
  3913     107E  083F               	movf	___flsub@b+1,w
  3914     107F  00F1               	movwf	___fladd@b+1
  3915     1080  083E               	movf	___flsub@b,w
  3916     1081  00F0               	movwf	___fladd@b
  3917     1082  083D               	movf	___flsub@a+3,w
  3918     1083  00F7               	movwf	___fladd@a+3
  3919     1084  083C               	movf	___flsub@a+2,w
  3920     1085  00F6               	movwf	___fladd@a+2
  3921     1086  083B               	movf	___flsub@a+1,w
  3922     1087  00F5               	movwf	___fladd@a+1
  3923     1088  083A               	movf	___flsub@a,w
  3924     1089  00F4               	movwf	___fladd@a
  3925     108A  120A  158A  2262  160A  118A  	fcall	___fladd
  3926     108F  0873               	movf	?___fladd+3,w
  3927     1090  1283               	bcf	3,5	;RP0=0, select bank0
  3928     1091  1303               	bcf	3,6	;RP1=0, select bank0
  3929     1092  00BD               	movwf	?___flsub+3
  3930     1093  0872               	movf	?___fladd+2,w
  3931     1094  00BC               	movwf	?___flsub+2
  3932     1095  0871               	movf	?___fladd+1,w
  3933     1096  00BB               	movwf	?___flsub+1
  3934     1097  0870               	movf	?___fladd,w
  3935     1098  00BA               	movwf	?___flsub
  3936     1099                     l501:
  3937     1099  0008               	return
  3938     109A                     __end_of___flsub:
  3939                           
  3940                           	psect	text18
  3941     0A62                     __ptext18:	
  3942 ;; *************** function ___fladd *****************
  3943 ;; Defined at:
  3944 ;;		line 10 in file "C:\Program Files\Microchip\xc8\v2.50\pic\sources\c99\common\sprcadd.c"
  3945 ;; Parameters:    Size  Location     Type
  3946 ;;  b               4    0[COMMON] long 
  3947 ;;  a               4    4[COMMON] long 
  3948 ;; Auto vars:     Size  Location     Type
  3949 ;;  grs             1   11[COMMON] unsigned char 
  3950 ;;  bexp            1   10[COMMON] unsigned char 
  3951 ;;  aexp            1    9[COMMON] unsigned char 
  3952 ;;  signs           1    8[COMMON] unsigned char 
  3953 ;; Return value:  Size  Location     Type
  3954 ;;                  4    0[COMMON] unsigned char 
  3955 ;; Registers used:
  3956 ;;		wreg, status,2, status,0, btemp+1
  3957 ;; Tracked objects:
  3958 ;;		On entry : 0/0
  3959 ;;		On exit  : 0/0
  3960 ;;		Unchanged: 0/0
  3961 ;; Data sizes:     COMMON   BANK0   BANK1   BANK3   BANK2
  3962 ;;      Params:         8       0       0       0       0
  3963 ;;      Locals:         4       0       0       0       0
  3964 ;;      Temps:          0       8       0       0       0
  3965 ;;      Totals:        12       8       0       0       0
  3966 ;;Total ram usage:       20 bytes
  3967 ;; Hardware stack levels used: 1
  3968 ;; This function calls:
  3969 ;;		Nothing
  3970 ;; This function is called by:
  3971 ;;		___flsub
  3972 ;;		_efgtoa
  3973 ;; This function uses a non-reentrant model
  3974 ;;
  3975                           
  3976     0A62                     ___fladd:	
  3977                           ;psect for function ___fladd
  3978                           
  3979     0A62                     l1937:	
  3980                           ;incstack = 0
  3981                           ; Regs used in ___fladd: [wreg+status,2+status,0+btemp+1]
  3982                           
  3983     0A62  0873               	movf	___fladd@b+3,w
  3984     0A63  00F8               	movwf	___fladd@signs
  3985     0A64                     l1939:
  3986     0A64  3080               	movlw	128
  3987     0A65  05F8               	andwf	___fladd@signs,f
  3988     0A66                     l1941:
  3989     0A66  0873               	movf	___fladd@b+3,w
  3990     0A67  1283               	bcf	3,5	;RP0=0, select bank0
  3991     0A68  1303               	bcf	3,6	;RP1=0, select bank0
  3992     0A69  00A0               	movwf	??___fladd
  3993     0A6A  0720               	addwf	??___fladd,w
  3994     0A6B  00FA               	movwf	___fladd@bexp
  3995     0A6C                     l1943:
  3996     0A6C  1FF2               	btfss	___fladd@b+2,7
  3997     0A6D  2A6F               	goto	u2351
  3998     0A6E  2A70               	goto	u2350
  3999     0A6F                     u2351:
  4000     0A6F  2A71               	goto	l1947
  4001     0A70                     u2350:
  4002     0A70                     l1945:
  4003     0A70  147A               	bsf	___fladd@bexp,0
  4004     0A71                     l1947:
  4005     0A71  087A               	movf	___fladd@bexp,w
  4006     0A72  1903               	btfsc	3,2
  4007     0A73  2A75               	goto	u2361
  4008     0A74  2A76               	goto	u2360
  4009     0A75                     u2361:
  4010     0A75  2A86               	goto	l1957
  4011     0A76                     u2360:
  4012     0A76                     l1949:
  4013     0A76  0A7A               	incf	___fladd@bexp,w
  4014     0A77  1D03               	btfss	3,2
  4015     0A78  2A7A               	goto	u2371
  4016     0A79  2A7B               	goto	u2370
  4017     0A7A                     u2371:
  4018     0A7A  2A83               	goto	l1953
  4019     0A7B                     u2370:
  4020     0A7B                     l1951:
  4021     0A7B  3000               	movlw	0
  4022     0A7C  00F3               	movwf	___fladd@b+3
  4023     0A7D  3000               	movlw	0
  4024     0A7E  00F2               	movwf	___fladd@b+2
  4025     0A7F  3000               	movlw	0
  4026     0A80  00F1               	movwf	___fladd@b+1
  4027     0A81  3000               	movlw	0
  4028     0A82  00F0               	movwf	___fladd@b
  4029     0A83                     l1953:
  4030     0A83  17F2               	bsf	___fladd@b+2,7
  4031     0A84                     l1955:
  4032     0A84  01F3               	clrf	___fladd@b+3
  4033     0A85  2A8E               	goto	l450
  4034     0A86                     l1957:
  4035     0A86  3000               	movlw	0
  4036     0A87  00F3               	movwf	___fladd@b+3
  4037     0A88  3000               	movlw	0
  4038     0A89  00F2               	movwf	___fladd@b+2
  4039     0A8A  3000               	movlw	0
  4040     0A8B  00F1               	movwf	___fladd@b+1
  4041     0A8C  3000               	movlw	0
  4042     0A8D  00F0               	movwf	___fladd@b
  4043     0A8E                     l450:
  4044     0A8E  0877               	movf	___fladd@a+3,w
  4045     0A8F  00F9               	movwf	___fladd@aexp
  4046     0A90                     l1959:
  4047     0A90  3080               	movlw	128
  4048     0A91  05F9               	andwf	___fladd@aexp,f
  4049     0A92                     l1961:
  4050     0A92  0879               	movf	___fladd@aexp,w
  4051     0A93  0678               	xorwf	___fladd@signs,w
  4052     0A94  1903               	skipnz
  4053     0A95  2A97               	goto	u2381
  4054     0A96  2A98               	goto	u2380
  4055     0A97                     u2381:
  4056     0A97  2A99               	goto	l1965
  4057     0A98                     u2380:
  4058     0A98                     l1963:
  4059     0A98  1778               	bsf	___fladd@signs,6
  4060     0A99                     l1965:
  4061     0A99  0877               	movf	___fladd@a+3,w
  4062     0A9A  00A0               	movwf	??___fladd
  4063     0A9B  0720               	addwf	??___fladd,w
  4064     0A9C  00F9               	movwf	___fladd@aexp
  4065     0A9D                     l1967:
  4066     0A9D  1FF6               	btfss	___fladd@a+2,7
  4067     0A9E  2AA0               	goto	u2391
  4068     0A9F  2AA1               	goto	u2390
  4069     0AA0                     u2391:
  4070     0AA0  2AA2               	goto	l1971
  4071     0AA1                     u2390:
  4072     0AA1                     l1969:
  4073     0AA1  1479               	bsf	___fladd@aexp,0
  4074     0AA2                     l1971:
  4075     0AA2  0879               	movf	___fladd@aexp,w
  4076     0AA3  1903               	btfsc	3,2
  4077     0AA4  2AA6               	goto	u2401
  4078     0AA5  2AA7               	goto	u2400
  4079     0AA6                     u2401:
  4080     0AA6  2AB7               	goto	l1981
  4081     0AA7                     u2400:
  4082     0AA7                     l1973:
  4083     0AA7  0A79               	incf	___fladd@aexp,w
  4084     0AA8  1D03               	btfss	3,2
  4085     0AA9  2AAB               	goto	u2411
  4086     0AAA  2AAC               	goto	u2410
  4087     0AAB                     u2411:
  4088     0AAB  2AB4               	goto	l1977
  4089     0AAC                     u2410:
  4090     0AAC                     l1975:
  4091     0AAC  3000               	movlw	0
  4092     0AAD  00F7               	movwf	___fladd@a+3
  4093     0AAE  3000               	movlw	0
  4094     0AAF  00F6               	movwf	___fladd@a+2
  4095     0AB0  3000               	movlw	0
  4096     0AB1  00F5               	movwf	___fladd@a+1
  4097     0AB2  3000               	movlw	0
  4098     0AB3  00F4               	movwf	___fladd@a
  4099     0AB4                     l1977:
  4100     0AB4  17F6               	bsf	___fladd@a+2,7
  4101     0AB5                     l1979:
  4102     0AB5  01F7               	clrf	___fladd@a+3
  4103     0AB6  2ABF               	goto	l455
  4104     0AB7                     l1981:
  4105     0AB7  3000               	movlw	0
  4106     0AB8  00F7               	movwf	___fladd@a+3
  4107     0AB9  3000               	movlw	0
  4108     0ABA  00F6               	movwf	___fladd@a+2
  4109     0ABB  3000               	movlw	0
  4110     0ABC  00F5               	movwf	___fladd@a+1
  4111     0ABD  3000               	movlw	0
  4112     0ABE  00F4               	movwf	___fladd@a
  4113     0ABF                     l455:
  4114     0ABF  087A               	movf	___fladd@bexp,w
  4115     0AC0  0279               	subwf	___fladd@aexp,w
  4116     0AC1  1803               	skipnc
  4117     0AC2  2AC4               	goto	u2421
  4118     0AC3  2AC5               	goto	u2420
  4119     0AC4                     u2421:
  4120     0AC4  2AE9               	goto	l2017
  4121     0AC5                     u2420:
  4122     0AC5                     l1983:
  4123     0AC5  1F78               	btfss	___fladd@signs,6
  4124     0AC6  2AC8               	goto	u2431
  4125     0AC7  2AC9               	goto	u2430
  4126     0AC8                     u2431:
  4127     0AC8  2ACB               	goto	l1987
  4128     0AC9                     u2430:
  4129     0AC9                     l1985:
  4130     0AC9  3080               	movlw	128
  4131     0ACA  06F8               	xorwf	___fladd@signs,f
  4132     0ACB                     l1987:
  4133     0ACB  087A               	movf	___fladd@bexp,w
  4134     0ACC  00FB               	movwf	___fladd@grs
  4135     0ACD                     l1989:
  4136     0ACD  0879               	movf	___fladd@aexp,w
  4137     0ACE  00FA               	movwf	___fladd@bexp
  4138     0ACF                     l1991:
  4139     0ACF  087B               	movf	___fladd@grs,w
  4140     0AD0  00F9               	movwf	___fladd@aexp
  4141     0AD1                     l1993:
  4142     0AD1  0870               	movf	___fladd@b,w
  4143     0AD2  00FB               	movwf	___fladd@grs
  4144     0AD3                     l1995:
  4145     0AD3  0874               	movf	___fladd@a,w
  4146     0AD4  00F0               	movwf	___fladd@b
  4147     0AD5                     l1997:
  4148     0AD5  087B               	movf	___fladd@grs,w
  4149     0AD6  00F4               	movwf	___fladd@a
  4150     0AD7                     l1999:
  4151     0AD7  0871               	movf	___fladd@b+1,w
  4152     0AD8  00FB               	movwf	___fladd@grs
  4153     0AD9                     l2001:
  4154     0AD9  0875               	movf	___fladd@a+1,w
  4155     0ADA  00F1               	movwf	___fladd@b+1
  4156     0ADB                     l2003:
  4157     0ADB  087B               	movf	___fladd@grs,w
  4158     0ADC  00F5               	movwf	___fladd@a+1
  4159     0ADD                     l2005:
  4160     0ADD  0872               	movf	___fladd@b+2,w
  4161     0ADE  00FB               	movwf	___fladd@grs
  4162     0ADF                     l2007:
  4163     0ADF  0876               	movf	___fladd@a+2,w
  4164     0AE0  00F2               	movwf	___fladd@b+2
  4165     0AE1                     l2009:
  4166     0AE1  087B               	movf	___fladd@grs,w
  4167     0AE2  00F6               	movwf	___fladd@a+2
  4168     0AE3                     l2011:
  4169     0AE3  0873               	movf	___fladd@b+3,w
  4170     0AE4  00FB               	movwf	___fladd@grs
  4171     0AE5                     l2013:
  4172     0AE5  0877               	movf	___fladd@a+3,w
  4173     0AE6  00F3               	movwf	___fladd@b+3
  4174     0AE7                     l2015:
  4175     0AE7  087B               	movf	___fladd@grs,w
  4176     0AE8  00F7               	movwf	___fladd@a+3
  4177     0AE9                     l2017:
  4178     0AE9  01FB               	clrf	___fladd@grs
  4179     0AEA                     l2019:
  4180     0AEA  0879               	movf	___fladd@aexp,w
  4181     0AEB  00A0               	movwf	??___fladd
  4182     0AEC  01A1               	clrf	??___fladd+1
  4183     0AED  0821               	movf	??___fladd+1,w
  4184     0AEE  00A3               	movwf	??___fladd+3
  4185     0AEF  087A               	movf	___fladd@bexp,w
  4186     0AF0  0220               	subwf	??___fladd,w
  4187     0AF1  00A2               	movwf	??___fladd+2
  4188     0AF2  1C03               	skipc
  4189     0AF3  03A3               	decf	??___fladd+3,f
  4190     0AF4  0823               	movf	??___fladd+3,w
  4191     0AF5  3A80               	xorlw	128
  4192     0AF6  00FF               	movwf	btemp+1
  4193     0AF7  3080               	movlw	128
  4194     0AF8  027F               	subwf	btemp+1,w
  4195     0AF9  1D03               	skipz
  4196     0AFA  2AFD               	goto	u2445
  4197     0AFB  301A               	movlw	26
  4198     0AFC  0222               	subwf	??___fladd+2,w
  4199     0AFD                     u2445:
  4200     0AFD  1C03               	skipc
  4201     0AFE  2B00               	goto	u2441
  4202     0AFF  2B01               	goto	u2440
  4203     0B00                     u2441:
  4204     0B00  2B38               	goto	l2035
  4205     0B01                     u2440:
  4206     0B01                     l2021:
  4207     0B01  0873               	movf	___fladd@b+3,w
  4208     0B02  0472               	iorwf	___fladd@b+2,w
  4209     0B03  0471               	iorwf	___fladd@b+1,w
  4210     0B04  0470               	iorwf	___fladd@b,w
  4211     0B05  1D03               	skipz
  4212     0B06  2B08               	goto	u2451
  4213     0B07  2B0A               	goto	u2450
  4214     0B08                     u2451:
  4215     0B08  3001               	movlw	1
  4216     0B09  2B0B               	goto	u2460
  4217     0B0A                     u2450:
  4218     0B0A  3000               	movlw	0
  4219     0B0B                     u2460:
  4220     0B0B  00FB               	movwf	___fladd@grs
  4221     0B0C  3000               	movlw	0
  4222     0B0D  00F3               	movwf	___fladd@b+3
  4223     0B0E  3000               	movlw	0
  4224     0B0F  00F2               	movwf	___fladd@b+2
  4225     0B10  3000               	movlw	0
  4226     0B11  00F1               	movwf	___fladd@b+1
  4227     0B12  3000               	movlw	0
  4228     0B13  00F0               	movwf	___fladd@b
  4229     0B14  0879               	movf	___fladd@aexp,w
  4230     0B15  00FA               	movwf	___fladd@bexp
  4231     0B16  2B3E               	goto	l459
  4232     0B17                     l461:
  4233     0B17  1C7B               	btfss	___fladd@grs,0
  4234     0B18  2B1A               	goto	u2471
  4235     0B19  2B1B               	goto	u2470
  4236     0B1A                     u2471:
  4237     0B1A  2B24               	goto	l2025
  4238     0B1B                     u2470:
  4239     0B1B                     l2023:
  4240     0B1B  087B               	movf	___fladd@grs,w
  4241     0B1C  1283               	bcf	3,5	;RP0=0, select bank0
  4242     0B1D  1303               	bcf	3,6	;RP1=0, select bank0
  4243     0B1E  00A0               	movwf	??___fladd
  4244     0B1F  1003               	clrc
  4245     0B20  0C20               	rrf	??___fladd,w
  4246     0B21  3801               	iorlw	1
  4247     0B22  00FB               	movwf	___fladd@grs
  4248     0B23  2B26               	goto	l2027
  4249     0B24                     l2025:
  4250     0B24  1003               	clrc
  4251     0B25  0CFB               	rrf	___fladd@grs,f
  4252     0B26                     l2027:
  4253     0B26  1C70               	btfss	___fladd@b,0
  4254     0B27  2B29               	goto	u2481
  4255     0B28  2B2A               	goto	u2480
  4256     0B29                     u2481:
  4257     0B29  2B2B               	goto	l2031
  4258     0B2A                     u2480:
  4259     0B2A                     l2029:
  4260     0B2A  17FB               	bsf	___fladd@grs,7
  4261     0B2B                     l2031:
  4262     0B2B  3001               	movlw	1
  4263     0B2C  1283               	bcf	3,5	;RP0=0, select bank0
  4264     0B2D  1303               	bcf	3,6	;RP1=0, select bank0
  4265     0B2E  00A0               	movwf	??___fladd
  4266     0B2F                     u2495:
  4267     0B2F  0D73               	rlf	___fladd@b+3,w
  4268     0B30  0CF3               	rrf	___fladd@b+3,f
  4269     0B31  0CF2               	rrf	___fladd@b+2,f
  4270     0B32  0CF1               	rrf	___fladd@b+1,f
  4271     0B33  0CF0               	rrf	___fladd@b,f
  4272     0B34  0BA0               	decfsz	??___fladd& (0+127),f
  4273     0B35  2B2F               	goto	u2495
  4274     0B36                     l2033:
  4275     0B36  3001               	movlw	1
  4276     0B37  07FA               	addwf	___fladd@bexp,f
  4277     0B38                     l2035:
  4278     0B38  0879               	movf	___fladd@aexp,w
  4279     0B39  027A               	subwf	___fladd@bexp,w
  4280     0B3A  1C03               	skipc
  4281     0B3B  2B3D               	goto	u2501
  4282     0B3C  2B3E               	goto	u2500
  4283     0B3D                     u2501:
  4284     0B3D  2B17               	goto	l461
  4285     0B3E                     u2500:
  4286     0B3E                     l459:
  4287     0B3E  1B78               	btfsc	___fladd@signs,6
  4288     0B3F  2B41               	goto	u2511
  4289     0B40  2B42               	goto	u2510
  4290     0B41                     u2511:
  4291     0B41  2B8D               	goto	l2061
  4292     0B42                     u2510:
  4293     0B42                     l2037:
  4294     0B42  087A               	movf	___fladd@bexp,w
  4295     0B43  1D03               	btfss	3,2
  4296     0B44  2B46               	goto	u2521
  4297     0B45  2B47               	goto	u2520
  4298     0B46                     u2521:
  4299     0B46  2B50               	goto	l2043
  4300     0B47                     u2520:
  4301     0B47                     l2039:
  4302     0B47  3000               	movlw	0
  4303     0B48  00F3               	movwf	?___fladd+3
  4304     0B49  3000               	movlw	0
  4305     0B4A  00F2               	movwf	?___fladd+2
  4306     0B4B  3000               	movlw	0
  4307     0B4C  00F1               	movwf	?___fladd+1
  4308     0B4D  3000               	movlw	0
  4309     0B4E  00F0               	movwf	?___fladd
  4310     0B4F  2CBD               	goto	l468
  4311     0B50                     l2043:
  4312     0B50  0874               	movf	___fladd@a,w
  4313     0B51  07F0               	addwf	___fladd@b,f
  4314     0B52  0875               	movf	___fladd@a+1,w
  4315     0B53  1103               	clrz
  4316     0B54  1803               	skipnc
  4317     0B55  3E01               	addlw	1
  4318     0B56  1903               	skipnz
  4319     0B57  2B59               	goto	u2531
  4320     0B58  07F1               	addwf	___fladd@b+1,f
  4321     0B59                     u2531:
  4322     0B59  0876               	movf	___fladd@a+2,w
  4323     0B5A  1103               	clrz
  4324     0B5B  1803               	skipnc
  4325     0B5C  3E01               	addlw	1
  4326     0B5D  1903               	skipnz
  4327     0B5E  2B60               	goto	u2532
  4328     0B5F  07F2               	addwf	___fladd@b+2,f
  4329     0B60                     u2532:
  4330     0B60  0877               	movf	___fladd@a+3,w
  4331     0B61  1103               	clrz
  4332     0B62  1803               	skipnc
  4333     0B63  3E01               	addlw	1
  4334     0B64  1903               	skipnz
  4335     0B65  2B67               	goto	u2533
  4336     0B66  07F3               	addwf	___fladd@b+3,f
  4337     0B67                     u2533:
  4338     0B67                     l2045:
  4339     0B67  1C73               	btfss	___fladd@b+3,0
  4340     0B68  2B6A               	goto	u2541
  4341     0B69  2B6B               	goto	u2540
  4342     0B6A                     u2541:
  4343     0B6A  2C45               	goto	l2097
  4344     0B6B                     u2540:
  4345     0B6B                     l2047:
  4346     0B6B  1C7B               	btfss	___fladd@grs,0
  4347     0B6C  2B6E               	goto	u2551
  4348     0B6D  2B6F               	goto	u2550
  4349     0B6E                     u2551:
  4350     0B6E  2B78               	goto	l2051
  4351     0B6F                     u2550:
  4352     0B6F                     l2049:
  4353     0B6F  087B               	movf	___fladd@grs,w
  4354     0B70  1283               	bcf	3,5	;RP0=0, select bank0
  4355     0B71  1303               	bcf	3,6	;RP1=0, select bank0
  4356     0B72  00A0               	movwf	??___fladd
  4357     0B73  1003               	clrc
  4358     0B74  0C20               	rrf	??___fladd,w
  4359     0B75  3801               	iorlw	1
  4360     0B76  00FB               	movwf	___fladd@grs
  4361     0B77  2B7A               	goto	l2053
  4362     0B78                     l2051:
  4363     0B78  1003               	clrc
  4364     0B79  0CFB               	rrf	___fladd@grs,f
  4365     0B7A                     l2053:
  4366     0B7A  1C70               	btfss	___fladd@b,0
  4367     0B7B  2B7D               	goto	u2561
  4368     0B7C  2B7E               	goto	u2560
  4369     0B7D                     u2561:
  4370     0B7D  2B7F               	goto	l2057
  4371     0B7E                     u2560:
  4372     0B7E                     l2055:
  4373     0B7E  17FB               	bsf	___fladd@grs,7
  4374     0B7F                     l2057:
  4375     0B7F  3001               	movlw	1
  4376     0B80  1283               	bcf	3,5	;RP0=0, select bank0
  4377     0B81  1303               	bcf	3,6	;RP1=0, select bank0
  4378     0B82  00A0               	movwf	??___fladd
  4379     0B83                     u2575:
  4380     0B83  0D73               	rlf	___fladd@b+3,w
  4381     0B84  0CF3               	rrf	___fladd@b+3,f
  4382     0B85  0CF2               	rrf	___fladd@b+2,f
  4383     0B86  0CF1               	rrf	___fladd@b+1,f
  4384     0B87  0CF0               	rrf	___fladd@b,f
  4385     0B88  0BA0               	decfsz	??___fladd& (0+127),f
  4386     0B89  2B83               	goto	u2575
  4387     0B8A                     l2059:
  4388     0B8A  3001               	movlw	1
  4389     0B8B  07FA               	addwf	___fladd@bexp,f
  4390     0B8C  2C45               	goto	l2097
  4391     0B8D                     l2061:
  4392     0B8D  0873               	movf	___fladd@b+3,w
  4393     0B8E  3A80               	xorlw	128
  4394     0B8F  00FF               	movwf	btemp+1
  4395     0B90  0877               	movf	___fladd@a+3,w
  4396     0B91  3A80               	xorlw	128
  4397     0B92  027F               	subwf	btemp+1,w
  4398     0B93  1D03               	skipz
  4399     0B94  2B9F               	goto	u2583
  4400     0B95  0876               	movf	___fladd@a+2,w
  4401     0B96  0272               	subwf	___fladd@b+2,w
  4402     0B97  1D03               	skipz
  4403     0B98  2B9F               	goto	u2583
  4404     0B99  0875               	movf	___fladd@a+1,w
  4405     0B9A  0271               	subwf	___fladd@b+1,w
  4406     0B9B  1D03               	skipz
  4407     0B9C  2B9F               	goto	u2583
  4408     0B9D  0874               	movf	___fladd@a,w
  4409     0B9E  0270               	subwf	___fladd@b,w
  4410     0B9F                     u2583:
  4411     0B9F  1803               	skipnc
  4412     0BA0  2BA2               	goto	u2581
  4413     0BA1  2BA3               	goto	u2580
  4414     0BA2                     u2581:
  4415     0BA2  2BFC               	goto	l2073
  4416     0BA3                     u2580:
  4417     0BA3                     l2063:
  4418     0BA3  30FF               	movlw	255
  4419     0BA4  1283               	bcf	3,5	;RP0=0, select bank0
  4420     0BA5  1303               	bcf	3,6	;RP1=0, select bank0
  4421     0BA6  00A0               	movwf	??___fladd
  4422     0BA7  30FF               	movlw	255
  4423     0BA8  00A1               	movwf	??___fladd+1
  4424     0BA9  30FF               	movlw	255
  4425     0BAA  00A2               	movwf	??___fladd+2
  4426     0BAB  30FF               	movlw	255
  4427     0BAC  00A3               	movwf	??___fladd+3
  4428     0BAD  0874               	movf	___fladd@a,w
  4429     0BAE  00A4               	movwf	??___fladd+4
  4430     0BAF  0875               	movf	___fladd@a+1,w
  4431     0BB0  00A5               	movwf	??___fladd+5
  4432     0BB1  0876               	movf	___fladd@a+2,w
  4433     0BB2  00A6               	movwf	??___fladd+6
  4434     0BB3  0877               	movf	___fladd@a+3,w
  4435     0BB4  00A7               	movwf	??___fladd+7
  4436     0BB5  0870               	movf	___fladd@b,w
  4437     0BB6  02A4               	subwf	??___fladd+4,f
  4438     0BB7  0871               	movf	___fladd@b+1,w
  4439     0BB8  1C03               	skipc
  4440     0BB9  0F71               	incfsz	___fladd@b+1,w
  4441     0BBA  2BBC               	goto	u2591
  4442     0BBB  2BBD               	goto	u2592
  4443     0BBC                     u2591:
  4444     0BBC  02A5               	subwf	??___fladd+5,f
  4445     0BBD                     u2592:
  4446     0BBD  0872               	movf	___fladd@b+2,w
  4447     0BBE  1C03               	skipc
  4448     0BBF  0F72               	incfsz	___fladd@b+2,w
  4449     0BC0  2BC2               	goto	u2593
  4450     0BC1  2BC3               	goto	u2594
  4451     0BC2                     u2593:
  4452     0BC2  02A6               	subwf	??___fladd+6,f
  4453     0BC3                     u2594:
  4454     0BC3  0873               	movf	___fladd@b+3,w
  4455     0BC4  1C03               	skipc
  4456     0BC5  0F73               	incfsz	___fladd@b+3,w
  4457     0BC6  2BC8               	goto	u2595
  4458     0BC7  2BC9               	goto	u2596
  4459     0BC8                     u2595:
  4460     0BC8  02A7               	subwf	??___fladd+7,f
  4461     0BC9                     u2596:
  4462     0BC9  0824               	movf	??___fladd+4,w
  4463     0BCA  07A0               	addwf	??___fladd,f
  4464     0BCB  0825               	movf	??___fladd+5,w
  4465     0BCC  1803               	skipnc
  4466     0BCD  0F25               	incfsz	??___fladd+5,w
  4467     0BCE  2BD0               	goto	u2600
  4468     0BCF  2BD1               	goto	u2601
  4469     0BD0                     u2600:
  4470     0BD0  07A1               	addwf	??___fladd+1,f
  4471     0BD1                     u2601:
  4472     0BD1  0826               	movf	??___fladd+6,w
  4473     0BD2  1803               	skipnc
  4474     0BD3  0F26               	incfsz	??___fladd+6,w
  4475     0BD4  2BD6               	goto	u2602
  4476     0BD5  2BD7               	goto	u2603
  4477     0BD6                     u2602:
  4478     0BD6  07A2               	addwf	??___fladd+2,f
  4479     0BD7                     u2603:
  4480     0BD7  0827               	movf	??___fladd+7,w
  4481     0BD8  1803               	skipnc
  4482     0BD9  0A27               	incf	??___fladd+7,w
  4483     0BDA  07A3               	addwf	??___fladd+3,f
  4484     0BDB  0823               	movf	??___fladd+3,w
  4485     0BDC  00F3               	movwf	___fladd@b+3
  4486     0BDD  0822               	movf	??___fladd+2,w
  4487     0BDE  00F2               	movwf	___fladd@b+2
  4488     0BDF  0821               	movf	??___fladd+1,w
  4489     0BE0  00F1               	movwf	___fladd@b+1
  4490     0BE1  0820               	movf	??___fladd,w
  4491     0BE2  00F0               	movwf	___fladd@b
  4492     0BE3                     l2065:
  4493     0BE3  3080               	movlw	128
  4494     0BE4  06F8               	xorwf	___fladd@signs,f
  4495     0BE5                     l2067:
  4496     0BE5  037B               	decf	___fladd@grs,w
  4497     0BE6  3AFF               	xorlw	255
  4498     0BE7  00FB               	movwf	___fladd@grs
  4499     0BE8                     l2069:
  4500     0BE8  087B               	movf	___fladd@grs,w
  4501     0BE9  1D03               	btfss	3,2
  4502     0BEA  2BEC               	goto	u2611
  4503     0BEB  2BED               	goto	u2610
  4504     0BEC                     u2611:
  4505     0BEC  2C0A               	goto	l476
  4506     0BED                     u2610:
  4507     0BED                     l2071:
  4508     0BED  3001               	movlw	1
  4509     0BEE  07F0               	addwf	___fladd@b,f
  4510     0BEF  3000               	movlw	0
  4511     0BF0  1803               	skipnc
  4512     0BF1  3001               	movlw	1
  4513     0BF2  07F1               	addwf	___fladd@b+1,f
  4514     0BF3  3000               	movlw	0
  4515     0BF4  1803               	skipnc
  4516     0BF5  3001               	movlw	1
  4517     0BF6  07F2               	addwf	___fladd@b+2,f
  4518     0BF7  3000               	movlw	0
  4519     0BF8  1803               	skipnc
  4520     0BF9  3001               	movlw	1
  4521     0BFA  07F3               	addwf	___fladd@b+3,f
  4522     0BFB  2C0A               	goto	l476
  4523     0BFC                     l2073:
  4524     0BFC  0874               	movf	___fladd@a,w
  4525     0BFD  02F0               	subwf	___fladd@b,f
  4526     0BFE  0875               	movf	___fladd@a+1,w
  4527     0BFF  1C03               	skipc
  4528     0C00  0F75               	incfsz	___fladd@a+1,w
  4529     0C01  02F1               	subwf	___fladd@b+1,f
  4530     0C02  0876               	movf	___fladd@a+2,w
  4531     0C03  1C03               	skipc
  4532     0C04  0F76               	incfsz	___fladd@a+2,w
  4533     0C05  02F2               	subwf	___fladd@b+2,f
  4534     0C06  0877               	movf	___fladd@a+3,w
  4535     0C07  1C03               	skipc
  4536     0C08  0F77               	incfsz	___fladd@a+3,w
  4537     0C09  02F3               	subwf	___fladd@b+3,f
  4538     0C0A                     l476:
  4539     0C0A  0873               	movf	___fladd@b+3,w
  4540     0C0B  0472               	iorwf	___fladd@b+2,w
  4541     0C0C  0471               	iorwf	___fladd@b+1,w
  4542     0C0D  0470               	iorwf	___fladd@b,w
  4543     0C0E  1D03               	skipz
  4544     0C0F  2C11               	goto	u2621
  4545     0C10  2C12               	goto	u2620
  4546     0C11                     u2621:
  4547     0C11  2C41               	goto	l2095
  4548     0C12                     u2620:
  4549     0C12                     l2075:
  4550     0C12  087B               	movf	___fladd@grs,w
  4551     0C13  1D03               	btfss	3,2
  4552     0C14  2C16               	goto	u2631
  4553     0C15  2C17               	goto	u2630
  4554     0C16                     u2631:
  4555     0C16  2C41               	goto	l2095
  4556     0C17                     u2630:
  4557     0C17                     l2077:
  4558     0C17  3000               	movlw	0
  4559     0C18  00F3               	movwf	?___fladd+3
  4560     0C19  3000               	movlw	0
  4561     0C1A  00F2               	movwf	?___fladd+2
  4562     0C1B  3000               	movlw	0
  4563     0C1C  00F1               	movwf	?___fladd+1
  4564     0C1D  3000               	movlw	0
  4565     0C1E  00F0               	movwf	?___fladd
  4566     0C1F  2CBD               	goto	l468
  4567     0C20                     l2081:
  4568     0C20  3001               	movlw	1
  4569     0C21  1283               	bcf	3,5	;RP0=0, select bank0
  4570     0C22  1303               	bcf	3,6	;RP1=0, select bank0
  4571     0C23  00A0               	movwf	??___fladd
  4572     0C24                     u2645:
  4573     0C24  1003               	clrc
  4574     0C25  0DF0               	rlf	___fladd@b,f
  4575     0C26  0DF1               	rlf	___fladd@b+1,f
  4576     0C27  0DF2               	rlf	___fladd@b+2,f
  4577     0C28  0DF3               	rlf	___fladd@b+3,f
  4578     0C29  0BA0               	decfsz	??___fladd,f
  4579     0C2A  2C24               	goto	u2645
  4580     0C2B                     l2083:
  4581     0C2B  1FFB               	btfss	___fladd@grs,7
  4582     0C2C  2C2E               	goto	u2651
  4583     0C2D  2C2F               	goto	u2650
  4584     0C2E                     u2651:
  4585     0C2E  2C30               	goto	l480
  4586     0C2F                     u2650:
  4587     0C2F                     l2085:
  4588     0C2F  1470               	bsf	___fladd@b,0
  4589     0C30                     l480:
  4590     0C30  1C7B               	btfss	___fladd@grs,0
  4591     0C31  2C33               	goto	u2661
  4592     0C32  2C34               	goto	u2660
  4593     0C33                     u2661:
  4594     0C33  2C38               	goto	l2089
  4595     0C34                     u2660:
  4596     0C34                     l2087:
  4597     0C34  1403               	setc
  4598     0C35  0D7B               	rlf	___fladd@grs,w
  4599     0C36  00FB               	movwf	___fladd@grs
  4600     0C37  2C3A               	goto	l2091
  4601     0C38                     l2089:
  4602     0C38  1003               	clrc
  4603     0C39  0DFB               	rlf	___fladd@grs,f
  4604     0C3A                     l2091:
  4605     0C3A  087A               	movf	___fladd@bexp,w
  4606     0C3B  1903               	btfsc	3,2
  4607     0C3C  2C3E               	goto	u2671
  4608     0C3D  2C3F               	goto	u2670
  4609     0C3E                     u2671:
  4610     0C3E  2C41               	goto	l2095
  4611     0C3F                     u2670:
  4612     0C3F                     l2093:
  4613     0C3F  3001               	movlw	1
  4614     0C40  02FA               	subwf	___fladd@bexp,f
  4615     0C41                     l2095:
  4616     0C41  1FF2               	btfss	___fladd@b+2,7
  4617     0C42  2C44               	goto	u2681
  4618     0C43  2C45               	goto	u2680
  4619     0C44                     u2681:
  4620     0C44  2C20               	goto	l2081
  4621     0C45                     u2680:
  4622     0C45                     l2097:
  4623     0C45  01F9               	clrf	___fladd@aexp
  4624     0C46                     l2099:
  4625     0C46  1FFB               	btfss	___fladd@grs,7
  4626     0C47  2C49               	goto	u2691
  4627     0C48  2C4A               	goto	u2690
  4628     0C49                     u2691:
  4629     0C49  2C58               	goto	l2107
  4630     0C4A                     u2690:
  4631     0C4A                     l2101:
  4632     0C4A  087B               	movf	___fladd@grs,w
  4633     0C4B  397F               	andlw	127
  4634     0C4C  1903               	btfsc	3,2
  4635     0C4D  2C4F               	goto	u2701
  4636     0C4E  2C50               	goto	u2700
  4637     0C4F                     u2701:
  4638     0C4F  2C53               	goto	l486
  4639     0C50                     u2700:
  4640     0C50                     l2103:
  4641     0C50  3001               	movlw	1
  4642     0C51  00F9               	movwf	___fladd@aexp
  4643     0C52  2C58               	goto	l2107
  4644     0C53                     l486:
  4645     0C53  1C70               	btfss	___fladd@b,0
  4646     0C54  2C56               	goto	u2711
  4647     0C55  2C57               	goto	u2710
  4648     0C56                     u2711:
  4649     0C56  2C58               	goto	l2107
  4650     0C57                     u2710:
  4651     0C57  2C50               	goto	l2103
  4652     0C58                     l2107:
  4653     0C58  0879               	movf	___fladd@aexp,w
  4654     0C59  1903               	btfsc	3,2
  4655     0C5A  2C5C               	goto	u2721
  4656     0C5B  2C5D               	goto	u2720
  4657     0C5C                     u2721:
  4658     0C5C  2C91               	goto	l489
  4659     0C5D                     u2720:
  4660     0C5D                     l2109:
  4661     0C5D  3001               	movlw	1
  4662     0C5E  07F0               	addwf	___fladd@b,f
  4663     0C5F  3000               	movlw	0
  4664     0C60  1803               	skipnc
  4665     0C61  3001               	movlw	1
  4666     0C62  07F1               	addwf	___fladd@b+1,f
  4667     0C63  3000               	movlw	0
  4668     0C64  1803               	skipnc
  4669     0C65  3001               	movlw	1
  4670     0C66  07F2               	addwf	___fladd@b+2,f
  4671     0C67  3000               	movlw	0
  4672     0C68  1803               	skipnc
  4673     0C69  3001               	movlw	1
  4674     0C6A  07F3               	addwf	___fladd@b+3,f
  4675     0C6B                     l2111:
  4676     0C6B  1C73               	btfss	___fladd@b+3,0
  4677     0C6C  2C6E               	goto	u2731
  4678     0C6D  2C6F               	goto	u2730
  4679     0C6E                     u2731:
  4680     0C6E  2C91               	goto	l489
  4681     0C6F                     u2730:
  4682     0C6F                     l2113:
  4683     0C6F  0870               	movf	___fladd@b,w
  4684     0C70  1283               	bcf	3,5	;RP0=0, select bank0
  4685     0C71  1303               	bcf	3,6	;RP1=0, select bank0
  4686     0C72  00A0               	movwf	??___fladd
  4687     0C73  0871               	movf	___fladd@b+1,w
  4688     0C74  00A1               	movwf	??___fladd+1
  4689     0C75  0872               	movf	___fladd@b+2,w
  4690     0C76  00A2               	movwf	??___fladd+2
  4691     0C77  0873               	movf	___fladd@b+3,w
  4692     0C78  00A3               	movwf	??___fladd+3
  4693     0C79  3001               	movlw	1
  4694     0C7A  00A4               	movwf	??___fladd+4
  4695     0C7B                     u2745:
  4696     0C7B  0D23               	rlf	??___fladd+3,w
  4697     0C7C  0CA3               	rrf	??___fladd+3,f
  4698     0C7D  0CA2               	rrf	??___fladd+2,f
  4699     0C7E  0CA1               	rrf	??___fladd+1,f
  4700     0C7F  0CA0               	rrf	??___fladd,f
  4701     0C80                     u2740:
  4702     0C80  0BA4               	decfsz	??___fladd+4,f
  4703     0C81  2C7B               	goto	u2745
  4704     0C82  0823               	movf	??___fladd+3,w
  4705     0C83  00F3               	movwf	___fladd@b+3
  4706     0C84  0822               	movf	??___fladd+2,w
  4707     0C85  00F2               	movwf	___fladd@b+2
  4708     0C86  0821               	movf	??___fladd+1,w
  4709     0C87  00F1               	movwf	___fladd@b+1
  4710     0C88  0820               	movf	??___fladd,w
  4711     0C89  00F0               	movwf	___fladd@b
  4712     0C8A  0A7A               	incf	___fladd@bexp,w
  4713     0C8B  1903               	btfsc	3,2
  4714     0C8C  2C8E               	goto	u2751
  4715     0C8D  2C8F               	goto	u2750
  4716     0C8E                     u2751:
  4717     0C8E  2C91               	goto	l489
  4718     0C8F                     u2750:
  4719     0C8F                     l2115:
  4720     0C8F  3001               	movlw	1
  4721     0C90  07FA               	addwf	___fladd@bexp,f
  4722     0C91                     l489:
  4723     0C91  0A7A               	incf	___fladd@bexp,w
  4724     0C92  1903               	btfsc	3,2
  4725     0C93  2C95               	goto	u2761
  4726     0C94  2C96               	goto	u2760
  4727     0C95                     u2761:
  4728     0C95  2C9B               	goto	l2119
  4729     0C96                     u2760:
  4730     0C96                     l2117:
  4731     0C96  087A               	movf	___fladd@bexp,w
  4732     0C97  1D03               	btfss	3,2
  4733     0C98  2C9A               	goto	u2771
  4734     0C99  2C9B               	goto	u2770
  4735     0C9A                     u2771:
  4736     0C9A  2CA9               	goto	l2125
  4737     0C9B                     u2770:
  4738     0C9B                     l2119:
  4739     0C9B  3000               	movlw	0
  4740     0C9C  00F3               	movwf	___fladd@b+3
  4741     0C9D  3000               	movlw	0
  4742     0C9E  00F2               	movwf	___fladd@b+2
  4743     0C9F  3000               	movlw	0
  4744     0CA0  00F1               	movwf	___fladd@b+1
  4745     0CA1  3000               	movlw	0
  4746     0CA2  00F0               	movwf	___fladd@b
  4747     0CA3                     l2121:
  4748     0CA3  087A               	movf	___fladd@bexp,w
  4749     0CA4  1D03               	btfss	3,2
  4750     0CA5  2CA7               	goto	u2781
  4751     0CA6  2CA8               	goto	u2780
  4752     0CA7                     u2781:
  4753     0CA7  2CA9               	goto	l2125
  4754     0CA8                     u2780:
  4755     0CA8                     l2123:
  4756     0CA8  01F8               	clrf	___fladd@signs
  4757     0CA9                     l2125:
  4758     0CA9  1C7A               	btfss	___fladd@bexp,0
  4759     0CAA  2CAC               	goto	u2791
  4760     0CAB  2CAD               	goto	u2790
  4761     0CAC                     u2791:
  4762     0CAC  2CAF               	goto	l2129
  4763     0CAD                     u2790:
  4764     0CAD                     l2127:
  4765     0CAD  17F2               	bsf	___fladd@b+2,7
  4766     0CAE  2CB1               	goto	l497
  4767     0CAF                     l2129:
  4768     0CAF  307F               	movlw	127
  4769     0CB0  05F2               	andwf	___fladd@b+2,f
  4770     0CB1                     l497:
  4771     0CB1  087A               	movf	___fladd@bexp,w
  4772     0CB2  1283               	bcf	3,5	;RP0=0, select bank0
  4773     0CB3  1303               	bcf	3,6	;RP1=0, select bank0
  4774     0CB4  00A0               	movwf	??___fladd
  4775     0CB5  1003               	clrc
  4776     0CB6  0C20               	rrf	??___fladd,w
  4777     0CB7  00F3               	movwf	___fladd@b+3
  4778     0CB8                     l2131:
  4779     0CB8  1FF8               	btfss	___fladd@signs,7
  4780     0CB9  2CBB               	goto	u2801
  4781     0CBA  2CBC               	goto	u2800
  4782     0CBB                     u2801:
  4783     0CBB  2CBD               	goto	l498
  4784     0CBC                     u2800:
  4785     0CBC                     l2133:
  4786     0CBC  17F3               	bsf	___fladd@b+3,7
  4787     0CBD                     l498:
  4788     0CBD                     l468:
  4789     0CBD  0008               	return
  4790     0CBE                     __end_of___fladd:
  4791                           
  4792                           	psect	text19
  4793     0007                     __ptext19:	
  4794 ;; *************** function ___flneg *****************
  4795 ;; Defined at:
  4796 ;;		line 15 in file "C:\Program Files\Microchip\xc8\v2.50\pic\sources\c99\common\flneg.c"
  4797 ;; Parameters:    Size  Location     Type
  4798 ;;  f1              4    0[COMMON] unsigned char 
  4799 ;; Auto vars:     Size  Location     Type
  4800 ;;		None
  4801 ;; Return value:  Size  Location     Type
  4802 ;;                  4    0[COMMON] unsigned char 
  4803 ;; Registers used:
  4804 ;;		wreg
  4805 ;; Tracked objects:
  4806 ;;		On entry : 0/0
  4807 ;;		On exit  : 0/0
  4808 ;;		Unchanged: 0/0
  4809 ;; Data sizes:     COMMON   BANK0   BANK1   BANK3   BANK2
  4810 ;;      Params:         4       0       0       0       0
  4811 ;;      Locals:         0       0       0       0       0
  4812 ;;      Temps:          0       0       0       0       0
  4813 ;;      Totals:         4       0       0       0       0
  4814 ;;Total ram usage:        4 bytes
  4815 ;; Hardware stack levels used: 1
  4816 ;; This function calls:
  4817 ;;		Nothing
  4818 ;; This function is called by:
  4819 ;;		_efgtoa
  4820 ;; This function uses a non-reentrant model
  4821 ;;
  4822                           
  4823     0007                     ___flneg:	
  4824                           ;psect for function ___flneg
  4825                           
  4826     0007                     l2203:	
  4827                           ;incstack = 0
  4828                           ; Regs used in ___flneg: [wreg]
  4829                           
  4830     0007  0873               	movf	___flneg@f1+3,w
  4831     0008  0472               	iorwf	___flneg@f1+2,w
  4832     0009  0471               	iorwf	___flneg@f1+1,w
  4833     000A  0470               	iorwf	___flneg@f1,w
  4834     000B  1903               	skipnz
  4835     000C  280E               	goto	u2991
  4836     000D  280F               	goto	u2990
  4837     000E                     u2991:
  4838     000E  2811               	goto	l2207
  4839     000F                     u2990:
  4840     000F                     l2205:
  4841     000F  3080               	movlw	128
  4842     0010  06F3               	xorwf	___flneg@f1+3,f
  4843     0011                     l2207:
  4844     0011                     l344:
  4845     0011  0008               	return
  4846     0012                     __end_of___flneg:
  4847                           
  4848                           	psect	text20
  4849     0CBE                     __ptext20:	
  4850 ;; *************** function ___flmul *****************
  4851 ;; Defined at:
  4852 ;;		line 8 in file "C:\Program Files\Microchip\xc8\v2.50\pic\sources\c99\common\sprcmul.c"
  4853 ;; Parameters:    Size  Location     Type
  4854 ;;  b               4    0[BANK0 ] unsigned char 
  4855 ;;  a               4    4[BANK0 ] unsigned char 
  4856 ;; Auto vars:     Size  Location     Type
  4857 ;;  prod            4   20[BANK0 ] struct .
  4858 ;;  grs             4   14[BANK0 ] unsigned long 
  4859 ;;  temp            2   24[BANK0 ] struct .
  4860 ;;  bexp            1   19[BANK0 ] unsigned char 
  4861 ;;  aexp            1   18[BANK0 ] unsigned char 
  4862 ;;  sign            1   13[BANK0 ] unsigned char 
  4863 ;; Return value:  Size  Location     Type
  4864 ;;                  4    0[BANK0 ] unsigned char 
  4865 ;; Registers used:
  4866 ;;		wreg, status,2, status,0, btemp+1, pclath, cstack
  4867 ;; Tracked objects:
  4868 ;;		On entry : 0/0
  4869 ;;		On exit  : 0/0
  4870 ;;		Unchanged: 0/0
  4871 ;; Data sizes:     COMMON   BANK0   BANK1   BANK3   BANK2
  4872 ;;      Params:         0       8       0       0       0
  4873 ;;      Locals:         0      13       0       0       0
  4874 ;;      Temps:          0       5       0       0       0
  4875 ;;      Totals:         0      26       0       0       0
  4876 ;;Total ram usage:       26 bytes
  4877 ;; Hardware stack levels used: 1
  4878 ;; Hardware stack levels required when called: 1
  4879 ;; This function calls:
  4880 ;;		__Umul8_16
  4881 ;; This function is called by:
  4882 ;;		_main
  4883 ;;		_efgtoa
  4884 ;; This function uses a non-reentrant model
  4885 ;;
  4886                           
  4887     0CBE                     ___flmul:	
  4888                           ;psect for function ___flmul
  4889                           
  4890     0CBE                     l2397:	
  4891                           ;incstack = 0
  4892                           ; Regs used in ___flmul: [wreg+status,2+status,0+btemp+1+pclath+cstack]
  4893                           
  4894     0CBE  1283               	bcf	3,5	;RP0=0, select bank0
  4895     0CBF  1303               	bcf	3,6	;RP1=0, select bank0
  4896     0CC0  0823               	movf	___flmul@b+3,w
  4897     0CC1  00AD               	movwf	___flmul@sign
  4898     0CC2                     l2399:
  4899     0CC2  3080               	movlw	128
  4900     0CC3  05AD               	andwf	___flmul@sign,f
  4901     0CC4                     l2401:
  4902     0CC4  0823               	movf	___flmul@b+3,w
  4903     0CC5  00A8               	movwf	??___flmul
  4904     0CC6  0728               	addwf	??___flmul,w
  4905     0CC7  00B3               	movwf	___flmul@bexp
  4906     0CC8                     l2403:
  4907     0CC8  1FA2               	btfss	___flmul@b+2,7
  4908     0CC9  2CCB               	goto	u3391
  4909     0CCA  2CCC               	goto	u3390
  4910     0CCB                     u3391:
  4911     0CCB  2CCD               	goto	l2407
  4912     0CCC                     u3390:
  4913     0CCC                     l2405:
  4914     0CCC  1433               	bsf	___flmul@bexp,0
  4915     0CCD                     l2407:
  4916     0CCD  0833               	movf	___flmul@bexp,w
  4917     0CCE  1903               	btfsc	3,2
  4918     0CCF  2CD1               	goto	u3401
  4919     0CD0  2CD2               	goto	u3400
  4920     0CD1                     u3401:
  4921     0CD1  2CE1               	goto	l2415
  4922     0CD2                     u3400:
  4923     0CD2                     l2409:
  4924     0CD2  0A33               	incf	___flmul@bexp,w
  4925     0CD3  1D03               	btfss	3,2
  4926     0CD4  2CD6               	goto	u3411
  4927     0CD5  2CD7               	goto	u3410
  4928     0CD6                     u3411:
  4929     0CD6  2CDF               	goto	l2413
  4930     0CD7                     u3410:
  4931     0CD7                     l2411:
  4932     0CD7  3000               	movlw	0
  4933     0CD8  00A3               	movwf	___flmul@b+3
  4934     0CD9  3000               	movlw	0
  4935     0CDA  00A2               	movwf	___flmul@b+2
  4936     0CDB  3000               	movlw	0
  4937     0CDC  00A1               	movwf	___flmul@b+1
  4938     0CDD  3000               	movlw	0
  4939     0CDE  00A0               	movwf	___flmul@b
  4940     0CDF                     l2413:
  4941     0CDF  17A2               	bsf	___flmul@b+2,7
  4942     0CE0  2CE9               	goto	l2417
  4943     0CE1                     l2415:
  4944     0CE1  3000               	movlw	0
  4945     0CE2  00A3               	movwf	___flmul@b+3
  4946     0CE3  3000               	movlw	0
  4947     0CE4  00A2               	movwf	___flmul@b+2
  4948     0CE5  3000               	movlw	0
  4949     0CE6  00A1               	movwf	___flmul@b+1
  4950     0CE7  3000               	movlw	0
  4951     0CE8  00A0               	movwf	___flmul@b
  4952     0CE9                     l2417:
  4953     0CE9  0827               	movf	___flmul@a+3,w
  4954     0CEA  3980               	andlw	128
  4955     0CEB  06AD               	xorwf	___flmul@sign,f
  4956     0CEC                     l2419:
  4957     0CEC  0827               	movf	___flmul@a+3,w
  4958     0CED  00A8               	movwf	??___flmul
  4959     0CEE  0728               	addwf	??___flmul,w
  4960     0CEF  00B2               	movwf	___flmul@aexp
  4961     0CF0                     l2421:
  4962     0CF0  1FA6               	btfss	___flmul@a+2,7
  4963     0CF1  2CF3               	goto	u3421
  4964     0CF2  2CF4               	goto	u3420
  4965     0CF3                     u3421:
  4966     0CF3  2CF5               	goto	l2425
  4967     0CF4                     u3420:
  4968     0CF4                     l2423:
  4969     0CF4  1432               	bsf	___flmul@aexp,0
  4970     0CF5                     l2425:
  4971     0CF5  0832               	movf	___flmul@aexp,w
  4972     0CF6  1903               	btfsc	3,2
  4973     0CF7  2CF9               	goto	u3431
  4974     0CF8  2CFA               	goto	u3430
  4975     0CF9                     u3431:
  4976     0CF9  2D09               	goto	l2433
  4977     0CFA                     u3430:
  4978     0CFA                     l2427:
  4979     0CFA  0A32               	incf	___flmul@aexp,w
  4980     0CFB  1D03               	btfss	3,2
  4981     0CFC  2CFE               	goto	u3441
  4982     0CFD  2CFF               	goto	u3440
  4983     0CFE                     u3441:
  4984     0CFE  2D07               	goto	l2431
  4985     0CFF                     u3440:
  4986     0CFF                     l2429:
  4987     0CFF  3000               	movlw	0
  4988     0D00  00A7               	movwf	___flmul@a+3
  4989     0D01  3000               	movlw	0
  4990     0D02  00A6               	movwf	___flmul@a+2
  4991     0D03  3000               	movlw	0
  4992     0D04  00A5               	movwf	___flmul@a+1
  4993     0D05  3000               	movlw	0
  4994     0D06  00A4               	movwf	___flmul@a
  4995     0D07                     l2431:
  4996     0D07  17A6               	bsf	___flmul@a+2,7
  4997     0D08  2D11               	goto	l2435
  4998     0D09                     l2433:
  4999     0D09  3000               	movlw	0
  5000     0D0A  00A7               	movwf	___flmul@a+3
  5001     0D0B  3000               	movlw	0
  5002     0D0C  00A6               	movwf	___flmul@a+2
  5003     0D0D  3000               	movlw	0
  5004     0D0E  00A5               	movwf	___flmul@a+1
  5005     0D0F  3000               	movlw	0
  5006     0D10  00A4               	movwf	___flmul@a
  5007     0D11                     l2435:
  5008     0D11  0832               	movf	___flmul@aexp,w
  5009     0D12  1903               	btfsc	3,2
  5010     0D13  2D15               	goto	u3451
  5011     0D14  2D16               	goto	u3450
  5012     0D15                     u3451:
  5013     0D15  2D1B               	goto	l2439
  5014     0D16                     u3450:
  5015     0D16                     l2437:
  5016     0D16  0833               	movf	___flmul@bexp,w
  5017     0D17  1D03               	btfss	3,2
  5018     0D18  2D1A               	goto	u3461
  5019     0D19  2D1B               	goto	u3460
  5020     0D1A                     u3461:
  5021     0D1A  2D24               	goto	l2443
  5022     0D1B                     u3460:
  5023     0D1B                     l2439:
  5024     0D1B  3000               	movlw	0
  5025     0D1C  00A3               	movwf	?___flmul+3
  5026     0D1D  3000               	movlw	0
  5027     0D1E  00A2               	movwf	?___flmul+2
  5028     0D1F  3000               	movlw	0
  5029     0D20  00A1               	movwf	?___flmul+1
  5030     0D21  3000               	movlw	0
  5031     0D22  00A0               	movwf	?___flmul
  5032     0D23  2FFF               	goto	l551
  5033     0D24                     l2443:
  5034     0D24  0820               	movf	___flmul@b,w
  5035     0D25  00F0               	movwf	__Umul8_16@multiplicand
  5036     0D26  0826               	movf	___flmul@a+2,w
  5037     0D27  160A  118A  20E5  120A  158A  	fcall	__Umul8_16
  5038     0D2C  0871               	movf	?__Umul8_16+1,w
  5039     0D2D  1283               	bcf	3,5	;RP0=0, select bank0
  5040     0D2E  1303               	bcf	3,6	;RP1=0, select bank0
  5041     0D2F  00B9               	movwf	___flmul@temp+1
  5042     0D30  0870               	movf	?__Umul8_16,w
  5043     0D31  00B8               	movwf	___flmul@temp
  5044     0D32                     l2445:
  5045     0D32  0838               	movf	___flmul@temp,w
  5046     0D33  00A8               	movwf	??___flmul
  5047     0D34  01A9               	clrf	??___flmul+1
  5048     0D35  01AA               	clrf	??___flmul+2
  5049     0D36  01AB               	clrf	??___flmul+3
  5050     0D37  082B               	movf	??___flmul+3,w
  5051     0D38  00B1               	movwf	___flmul@grs+3
  5052     0D39  082A               	movf	??___flmul+2,w
  5053     0D3A  00B0               	movwf	___flmul@grs+2
  5054     0D3B  0829               	movf	??___flmul+1,w
  5055     0D3C  00AF               	movwf	___flmul@grs+1
  5056     0D3D  0828               	movf	??___flmul,w
  5057     0D3E  00AE               	movwf	___flmul@grs
  5058     0D3F                     l2447:
  5059     0D3F  0839               	movf	___flmul@temp+1,w
  5060     0D40  00A8               	movwf	??___flmul
  5061     0D41  01A9               	clrf	??___flmul+1
  5062     0D42  01AA               	clrf	??___flmul+2
  5063     0D43  01AB               	clrf	??___flmul+3
  5064     0D44  082B               	movf	??___flmul+3,w
  5065     0D45  00B7               	movwf	___flmul@prod+3
  5066     0D46  082A               	movf	??___flmul+2,w
  5067     0D47  00B6               	movwf	___flmul@prod+2
  5068     0D48  0829               	movf	??___flmul+1,w
  5069     0D49  00B5               	movwf	___flmul@prod+1
  5070     0D4A  0828               	movf	??___flmul,w
  5071     0D4B  00B4               	movwf	___flmul@prod
  5072     0D4C  0821               	movf	___flmul@b+1,w
  5073     0D4D  00F0               	movwf	__Umul8_16@multiplicand
  5074     0D4E  0825               	movf	___flmul@a+1,w
  5075     0D4F  160A  118A  20E5  120A  158A  	fcall	__Umul8_16
  5076     0D54  0871               	movf	?__Umul8_16+1,w
  5077     0D55  1283               	bcf	3,5	;RP0=0, select bank0
  5078     0D56  1303               	bcf	3,6	;RP1=0, select bank0
  5079     0D57  00B9               	movwf	___flmul@temp+1
  5080     0D58  0870               	movf	?__Umul8_16,w
  5081     0D59  00B8               	movwf	___flmul@temp
  5082     0D5A                     l2449:
  5083     0D5A  0838               	movf	___flmul@temp,w
  5084     0D5B  00A8               	movwf	??___flmul
  5085     0D5C  01A9               	clrf	??___flmul+1
  5086     0D5D  01AA               	clrf	??___flmul+2
  5087     0D5E  01AB               	clrf	??___flmul+3
  5088     0D5F  0828               	movf	??___flmul,w
  5089     0D60  07AE               	addwf	___flmul@grs,f
  5090     0D61  0829               	movf	??___flmul+1,w
  5091     0D62  1103               	clrz
  5092     0D63  1803               	skipnc
  5093     0D64  3E01               	addlw	1
  5094     0D65  1903               	skipnz
  5095     0D66  2D68               	goto	u3471
  5096     0D67  07AF               	addwf	___flmul@grs+1,f
  5097     0D68                     u3471:
  5098     0D68  082A               	movf	??___flmul+2,w
  5099     0D69  1103               	clrz
  5100     0D6A  1803               	skipnc
  5101     0D6B  3E01               	addlw	1
  5102     0D6C  1903               	skipnz
  5103     0D6D  2D6F               	goto	u3472
  5104     0D6E  07B0               	addwf	___flmul@grs+2,f
  5105     0D6F                     u3472:
  5106     0D6F  082B               	movf	??___flmul+3,w
  5107     0D70  1103               	clrz
  5108     0D71  1803               	skipnc
  5109     0D72  3E01               	addlw	1
  5110     0D73  1903               	skipnz
  5111     0D74  2D76               	goto	u3473
  5112     0D75  07B1               	addwf	___flmul@grs+3,f
  5113     0D76                     u3473:
  5114     0D76                     l2451:
  5115     0D76  0839               	movf	___flmul@temp+1,w
  5116     0D77  00A8               	movwf	??___flmul
  5117     0D78  01A9               	clrf	??___flmul+1
  5118     0D79  01AA               	clrf	??___flmul+2
  5119     0D7A  01AB               	clrf	??___flmul+3
  5120     0D7B  0828               	movf	??___flmul,w
  5121     0D7C  07B4               	addwf	___flmul@prod,f
  5122     0D7D  0829               	movf	??___flmul+1,w
  5123     0D7E  1103               	clrz
  5124     0D7F  1803               	skipnc
  5125     0D80  3E01               	addlw	1
  5126     0D81  1903               	skipnz
  5127     0D82  2D84               	goto	u3481
  5128     0D83  07B5               	addwf	___flmul@prod+1,f
  5129     0D84                     u3481:
  5130     0D84  082A               	movf	??___flmul+2,w
  5131     0D85  1103               	clrz
  5132     0D86  1803               	skipnc
  5133     0D87  3E01               	addlw	1
  5134     0D88  1903               	skipnz
  5135     0D89  2D8B               	goto	u3482
  5136     0D8A  07B6               	addwf	___flmul@prod+2,f
  5137     0D8B                     u3482:
  5138     0D8B  082B               	movf	??___flmul+3,w
  5139     0D8C  1103               	clrz
  5140     0D8D  1803               	skipnc
  5141     0D8E  3E01               	addlw	1
  5142     0D8F  1903               	skipnz
  5143     0D90  2D92               	goto	u3483
  5144     0D91  07B7               	addwf	___flmul@prod+3,f
  5145     0D92                     u3483:
  5146     0D92  0822               	movf	___flmul@b+2,w
  5147     0D93  00F0               	movwf	__Umul8_16@multiplicand
  5148     0D94  0824               	movf	___flmul@a,w
  5149     0D95  160A  118A  20E5  120A  158A  	fcall	__Umul8_16
  5150     0D9A  0871               	movf	?__Umul8_16+1,w
  5151     0D9B  1283               	bcf	3,5	;RP0=0, select bank0
  5152     0D9C  1303               	bcf	3,6	;RP1=0, select bank0
  5153     0D9D  00B9               	movwf	___flmul@temp+1
  5154     0D9E  0870               	movf	?__Umul8_16,w
  5155     0D9F  00B8               	movwf	___flmul@temp
  5156     0DA0                     l2453:
  5157     0DA0  0838               	movf	___flmul@temp,w
  5158     0DA1  00A8               	movwf	??___flmul
  5159     0DA2  01A9               	clrf	??___flmul+1
  5160     0DA3  01AA               	clrf	??___flmul+2
  5161     0DA4  01AB               	clrf	??___flmul+3
  5162     0DA5  0828               	movf	??___flmul,w
  5163     0DA6  07AE               	addwf	___flmul@grs,f
  5164     0DA7  0829               	movf	??___flmul+1,w
  5165     0DA8  1103               	clrz
  5166     0DA9  1803               	skipnc
  5167     0DAA  3E01               	addlw	1
  5168     0DAB  1903               	skipnz
  5169     0DAC  2DAE               	goto	u3491
  5170     0DAD  07AF               	addwf	___flmul@grs+1,f
  5171     0DAE                     u3491:
  5172     0DAE  082A               	movf	??___flmul+2,w
  5173     0DAF  1103               	clrz
  5174     0DB0  1803               	skipnc
  5175     0DB1  3E01               	addlw	1
  5176     0DB2  1903               	skipnz
  5177     0DB3  2DB5               	goto	u3492
  5178     0DB4  07B0               	addwf	___flmul@grs+2,f
  5179     0DB5                     u3492:
  5180     0DB5  082B               	movf	??___flmul+3,w
  5181     0DB6  1103               	clrz
  5182     0DB7  1803               	skipnc
  5183     0DB8  3E01               	addlw	1
  5184     0DB9  1903               	skipnz
  5185     0DBA  2DBC               	goto	u3493
  5186     0DBB  07B1               	addwf	___flmul@grs+3,f
  5187     0DBC                     u3493:
  5188     0DBC                     l2455:
  5189     0DBC  0839               	movf	___flmul@temp+1,w
  5190     0DBD  00A8               	movwf	??___flmul
  5191     0DBE  01A9               	clrf	??___flmul+1
  5192     0DBF  01AA               	clrf	??___flmul+2
  5193     0DC0  01AB               	clrf	??___flmul+3
  5194     0DC1  0828               	movf	??___flmul,w
  5195     0DC2  07B4               	addwf	___flmul@prod,f
  5196     0DC3  0829               	movf	??___flmul+1,w
  5197     0DC4  1103               	clrz
  5198     0DC5  1803               	skipnc
  5199     0DC6  3E01               	addlw	1
  5200     0DC7  1903               	skipnz
  5201     0DC8  2DCA               	goto	u3501
  5202     0DC9  07B5               	addwf	___flmul@prod+1,f
  5203     0DCA                     u3501:
  5204     0DCA  082A               	movf	??___flmul+2,w
  5205     0DCB  1103               	clrz
  5206     0DCC  1803               	skipnc
  5207     0DCD  3E01               	addlw	1
  5208     0DCE  1903               	skipnz
  5209     0DCF  2DD1               	goto	u3502
  5210     0DD0  07B6               	addwf	___flmul@prod+2,f
  5211     0DD1                     u3502:
  5212     0DD1  082B               	movf	??___flmul+3,w
  5213     0DD2  1103               	clrz
  5214     0DD3  1803               	skipnc
  5215     0DD4  3E01               	addlw	1
  5216     0DD5  1903               	skipnz
  5217     0DD6  2DD8               	goto	u3503
  5218     0DD7  07B7               	addwf	___flmul@prod+3,f
  5219     0DD8                     u3503:
  5220     0DD8                     l2457:
  5221     0DD8  3008               	movlw	8
  5222     0DD9  00A8               	movwf	??___flmul
  5223     0DDA                     u3515:
  5224     0DDA  1003               	clrc
  5225     0DDB  0DAE               	rlf	___flmul@grs,f
  5226     0DDC  0DAF               	rlf	___flmul@grs+1,f
  5227     0DDD  0DB0               	rlf	___flmul@grs+2,f
  5228     0DDE  0DB1               	rlf	___flmul@grs+3,f
  5229     0DDF  0BA8               	decfsz	??___flmul,f
  5230     0DE0  2DDA               	goto	u3515
  5231     0DE1                     l2459:
  5232     0DE1  0821               	movf	___flmul@b+1,w
  5233     0DE2  00F0               	movwf	__Umul8_16@multiplicand
  5234     0DE3  0824               	movf	___flmul@a,w
  5235     0DE4  160A  118A  20E5  120A  158A  	fcall	__Umul8_16
  5236     0DE9  0871               	movf	?__Umul8_16+1,w
  5237     0DEA  1283               	bcf	3,5	;RP0=0, select bank0
  5238     0DEB  1303               	bcf	3,6	;RP1=0, select bank0
  5239     0DEC  00B9               	movwf	___flmul@temp+1
  5240     0DED  0870               	movf	?__Umul8_16,w
  5241     0DEE  00B8               	movwf	___flmul@temp
  5242     0DEF                     l2461:
  5243     0DEF  0838               	movf	___flmul@temp,w
  5244     0DF0  00A8               	movwf	??___flmul
  5245     0DF1  0839               	movf	___flmul@temp+1,w
  5246     0DF2  00A9               	movwf	??___flmul+1
  5247     0DF3  01AA               	clrf	??___flmul+2
  5248     0DF4  01AB               	clrf	??___flmul+3
  5249     0DF5  0828               	movf	??___flmul,w
  5250     0DF6  07AE               	addwf	___flmul@grs,f
  5251     0DF7  0829               	movf	??___flmul+1,w
  5252     0DF8  1103               	clrz
  5253     0DF9  1803               	skipnc
  5254     0DFA  3E01               	addlw	1
  5255     0DFB  1903               	skipnz
  5256     0DFC  2DFE               	goto	u3521
  5257     0DFD  07AF               	addwf	___flmul@grs+1,f
  5258     0DFE                     u3521:
  5259     0DFE  082A               	movf	??___flmul+2,w
  5260     0DFF  1103               	clrz
  5261     0E00  1803               	skipnc
  5262     0E01  3E01               	addlw	1
  5263     0E02  1903               	skipnz
  5264     0E03  2E05               	goto	u3522
  5265     0E04  07B0               	addwf	___flmul@grs+2,f
  5266     0E05                     u3522:
  5267     0E05  082B               	movf	??___flmul+3,w
  5268     0E06  1103               	clrz
  5269     0E07  1803               	skipnc
  5270     0E08  3E01               	addlw	1
  5271     0E09  1903               	skipnz
  5272     0E0A  2E0C               	goto	u3523
  5273     0E0B  07B1               	addwf	___flmul@grs+3,f
  5274     0E0C                     u3523:
  5275     0E0C                     l2463:
  5276     0E0C  0820               	movf	___flmul@b,w
  5277     0E0D  00F0               	movwf	__Umul8_16@multiplicand
  5278     0E0E  0825               	movf	___flmul@a+1,w
  5279     0E0F  160A  118A  20E5  120A  158A  	fcall	__Umul8_16
  5280     0E14  0871               	movf	?__Umul8_16+1,w
  5281     0E15  1283               	bcf	3,5	;RP0=0, select bank0
  5282     0E16  1303               	bcf	3,6	;RP1=0, select bank0
  5283     0E17  00B9               	movwf	___flmul@temp+1
  5284     0E18  0870               	movf	?__Umul8_16,w
  5285     0E19  00B8               	movwf	___flmul@temp
  5286     0E1A                     l2465:
  5287     0E1A  0838               	movf	___flmul@temp,w
  5288     0E1B  00A8               	movwf	??___flmul
  5289     0E1C  0839               	movf	___flmul@temp+1,w
  5290     0E1D  00A9               	movwf	??___flmul+1
  5291     0E1E  01AA               	clrf	??___flmul+2
  5292     0E1F  01AB               	clrf	??___flmul+3
  5293     0E20  0828               	movf	??___flmul,w
  5294     0E21  07AE               	addwf	___flmul@grs,f
  5295     0E22  0829               	movf	??___flmul+1,w
  5296     0E23  1103               	clrz
  5297     0E24  1803               	skipnc
  5298     0E25  3E01               	addlw	1
  5299     0E26  1903               	skipnz
  5300     0E27  2E29               	goto	u3531
  5301     0E28  07AF               	addwf	___flmul@grs+1,f
  5302     0E29                     u3531:
  5303     0E29  082A               	movf	??___flmul+2,w
  5304     0E2A  1103               	clrz
  5305     0E2B  1803               	skipnc
  5306     0E2C  3E01               	addlw	1
  5307     0E2D  1903               	skipnz
  5308     0E2E  2E30               	goto	u3532
  5309     0E2F  07B0               	addwf	___flmul@grs+2,f
  5310     0E30                     u3532:
  5311     0E30  082B               	movf	??___flmul+3,w
  5312     0E31  1103               	clrz
  5313     0E32  1803               	skipnc
  5314     0E33  3E01               	addlw	1
  5315     0E34  1903               	skipnz
  5316     0E35  2E37               	goto	u3533
  5317     0E36  07B1               	addwf	___flmul@grs+3,f
  5318     0E37                     u3533:
  5319     0E37                     l2467:
  5320     0E37  3008               	movlw	8
  5321     0E38  00A8               	movwf	??___flmul
  5322     0E39                     u3545:
  5323     0E39  1003               	clrc
  5324     0E3A  0DAE               	rlf	___flmul@grs,f
  5325     0E3B  0DAF               	rlf	___flmul@grs+1,f
  5326     0E3C  0DB0               	rlf	___flmul@grs+2,f
  5327     0E3D  0DB1               	rlf	___flmul@grs+3,f
  5328     0E3E  0BA8               	decfsz	??___flmul,f
  5329     0E3F  2E39               	goto	u3545
  5330     0E40  0820               	movf	___flmul@b,w
  5331     0E41  00F0               	movwf	__Umul8_16@multiplicand
  5332     0E42  0824               	movf	___flmul@a,w
  5333     0E43  160A  118A  20E5  120A  158A  	fcall	__Umul8_16
  5334     0E48  0871               	movf	?__Umul8_16+1,w
  5335     0E49  1283               	bcf	3,5	;RP0=0, select bank0
  5336     0E4A  1303               	bcf	3,6	;RP1=0, select bank0
  5337     0E4B  00B9               	movwf	___flmul@temp+1
  5338     0E4C  0870               	movf	?__Umul8_16,w
  5339     0E4D  00B8               	movwf	___flmul@temp
  5340     0E4E                     l2469:
  5341     0E4E  0838               	movf	___flmul@temp,w
  5342     0E4F  00A8               	movwf	??___flmul
  5343     0E50  0839               	movf	___flmul@temp+1,w
  5344     0E51  00A9               	movwf	??___flmul+1
  5345     0E52  01AA               	clrf	??___flmul+2
  5346     0E53  01AB               	clrf	??___flmul+3
  5347     0E54  0828               	movf	??___flmul,w
  5348     0E55  07AE               	addwf	___flmul@grs,f
  5349     0E56  0829               	movf	??___flmul+1,w
  5350     0E57  1103               	clrz
  5351     0E58  1803               	skipnc
  5352     0E59  3E01               	addlw	1
  5353     0E5A  1903               	skipnz
  5354     0E5B  2E5D               	goto	u3551
  5355     0E5C  07AF               	addwf	___flmul@grs+1,f
  5356     0E5D                     u3551:
  5357     0E5D  082A               	movf	??___flmul+2,w
  5358     0E5E  1103               	clrz
  5359     0E5F  1803               	skipnc
  5360     0E60  3E01               	addlw	1
  5361     0E61  1903               	skipnz
  5362     0E62  2E64               	goto	u3552
  5363     0E63  07B0               	addwf	___flmul@grs+2,f
  5364     0E64                     u3552:
  5365     0E64  082B               	movf	??___flmul+3,w
  5366     0E65  1103               	clrz
  5367     0E66  1803               	skipnc
  5368     0E67  3E01               	addlw	1
  5369     0E68  1903               	skipnz
  5370     0E69  2E6B               	goto	u3553
  5371     0E6A  07B1               	addwf	___flmul@grs+3,f
  5372     0E6B                     u3553:
  5373     0E6B                     l2471:
  5374     0E6B  0821               	movf	___flmul@b+1,w
  5375     0E6C  00F0               	movwf	__Umul8_16@multiplicand
  5376     0E6D  0826               	movf	___flmul@a+2,w
  5377     0E6E  160A  118A  20E5  120A  158A  	fcall	__Umul8_16
  5378     0E73  0871               	movf	?__Umul8_16+1,w
  5379     0E74  1283               	bcf	3,5	;RP0=0, select bank0
  5380     0E75  1303               	bcf	3,6	;RP1=0, select bank0
  5381     0E76  00B9               	movwf	___flmul@temp+1
  5382     0E77  0870               	movf	?__Umul8_16,w
  5383     0E78  00B8               	movwf	___flmul@temp
  5384     0E79  0838               	movf	___flmul@temp,w
  5385     0E7A  00A8               	movwf	??___flmul
  5386     0E7B  0839               	movf	___flmul@temp+1,w
  5387     0E7C  00A9               	movwf	??___flmul+1
  5388     0E7D  01AA               	clrf	??___flmul+2
  5389     0E7E  01AB               	clrf	??___flmul+3
  5390     0E7F  0828               	movf	??___flmul,w
  5391     0E80  07B4               	addwf	___flmul@prod,f
  5392     0E81  0829               	movf	??___flmul+1,w
  5393     0E82  1103               	clrz
  5394     0E83  1803               	skipnc
  5395     0E84  3E01               	addlw	1
  5396     0E85  1903               	skipnz
  5397     0E86  2E88               	goto	u3561
  5398     0E87  07B5               	addwf	___flmul@prod+1,f
  5399     0E88                     u3561:
  5400     0E88  082A               	movf	??___flmul+2,w
  5401     0E89  1103               	clrz
  5402     0E8A  1803               	skipnc
  5403     0E8B  3E01               	addlw	1
  5404     0E8C  1903               	skipnz
  5405     0E8D  2E8F               	goto	u3562
  5406     0E8E  07B6               	addwf	___flmul@prod+2,f
  5407     0E8F                     u3562:
  5408     0E8F  082B               	movf	??___flmul+3,w
  5409     0E90  1103               	clrz
  5410     0E91  1803               	skipnc
  5411     0E92  3E01               	addlw	1
  5412     0E93  1903               	skipnz
  5413     0E94  2E96               	goto	u3563
  5414     0E95  07B7               	addwf	___flmul@prod+3,f
  5415     0E96                     u3563:
  5416     0E96                     l2473:
  5417     0E96  0822               	movf	___flmul@b+2,w
  5418     0E97  00F0               	movwf	__Umul8_16@multiplicand
  5419     0E98  0825               	movf	___flmul@a+1,w
  5420     0E99  160A  118A  20E5  120A  158A  	fcall	__Umul8_16
  5421     0E9E  0871               	movf	?__Umul8_16+1,w
  5422     0E9F  1283               	bcf	3,5	;RP0=0, select bank0
  5423     0EA0  1303               	bcf	3,6	;RP1=0, select bank0
  5424     0EA1  00B9               	movwf	___flmul@temp+1
  5425     0EA2  0870               	movf	?__Umul8_16,w
  5426     0EA3  00B8               	movwf	___flmul@temp
  5427     0EA4                     l2475:
  5428     0EA4  0838               	movf	___flmul@temp,w
  5429     0EA5  00A8               	movwf	??___flmul
  5430     0EA6  0839               	movf	___flmul@temp+1,w
  5431     0EA7  00A9               	movwf	??___flmul+1
  5432     0EA8  01AA               	clrf	??___flmul+2
  5433     0EA9  01AB               	clrf	??___flmul+3
  5434     0EAA  0828               	movf	??___flmul,w
  5435     0EAB  07B4               	addwf	___flmul@prod,f
  5436     0EAC  0829               	movf	??___flmul+1,w
  5437     0EAD  1103               	clrz
  5438     0EAE  1803               	skipnc
  5439     0EAF  3E01               	addlw	1
  5440     0EB0  1903               	skipnz
  5441     0EB1  2EB3               	goto	u3571
  5442     0EB2  07B5               	addwf	___flmul@prod+1,f
  5443     0EB3                     u3571:
  5444     0EB3  082A               	movf	??___flmul+2,w
  5445     0EB4  1103               	clrz
  5446     0EB5  1803               	skipnc
  5447     0EB6  3E01               	addlw	1
  5448     0EB7  1903               	skipnz
  5449     0EB8  2EBA               	goto	u3572
  5450     0EB9  07B6               	addwf	___flmul@prod+2,f
  5451     0EBA                     u3572:
  5452     0EBA  082B               	movf	??___flmul+3,w
  5453     0EBB  1103               	clrz
  5454     0EBC  1803               	skipnc
  5455     0EBD  3E01               	addlw	1
  5456     0EBE  1903               	skipnz
  5457     0EBF  2EC1               	goto	u3573
  5458     0EC0  07B7               	addwf	___flmul@prod+3,f
  5459     0EC1                     u3573:
  5460     0EC1  0822               	movf	___flmul@b+2,w
  5461     0EC2  00F0               	movwf	__Umul8_16@multiplicand
  5462     0EC3  0826               	movf	___flmul@a+2,w
  5463     0EC4  160A  118A  20E5  120A  158A  	fcall	__Umul8_16
  5464     0EC9  0871               	movf	?__Umul8_16+1,w
  5465     0ECA  1283               	bcf	3,5	;RP0=0, select bank0
  5466     0ECB  1303               	bcf	3,6	;RP1=0, select bank0
  5467     0ECC  00B9               	movwf	___flmul@temp+1
  5468     0ECD  0870               	movf	?__Umul8_16,w
  5469     0ECE  00B8               	movwf	___flmul@temp
  5470     0ECF                     l2477:
  5471     0ECF  0838               	movf	___flmul@temp,w
  5472     0ED0  00A8               	movwf	??___flmul
  5473     0ED1  0839               	movf	___flmul@temp+1,w
  5474     0ED2  00A9               	movwf	??___flmul+1
  5475     0ED3  01AA               	clrf	??___flmul+2
  5476     0ED4  01AB               	clrf	??___flmul+3
  5477     0ED5  3008               	movlw	8
  5478     0ED6                     u3585:
  5479     0ED6  1003               	clrc
  5480     0ED7  0DA8               	rlf	??___flmul,f
  5481     0ED8  0DA9               	rlf	??___flmul+1,f
  5482     0ED9  0DAA               	rlf	??___flmul+2,f
  5483     0EDA  0DAB               	rlf	??___flmul+3,f
  5484     0EDB                     u3580:
  5485     0EDB  3EFF               	addlw	-1
  5486     0EDC  1D03               	skipz
  5487     0EDD  2ED6               	goto	u3585
  5488     0EDE  0828               	movf	??___flmul,w
  5489     0EDF  07B4               	addwf	___flmul@prod,f
  5490     0EE0  0829               	movf	??___flmul+1,w
  5491     0EE1  1103               	clrz
  5492     0EE2  1803               	skipnc
  5493     0EE3  3E01               	addlw	1
  5494     0EE4  1903               	skipnz
  5495     0EE5  2EE7               	goto	u3591
  5496     0EE6  07B5               	addwf	___flmul@prod+1,f
  5497     0EE7                     u3591:
  5498     0EE7  082A               	movf	??___flmul+2,w
  5499     0EE8  1103               	clrz
  5500     0EE9  1803               	skipnc
  5501     0EEA  3E01               	addlw	1
  5502     0EEB  1903               	skipnz
  5503     0EEC  2EEE               	goto	u3592
  5504     0EED  07B6               	addwf	___flmul@prod+2,f
  5505     0EEE                     u3592:
  5506     0EEE  082B               	movf	??___flmul+3,w
  5507     0EEF  1103               	clrz
  5508     0EF0  1803               	skipnc
  5509     0EF1  3E01               	addlw	1
  5510     0EF2  1903               	skipnz
  5511     0EF3  2EF5               	goto	u3593
  5512     0EF4  07B7               	addwf	___flmul@prod+3,f
  5513     0EF5                     u3593:
  5514     0EF5                     l2479:
  5515     0EF5  082E               	movf	___flmul@grs,w
  5516     0EF6  00A8               	movwf	??___flmul
  5517     0EF7  082F               	movf	___flmul@grs+1,w
  5518     0EF8  00A9               	movwf	??___flmul+1
  5519     0EF9  0830               	movf	___flmul@grs+2,w
  5520     0EFA  00AA               	movwf	??___flmul+2
  5521     0EFB  0831               	movf	___flmul@grs+3,w
  5522     0EFC  00AB               	movwf	??___flmul+3
  5523     0EFD  3018               	movlw	24
  5524     0EFE                     u3605:
  5525     0EFE  1003               	clrc
  5526     0EFF  0CAB               	rrf	??___flmul+3,f
  5527     0F00  0CAA               	rrf	??___flmul+2,f
  5528     0F01  0CA9               	rrf	??___flmul+1,f
  5529     0F02  0CA8               	rrf	??___flmul,f
  5530     0F03                     u3600:
  5531     0F03  3EFF               	addlw	-1
  5532     0F04  1D03               	skipz
  5533     0F05  2EFE               	goto	u3605
  5534     0F06  0828               	movf	??___flmul,w
  5535     0F07  07B4               	addwf	___flmul@prod,f
  5536     0F08  0829               	movf	??___flmul+1,w
  5537     0F09  1103               	clrz
  5538     0F0A  1803               	skipnc
  5539     0F0B  3E01               	addlw	1
  5540     0F0C  1903               	skipnz
  5541     0F0D  2F0F               	goto	u3611
  5542     0F0E  07B5               	addwf	___flmul@prod+1,f
  5543     0F0F                     u3611:
  5544     0F0F  082A               	movf	??___flmul+2,w
  5545     0F10  1103               	clrz
  5546     0F11  1803               	skipnc
  5547     0F12  3E01               	addlw	1
  5548     0F13  1903               	skipnz
  5549     0F14  2F16               	goto	u3612
  5550     0F15  07B6               	addwf	___flmul@prod+2,f
  5551     0F16                     u3612:
  5552     0F16  082B               	movf	??___flmul+3,w
  5553     0F17  1103               	clrz
  5554     0F18  1803               	skipnc
  5555     0F19  3E01               	addlw	1
  5556     0F1A  1903               	skipnz
  5557     0F1B  2F1D               	goto	u3613
  5558     0F1C  07B7               	addwf	___flmul@prod+3,f
  5559     0F1D                     u3613:
  5560     0F1D                     l2481:
  5561     0F1D  3008               	movlw	8
  5562     0F1E  00A8               	movwf	??___flmul
  5563     0F1F                     u3625:
  5564     0F1F  1003               	clrc
  5565     0F20  0DAE               	rlf	___flmul@grs,f
  5566     0F21  0DAF               	rlf	___flmul@grs+1,f
  5567     0F22  0DB0               	rlf	___flmul@grs+2,f
  5568     0F23  0DB1               	rlf	___flmul@grs+3,f
  5569     0F24  0BA8               	decfsz	??___flmul,f
  5570     0F25  2F1F               	goto	u3625
  5571     0F26                     l2483:
  5572     0F26  0833               	movf	___flmul@bexp,w
  5573     0F27  0732               	addwf	___flmul@aexp,w
  5574     0F28  00A8               	movwf	??___flmul
  5575     0F29  01A9               	clrf	??___flmul+1
  5576     0F2A  0DA9               	rlf	??___flmul+1,f
  5577     0F2B  0828               	movf	??___flmul,w
  5578     0F2C  3E82               	addlw	130
  5579     0F2D  00B8               	movwf	___flmul@temp
  5580     0F2E  0829               	movf	??___flmul+1,w
  5581     0F2F  1803               	skipnc
  5582     0F30  3E01               	addlw	1
  5583     0F31  3EFF               	addlw	255
  5584     0F32  00B9               	movwf	___flmul@temp+1
  5585     0F33  2F51               	goto	l2495
  5586     0F34                     l2485:
  5587     0F34  3001               	movlw	1
  5588     0F35  00A8               	movwf	??___flmul
  5589     0F36                     u3635:
  5590     0F36  1003               	clrc
  5591     0F37  0DB4               	rlf	___flmul@prod,f
  5592     0F38  0DB5               	rlf	___flmul@prod+1,f
  5593     0F39  0DB6               	rlf	___flmul@prod+2,f
  5594     0F3A  0DB7               	rlf	___flmul@prod+3,f
  5595     0F3B  0BA8               	decfsz	??___flmul,f
  5596     0F3C  2F36               	goto	u3635
  5597     0F3D                     l2487:
  5598     0F3D  1FB1               	btfss	___flmul@grs+3,7
  5599     0F3E  2F40               	goto	u3641
  5600     0F3F  2F41               	goto	u3640
  5601     0F40                     u3641:
  5602     0F40  2F42               	goto	l2491
  5603     0F41                     u3640:
  5604     0F41                     l2489:
  5605     0F41  1434               	bsf	___flmul@prod,0
  5606     0F42                     l2491:
  5607     0F42  3001               	movlw	1
  5608     0F43  00A8               	movwf	??___flmul
  5609     0F44                     u3655:
  5610     0F44  1003               	clrc
  5611     0F45  0DAE               	rlf	___flmul@grs,f
  5612     0F46  0DAF               	rlf	___flmul@grs+1,f
  5613     0F47  0DB0               	rlf	___flmul@grs+2,f
  5614     0F48  0DB1               	rlf	___flmul@grs+3,f
  5615     0F49  0BA8               	decfsz	??___flmul,f
  5616     0F4A  2F44               	goto	u3655
  5617     0F4B                     l2493:
  5618     0F4B  30FF               	movlw	255
  5619     0F4C  07B8               	addwf	___flmul@temp,f
  5620     0F4D  1803               	skipnc
  5621     0F4E  0AB9               	incf	___flmul@temp+1,f
  5622     0F4F  30FF               	movlw	255
  5623     0F50  07B9               	addwf	___flmul@temp+1,f
  5624     0F51                     l2495:
  5625     0F51  1FB6               	btfss	___flmul@prod+2,7
  5626     0F52  2F54               	goto	u3661
  5627     0F53  2F55               	goto	u3660
  5628     0F54                     u3661:
  5629     0F54  2F34               	goto	l2485
  5630     0F55                     u3660:
  5631     0F55                     l2497:
  5632     0F55  01B2               	clrf	___flmul@aexp
  5633     0F56                     l2499:
  5634     0F56  1FB1               	btfss	___flmul@grs+3,7
  5635     0F57  2F59               	goto	u3671
  5636     0F58  2F5A               	goto	u3670
  5637     0F59                     u3671:
  5638     0F59  2F76               	goto	l2507
  5639     0F5A                     u3670:
  5640     0F5A                     l2501:
  5641     0F5A  30FF               	movlw	255
  5642     0F5B  052E               	andwf	___flmul@grs,w
  5643     0F5C  00A8               	movwf	??___flmul
  5644     0F5D  30FF               	movlw	255
  5645     0F5E  052F               	andwf	___flmul@grs+1,w
  5646     0F5F  00A9               	movwf	??___flmul+1
  5647     0F60  30FF               	movlw	255
  5648     0F61  0530               	andwf	___flmul@grs+2,w
  5649     0F62  00AA               	movwf	??___flmul+2
  5650     0F63  307F               	movlw	127
  5651     0F64  0531               	andwf	___flmul@grs+3,w
  5652     0F65  00AB               	movwf	??___flmul+3
  5653     0F66  082B               	movf	??___flmul+3,w
  5654     0F67  042A               	iorwf	??___flmul+2,w
  5655     0F68  0429               	iorwf	??___flmul+1,w
  5656     0F69  0428               	iorwf	??___flmul,w
  5657     0F6A  1903               	skipnz
  5658     0F6B  2F6D               	goto	u3681
  5659     0F6C  2F6E               	goto	u3680
  5660     0F6D                     u3681:
  5661     0F6D  2F71               	goto	l557
  5662     0F6E                     u3680:
  5663     0F6E                     l2503:
  5664     0F6E  3001               	movlw	1
  5665     0F6F  00B2               	movwf	___flmul@aexp
  5666     0F70  2F76               	goto	l2507
  5667     0F71                     l557:
  5668     0F71  1C34               	btfss	___flmul@prod,0
  5669     0F72  2F74               	goto	u3691
  5670     0F73  2F75               	goto	u3690
  5671     0F74                     u3691:
  5672     0F74  2F76               	goto	l2507
  5673     0F75                     u3690:
  5674     0F75  2F6E               	goto	l2503
  5675     0F76                     l2507:
  5676     0F76  0832               	movf	___flmul@aexp,w
  5677     0F77  1903               	btfsc	3,2
  5678     0F78  2F7A               	goto	u3701
  5679     0F79  2F7B               	goto	u3700
  5680     0F7A                     u3701:
  5681     0F7A  2FAC               	goto	l2517
  5682     0F7B                     u3700:
  5683     0F7B                     l2509:
  5684     0F7B  3001               	movlw	1
  5685     0F7C  07B4               	addwf	___flmul@prod,f
  5686     0F7D  3000               	movlw	0
  5687     0F7E  1803               	skipnc
  5688     0F7F  3001               	movlw	1
  5689     0F80  07B5               	addwf	___flmul@prod+1,f
  5690     0F81  3000               	movlw	0
  5691     0F82  1803               	skipnc
  5692     0F83  3001               	movlw	1
  5693     0F84  07B6               	addwf	___flmul@prod+2,f
  5694     0F85  3000               	movlw	0
  5695     0F86  1803               	skipnc
  5696     0F87  3001               	movlw	1
  5697     0F88  07B7               	addwf	___flmul@prod+3,f
  5698     0F89                     l2511:
  5699     0F89  1C37               	btfss	___flmul@prod+3,0
  5700     0F8A  2F8C               	goto	u3711
  5701     0F8B  2F8D               	goto	u3710
  5702     0F8C                     u3711:
  5703     0F8C  2FAC               	goto	l2517
  5704     0F8D                     u3710:
  5705     0F8D                     l2513:
  5706     0F8D  0834               	movf	___flmul@prod,w
  5707     0F8E  00A8               	movwf	??___flmul
  5708     0F8F  0835               	movf	___flmul@prod+1,w
  5709     0F90  00A9               	movwf	??___flmul+1
  5710     0F91  0836               	movf	___flmul@prod+2,w
  5711     0F92  00AA               	movwf	??___flmul+2
  5712     0F93  0837               	movf	___flmul@prod+3,w
  5713     0F94  00AB               	movwf	??___flmul+3
  5714     0F95  3001               	movlw	1
  5715     0F96  00AC               	movwf	??___flmul+4
  5716     0F97                     u3725:
  5717     0F97  0D2B               	rlf	??___flmul+3,w
  5718     0F98  0CAB               	rrf	??___flmul+3,f
  5719     0F99  0CAA               	rrf	??___flmul+2,f
  5720     0F9A  0CA9               	rrf	??___flmul+1,f
  5721     0F9B  0CA8               	rrf	??___flmul,f
  5722     0F9C                     u3720:
  5723     0F9C  0BAC               	decfsz	??___flmul+4,f
  5724     0F9D  2F97               	goto	u3725
  5725     0F9E  082B               	movf	??___flmul+3,w
  5726     0F9F  00B7               	movwf	___flmul@prod+3
  5727     0FA0  082A               	movf	??___flmul+2,w
  5728     0FA1  00B6               	movwf	___flmul@prod+2
  5729     0FA2  0829               	movf	??___flmul+1,w
  5730     0FA3  00B5               	movwf	___flmul@prod+1
  5731     0FA4  0828               	movf	??___flmul,w
  5732     0FA5  00B4               	movwf	___flmul@prod
  5733     0FA6                     l2515:
  5734     0FA6  3001               	movlw	1
  5735     0FA7  07B8               	addwf	___flmul@temp,f
  5736     0FA8  1803               	skipnc
  5737     0FA9  0AB9               	incf	___flmul@temp+1,f
  5738     0FAA  3000               	movlw	0
  5739     0FAB  07B9               	addwf	___flmul@temp+1,f
  5740     0FAC                     l2517:
  5741     0FAC  0839               	movf	___flmul@temp+1,w
  5742     0FAD  3A80               	xorlw	128
  5743     0FAE  00FF               	movwf	btemp+1
  5744     0FAF  3080               	movlw	128
  5745     0FB0  027F               	subwf	btemp+1,w
  5746     0FB1  1D03               	skipz
  5747     0FB2  2FB5               	goto	u3735
  5748     0FB3  30FF               	movlw	255
  5749     0FB4  0238               	subwf	___flmul@temp,w
  5750     0FB5                     u3735:
  5751     0FB5  1C03               	skipc
  5752     0FB6  2FB8               	goto	u3731
  5753     0FB7  2FB9               	goto	u3730
  5754     0FB8                     u3731:
  5755     0FB8  2FC4               	goto	l2521
  5756     0FB9                     u3730:
  5757     0FB9                     l2519:
  5758     0FB9  307F               	movlw	127
  5759     0FBA  1283               	bcf	3,5	;RP0=0, select bank0
  5760     0FBB  1303               	bcf	3,6	;RP1=0, select bank0
  5761     0FBC  00B7               	movwf	___flmul@prod+3
  5762     0FBD  3080               	movlw	128
  5763     0FBE  00B6               	movwf	___flmul@prod+2
  5764     0FBF  3000               	movlw	0
  5765     0FC0  00B5               	movwf	___flmul@prod+1
  5766     0FC1  3000               	movlw	0
  5767     0FC2  00B4               	movwf	___flmul@prod
  5768     0FC3  2FF5               	goto	l563
  5769     0FC4                     l2521:
  5770     0FC4  1283               	bcf	3,5	;RP0=0, select bank0
  5771     0FC5  1303               	bcf	3,6	;RP1=0, select bank0
  5772     0FC6  0839               	movf	___flmul@temp+1,w
  5773     0FC7  3A80               	xorlw	128
  5774     0FC8  00FF               	movwf	btemp+1
  5775     0FC9  3080               	movlw	128
  5776     0FCA  027F               	subwf	btemp+1,w
  5777     0FCB  1D03               	skipz
  5778     0FCC  2FCF               	goto	u3745
  5779     0FCD  3001               	movlw	1
  5780     0FCE  0238               	subwf	___flmul@temp,w
  5781     0FCF                     u3745:
  5782     0FCF  1803               	skipnc
  5783     0FD0  2FD2               	goto	u3741
  5784     0FD1  2FD3               	goto	u3740
  5785     0FD2                     u3741:
  5786     0FD2  2FDF               	goto	l2527
  5787     0FD3                     u3740:
  5788     0FD3                     l2523:
  5789     0FD3  3000               	movlw	0
  5790     0FD4  1283               	bcf	3,5	;RP0=0, select bank0
  5791     0FD5  1303               	bcf	3,6	;RP1=0, select bank0
  5792     0FD6  00B7               	movwf	___flmul@prod+3
  5793     0FD7  3000               	movlw	0
  5794     0FD8  00B6               	movwf	___flmul@prod+2
  5795     0FD9  3000               	movlw	0
  5796     0FDA  00B5               	movwf	___flmul@prod+1
  5797     0FDB  3000               	movlw	0
  5798     0FDC  00B4               	movwf	___flmul@prod
  5799     0FDD                     l2525:
  5800     0FDD  01AD               	clrf	___flmul@sign
  5801     0FDE  2FF5               	goto	l563
  5802     0FDF                     l2527:
  5803     0FDF  1283               	bcf	3,5	;RP0=0, select bank0
  5804     0FE0  1303               	bcf	3,6	;RP1=0, select bank0
  5805     0FE1  0838               	movf	___flmul@temp,w
  5806     0FE2  00B3               	movwf	___flmul@bexp
  5807     0FE3  30FF               	movlw	255
  5808     0FE4  05B4               	andwf	___flmul@prod,f
  5809     0FE5  30FF               	movlw	255
  5810     0FE6  05B5               	andwf	___flmul@prod+1,f
  5811     0FE7  307F               	movlw	127
  5812     0FE8  05B6               	andwf	___flmul@prod+2,f
  5813     0FE9  3000               	movlw	0
  5814     0FEA  05B7               	andwf	___flmul@prod+3,f
  5815     0FEB                     l2529:
  5816     0FEB  1C33               	btfss	___flmul@bexp,0
  5817     0FEC  2FEE               	goto	u3751
  5818     0FED  2FEF               	goto	u3750
  5819     0FEE                     u3751:
  5820     0FEE  2FF0               	goto	l2533
  5821     0FEF                     u3750:
  5822     0FEF                     l2531:
  5823     0FEF  17B6               	bsf	___flmul@prod+2,7
  5824     0FF0                     l2533:
  5825     0FF0  0833               	movf	___flmul@bexp,w
  5826     0FF1  00A8               	movwf	??___flmul
  5827     0FF2  1003               	clrc
  5828     0FF3  0C28               	rrf	??___flmul,w
  5829     0FF4  00B7               	movwf	___flmul@prod+3
  5830     0FF5                     l563:
  5831     0FF5  082D               	movf	___flmul@sign,w
  5832     0FF6  04B7               	iorwf	___flmul@prod+3,f
  5833     0FF7                     l2535:
  5834     0FF7  0837               	movf	___flmul@prod+3,w
  5835     0FF8  00A3               	movwf	?___flmul+3
  5836     0FF9  0836               	movf	___flmul@prod+2,w
  5837     0FFA  00A2               	movwf	?___flmul+2
  5838     0FFB  0835               	movf	___flmul@prod+1,w
  5839     0FFC  00A1               	movwf	?___flmul+1
  5840     0FFD  0834               	movf	___flmul@prod,w
  5841     0FFE  00A0               	movwf	?___flmul
  5842     0FFF                     l551:
  5843     0FFF  0008               	return
  5844     1000                     __end_of___flmul:
  5845                           
  5846                           	psect	text21
  5847     10E5                     __ptext21:	
  5848 ;; *************** function __Umul8_16 *****************
  5849 ;; Defined at:
  5850 ;;		line 4 in file "C:\Program Files\Microchip\xc8\v2.50\pic\sources\c99\common\Umul8_16.c"
  5851 ;; Parameters:    Size  Location     Type
  5852 ;;  multiplier      1    wreg     unsigned char 
  5853 ;;  multiplicand    1    0[COMMON] unsigned char 
  5854 ;; Auto vars:     Size  Location     Type
  5855 ;;  multiplier      1    8[COMMON] unsigned char 
  5856 ;;  word_mpld       2    6[COMMON] unsigned short 
  5857 ;;  product         2    4[COMMON] unsigned short 
  5858 ;; Return value:  Size  Location     Type
  5859 ;;                  2    0[COMMON] unsigned int 
  5860 ;; Registers used:
  5861 ;;		wreg, status,2, status,0
  5862 ;; Tracked objects:
  5863 ;;		On entry : 0/0
  5864 ;;		On exit  : 0/0
  5865 ;;		Unchanged: 0/0
  5866 ;; Data sizes:     COMMON   BANK0   BANK1   BANK3   BANK2
  5867 ;;      Params:         2       0       0       0       0
  5868 ;;      Locals:         5       0       0       0       0
  5869 ;;      Temps:          2       0       0       0       0
  5870 ;;      Totals:         9       0       0       0       0
  5871 ;;Total ram usage:        9 bytes
  5872 ;; Hardware stack levels used: 1
  5873 ;; This function calls:
  5874 ;;		Nothing
  5875 ;; This function is called by:
  5876 ;;		___flmul
  5877 ;; This function uses a non-reentrant model
  5878 ;;
  5879                           
  5880     10E5                     __Umul8_16:	
  5881                           ;psect for function __Umul8_16
  5882                           
  5883                           
  5884                           ;incstack = 0
  5885                           ; Regs used in __Umul8_16: [wreg+status,2+status,0]
  5886                           ;__Umul8_16@multiplier stored from wreg
  5887     10E5  00F8               	movwf	__Umul8_16@multiplier
  5888     10E6                     l2135:
  5889     10E6  01F4               	clrf	__Umul8_16@product
  5890     10E7  01F5               	clrf	__Umul8_16@product+1
  5891     10E8                     l2137:
  5892     10E8  0870               	movf	__Umul8_16@multiplicand,w
  5893     10E9  00F2               	movwf	??__Umul8_16
  5894     10EA  01F3               	clrf	??__Umul8_16+1
  5895     10EB  0872               	movf	??__Umul8_16,w
  5896     10EC  00F6               	movwf	__Umul8_16@word_mpld
  5897     10ED  0873               	movf	??__Umul8_16+1,w
  5898     10EE  00F7               	movwf	__Umul8_16@word_mpld+1
  5899     10EF                     l2139:
  5900     10EF  1C78               	btfss	__Umul8_16@multiplier,0
  5901     10F0  28F2               	goto	u2811
  5902     10F1  28F3               	goto	u2810
  5903     10F2                     u2811:
  5904     10F2  28F9               	goto	l570
  5905     10F3                     u2810:
  5906     10F3                     l2141:
  5907     10F3  0876               	movf	__Umul8_16@word_mpld,w
  5908     10F4  07F4               	addwf	__Umul8_16@product,f
  5909     10F5  1803               	skipnc
  5910     10F6  0AF5               	incf	__Umul8_16@product+1,f
  5911     10F7  0877               	movf	__Umul8_16@word_mpld+1,w
  5912     10F8  07F5               	addwf	__Umul8_16@product+1,f
  5913     10F9                     l570:
  5914     10F9  3001               	movlw	1
  5915     10FA                     u2825:
  5916     10FA  1003               	clrc
  5917     10FB  0DF6               	rlf	__Umul8_16@word_mpld,f
  5918     10FC  0DF7               	rlf	__Umul8_16@word_mpld+1,f
  5919     10FD  3EFF               	addlw	-1
  5920     10FE  1D03               	skipz
  5921     10FF  28FA               	goto	u2825
  5922     1100  1003               	clrc
  5923     1101  0CF8               	rrf	__Umul8_16@multiplier,f
  5924     1102                     l2143:
  5925     1102  0878               	movf	__Umul8_16@multiplier,w
  5926     1103  1D03               	btfss	3,2
  5927     1104  2906               	goto	u2831
  5928     1105  2907               	goto	u2830
  5929     1106                     u2831:
  5930     1106  28EF               	goto	l2139
  5931     1107                     u2830:
  5932     1107                     l2145:
  5933     1107  0875               	movf	__Umul8_16@product+1,w
  5934     1108  00F1               	movwf	?__Umul8_16+1
  5935     1109  0874               	movf	__Umul8_16@product,w
  5936     110A  00F0               	movwf	?__Umul8_16
  5937     110B                     l572:
  5938     110B  0008               	return
  5939     110C                     __end_of__Umul8_16:
  5940                           
  5941                           	psect	text22
  5942     137A                     __ptext22:	
  5943 ;; *************** function ___flge *****************
  5944 ;; Defined at:
  5945 ;;		line 4 in file "C:\Program Files\Microchip\xc8\v2.50\pic\sources\c99\common\flge.c"
  5946 ;; Parameters:    Size  Location     Type
  5947 ;;  ff1             4   26[BANK0 ] unsigned int 
  5948 ;;  ff2             4   30[BANK0 ] unsigned int 
  5949 ;; Auto vars:     Size  Location     Type
  5950 ;;		None
  5951 ;; Return value:  Size  Location     Type
  5952 ;;		None               void
  5953 ;; Registers used:
  5954 ;;		wreg, status,2, status,0
  5955 ;; Tracked objects:
  5956 ;;		On entry : 0/0
  5957 ;;		On exit  : 0/0
  5958 ;;		Unchanged: 0/0
  5959 ;; Data sizes:     COMMON   BANK0   BANK1   BANK3   BANK2
  5960 ;;      Params:         0       8       0       0       0
  5961 ;;      Locals:         0       0       0       0       0
  5962 ;;      Temps:          0       4       0       0       0
  5963 ;;      Totals:         0      12       0       0       0
  5964 ;;Total ram usage:       12 bytes
  5965 ;; Hardware stack levels used: 1
  5966 ;; This function calls:
  5967 ;;		Nothing
  5968 ;; This function is called by:
  5969 ;;		_efgtoa
  5970 ;; This function uses a non-reentrant model
  5971 ;;
  5972                           
  5973     137A                     ___flge:	
  5974                           ;psect for function ___flge
  5975                           
  5976     137A                     l2183:	
  5977                           ;incstack = 0
  5978                           ; Regs used in ___flge: [wreg+status,2+status,0]
  5979                           
  5980     137A  3000               	movlw	0
  5981     137B  1283               	bcf	3,5	;RP0=0, select bank0
  5982     137C  1303               	bcf	3,6	;RP1=0, select bank0
  5983     137D  053A               	andwf	___flge@ff1,w
  5984     137E  00C2               	movwf	??___flge
  5985     137F  3000               	movlw	0
  5986     1380  053B               	andwf	___flge@ff1+1,w
  5987     1381  00C3               	movwf	??___flge+1
  5988     1382  3080               	movlw	128
  5989     1383  053C               	andwf	___flge@ff1+2,w
  5990     1384  00C4               	movwf	??___flge+2
  5991     1385  307F               	movlw	127
  5992     1386  053D               	andwf	___flge@ff1+3,w
  5993     1387  00C5               	movwf	??___flge+3
  5994     1388  0845               	movf	??___flge+3,w
  5995     1389  0444               	iorwf	??___flge+2,w
  5996     138A  0443               	iorwf	??___flge+1,w
  5997     138B  0442               	iorwf	??___flge,w
  5998     138C  1D03               	skipz
  5999     138D  2B8F               	goto	u2921
  6000     138E  2B90               	goto	u2920
  6001     138F                     u2921:
  6002     138F  2B98               	goto	l332
  6003     1390                     u2920:
  6004     1390                     l2185:
  6005     1390  3000               	movlw	0
  6006     1391  00BD               	movwf	___flge@ff1+3
  6007     1392  3000               	movlw	0
  6008     1393  00BC               	movwf	___flge@ff1+2
  6009     1394  3000               	movlw	0
  6010     1395  00BB               	movwf	___flge@ff1+1
  6011     1396  3000               	movlw	0
  6012     1397  00BA               	movwf	___flge@ff1
  6013     1398                     l332:
  6014     1398  3000               	movlw	0
  6015     1399  053E               	andwf	___flge@ff2,w
  6016     139A  00C2               	movwf	??___flge
  6017     139B  3000               	movlw	0
  6018     139C  053F               	andwf	___flge@ff2+1,w
  6019     139D  00C3               	movwf	??___flge+1
  6020     139E  3080               	movlw	128
  6021     139F  0540               	andwf	___flge@ff2+2,w
  6022     13A0  00C4               	movwf	??___flge+2
  6023     13A1  307F               	movlw	127
  6024     13A2  0541               	andwf	___flge@ff2+3,w
  6025     13A3  00C5               	movwf	??___flge+3
  6026     13A4  0845               	movf	??___flge+3,w
  6027     13A5  0444               	iorwf	??___flge+2,w
  6028     13A6  0443               	iorwf	??___flge+1,w
  6029     13A7  0442               	iorwf	??___flge,w
  6030     13A8  1D03               	skipz
  6031     13A9  2BAB               	goto	u2931
  6032     13AA  2BAC               	goto	u2930
  6033     13AB                     u2931:
  6034     13AB  2BB4               	goto	l2189
  6035     13AC                     u2930:
  6036     13AC                     l2187:
  6037     13AC  3000               	movlw	0
  6038     13AD  00C1               	movwf	___flge@ff2+3
  6039     13AE  3000               	movlw	0
  6040     13AF  00C0               	movwf	___flge@ff2+2
  6041     13B0  3000               	movlw	0
  6042     13B1  00BF               	movwf	___flge@ff2+1
  6043     13B2  3000               	movlw	0
  6044     13B3  00BE               	movwf	___flge@ff2
  6045     13B4                     l2189:
  6046     13B4  1FBD               	btfss	___flge@ff1+3,7
  6047     13B5  2BB7               	goto	u2941
  6048     13B6  2BB8               	goto	u2940
  6049     13B7                     u2941:
  6050     13B7  2BDC               	goto	l2193
  6051     13B8                     u2940:
  6052     13B8                     l2191:
  6053     13B8  3000               	movlw	0
  6054     13B9  00C2               	movwf	??___flge
  6055     13BA  3000               	movlw	0
  6056     13BB  00C3               	movwf	??___flge+1
  6057     13BC  3000               	movlw	0
  6058     13BD  00C4               	movwf	??___flge+2
  6059     13BE  3080               	movlw	128
  6060     13BF  00C5               	movwf	??___flge+3
  6061     13C0  083A               	movf	___flge@ff1,w
  6062     13C1  02C2               	subwf	??___flge,f
  6063     13C2  083B               	movf	___flge@ff1+1,w
  6064     13C3  1C03               	skipc
  6065     13C4  0F3B               	incfsz	___flge@ff1+1,w
  6066     13C5  2BC7               	goto	u2951
  6067     13C6  2BC8               	goto	u2952
  6068     13C7                     u2951:
  6069     13C7  02C3               	subwf	??___flge+1,f
  6070     13C8                     u2952:
  6071     13C8  083C               	movf	___flge@ff1+2,w
  6072     13C9  1C03               	skipc
  6073     13CA  0F3C               	incfsz	___flge@ff1+2,w
  6074     13CB  2BCD               	goto	u2953
  6075     13CC  2BCE               	goto	u2954
  6076     13CD                     u2953:
  6077     13CD  02C4               	subwf	??___flge+2,f
  6078     13CE                     u2954:
  6079     13CE  083D               	movf	___flge@ff1+3,w
  6080     13CF  1C03               	skipc
  6081     13D0  0F3D               	incfsz	___flge@ff1+3,w
  6082     13D1  2BD3               	goto	u2955
  6083     13D2  2BD4               	goto	u2956
  6084     13D3                     u2955:
  6085     13D3  02C5               	subwf	??___flge+3,f
  6086     13D4                     u2956:
  6087     13D4  0845               	movf	??___flge+3,w
  6088     13D5  00BD               	movwf	___flge@ff1+3
  6089     13D6  0844               	movf	??___flge+2,w
  6090     13D7  00BC               	movwf	___flge@ff1+2
  6091     13D8  0843               	movf	??___flge+1,w
  6092     13D9  00BB               	movwf	___flge@ff1+1
  6093     13DA  0842               	movf	??___flge,w
  6094     13DB  00BA               	movwf	___flge@ff1
  6095     13DC                     l2193:
  6096     13DC  1FC1               	btfss	___flge@ff2+3,7
  6097     13DD  2BDF               	goto	u2961
  6098     13DE  2BE0               	goto	u2960
  6099     13DF                     u2961:
  6100     13DF  2C04               	goto	l335
  6101     13E0                     u2960:
  6102     13E0                     l2195:
  6103     13E0  3000               	movlw	0
  6104     13E1  00C2               	movwf	??___flge
  6105     13E2  3000               	movlw	0
  6106     13E3  00C3               	movwf	??___flge+1
  6107     13E4  3000               	movlw	0
  6108     13E5  00C4               	movwf	??___flge+2
  6109     13E6  3080               	movlw	128
  6110     13E7  00C5               	movwf	??___flge+3
  6111     13E8  083E               	movf	___flge@ff2,w
  6112     13E9  02C2               	subwf	??___flge,f
  6113     13EA  083F               	movf	___flge@ff2+1,w
  6114     13EB  1C03               	skipc
  6115     13EC  0F3F               	incfsz	___flge@ff2+1,w
  6116     13ED  2BEF               	goto	u2971
  6117     13EE  2BF0               	goto	u2972
  6118     13EF                     u2971:
  6119     13EF  02C3               	subwf	??___flge+1,f
  6120     13F0                     u2972:
  6121     13F0  0840               	movf	___flge@ff2+2,w
  6122     13F1  1C03               	skipc
  6123     13F2  0F40               	incfsz	___flge@ff2+2,w
  6124     13F3  2BF5               	goto	u2973
  6125     13F4  2BF6               	goto	u2974
  6126     13F5                     u2973:
  6127     13F5  02C4               	subwf	??___flge+2,f
  6128     13F6                     u2974:
  6129     13F6  0841               	movf	___flge@ff2+3,w
  6130     13F7  1C03               	skipc
  6131     13F8  0F41               	incfsz	___flge@ff2+3,w
  6132     13F9  2BFB               	goto	u2975
  6133     13FA  2BFC               	goto	u2976
  6134     13FB                     u2975:
  6135     13FB  02C5               	subwf	??___flge+3,f
  6136     13FC                     u2976:
  6137     13FC  0845               	movf	??___flge+3,w
  6138     13FD  00C1               	movwf	___flge@ff2+3
  6139     13FE  0844               	movf	??___flge+2,w
  6140     13FF  00C0               	movwf	___flge@ff2+2
  6141     1400  0843               	movf	??___flge+1,w
  6142     1401  00BF               	movwf	___flge@ff2+1
  6143     1402  0842               	movf	??___flge,w
  6144     1403  00BE               	movwf	___flge@ff2
  6145     1404                     l335:
  6146     1404  3080               	movlw	128
  6147     1405  06BD               	xorwf	___flge@ff1+3,f
  6148     1406  3080               	movlw	128
  6149     1407  06C1               	xorwf	___flge@ff2+3,f
  6150     1408  0841               	movf	___flge@ff2+3,w
  6151     1409  023D               	subwf	___flge@ff1+3,w
  6152     140A  1D03               	skipz
  6153     140B  2C16               	goto	u2985
  6154     140C  0840               	movf	___flge@ff2+2,w
  6155     140D  023C               	subwf	___flge@ff1+2,w
  6156     140E  1D03               	skipz
  6157     140F  2C16               	goto	u2985
  6158     1410  083F               	movf	___flge@ff2+1,w
  6159     1411  023B               	subwf	___flge@ff1+1,w
  6160     1412  1D03               	skipz
  6161     1413  2C16               	goto	u2985
  6162     1414  083E               	movf	___flge@ff2,w
  6163     1415  023A               	subwf	___flge@ff1,w
  6164     1416                     u2985:
  6165     1416  1803               	skipnc
  6166     1417  2C19               	goto	u2981
  6167     1418  2C1A               	goto	u2980
  6168     1419                     u2981:
  6169     1419  2C1C               	goto	l2199
  6170     141A                     u2980:
  6171     141A                     l2197:
  6172     141A  1003               	clrc
  6173     141B  2C1D               	goto	l340
  6174     141C                     l2199:
  6175     141C  1403               	setc
  6176     141D                     l340:
  6177     141D  0008               	return
  6178     141E                     __end_of___flge:
  6179                           
  6180                           	psect	text23
  6181     11C9                     __ptext23:	
  6182 ;; *************** function ___fleq *****************
  6183 ;; Defined at:
  6184 ;;		line 4 in file "C:\Program Files\Microchip\xc8\v2.50\pic\sources\c99\common\fleq.c"
  6185 ;; Parameters:    Size  Location     Type
  6186 ;;  ff1             4    0[COMMON] unsigned int 
  6187 ;;  ff2             4    4[COMMON] unsigned int 
  6188 ;; Auto vars:     Size  Location     Type
  6189 ;;		None
  6190 ;; Return value:  Size  Location     Type
  6191 ;;		None               void
  6192 ;; Registers used:
  6193 ;;		wreg, status,2, status,0
  6194 ;; Tracked objects:
  6195 ;;		On entry : 0/0
  6196 ;;		On exit  : 0/0
  6197 ;;		Unchanged: 0/0
  6198 ;; Data sizes:     COMMON   BANK0   BANK1   BANK3   BANK2
  6199 ;;      Params:         8       0       0       0       0
  6200 ;;      Locals:         0       0       0       0       0
  6201 ;;      Temps:          4       0       0       0       0
  6202 ;;      Totals:        12       0       0       0       0
  6203 ;;Total ram usage:       12 bytes
  6204 ;; Hardware stack levels used: 1
  6205 ;; This function calls:
  6206 ;;		Nothing
  6207 ;; This function is called by:
  6208 ;;		_efgtoa
  6209 ;; This function uses a non-reentrant model
  6210 ;;
  6211                           
  6212     11C9                     ___fleq:	
  6213                           ;psect for function ___fleq
  6214                           
  6215     11C9                     l2171:	
  6216                           ;incstack = 0
  6217                           ; Regs used in ___fleq: [wreg+status,2+status,0]
  6218                           
  6219     11C9  3000               	movlw	0
  6220     11CA  0570               	andwf	___fleq@ff1,w
  6221     11CB  00F8               	movwf	??___fleq
  6222     11CC  3000               	movlw	0
  6223     11CD  0571               	andwf	___fleq@ff1+1,w
  6224     11CE  00F9               	movwf	??___fleq+1
  6225     11CF  3080               	movlw	128
  6226     11D0  0572               	andwf	___fleq@ff1+2,w
  6227     11D1  00FA               	movwf	??___fleq+2
  6228     11D2  307F               	movlw	127
  6229     11D3  0573               	andwf	___fleq@ff1+3,w
  6230     11D4  00FB               	movwf	??___fleq+3
  6231     11D5  087B               	movf	??___fleq+3,w
  6232     11D6  047A               	iorwf	??___fleq+2,w
  6233     11D7  0479               	iorwf	??___fleq+1,w
  6234     11D8  0478               	iorwf	??___fleq,w
  6235     11D9  1D03               	skipz
  6236     11DA  29DC               	goto	u2891
  6237     11DB  29DD               	goto	u2890
  6238     11DC                     u2891:
  6239     11DC  29E5               	goto	l323
  6240     11DD                     u2890:
  6241     11DD                     l2173:
  6242     11DD  3000               	movlw	0
  6243     11DE  00F3               	movwf	___fleq@ff1+3
  6244     11DF  3000               	movlw	0
  6245     11E0  00F2               	movwf	___fleq@ff1+2
  6246     11E1  3000               	movlw	0
  6247     11E2  00F1               	movwf	___fleq@ff1+1
  6248     11E3  3000               	movlw	0
  6249     11E4  00F0               	movwf	___fleq@ff1
  6250     11E5                     l323:
  6251     11E5  3000               	movlw	0
  6252     11E6  0574               	andwf	___fleq@ff2,w
  6253     11E7  00F8               	movwf	??___fleq
  6254     11E8  3000               	movlw	0
  6255     11E9  0575               	andwf	___fleq@ff2+1,w
  6256     11EA  00F9               	movwf	??___fleq+1
  6257     11EB  3080               	movlw	128
  6258     11EC  0576               	andwf	___fleq@ff2+2,w
  6259     11ED  00FA               	movwf	??___fleq+2
  6260     11EE  307F               	movlw	127
  6261     11EF  0577               	andwf	___fleq@ff2+3,w
  6262     11F0  00FB               	movwf	??___fleq+3
  6263     11F1  087B               	movf	??___fleq+3,w
  6264     11F2  047A               	iorwf	??___fleq+2,w
  6265     11F3  0479               	iorwf	??___fleq+1,w
  6266     11F4  0478               	iorwf	??___fleq,w
  6267     11F5  1D03               	skipz
  6268     11F6  29F8               	goto	u2901
  6269     11F7  29F9               	goto	u2900
  6270     11F8                     u2901:
  6271     11F8  2A01               	goto	l324
  6272     11F9                     u2900:
  6273     11F9                     l2175:
  6274     11F9  3000               	movlw	0
  6275     11FA  00F7               	movwf	___fleq@ff2+3
  6276     11FB  3000               	movlw	0
  6277     11FC  00F6               	movwf	___fleq@ff2+2
  6278     11FD  3000               	movlw	0
  6279     11FE  00F5               	movwf	___fleq@ff2+1
  6280     11FF  3000               	movlw	0
  6281     1200  00F4               	movwf	___fleq@ff2
  6282     1201                     l324:
  6283     1201  0877               	movf	___fleq@ff2+3,w
  6284     1202  0673               	xorwf	___fleq@ff1+3,w
  6285     1203  1D03               	skipz
  6286     1204  2A0F               	goto	u2915
  6287     1205  0876               	movf	___fleq@ff2+2,w
  6288     1206  0672               	xorwf	___fleq@ff1+2,w
  6289     1207  1D03               	skipz
  6290     1208  2A0F               	goto	u2915
  6291     1209  0875               	movf	___fleq@ff2+1,w
  6292     120A  0671               	xorwf	___fleq@ff1+1,w
  6293     120B  1D03               	skipz
  6294     120C  2A0F               	goto	u2915
  6295     120D  0874               	movf	___fleq@ff2,w
  6296     120E  0670               	xorwf	___fleq@ff1,w
  6297     120F                     u2915:
  6298     120F  1903               	skipnz
  6299     1210  2A12               	goto	u2911
  6300     1211  2A13               	goto	u2910
  6301     1212                     u2911:
  6302     1212  2A15               	goto	l2179
  6303     1213                     u2910:
  6304     1213                     l2177:
  6305     1213  1003               	clrc
  6306     1214  2A16               	goto	l329
  6307     1215                     l2179:
  6308     1215  1403               	setc
  6309     1216                     l329:
  6310     1216  0008               	return
  6311     1217                     __end_of___fleq:
  6312                           
  6313                           	psect	text24
  6314     0898                     __ptext24:	
  6315 ;; *************** function ___fldiv *****************
  6316 ;; Defined at:
  6317 ;;		line 8 in file "C:\Program Files\Microchip\xc8\v2.50\pic\sources\c99\common\sprcdiv.c"
  6318 ;; Parameters:    Size  Location     Type
  6319 ;;  a               4   26[BANK0 ] unsigned int 
  6320 ;;  b               4   30[BANK0 ] unsigned int 
  6321 ;; Auto vars:     Size  Location     Type
  6322 ;;  grs             4   46[BANK0 ] unsigned long 
  6323 ;;  rem             4   39[BANK0 ] unsigned long 
  6324 ;;  new_exp         2   44[BANK0 ] short 
  6325 ;;  aexp            1   51[BANK0 ] unsigned char 
  6326 ;;  bexp            1   50[BANK0 ] unsigned char 
  6327 ;;  sign            1   43[BANK0 ] unsigned char 
  6328 ;; Return value:  Size  Location     Type
  6329 ;;                  4   26[BANK0 ] unsigned char 
  6330 ;; Registers used:
  6331 ;;		wreg, status,2, status,0, btemp+1
  6332 ;; Tracked objects:
  6333 ;;		On entry : 0/0
  6334 ;;		On exit  : 0/0
  6335 ;;		Unchanged: 0/0
  6336 ;; Data sizes:     COMMON   BANK0   BANK1   BANK3   BANK2
  6337 ;;      Params:         0       8       0       0       0
  6338 ;;      Locals:         0      13       0       0       0
  6339 ;;      Temps:          0       5       0       0       0
  6340 ;;      Totals:         0      26       0       0       0
  6341 ;;Total ram usage:       26 bytes
  6342 ;; Hardware stack levels used: 1
  6343 ;; This function calls:
  6344 ;;		Nothing
  6345 ;; This function is called by:
  6346 ;;		_main
  6347 ;;		_efgtoa
  6348 ;; This function uses a non-reentrant model
  6349 ;;
  6350                           
  6351     0898                     ___fldiv:	
  6352                           ;psect for function ___fldiv
  6353                           
  6354     0898                     l2253:	
  6355                           ;incstack = 0
  6356                           ; Regs used in ___fldiv: [wreg+status,2+status,0+btemp+1]
  6357                           
  6358     0898  1283               	bcf	3,5	;RP0=0, select bank0
  6359     0899  1303               	bcf	3,6	;RP1=0, select bank0
  6360     089A  0841               	movf	___fldiv@b+3,w
  6361     089B  00CB               	movwf	___fldiv@sign
  6362     089C                     l2255:
  6363     089C  3080               	movlw	128
  6364     089D  05CB               	andwf	___fldiv@sign,f
  6365     089E                     l2257:
  6366     089E  0841               	movf	___fldiv@b+3,w
  6367     089F  00C2               	movwf	??___fldiv
  6368     08A0  0742               	addwf	??___fldiv,w
  6369     08A1  00D2               	movwf	___fldiv@bexp
  6370     08A2                     l2259:
  6371     08A2  1FC0               	btfss	___fldiv@b+2,7
  6372     08A3  28A5               	goto	u3101
  6373     08A4  28A6               	goto	u3100
  6374     08A5                     u3101:
  6375     08A5  28A7               	goto	l2263
  6376     08A6                     u3100:
  6377     08A6                     l2261:
  6378     08A6  1452               	bsf	___fldiv@bexp,0
  6379     08A7                     l2263:
  6380     08A7  0852               	movf	___fldiv@bexp,w
  6381     08A8  1903               	btfsc	3,2
  6382     08A9  28AB               	goto	u3111
  6383     08AA  28AC               	goto	u3110
  6384     08AB                     u3111:
  6385     08AB  28BC               	goto	l2273
  6386     08AC                     u3110:
  6387     08AC                     l2265:
  6388     08AC  0A52               	incf	___fldiv@bexp,w
  6389     08AD  1D03               	btfss	3,2
  6390     08AE  28B0               	goto	u3121
  6391     08AF  28B1               	goto	u3120
  6392     08B0                     u3121:
  6393     08B0  28B9               	goto	l2269
  6394     08B1                     u3120:
  6395     08B1                     l2267:
  6396     08B1  3000               	movlw	0
  6397     08B2  00C1               	movwf	___fldiv@b+3
  6398     08B3  3000               	movlw	0
  6399     08B4  00C0               	movwf	___fldiv@b+2
  6400     08B5  3000               	movlw	0
  6401     08B6  00BF               	movwf	___fldiv@b+1
  6402     08B7  3000               	movlw	0
  6403     08B8  00BE               	movwf	___fldiv@b
  6404     08B9                     l2269:
  6405     08B9  17C0               	bsf	___fldiv@b+2,7
  6406     08BA                     l2271:
  6407     08BA  01C1               	clrf	___fldiv@b+3
  6408     08BB  28C4               	goto	l2275
  6409     08BC                     l2273:
  6410     08BC  3000               	movlw	0
  6411     08BD  00C1               	movwf	___fldiv@b+3
  6412     08BE  3000               	movlw	0
  6413     08BF  00C0               	movwf	___fldiv@b+2
  6414     08C0  3000               	movlw	0
  6415     08C1  00BF               	movwf	___fldiv@b+1
  6416     08C2  3000               	movlw	0
  6417     08C3  00BE               	movwf	___fldiv@b
  6418     08C4                     l2275:
  6419     08C4  083D               	movf	___fldiv@a+3,w
  6420     08C5  3980               	andlw	128
  6421     08C6  06CB               	xorwf	___fldiv@sign,f
  6422     08C7                     l2277:
  6423     08C7  083D               	movf	___fldiv@a+3,w
  6424     08C8  00C2               	movwf	??___fldiv
  6425     08C9  0742               	addwf	??___fldiv,w
  6426     08CA  00D3               	movwf	___fldiv@aexp
  6427     08CB                     l2279:
  6428     08CB  1FBC               	btfss	___fldiv@a+2,7
  6429     08CC  28CE               	goto	u3131
  6430     08CD  28CF               	goto	u3130
  6431     08CE                     u3131:
  6432     08CE  28D0               	goto	l2283
  6433     08CF                     u3130:
  6434     08CF                     l2281:
  6435     08CF  1453               	bsf	___fldiv@aexp,0
  6436     08D0                     l2283:
  6437     08D0  0853               	movf	___fldiv@aexp,w
  6438     08D1  1903               	btfsc	3,2
  6439     08D2  28D4               	goto	u3141
  6440     08D3  28D5               	goto	u3140
  6441     08D4                     u3141:
  6442     08D4  28E5               	goto	l2293
  6443     08D5                     u3140:
  6444     08D5                     l2285:
  6445     08D5  0A53               	incf	___fldiv@aexp,w
  6446     08D6  1D03               	btfss	3,2
  6447     08D7  28D9               	goto	u3151
  6448     08D8  28DA               	goto	u3150
  6449     08D9                     u3151:
  6450     08D9  28E2               	goto	l2289
  6451     08DA                     u3150:
  6452     08DA                     l2287:
  6453     08DA  3000               	movlw	0
  6454     08DB  00BD               	movwf	___fldiv@a+3
  6455     08DC  3000               	movlw	0
  6456     08DD  00BC               	movwf	___fldiv@a+2
  6457     08DE  3000               	movlw	0
  6458     08DF  00BB               	movwf	___fldiv@a+1
  6459     08E0  3000               	movlw	0
  6460     08E1  00BA               	movwf	___fldiv@a
  6461     08E2                     l2289:
  6462     08E2  17BC               	bsf	___fldiv@a+2,7
  6463     08E3                     l2291:
  6464     08E3  01BD               	clrf	___fldiv@a+3
  6465     08E4  28ED               	goto	l511
  6466     08E5                     l2293:
  6467     08E5  3000               	movlw	0
  6468     08E6  00BD               	movwf	___fldiv@a+3
  6469     08E7  3000               	movlw	0
  6470     08E8  00BC               	movwf	___fldiv@a+2
  6471     08E9  3000               	movlw	0
  6472     08EA  00BB               	movwf	___fldiv@a+1
  6473     08EB  3000               	movlw	0
  6474     08EC  00BA               	movwf	___fldiv@a
  6475     08ED                     l511:
  6476     08ED  083D               	movf	___fldiv@a+3,w
  6477     08EE  043C               	iorwf	___fldiv@a+2,w
  6478     08EF  043B               	iorwf	___fldiv@a+1,w
  6479     08F0  043A               	iorwf	___fldiv@a,w
  6480     08F1  1D03               	skipz
  6481     08F2  28F4               	goto	u3161
  6482     08F3  28F5               	goto	u3160
  6483     08F4                     u3161:
  6484     08F4  290C               	goto	l2303
  6485     08F5                     u3160:
  6486     08F5                     l2295:
  6487     08F5  3000               	movlw	0
  6488     08F6  00C1               	movwf	___fldiv@b+3
  6489     08F7  3000               	movlw	0
  6490     08F8  00C0               	movwf	___fldiv@b+2
  6491     08F9  3000               	movlw	0
  6492     08FA  00BF               	movwf	___fldiv@b+1
  6493     08FB  3000               	movlw	0
  6494     08FC  00BE               	movwf	___fldiv@b
  6495     08FD  3080               	movlw	128
  6496     08FE  04C0               	iorwf	___fldiv@b+2,f
  6497     08FF  307F               	movlw	127
  6498     0900  04C1               	iorwf	___fldiv@b+3,f
  6499     0901                     l2297:
  6500     0901  084B               	movf	___fldiv@sign,w
  6501     0902  04C1               	iorwf	___fldiv@b+3,f
  6502     0903                     l2299:
  6503     0903  0841               	movf	___fldiv@b+3,w
  6504     0904  00BD               	movwf	?___fldiv+3
  6505     0905  0840               	movf	___fldiv@b+2,w
  6506     0906  00BC               	movwf	?___fldiv+2
  6507     0907  083F               	movf	___fldiv@b+1,w
  6508     0908  00BB               	movwf	?___fldiv+1
  6509     0909  083E               	movf	___fldiv@b,w
  6510     090A  00BA               	movwf	?___fldiv
  6511     090B  2A61               	goto	l513
  6512     090C                     l2303:
  6513     090C  0852               	movf	___fldiv@bexp,w
  6514     090D  1D03               	btfss	3,2
  6515     090E  2910               	goto	u3171
  6516     090F  2911               	goto	u3170
  6517     0910                     u3171:
  6518     0910  291A               	goto	l2309
  6519     0911                     u3170:
  6520     0911                     l2305:
  6521     0911  3000               	movlw	0
  6522     0912  00BD               	movwf	?___fldiv+3
  6523     0913  3000               	movlw	0
  6524     0914  00BC               	movwf	?___fldiv+2
  6525     0915  3000               	movlw	0
  6526     0916  00BB               	movwf	?___fldiv+1
  6527     0917  3000               	movlw	0
  6528     0918  00BA               	movwf	?___fldiv
  6529     0919  2A61               	goto	l513
  6530     091A                     l2309:
  6531     091A  0852               	movf	___fldiv@bexp,w
  6532     091B  00C2               	movwf	??___fldiv
  6533     091C  01C3               	clrf	??___fldiv+1
  6534     091D  0843               	movf	??___fldiv+1,w
  6535     091E  00C5               	movwf	??___fldiv+3
  6536     091F  0853               	movf	___fldiv@aexp,w
  6537     0920  0242               	subwf	??___fldiv,w
  6538     0921  00C4               	movwf	??___fldiv+2
  6539     0922  1C03               	skipc
  6540     0923  03C5               	decf	??___fldiv+3,f
  6541     0924  0844               	movf	??___fldiv+2,w
  6542     0925  3E7F               	addlw	127
  6543     0926  00CC               	movwf	___fldiv@new_exp
  6544     0927  0845               	movf	??___fldiv+3,w
  6545     0928  1803               	skipnc
  6546     0929  3E01               	addlw	1
  6547     092A  3E00               	addlw	0
  6548     092B  00CD               	movwf	___fldiv@new_exp+1
  6549     092C                     l2311:
  6550     092C  0841               	movf	___fldiv@b+3,w
  6551     092D  00CA               	movwf	___fldiv@rem+3
  6552     092E  0840               	movf	___fldiv@b+2,w
  6553     092F  00C9               	movwf	___fldiv@rem+2
  6554     0930  083F               	movf	___fldiv@b+1,w
  6555     0931  00C8               	movwf	___fldiv@rem+1
  6556     0932  083E               	movf	___fldiv@b,w
  6557     0933  00C7               	movwf	___fldiv@rem
  6558     0934                     l2313:
  6559     0934  3000               	movlw	0
  6560     0935  00C1               	movwf	___fldiv@b+3
  6561     0936  3000               	movlw	0
  6562     0937  00C0               	movwf	___fldiv@b+2
  6563     0938  3000               	movlw	0
  6564     0939  00BF               	movwf	___fldiv@b+1
  6565     093A  3000               	movlw	0
  6566     093B  00BE               	movwf	___fldiv@b
  6567     093C                     l2315:
  6568     093C  3000               	movlw	0
  6569     093D  00D1               	movwf	___fldiv@grs+3
  6570     093E  3000               	movlw	0
  6571     093F  00D0               	movwf	___fldiv@grs+2
  6572     0940  3000               	movlw	0
  6573     0941  00CF               	movwf	___fldiv@grs+1
  6574     0942  3000               	movlw	0
  6575     0943  00CE               	movwf	___fldiv@grs
  6576     0944                     l2317:
  6577     0944  01D3               	clrf	___fldiv@aexp
  6578     0945  298E               	goto	l2337
  6579     0946                     l2319:
  6580     0946  0853               	movf	___fldiv@aexp,w
  6581     0947  1903               	btfsc	3,2
  6582     0948  294A               	goto	u3181
  6583     0949  294B               	goto	u3180
  6584     094A                     u3181:
  6585     094A  296B               	goto	l2329
  6586     094B                     u3180:
  6587     094B                     l2321:
  6588     094B  3001               	movlw	1
  6589     094C  00C2               	movwf	??___fldiv
  6590     094D                     u3195:
  6591     094D  1003               	clrc
  6592     094E  0DC7               	rlf	___fldiv@rem,f
  6593     094F  0DC8               	rlf	___fldiv@rem+1,f
  6594     0950  0DC9               	rlf	___fldiv@rem+2,f
  6595     0951  0DCA               	rlf	___fldiv@rem+3,f
  6596     0952  0BC2               	decfsz	??___fldiv,f
  6597     0953  294D               	goto	u3195
  6598     0954  3001               	movlw	1
  6599     0955  00C2               	movwf	??___fldiv
  6600     0956                     u3205:
  6601     0956  1003               	clrc
  6602     0957  0DBE               	rlf	___fldiv@b,f
  6603     0958  0DBF               	rlf	___fldiv@b+1,f
  6604     0959  0DC0               	rlf	___fldiv@b+2,f
  6605     095A  0DC1               	rlf	___fldiv@b+3,f
  6606     095B  0BC2               	decfsz	??___fldiv,f
  6607     095C  2956               	goto	u3205
  6608     095D                     l2323:
  6609     095D  1FD1               	btfss	___fldiv@grs+3,7
  6610     095E  2960               	goto	u3211
  6611     095F  2961               	goto	u3210
  6612     0960                     u3211:
  6613     0960  2962               	goto	l2327
  6614     0961                     u3210:
  6615     0961                     l2325:
  6616     0961  143E               	bsf	___fldiv@b,0
  6617     0962                     l2327:
  6618     0962  3001               	movlw	1
  6619     0963  00C2               	movwf	??___fldiv
  6620     0964                     u3225:
  6621     0964  1003               	clrc
  6622     0965  0DCE               	rlf	___fldiv@grs,f
  6623     0966  0DCF               	rlf	___fldiv@grs+1,f
  6624     0967  0DD0               	rlf	___fldiv@grs+2,f
  6625     0968  0DD1               	rlf	___fldiv@grs+3,f
  6626     0969  0BC2               	decfsz	??___fldiv,f
  6627     096A  2964               	goto	u3225
  6628     096B                     l2329:
  6629     096B  083D               	movf	___fldiv@a+3,w
  6630     096C  024A               	subwf	___fldiv@rem+3,w
  6631     096D  1D03               	skipz
  6632     096E  2979               	goto	u3235
  6633     096F  083C               	movf	___fldiv@a+2,w
  6634     0970  0249               	subwf	___fldiv@rem+2,w
  6635     0971  1D03               	skipz
  6636     0972  2979               	goto	u3235
  6637     0973  083B               	movf	___fldiv@a+1,w
  6638     0974  0248               	subwf	___fldiv@rem+1,w
  6639     0975  1D03               	skipz
  6640     0976  2979               	goto	u3235
  6641     0977  083A               	movf	___fldiv@a,w
  6642     0978  0247               	subwf	___fldiv@rem,w
  6643     0979                     u3235:
  6644     0979  1C03               	skipc
  6645     097A  297C               	goto	u3231
  6646     097B  297D               	goto	u3230
  6647     097C                     u3231:
  6648     097C  298C               	goto	l2335
  6649     097D                     u3230:
  6650     097D                     l2331:
  6651     097D  1751               	bsf	___fldiv@grs+3,6
  6652     097E                     l2333:
  6653     097E  083A               	movf	___fldiv@a,w
  6654     097F  02C7               	subwf	___fldiv@rem,f
  6655     0980  083B               	movf	___fldiv@a+1,w
  6656     0981  1C03               	skipc
  6657     0982  0F3B               	incfsz	___fldiv@a+1,w
  6658     0983  02C8               	subwf	___fldiv@rem+1,f
  6659     0984  083C               	movf	___fldiv@a+2,w
  6660     0985  1C03               	skipc
  6661     0986  0F3C               	incfsz	___fldiv@a+2,w
  6662     0987  02C9               	subwf	___fldiv@rem+2,f
  6663     0988  083D               	movf	___fldiv@a+3,w
  6664     0989  1C03               	skipc
  6665     098A  0F3D               	incfsz	___fldiv@a+3,w
  6666     098B  02CA               	subwf	___fldiv@rem+3,f
  6667     098C                     l2335:
  6668     098C  3001               	movlw	1
  6669     098D  07D3               	addwf	___fldiv@aexp,f
  6670     098E                     l2337:
  6671     098E  301A               	movlw	26
  6672     098F  0253               	subwf	___fldiv@aexp,w
  6673     0990  1C03               	skipc
  6674     0991  2993               	goto	u3241
  6675     0992  2994               	goto	u3240
  6676     0993                     u3241:
  6677     0993  2946               	goto	l2319
  6678     0994                     u3240:
  6679     0994                     l2339:
  6680     0994  084A               	movf	___fldiv@rem+3,w
  6681     0995  0449               	iorwf	___fldiv@rem+2,w
  6682     0996  0448               	iorwf	___fldiv@rem+1,w
  6683     0997  0447               	iorwf	___fldiv@rem,w
  6684     0998  1903               	skipnz
  6685     0999  299B               	goto	u3251
  6686     099A  299C               	goto	u3250
  6687     099B                     u3251:
  6688     099B  29BB               	goto	l2353
  6689     099C                     u3250:
  6690     099C                     l2341:
  6691     099C  144E               	bsf	___fldiv@grs,0
  6692     099D  29BB               	goto	l2353
  6693     099E                     l2343:
  6694     099E  3001               	movlw	1
  6695     099F  00C2               	movwf	??___fldiv
  6696     09A0                     u3265:
  6697     09A0  1003               	clrc
  6698     09A1  0DBE               	rlf	___fldiv@b,f
  6699     09A2  0DBF               	rlf	___fldiv@b+1,f
  6700     09A3  0DC0               	rlf	___fldiv@b+2,f
  6701     09A4  0DC1               	rlf	___fldiv@b+3,f
  6702     09A5  0BC2               	decfsz	??___fldiv,f
  6703     09A6  29A0               	goto	u3265
  6704     09A7                     l2345:
  6705     09A7  1FD1               	btfss	___fldiv@grs+3,7
  6706     09A8  29AA               	goto	u3271
  6707     09A9  29AB               	goto	u3270
  6708     09AA                     u3271:
  6709     09AA  29AC               	goto	l2349
  6710     09AB                     u3270:
  6711     09AB                     l2347:
  6712     09AB  143E               	bsf	___fldiv@b,0
  6713     09AC                     l2349:
  6714     09AC  3001               	movlw	1
  6715     09AD  00C2               	movwf	??___fldiv
  6716     09AE                     u3285:
  6717     09AE  1003               	clrc
  6718     09AF  0DCE               	rlf	___fldiv@grs,f
  6719     09B0  0DCF               	rlf	___fldiv@grs+1,f
  6720     09B1  0DD0               	rlf	___fldiv@grs+2,f
  6721     09B2  0DD1               	rlf	___fldiv@grs+3,f
  6722     09B3  0BC2               	decfsz	??___fldiv,f
  6723     09B4  29AE               	goto	u3285
  6724     09B5                     l2351:
  6725     09B5  30FF               	movlw	255
  6726     09B6  07CC               	addwf	___fldiv@new_exp,f
  6727     09B7  1803               	skipnc
  6728     09B8  0ACD               	incf	___fldiv@new_exp+1,f
  6729     09B9  30FF               	movlw	255
  6730     09BA  07CD               	addwf	___fldiv@new_exp+1,f
  6731     09BB                     l2353:
  6732     09BB  1FC0               	btfss	___fldiv@b+2,7
  6733     09BC  29BE               	goto	u3291
  6734     09BD  29BF               	goto	u3290
  6735     09BE                     u3291:
  6736     09BE  299E               	goto	l2343
  6737     09BF                     u3290:
  6738     09BF                     l2355:
  6739     09BF  01D3               	clrf	___fldiv@aexp
  6740     09C0                     l2357:
  6741     09C0  1FD1               	btfss	___fldiv@grs+3,7
  6742     09C1  29C3               	goto	u3301
  6743     09C2  29C4               	goto	u3300
  6744     09C3                     u3301:
  6745     09C3  29E0               	goto	l2365
  6746     09C4                     u3300:
  6747     09C4                     l2359:
  6748     09C4  30FF               	movlw	255
  6749     09C5  054E               	andwf	___fldiv@grs,w
  6750     09C6  00C2               	movwf	??___fldiv
  6751     09C7  30FF               	movlw	255
  6752     09C8  054F               	andwf	___fldiv@grs+1,w
  6753     09C9  00C3               	movwf	??___fldiv+1
  6754     09CA  30FF               	movlw	255
  6755     09CB  0550               	andwf	___fldiv@grs+2,w
  6756     09CC  00C4               	movwf	??___fldiv+2
  6757     09CD  307F               	movlw	127
  6758     09CE  0551               	andwf	___fldiv@grs+3,w
  6759     09CF  00C5               	movwf	??___fldiv+3
  6760     09D0  0845               	movf	??___fldiv+3,w
  6761     09D1  0444               	iorwf	??___fldiv+2,w
  6762     09D2  0443               	iorwf	??___fldiv+1,w
  6763     09D3  0442               	iorwf	??___fldiv,w
  6764     09D4  1903               	skipnz
  6765     09D5  29D7               	goto	u3311
  6766     09D6  29D8               	goto	u3310
  6767     09D7                     u3311:
  6768     09D7  29DB               	goto	l527
  6769     09D8                     u3310:
  6770     09D8                     l2361:
  6771     09D8  3001               	movlw	1
  6772     09D9  00D3               	movwf	___fldiv@aexp
  6773     09DA  29E0               	goto	l2365
  6774     09DB                     l527:
  6775     09DB  1C3E               	btfss	___fldiv@b,0
  6776     09DC  29DE               	goto	u3321
  6777     09DD  29DF               	goto	u3320
  6778     09DE                     u3321:
  6779     09DE  29E0               	goto	l2365
  6780     09DF                     u3320:
  6781     09DF  29D8               	goto	l2361
  6782     09E0                     l2365:
  6783     09E0  0853               	movf	___fldiv@aexp,w
  6784     09E1  1903               	btfsc	3,2
  6785     09E2  29E4               	goto	u3331
  6786     09E3  29E5               	goto	u3330
  6787     09E4                     u3331:
  6788     09E4  2A16               	goto	l2375
  6789     09E5                     u3330:
  6790     09E5                     l2367:
  6791     09E5  3001               	movlw	1
  6792     09E6  07BE               	addwf	___fldiv@b,f
  6793     09E7  3000               	movlw	0
  6794     09E8  1803               	skipnc
  6795     09E9  3001               	movlw	1
  6796     09EA  07BF               	addwf	___fldiv@b+1,f
  6797     09EB  3000               	movlw	0
  6798     09EC  1803               	skipnc
  6799     09ED  3001               	movlw	1
  6800     09EE  07C0               	addwf	___fldiv@b+2,f
  6801     09EF  3000               	movlw	0
  6802     09F0  1803               	skipnc
  6803     09F1  3001               	movlw	1
  6804     09F2  07C1               	addwf	___fldiv@b+3,f
  6805     09F3                     l2369:
  6806     09F3  1C41               	btfss	___fldiv@b+3,0
  6807     09F4  29F6               	goto	u3341
  6808     09F5  29F7               	goto	u3340
  6809     09F6                     u3341:
  6810     09F6  2A16               	goto	l2375
  6811     09F7                     u3340:
  6812     09F7                     l2371:
  6813     09F7  083E               	movf	___fldiv@b,w
  6814     09F8  00C2               	movwf	??___fldiv
  6815     09F9  083F               	movf	___fldiv@b+1,w
  6816     09FA  00C3               	movwf	??___fldiv+1
  6817     09FB  0840               	movf	___fldiv@b+2,w
  6818     09FC  00C4               	movwf	??___fldiv+2
  6819     09FD  0841               	movf	___fldiv@b+3,w
  6820     09FE  00C5               	movwf	??___fldiv+3
  6821     09FF  3001               	movlw	1
  6822     0A00  00C6               	movwf	??___fldiv+4
  6823     0A01                     u3355:
  6824     0A01  0D45               	rlf	??___fldiv+3,w
  6825     0A02  0CC5               	rrf	??___fldiv+3,f
  6826     0A03  0CC4               	rrf	??___fldiv+2,f
  6827     0A04  0CC3               	rrf	??___fldiv+1,f
  6828     0A05  0CC2               	rrf	??___fldiv,f
  6829     0A06                     u3350:
  6830     0A06  0BC6               	decfsz	??___fldiv+4,f
  6831     0A07  2A01               	goto	u3355
  6832     0A08  0845               	movf	??___fldiv+3,w
  6833     0A09  00C1               	movwf	___fldiv@b+3
  6834     0A0A  0844               	movf	??___fldiv+2,w
  6835     0A0B  00C0               	movwf	___fldiv@b+2
  6836     0A0C  0843               	movf	??___fldiv+1,w
  6837     0A0D  00BF               	movwf	___fldiv@b+1
  6838     0A0E  0842               	movf	??___fldiv,w
  6839     0A0F  00BE               	movwf	___fldiv@b
  6840     0A10                     l2373:
  6841     0A10  3001               	movlw	1
  6842     0A11  07CC               	addwf	___fldiv@new_exp,f
  6843     0A12  1803               	skipnc
  6844     0A13  0ACD               	incf	___fldiv@new_exp+1,f
  6845     0A14  3000               	movlw	0
  6846     0A15  07CD               	addwf	___fldiv@new_exp+1,f
  6847     0A16                     l2375:
  6848     0A16  084D               	movf	___fldiv@new_exp+1,w
  6849     0A17  3A80               	xorlw	128
  6850     0A18  00FF               	movwf	btemp+1
  6851     0A19  3080               	movlw	128
  6852     0A1A  027F               	subwf	btemp+1,w
  6853     0A1B  1D03               	skipz
  6854     0A1C  2A1F               	goto	u3365
  6855     0A1D  30FF               	movlw	255
  6856     0A1E  024C               	subwf	___fldiv@new_exp,w
  6857     0A1F                     u3365:
  6858     0A1F  1C03               	skipc
  6859     0A20  2A22               	goto	u3361
  6860     0A21  2A23               	goto	u3360
  6861     0A22                     u3361:
  6862     0A22  2A31               	goto	l2379
  6863     0A23                     u3360:
  6864     0A23                     l2377:
  6865     0A23  30FF               	movlw	255
  6866     0A24  1283               	bcf	3,5	;RP0=0, select bank0
  6867     0A25  1303               	bcf	3,6	;RP1=0, select bank0
  6868     0A26  00CC               	movwf	___fldiv@new_exp
  6869     0A27  3000               	movlw	0
  6870     0A28  00CD               	movwf	___fldiv@new_exp+1
  6871     0A29  3000               	movlw	0
  6872     0A2A  00C1               	movwf	___fldiv@b+3
  6873     0A2B  3000               	movlw	0
  6874     0A2C  00C0               	movwf	___fldiv@b+2
  6875     0A2D  3000               	movlw	0
  6876     0A2E  00BF               	movwf	___fldiv@b+1
  6877     0A2F  3000               	movlw	0
  6878     0A30  00BE               	movwf	___fldiv@b
  6879     0A31                     l2379:
  6880     0A31  1283               	bcf	3,5	;RP0=0, select bank0
  6881     0A32  1303               	bcf	3,6	;RP1=0, select bank0
  6882     0A33  084D               	movf	___fldiv@new_exp+1,w
  6883     0A34  3A80               	xorlw	128
  6884     0A35  00FF               	movwf	btemp+1
  6885     0A36  3080               	movlw	128
  6886     0A37  027F               	subwf	btemp+1,w
  6887     0A38  1D03               	skipz
  6888     0A39  2A3C               	goto	u3375
  6889     0A3A  3001               	movlw	1
  6890     0A3B  024C               	subwf	___fldiv@new_exp,w
  6891     0A3C                     u3375:
  6892     0A3C  1803               	skipnc
  6893     0A3D  2A3F               	goto	u3371
  6894     0A3E  2A40               	goto	u3370
  6895     0A3F                     u3371:
  6896     0A3F  2A4D               	goto	l533
  6897     0A40                     u3370:
  6898     0A40                     l2381:
  6899     0A40  1283               	bcf	3,5	;RP0=0, select bank0
  6900     0A41  1303               	bcf	3,6	;RP1=0, select bank0
  6901     0A42  01CC               	clrf	___fldiv@new_exp
  6902     0A43  01CD               	clrf	___fldiv@new_exp+1
  6903     0A44                     l2383:
  6904     0A44  3000               	movlw	0
  6905     0A45  00C1               	movwf	___fldiv@b+3
  6906     0A46  3000               	movlw	0
  6907     0A47  00C0               	movwf	___fldiv@b+2
  6908     0A48  3000               	movlw	0
  6909     0A49  00BF               	movwf	___fldiv@b+1
  6910     0A4A  3000               	movlw	0
  6911     0A4B  00BE               	movwf	___fldiv@b
  6912     0A4C                     l2385:
  6913     0A4C  01CB               	clrf	___fldiv@sign
  6914     0A4D                     l533:
  6915     0A4D  1283               	bcf	3,5	;RP0=0, select bank0
  6916     0A4E  1303               	bcf	3,6	;RP1=0, select bank0
  6917     0A4F  084C               	movf	___fldiv@new_exp,w
  6918     0A50  00D2               	movwf	___fldiv@bexp
  6919     0A51                     l2387:
  6920     0A51  1C52               	btfss	___fldiv@bexp,0
  6921     0A52  2A54               	goto	u3381
  6922     0A53  2A55               	goto	u3380
  6923     0A54                     u3381:
  6924     0A54  2A57               	goto	l2391
  6925     0A55                     u3380:
  6926     0A55                     l2389:
  6927     0A55  17C0               	bsf	___fldiv@b+2,7
  6928     0A56  2A59               	goto	l535
  6929     0A57                     l2391:
  6930     0A57  307F               	movlw	127
  6931     0A58  05C0               	andwf	___fldiv@b+2,f
  6932     0A59                     l535:
  6933     0A59  0852               	movf	___fldiv@bexp,w
  6934     0A5A  00C2               	movwf	??___fldiv
  6935     0A5B  1003               	clrc
  6936     0A5C  0C42               	rrf	??___fldiv,w
  6937     0A5D  00C1               	movwf	___fldiv@b+3
  6938     0A5E  084B               	movf	___fldiv@sign,w
  6939     0A5F  04C1               	iorwf	___fldiv@b+3,f
  6940     0A60  2903               	goto	l2299
  6941     0A61                     l513:
  6942     0A61  0008               	return
  6943     0A62                     __end_of___fldiv:
  6944                           
  6945                           	psect	text25
  6946     1054                     __ptext25:	
  6947 ;; *************** function _read_adc *****************
  6948 ;; Defined at:
  6949 ;;		line 63 in file "atividade7.c"
  6950 ;; Parameters:    Size  Location     Type
  6951 ;;  canal           1    wreg     unsigned char 
  6952 ;; Auto vars:     Size  Location     Type
  6953 ;;  canal           1    3[COMMON] unsigned char 
  6954 ;; Return value:  Size  Location     Type
  6955 ;;                  2    0[COMMON] unsigned int 
  6956 ;; Registers used:
  6957 ;;		wreg, status,2, status,0
  6958 ;; Tracked objects:
  6959 ;;		On entry : 0/0
  6960 ;;		On exit  : 0/0
  6961 ;;		Unchanged: 0/0
  6962 ;; Data sizes:     COMMON   BANK0   BANK1   BANK3   BANK2
  6963 ;;      Params:         2       0       0       0       0
  6964 ;;      Locals:         1       0       0       0       0
  6965 ;;      Temps:          1       0       0       0       0
  6966 ;;      Totals:         4       0       0       0       0
  6967 ;;Total ram usage:        4 bytes
  6968 ;; Hardware stack levels used: 1
  6969 ;; This function calls:
  6970 ;;		Nothing
  6971 ;; This function is called by:
  6972 ;;		_main
  6973 ;; This function uses a non-reentrant model
  6974 ;;
  6975                           
  6976     1054                     _read_adc:	
  6977                           ;psect for function _read_adc
  6978                           
  6979                           
  6980                           ;incstack = 0
  6981                           ; Regs used in _read_adc: [wreg+status,2+status,0]
  6982                           ;read_adc@canal stored from wreg
  6983     1054  00F3               	movwf	read_adc@canal
  6984     1055                     l2953:
  6985                           
  6986                           ;atividade7.c: 65: }
  6987     1055  30C5               	movlw	197
  6988     1056  1283               	bcf	3,5	;RP0=0, select bank0
  6989     1057  1303               	bcf	3,6	;RP1=0, select bank0
  6990     1058  059F               	andwf	31,f	;volatile
  6991                           
  6992                           ;atividade7.c: 66: 
  6993     1059  0873               	movf	read_adc@canal,w	;volatile
  6994     105A  00F2               	movwf	??_read_adc
  6995     105B  3002               	movlw	2
  6996     105C                     u4435:
  6997     105C  1003               	clrc
  6998     105D  0DF2               	rlf	??_read_adc,f
  6999     105E  3EFF               	addlw	-1
  7000     105F  1D03               	skipz
  7001     1060  285C               	goto	u4435
  7002     1061  1003               	clrc
  7003     1062  0D72               	rlf	??_read_adc,w
  7004     1063  049F               	iorwf	31,f	;volatile
  7005     1064                     l2955:
  7006                           
  7007                           ;atividade7.c: 67: 
  7008     1064  3021               	movlw	33
  7009     1065  00F2               	movwf	??_read_adc
  7010     1066                     u4607:
  7011     1066  0BF2               	decfsz	??_read_adc,f
  7012     1067  2866               	goto	u4607
  7013     1068                     l2957:
  7014                           
  7015                           ;atividade7.c: 68: void lcd_command(unsigned char cmd) {
  7016     1068  1283               	bcf	3,5	;RP0=0, select bank0
  7017     1069  1303               	bcf	3,6	;RP1=0, select bank0
  7018     106A  151F               	bsf	31,2	;volatile
  7019     106B                     l50:	
  7020                           ;atividade7.c: 69:     PORTD = cmd;
  7021                           
  7022     106B  191F               	btfsc	31,2	;volatile
  7023     106C  286E               	goto	u4441
  7024     106D  286F               	goto	u4440
  7025     106E                     u4441:
  7026     106E  286B               	goto	l50
  7027     106F                     u4440:
  7028     106F                     l2959:
  7029                           
  7030                           ;atividade7.c: 70:     PORTEbits.RE0 = 0;
  7031     106F  081E               	movf	30,w	;volatile
  7032     1070  00F1               	movwf	?_read_adc+1
  7033     1071  1683               	bsf	3,5	;RP0=1, select bank1
  7034     1072  1303               	bcf	3,6	;RP1=0, select bank1
  7035     1073  081E               	movf	30,w	;volatile
  7036     1074  00F0               	movwf	?_read_adc
  7037     1075                     l53:
  7038     1075  0008               	return
  7039     1076                     __end_of_read_adc:
  7040                           
  7041                           	psect	text26
  7042     10BF                     __ptext26:	
  7043 ;; *************** function _lcd_string *****************
  7044 ;; Defined at:
  7045 ;;		line 101 in file "atividade7.c"
  7046 ;; Parameters:    Size  Location     Type
  7047 ;;  str             2    3[COMMON] PTR const unsigned char 
  7048 ;;		 -> buffer(16), STR_1(8), 
  7049 ;; Auto vars:     Size  Location     Type
  7050 ;;		None
  7051 ;; Return value:  Size  Location     Type
  7052 ;;                  1    wreg      void 
  7053 ;; Registers used:
  7054 ;;		wreg, fsr0l, fsr0h, status,2, status,0, btemp+1, pclath, cstack
  7055 ;; Tracked objects:
  7056 ;;		On entry : 0/0
  7057 ;;		On exit  : 0/0
  7058 ;;		Unchanged: 0/0
  7059 ;; Data sizes:     COMMON   BANK0   BANK1   BANK3   BANK2
  7060 ;;      Params:         2       0       0       0       0
  7061 ;;      Locals:         0       0       0       0       0
  7062 ;;      Temps:          0       0       0       0       0
  7063 ;;      Totals:         2       0       0       0       0
  7064 ;;Total ram usage:        2 bytes
  7065 ;; Hardware stack levels used: 1
  7066 ;; Hardware stack levels required when called: 1
  7067 ;; This function calls:
  7068 ;;		_lcd_data
  7069 ;; This function is called by:
  7070 ;;		_main
  7071 ;; This function uses a non-reentrant model
  7072 ;;
  7073                           
  7074     10BF                     _lcd_string:	
  7075                           ;psect for function _lcd_string
  7076                           
  7077     10BF                     l2945:	
  7078                           ;incstack = 0
  7079                           ; Regs used in _lcd_string: [wreg-fsr0h+status,2+status,0+btemp+1+pclath+cstack]
  7080                           
  7081     10BF  28D4               	goto	l2951
  7082     10C0                     l2947:
  7083     10C0  0874               	movf	lcd_string@str+1,w
  7084     10C1  00FF               	movwf	btemp+1
  7085     10C2  0873               	movf	lcd_string@str,w
  7086     10C3  0084               	movwf	4
  7087     10C4  160A  118A  2000  160A  118A  	fcall	stringtab
  7088     10C9  160A  158A  279D  160A  118A  	fcall	_lcd_data
  7089     10CE                     l2949:
  7090     10CE  3001               	movlw	1
  7091     10CF  07F3               	addwf	lcd_string@str,f
  7092     10D0  1803               	skipnc
  7093     10D1  0AF4               	incf	lcd_string@str+1,f
  7094     10D2  3000               	movlw	0
  7095     10D3  07F4               	addwf	lcd_string@str+1,f
  7096     10D4                     l2951:
  7097     10D4  0874               	movf	lcd_string@str+1,w
  7098     10D5  1283               	bcf	3,5	;RP0=0, select bank0
  7099     10D6  1303               	bcf	3,6	;RP1=0, select bank0
  7100     10D7  00FF               	movwf	btemp+1
  7101     10D8  0873               	movf	lcd_string@str,w
  7102     10D9  0084               	movwf	4
  7103     10DA  160A  118A  2000  160A  118A  	fcall	stringtab
  7104     10DF  3A00               	xorlw	0
  7105     10E0  1D03               	skipz
  7106     10E1  28E3               	goto	u4421
  7107     10E2  28E4               	goto	u4420
  7108     10E3                     u4421:
  7109     10E3  28C0               	goto	l2947
  7110     10E4                     u4420:
  7111     10E4                     l68:
  7112     10E4  0008               	return
  7113     10E5                     __end_of_lcd_string:
  7114                           
  7115                           	psect	text27
  7116     1F9D                     __ptext27:	
  7117 ;; *************** function _lcd_data *****************
  7118 ;; Defined at:
  7119 ;;		line 92 in file "atividade7.c"
  7120 ;; Parameters:    Size  Location     Type
  7121 ;;  data            1    wreg     unsigned char 
  7122 ;; Auto vars:     Size  Location     Type
  7123 ;;  data            1    2[COMMON] unsigned char 
  7124 ;; Return value:  Size  Location     Type
  7125 ;;                  1    wreg      void 
  7126 ;; Registers used:
  7127 ;;		wreg
  7128 ;; Tracked objects:
  7129 ;;		On entry : 0/0
  7130 ;;		On exit  : 0/0
  7131 ;;		Unchanged: 0/0
  7132 ;; Data sizes:     COMMON   BANK0   BANK1   BANK3   BANK2
  7133 ;;      Params:         0       0       0       0       0
  7134 ;;      Locals:         1       0       0       0       0
  7135 ;;      Temps:          2       0       0       0       0
  7136 ;;      Totals:         3       0       0       0       0
  7137 ;;Total ram usage:        3 bytes
  7138 ;; Hardware stack levels used: 1
  7139 ;; This function calls:
  7140 ;;		Nothing
  7141 ;; This function is called by:
  7142 ;;		_lcd_string
  7143 ;; This function uses a non-reentrant model
  7144 ;;
  7145                           
  7146     1F9D                     _lcd_data:	
  7147                           ;psect for function _lcd_data
  7148                           
  7149                           
  7150                           ;incstack = 0
  7151                           ; Regs used in _lcd_data: [wreg]
  7152                           ;lcd_data@data stored from wreg
  7153     1F9D  00F2               	movwf	lcd_data@data
  7154     1F9E                     l2921:
  7155     1F9E  0872               	movf	lcd_data@data,w
  7156     1F9F  1283               	bcf	3,5	;RP0=0, select bank0
  7157     1FA0  1303               	bcf	3,6	;RP1=0, select bank0
  7158     1FA1  0088               	movwf	8	;volatile
  7159     1FA2                     l2923:
  7160     1FA2  1409               	bsf	9,0	;volatile
  7161     1FA3                     l2925:
  7162     1FA3  1489               	bsf	9,1	;volatile
  7163     1FA4  300D               	movlw	13
  7164     1FA5  00F1               	movwf	??_lcd_data+1
  7165     1FA6  30FB               	movlw	251
  7166     1FA7  00F0               	movwf	??_lcd_data
  7167     1FA8                     u4617:
  7168     1FA8  0BF0               	decfsz	??_lcd_data,f
  7169     1FA9  2FA8               	goto	u4617
  7170     1FAA  0BF1               	decfsz	??_lcd_data+1,f
  7171     1FAB  2FA8               	goto	u4617
  7172     1FAC  2FAD               	nop2
  7173     1FAD                     l2927:
  7174     1FAD  1283               	bcf	3,5	;RP0=0, select bank0
  7175     1FAE  1303               	bcf	3,6	;RP1=0, select bank0
  7176     1FAF  1089               	bcf	9,1	;volatile
  7177     1FB0                     l62:
  7178     1FB0  0008               	return
  7179     1FB1                     __end_of_lcd_data:
  7180                           
  7181                           	psect	text28
  7182     1032                     __ptext28:	
  7183 ;; *************** function _lcd_initialise *****************
  7184 ;; Defined at:
  7185 ;;		line 74 in file "atividade7.c"
  7186 ;; Parameters:    Size  Location     Type
  7187 ;;		None
  7188 ;; Auto vars:     Size  Location     Type
  7189 ;;		None
  7190 ;; Return value:  Size  Location     Type
  7191 ;;                  1    wreg      void 
  7192 ;; Registers used:
  7193 ;;		wreg, status,2, status,0, pclath, cstack
  7194 ;; Tracked objects:
  7195 ;;		On entry : 0/0
  7196 ;;		On exit  : 0/0
  7197 ;;		Unchanged: 0/0
  7198 ;; Data sizes:     COMMON   BANK0   BANK1   BANK3   BANK2
  7199 ;;      Params:         0       0       0       0       0
  7200 ;;      Locals:         0       0       0       0       0
  7201 ;;      Temps:          2       0       0       0       0
  7202 ;;      Totals:         2       0       0       0       0
  7203 ;;Total ram usage:        2 bytes
  7204 ;; Hardware stack levels used: 1
  7205 ;; Hardware stack levels required when called: 1
  7206 ;; This function calls:
  7207 ;;		_lcd_command
  7208 ;; This function is called by:
  7209 ;;		_main
  7210 ;; This function uses a non-reentrant model
  7211 ;;
  7212                           
  7213     1032                     _lcd_initialise:	
  7214                           ;psect for function _lcd_initialise
  7215                           
  7216     1032                     l2939:	
  7217                           ;incstack = 0
  7218                           ; Regs used in _lcd_initialise: [wreg+status,2+status,0+pclath+cstack]
  7219                           
  7220                           
  7221                           ;atividade7.c: 75: 
  7222     1032  3038               	movlw	56
  7223     1033  160A  158A  2789  160A  118A  	fcall	_lcd_command
  7224                           
  7225                           ;atividade7.c: 76: 
  7226     1038  300C               	movlw	12
  7227     1039  160A  158A  2789  160A  118A  	fcall	_lcd_command
  7228                           
  7229                           ;atividade7.c: 77: void lcd_data(unsigned char data) {
  7230     103E  3006               	movlw	6
  7231     103F  160A  158A  2789  160A  118A  	fcall	_lcd_command
  7232                           
  7233                           ;atividade7.c: 78:     PORTD = data;
  7234     1044  3001               	movlw	1
  7235     1045  160A  158A  2789  160A  118A  	fcall	_lcd_command
  7236     104A                     l2941:
  7237                           
  7238                           ;atividade7.c: 79:     PORTEbits.RE0 = 1;
  7239     104A  300D               	movlw	13
  7240     104B  00F4               	movwf	??_lcd_initialise+1
  7241     104C  30FB               	movlw	251
  7242     104D  00F3               	movwf	??_lcd_initialise
  7243     104E                     u4627:
  7244     104E  0BF3               	decfsz	??_lcd_initialise,f
  7245     104F  284E               	goto	u4627
  7246     1050  0BF4               	decfsz	??_lcd_initialise+1,f
  7247     1051  284E               	goto	u4627
  7248     1052  2853               	nop2
  7249     1053                     l56:
  7250     1053  0008               	return
  7251     1054                     __end_of_lcd_initialise:
  7252                           
  7253                           	psect	text29
  7254     1F89                     __ptext29:	
  7255 ;; *************** function _lcd_command *****************
  7256 ;; Defined at:
  7257 ;;		line 83 in file "atividade7.c"
  7258 ;; Parameters:    Size  Location     Type
  7259 ;;  cmd             1    wreg     unsigned char 
  7260 ;; Auto vars:     Size  Location     Type
  7261 ;;  cmd             1    2[COMMON] unsigned char 
  7262 ;; Return value:  Size  Location     Type
  7263 ;;                  1    wreg      void 
  7264 ;; Registers used:
  7265 ;;		wreg
  7266 ;; Tracked objects:
  7267 ;;		On entry : 0/0
  7268 ;;		On exit  : 0/0
  7269 ;;		Unchanged: 0/0
  7270 ;; Data sizes:     COMMON   BANK0   BANK1   BANK3   BANK2
  7271 ;;      Params:         0       0       0       0       0
  7272 ;;      Locals:         1       0       0       0       0
  7273 ;;      Temps:          2       0       0       0       0
  7274 ;;      Totals:         3       0       0       0       0
  7275 ;;Total ram usage:        3 bytes
  7276 ;; Hardware stack levels used: 1
  7277 ;; This function calls:
  7278 ;;		Nothing
  7279 ;; This function is called by:
  7280 ;;		_main
  7281 ;;		_lcd_initialise
  7282 ;; This function uses a non-reentrant model
  7283 ;;
  7284                           
  7285     1F89                     _lcd_command:	
  7286                           ;psect for function _lcd_command
  7287                           
  7288                           
  7289                           ;incstack = 0
  7290                           ; Regs used in _lcd_command: [wreg]
  7291                           ;lcd_command@cmd stored from wreg
  7292     1F89  00F2               	movwf	lcd_command@cmd
  7293     1F8A                     l2913:
  7294                           
  7295                           ;atividade7.c: 84: 
  7296     1F8A  0872               	movf	lcd_command@cmd,w
  7297     1F8B  1283               	bcf	3,5	;RP0=0, select bank0
  7298     1F8C  1303               	bcf	3,6	;RP1=0, select bank0
  7299     1F8D  0088               	movwf	8	;volatile
  7300     1F8E                     l2915:
  7301                           
  7302                           ;atividade7.c: 85: 
  7303     1F8E  1009               	bcf	9,0	;volatile
  7304     1F8F                     l2917:
  7305                           
  7306                           ;atividade7.c: 86: void lcd_string(const char *str) {
  7307     1F8F  1489               	bsf	9,1	;volatile
  7308                           
  7309                           ;atividade7.c: 87:     while (*str) {
  7310     1F90  300D               	movlw	13
  7311     1F91  00F1               	movwf	??_lcd_command+1
  7312     1F92  30FB               	movlw	251
  7313     1F93  00F0               	movwf	??_lcd_command
  7314     1F94                     u4637:
  7315     1F94  0BF0               	decfsz	??_lcd_command,f
  7316     1F95  2F94               	goto	u4637
  7317     1F96  0BF1               	decfsz	??_lcd_command+1,f
  7318     1F97  2F94               	goto	u4637
  7319     1F98  2F99               	nop2
  7320     1F99                     l2919:
  7321                           
  7322                           ;atividade7.c: 88:         lcd_data(*str++);
  7323     1F99  1283               	bcf	3,5	;RP0=0, select bank0
  7324     1F9A  1303               	bcf	3,6	;RP1=0, select bank0
  7325     1F9B  1089               	bcf	9,1	;volatile
  7326     1F9C                     l59:
  7327     1F9C  0008               	return
  7328     1F9D                     __end_of_lcd_command:
  7329                           
  7330                           	psect	text30
  7331     0802                     __ptext30:	
  7332 ;; *************** function _adc_initialise *****************
  7333 ;; Defined at:
  7334 ;;		line 57 in file "atividade7.c"
  7335 ;; Parameters:    Size  Location     Type
  7336 ;;		None
  7337 ;; Auto vars:     Size  Location     Type
  7338 ;;		None
  7339 ;; Return value:  Size  Location     Type
  7340 ;;                  1    wreg      void 
  7341 ;; Registers used:
  7342 ;;		None
  7343 ;; Tracked objects:
  7344 ;;		On entry : 0/0
  7345 ;;		On exit  : 0/0
  7346 ;;		Unchanged: 0/0
  7347 ;; Data sizes:     COMMON   BANK0   BANK1   BANK3   BANK2
  7348 ;;      Params:         0       0       0       0       0
  7349 ;;      Locals:         0       0       0       0       0
  7350 ;;      Temps:          0       0       0       0       0
  7351 ;;      Totals:         0       0       0       0       0
  7352 ;;Total ram usage:        0 bytes
  7353 ;; Hardware stack levels used: 1
  7354 ;; This function calls:
  7355 ;;		Nothing
  7356 ;; This function is called by:
  7357 ;;		_main
  7358 ;; This function uses a non-reentrant model
  7359 ;;
  7360                           
  7361     0802                     _adc_initialise:	
  7362                           ;psect for function _adc_initialise
  7363                           
  7364     0802                     l2943:	
  7365                           ;incstack = 0
  7366                           ; Regs used in _adc_initialise: []
  7367                           
  7368                           
  7369                           ;atividade7.c: 58: 
  7370     0802  3099               	movlw	153
  7371     0803  1283               	bcf	3,5	;RP0=0, select bank0
  7372     0804  1303               	bcf	3,6	;RP1=0, select bank0
  7373     0805  009F               	movwf	31	;volatile
  7374                           
  7375                           ;atividade7.c: 59: void lcd_initialise() {
  7376     0806  3082               	movlw	130
  7377     0807  1683               	bsf	3,5	;RP0=1, select bank1
  7378     0808  1303               	bcf	3,6	;RP1=0, select bank1
  7379     0809  009F               	movwf	31	;volatile
  7380     080A                     l47:
  7381     080A  0008               	return
  7382     080B                     __end_of_adc_initialise:
  7383                           
  7384                           	psect	text31
  7385     141E                     __ptext31:	
  7386 ;; *************** function ___xxtofl *****************
  7387 ;; Defined at:
  7388 ;;		line 10 in file "C:\Program Files\Microchip\xc8\v2.50\pic\sources\c99\common\xxtofl.c"
  7389 ;; Parameters:    Size  Location     Type
  7390 ;;  sign            1    wreg     unsigned char 
  7391 ;;  val             4    0[COMMON] long 
  7392 ;; Auto vars:     Size  Location     Type
  7393 ;;  sign            1    8[COMMON] unsigned char 
  7394 ;;  arg             4   10[COMMON] unsigned long 
  7395 ;;  exp             1    9[COMMON] unsigned char 
  7396 ;; Return value:  Size  Location     Type
  7397 ;;                  4    0[COMMON] unsigned char 
  7398 ;; Registers used:
  7399 ;;		wreg, status,2, status,0
  7400 ;; Tracked objects:
  7401 ;;		On entry : 0/0
  7402 ;;		On exit  : 0/0
  7403 ;;		Unchanged: 0/0
  7404 ;; Data sizes:     COMMON   BANK0   BANK1   BANK3   BANK2
  7405 ;;      Params:         4       0       0       0       0
  7406 ;;      Locals:         6       0       0       0       0
  7407 ;;      Temps:          4       0       0       0       0
  7408 ;;      Totals:        14       0       0       0       0
  7409 ;;Total ram usage:       14 bytes
  7410 ;; Hardware stack levels used: 1
  7411 ;; This function calls:
  7412 ;;		Nothing
  7413 ;; This function is called by:
  7414 ;;		_main
  7415 ;; This function uses a non-reentrant model
  7416 ;;
  7417                           
  7418     141E                     ___xxtofl:	
  7419                           ;psect for function ___xxtofl
  7420                           
  7421                           
  7422                           ;incstack = 0
  7423                           ; Regs used in ___xxtofl: [wreg+status,2+status,0]
  7424                           ;___xxtofl@sign stored from wreg
  7425     141E  00F8               	movwf	___xxtofl@sign
  7426     141F                     l2977:
  7427     141F  0878               	movf	___xxtofl@sign,w
  7428     1420  1903               	btfsc	3,2
  7429     1421  2C23               	goto	u4451
  7430     1422  2C24               	goto	u4450
  7431     1423                     u4451:
  7432     1423  2C38               	goto	l2983
  7433     1424                     u4450:
  7434     1424                     l2979:
  7435     1424  1FF3               	btfss	___xxtofl@val+3,7
  7436     1425  2C27               	goto	u4461
  7437     1426  2C28               	goto	u4460
  7438     1427                     u4461:
  7439     1427  2C38               	goto	l2983
  7440     1428                     u4460:
  7441     1428                     l2981:
  7442     1428  0970               	comf	___xxtofl@val,w
  7443     1429  00FA               	movwf	___xxtofl@arg
  7444     142A  0971               	comf	___xxtofl@val+1,w
  7445     142B  00FB               	movwf	___xxtofl@arg+1
  7446     142C  0972               	comf	___xxtofl@val+2,w
  7447     142D  00FC               	movwf	___xxtofl@arg+2
  7448     142E  0973               	comf	___xxtofl@val+3,w
  7449     142F  00FD               	movwf	___xxtofl@arg+3
  7450     1430  0AFA               	incf	___xxtofl@arg,f
  7451     1431  1903               	skipnz
  7452     1432  0AFB               	incf	___xxtofl@arg+1,f
  7453     1433  1903               	skipnz
  7454     1434  0AFC               	incf	___xxtofl@arg+2,f
  7455     1435  1903               	skipnz
  7456     1436  0AFD               	incf	___xxtofl@arg+3,f
  7457     1437  2C40               	goto	l595
  7458     1438                     l2983:
  7459     1438  0873               	movf	___xxtofl@val+3,w
  7460     1439  00FD               	movwf	___xxtofl@arg+3
  7461     143A  0872               	movf	___xxtofl@val+2,w
  7462     143B  00FC               	movwf	___xxtofl@arg+2
  7463     143C  0871               	movf	___xxtofl@val+1,w
  7464     143D  00FB               	movwf	___xxtofl@arg+1
  7465     143E  0870               	movf	___xxtofl@val,w
  7466     143F  00FA               	movwf	___xxtofl@arg
  7467     1440                     l595:
  7468     1440  0873               	movf	___xxtofl@val+3,w
  7469     1441  0472               	iorwf	___xxtofl@val+2,w
  7470     1442  0471               	iorwf	___xxtofl@val+1,w
  7471     1443  0470               	iorwf	___xxtofl@val,w
  7472     1444  1D03               	skipz
  7473     1445  2C47               	goto	u4471
  7474     1446  2C48               	goto	u4470
  7475     1447                     u4471:
  7476     1447  2C51               	goto	l596
  7477     1448                     u4470:
  7478     1448                     l2985:
  7479     1448  3000               	movlw	0
  7480     1449  00F3               	movwf	?___xxtofl+3
  7481     144A  3000               	movlw	0
  7482     144B  00F2               	movwf	?___xxtofl+2
  7483     144C  3000               	movlw	0
  7484     144D  00F1               	movwf	?___xxtofl+1
  7485     144E  3000               	movlw	0
  7486     144F  00F0               	movwf	?___xxtofl
  7487     1450  2CD1               	goto	l597
  7488     1451                     l596:
  7489     1451  3096               	movlw	150
  7490     1452  00F9               	movwf	___xxtofl@exp
  7491     1453  2C5F               	goto	l2991
  7492     1454                     l2989:
  7493     1454  3001               	movlw	1
  7494     1455  07F9               	addwf	___xxtofl@exp,f
  7495     1456  3001               	movlw	1
  7496     1457                     u4485:
  7497     1457  1003               	clrc
  7498     1458  0CFD               	rrf	___xxtofl@arg+3,f
  7499     1459  0CFC               	rrf	___xxtofl@arg+2,f
  7500     145A  0CFB               	rrf	___xxtofl@arg+1,f
  7501     145B  0CFA               	rrf	___xxtofl@arg,f
  7502     145C  3EFF               	addlw	-1
  7503     145D  1D03               	skipz
  7504     145E  2C57               	goto	u4485
  7505     145F                     l2991:
  7506     145F  30FE               	movlw	254
  7507     1460  057D               	andwf	___xxtofl@arg+3,w
  7508     1461  1D03               	btfss	3,2
  7509     1462  2C64               	goto	u4491
  7510     1463  2C65               	goto	u4490
  7511     1464                     u4491:
  7512     1464  2C54               	goto	l2989
  7513     1465                     u4490:
  7514     1465  2C7F               	goto	l601
  7515     1466                     l2993:
  7516     1466  3001               	movlw	1
  7517     1467  07F9               	addwf	___xxtofl@exp,f
  7518     1468                     l2995:
  7519     1468  3001               	movlw	1
  7520     1469  07FA               	addwf	___xxtofl@arg,f
  7521     146A  3000               	movlw	0
  7522     146B  1803               	skipnc
  7523     146C  3001               	movlw	1
  7524     146D  07FB               	addwf	___xxtofl@arg+1,f
  7525     146E  3000               	movlw	0
  7526     146F  1803               	skipnc
  7527     1470  3001               	movlw	1
  7528     1471  07FC               	addwf	___xxtofl@arg+2,f
  7529     1472  3000               	movlw	0
  7530     1473  1803               	skipnc
  7531     1474  3001               	movlw	1
  7532     1475  07FD               	addwf	___xxtofl@arg+3,f
  7533     1476                     l2997:
  7534     1476  3001               	movlw	1
  7535     1477                     u4505:
  7536     1477  1003               	clrc
  7537     1478  0CFD               	rrf	___xxtofl@arg+3,f
  7538     1479  0CFC               	rrf	___xxtofl@arg+2,f
  7539     147A  0CFB               	rrf	___xxtofl@arg+1,f
  7540     147B  0CFA               	rrf	___xxtofl@arg,f
  7541     147C  3EFF               	addlw	-1
  7542     147D  1D03               	skipz
  7543     147E  2C77               	goto	u4505
  7544     147F                     l601:
  7545     147F  30FF               	movlw	255
  7546     1480  057D               	andwf	___xxtofl@arg+3,w
  7547     1481  1D03               	btfss	3,2
  7548     1482  2C84               	goto	u4511
  7549     1483  2C85               	goto	u4510
  7550     1484                     u4511:
  7551     1484  2C66               	goto	l2993
  7552     1485                     u4510:
  7553     1485  2C91               	goto	l3001
  7554     1486                     l2999:
  7555     1486  3001               	movlw	1
  7556     1487  02F9               	subwf	___xxtofl@exp,f
  7557     1488  3001               	movlw	1
  7558     1489  00F4               	movwf	??___xxtofl
  7559     148A                     u4525:
  7560     148A  1003               	clrc
  7561     148B  0DFA               	rlf	___xxtofl@arg,f
  7562     148C  0DFB               	rlf	___xxtofl@arg+1,f
  7563     148D  0DFC               	rlf	___xxtofl@arg+2,f
  7564     148E  0DFD               	rlf	___xxtofl@arg+3,f
  7565     148F  0BF4               	decfsz	??___xxtofl,f
  7566     1490  2C8A               	goto	u4525
  7567     1491                     l3001:
  7568     1491  1BFC               	btfsc	___xxtofl@arg+2,7
  7569     1492  2C94               	goto	u4531
  7570     1493  2C95               	goto	u4530
  7571     1494                     u4531:
  7572     1494  2C9B               	goto	l608
  7573     1495                     u4530:
  7574     1495                     l3003:
  7575     1495  3002               	movlw	2
  7576     1496  0279               	subwf	___xxtofl@exp,w
  7577     1497  1803               	skipnc
  7578     1498  2C9A               	goto	u4541
  7579     1499  2C9B               	goto	u4540
  7580     149A                     u4541:
  7581     149A  2C86               	goto	l2999
  7582     149B                     u4540:
  7583     149B                     l608:
  7584     149B  1879               	btfsc	___xxtofl@exp,0
  7585     149C  2C9E               	goto	u4551
  7586     149D  2C9F               	goto	u4550
  7587     149E                     u4551:
  7588     149E  2CA7               	goto	l609
  7589     149F                     u4550:
  7590     149F                     l3005:
  7591     149F  30FF               	movlw	255
  7592     14A0  05FA               	andwf	___xxtofl@arg,f
  7593     14A1  30FF               	movlw	255
  7594     14A2  05FB               	andwf	___xxtofl@arg+1,f
  7595     14A3  307F               	movlw	127
  7596     14A4  05FC               	andwf	___xxtofl@arg+2,f
  7597     14A5  30FF               	movlw	255
  7598     14A6  05FD               	andwf	___xxtofl@arg+3,f
  7599     14A7                     l609:
  7600     14A7  1003               	clrc
  7601     14A8  0CF9               	rrf	___xxtofl@exp,f
  7602     14A9                     l3007:
  7603     14A9  0879               	movf	___xxtofl@exp,w
  7604     14AA  00F4               	movwf	??___xxtofl
  7605     14AB  01F5               	clrf	??___xxtofl+1
  7606     14AC  01F6               	clrf	??___xxtofl+2
  7607     14AD  01F7               	clrf	??___xxtofl+3
  7608     14AE  3018               	movlw	24
  7609     14AF                     u4565:
  7610     14AF  1003               	clrc
  7611     14B0  0DF4               	rlf	??___xxtofl,f
  7612     14B1  0DF5               	rlf	??___xxtofl+1,f
  7613     14B2  0DF6               	rlf	??___xxtofl+2,f
  7614     14B3  0DF7               	rlf	??___xxtofl+3,f
  7615     14B4                     u4560:
  7616     14B4  3EFF               	addlw	-1
  7617     14B5  1D03               	skipz
  7618     14B6  2CAF               	goto	u4565
  7619     14B7  0874               	movf	??___xxtofl,w
  7620     14B8  04FA               	iorwf	___xxtofl@arg,f
  7621     14B9  0875               	movf	??___xxtofl+1,w
  7622     14BA  04FB               	iorwf	___xxtofl@arg+1,f
  7623     14BB  0876               	movf	??___xxtofl+2,w
  7624     14BC  04FC               	iorwf	___xxtofl@arg+2,f
  7625     14BD  0877               	movf	??___xxtofl+3,w
  7626     14BE  04FD               	iorwf	___xxtofl@arg+3,f
  7627     14BF                     l3009:
  7628     14BF  0878               	movf	___xxtofl@sign,w
  7629     14C0  1903               	btfsc	3,2
  7630     14C1  2CC3               	goto	u4571
  7631     14C2  2CC4               	goto	u4570
  7632     14C3                     u4571:
  7633     14C3  2CC9               	goto	l3015
  7634     14C4                     u4570:
  7635     14C4                     l3011:
  7636     14C4  1FF3               	btfss	___xxtofl@val+3,7
  7637     14C5  2CC7               	goto	u4581
  7638     14C6  2CC8               	goto	u4580
  7639     14C7                     u4581:
  7640     14C7  2CC9               	goto	l3015
  7641     14C8                     u4580:
  7642     14C8                     l3013:
  7643     14C8  17FD               	bsf	___xxtofl@arg+3,7
  7644     14C9                     l3015:
  7645     14C9  087D               	movf	___xxtofl@arg+3,w
  7646     14CA  00F3               	movwf	?___xxtofl+3
  7647     14CB  087C               	movf	___xxtofl@arg+2,w
  7648     14CC  00F2               	movwf	?___xxtofl+2
  7649     14CD  087B               	movf	___xxtofl@arg+1,w
  7650     14CE  00F1               	movwf	?___xxtofl+1
  7651     14CF  087A               	movf	___xxtofl@arg,w
  7652     14D0  00F0               	movwf	?___xxtofl
  7653     14D1                     l597:
  7654     14D1  0008               	return
  7655     14D2                     __end_of___xxtofl:
  7656     0002                     ___latbits      equ	2
  7657     007E                     btemp           set	126	;btemp
  7658     007E                     wtemp0          set	126
  7659                           
  7660                           	psect	config
  7661                           
  7662                           ;Config register CONFIG @ 0x2007
  7663                           ;	Oscillator Selection bits
  7664                           ;	FOSC = HS, HS oscillator
  7665                           ;	Watchdog Timer Enable bit
  7666                           ;	WDTE = OFF, WDT disabled
  7667                           ;	Power-up Timer Enable bit
  7668                           ;	PWRTE = OFF, PWRT disabled
  7669                           ;	FLASH Program Memory Code Protection bits
  7670                           ;	CP = OFF, Code protection off
  7671                           ;	Brown-out Reset Enable bit
  7672                           ;	BOREN = OFF, BOR disabled
  7673                           ;	Low Voltage In-Circuit Serial Programming Enable bit
  7674                           ;	LVP = OFF, RB3 is digital I/O, HV on MCLR must be used for programming
  7675                           ;	Data EE Memory Code Protection
  7676                           ;	CPD = OFF, Code Protection off
  7677                           ;	FLASH Program Memory Write Enable
  7678                           ;	WRT = OFF, Unprotected program memory may not be written to by EECON control
  7679                           ;	In-Circuit Debugger Mode bit
  7680                           ;	DEBUG = 0x1, unprogrammed default
  7681     2007                     	org	8199
  7682     2007  3D3A               	dw	15674
  7683                           
  7684                           	psect	text6_split_1
  7685     00C8                     l2675:
  7686                           
  7687                           ;C:\Program Files\Microchip\xc8\v2.50\pic\sources\c99\common\doprnt.c: 657:     u.f = 1.
      +                          0;
  7688     00C8  303F               	movlw	63
  7689     00C9  1683               	bsf	3,5	;RP0=1, select bank1
  7690     00CA  1303               	bcf	3,6	;RP1=0, select bank1
  7691     00CB  00CF               	movwf	(efgtoa@u+3)^(0+128)
  7692     00CC  3080               	movlw	128
  7693     00CD  00CE               	movwf	(efgtoa@u+2)^(0+128)
  7694     00CE  3000               	movlw	0
  7695     00CF  00CD               	movwf	(efgtoa@u+1)^(0+128)
  7696     00D0  3000               	movlw	0
  7697     00D1  00CC               	movwf	efgtoa@u^(0+128)
  7698     00D2                     l2677:
  7699                           
  7700                           ;C:\Program Files\Microchip\xc8\v2.50\pic\sources\c99\common\doprnt.c: 658:     e = 0;
  7701     00D2  01B3               	clrf	efgtoa@e^(0+128)
  7702     00D3  01B4               	clrf	(efgtoa@e+1)^(0+128)
  7703     00D4                     l2679:
  7704                           
  7705                           ;C:\Program Files\Microchip\xc8\v2.50\pic\sources\c99\common\doprnt.c: 659:  if (!(g.f =
      +                          = 0.0)) {
  7706     00D4  084B               	movf	(efgtoa@g+3)^(0+128),w
  7707     00D5  00F3               	movwf	___fleq@ff1+3
  7708     00D6  084A               	movf	(efgtoa@g+2)^(0+128),w
  7709     00D7  00F2               	movwf	___fleq@ff1+2
  7710     00D8  0849               	movf	(efgtoa@g+1)^(0+128),w
  7711     00D9  00F1               	movwf	___fleq@ff1+1
  7712     00DA  0848               	movf	efgtoa@g^(0+128),w
  7713     00DB  00F0               	movwf	___fleq@ff1
  7714     00DC  3000               	movlw	0
  7715     00DD  00F7               	movwf	___fleq@ff2+3
  7716     00DE  3000               	movlw	0
  7717     00DF  00F6               	movwf	___fleq@ff2+2
  7718     00E0  3000               	movlw	0
  7719     00E1  00F5               	movwf	___fleq@ff2+1
  7720     00E2  3000               	movlw	0
  7721     00E3  00F4               	movwf	___fleq@ff2
  7722     00E4  160A  118A  21C9  120A  118A  	fcall	___fleq
  7723     00E9  1803               	btfsc	3,0
  7724     00EA  28EC               	goto	u4081
  7725     00EB  28ED               	goto	u4080
  7726     00EC                     u4081:
  7727     00EC  2AB6               	goto	l2705
  7728     00ED                     u4080:
  7729     00ED  28FE               	goto	l2685
  7730     00EE                     l2683:
  7731                           
  7732                           ;C:\Program Files\Microchip\xc8\v2.50\pic\sources\c99\common\doprnt.c: 661:    u = ou;
  7733     00EE  1683               	bsf	3,5	;RP0=1, select bank1
  7734     00EF  1303               	bcf	3,6	;RP1=0, select bank1
  7735     00F0  083A               	movf	(efgtoa@ou+3)^(0+128),w
  7736     00F1  00CF               	movwf	(efgtoa@u+3)^(0+128)
  7737     00F2  0839               	movf	(efgtoa@ou+2)^(0+128),w
  7738     00F3  00CE               	movwf	(efgtoa@u+2)^(0+128)
  7739     00F4  0838               	movf	(efgtoa@ou+1)^(0+128),w
  7740     00F5  00CD               	movwf	(efgtoa@u+1)^(0+128)
  7741     00F6  0837               	movf	efgtoa@ou^(0+128),w
  7742     00F7  00CC               	movwf	efgtoa@u^(0+128)
  7743                           
  7744                           ;C:\Program Files\Microchip\xc8\v2.50\pic\sources\c99\common\doprnt.c: 662:    ++e;
  7745     00F8  3001               	movlw	1
  7746     00F9  07B3               	addwf	efgtoa@e^(0+128),f
  7747     00FA  1803               	skipnc
  7748     00FB  0AB4               	incf	(efgtoa@e+1)^(0+128),f
  7749     00FC  3000               	movlw	0
  7750     00FD  07B4               	addwf	(efgtoa@e+1)^(0+128),f
  7751     00FE                     l2685:
  7752                           
  7753                           ;C:\Program Files\Microchip\xc8\v2.50\pic\sources\c99\common\doprnt.c: 660:   while ((la
      +                          bs((g).u-((ou.f = u.f*10.0,ou)).u) <= 1) || g.f > ou.f) {
  7754     00FE  3041               	movlw	65
  7755     00FF  1283               	bcf	3,5	;RP0=0, select bank0
  7756     0100  1303               	bcf	3,6	;RP1=0, select bank0
  7757     0101  00A3               	movwf	___flmul@b+3
  7758     0102  3020               	movlw	32
  7759     0103  00A2               	movwf	___flmul@b+2
  7760     0104  3000               	movlw	0
  7761     0105  00A1               	movwf	___flmul@b+1
  7762     0106  3000               	movlw	0
  7763     0107  00A0               	movwf	___flmul@b
  7764     0108  1683               	bsf	3,5	;RP0=1, select bank1
  7765     0109  1303               	bcf	3,6	;RP1=0, select bank1
  7766     010A  084F               	movf	(efgtoa@u+3)^(0+128),w
  7767     010B  1283               	bcf	3,5	;RP0=0, select bank0
  7768     010C  1303               	bcf	3,6	;RP1=0, select bank0
  7769     010D  00A7               	movwf	___flmul@a+3
  7770     010E  1683               	bsf	3,5	;RP0=1, select bank1
  7771     010F  1303               	bcf	3,6	;RP1=0, select bank1
  7772     0110  084E               	movf	(efgtoa@u+2)^(0+128),w
  7773     0111  1283               	bcf	3,5	;RP0=0, select bank0
  7774     0112  1303               	bcf	3,6	;RP1=0, select bank0
  7775     0113  00A6               	movwf	___flmul@a+2
  7776     0114  1683               	bsf	3,5	;RP0=1, select bank1
  7777     0115  1303               	bcf	3,6	;RP1=0, select bank1
  7778     0116  084D               	movf	(efgtoa@u+1)^(0+128),w
  7779     0117  1283               	bcf	3,5	;RP0=0, select bank0
  7780     0118  1303               	bcf	3,6	;RP1=0, select bank0
  7781     0119  00A5               	movwf	___flmul@a+1
  7782     011A  1683               	bsf	3,5	;RP0=1, select bank1
  7783     011B  1303               	bcf	3,6	;RP1=0, select bank1
  7784     011C  084C               	movf	efgtoa@u^(0+128),w
  7785     011D  1283               	bcf	3,5	;RP0=0, select bank0
  7786     011E  1303               	bcf	3,6	;RP1=0, select bank0
  7787     011F  00A4               	movwf	___flmul@a
  7788     0120  120A  158A  24BE  120A  118A  	fcall	___flmul
  7789     0125  1283               	bcf	3,5	;RP0=0, select bank0
  7790     0126  1303               	bcf	3,6	;RP1=0, select bank0
  7791     0127  0823               	movf	?___flmul+3,w
  7792     0128  1683               	bsf	3,5	;RP0=1, select bank1
  7793     0129  1303               	bcf	3,6	;RP1=0, select bank1
  7794     012A  00BA               	movwf	(efgtoa@ou+3)^(0+128)
  7795     012B  1283               	bcf	3,5	;RP0=0, select bank0
  7796     012C  1303               	bcf	3,6	;RP1=0, select bank0
  7797     012D  0822               	movf	?___flmul+2,w
  7798     012E  1683               	bsf	3,5	;RP0=1, select bank1
  7799     012F  1303               	bcf	3,6	;RP1=0, select bank1
  7800     0130  00B9               	movwf	(efgtoa@ou+2)^(0+128)
  7801     0131  1283               	bcf	3,5	;RP0=0, select bank0
  7802     0132  1303               	bcf	3,6	;RP1=0, select bank0
  7803     0133  0821               	movf	?___flmul+1,w
  7804     0134  1683               	bsf	3,5	;RP0=1, select bank1
  7805     0135  1303               	bcf	3,6	;RP1=0, select bank1
  7806     0136  00B8               	movwf	(efgtoa@ou+1)^(0+128)
  7807     0137  1283               	bcf	3,5	;RP0=0, select bank0
  7808     0138  1303               	bcf	3,6	;RP1=0, select bank0
  7809     0139  0820               	movf	?___flmul,w
  7810     013A  1683               	bsf	3,5	;RP0=1, select bank1
  7811     013B  1303               	bcf	3,6	;RP1=0, select bank1
  7812     013C  00B7               	movwf	efgtoa@ou^(0+128)
  7813     013D                     l2687:
  7814     013D  0848               	movf	efgtoa@g^(0+128),w
  7815     013E  00A0               	movwf	??_efgtoa^(0+128)
  7816     013F  0849               	movf	(efgtoa@g+1)^(0+128),w
  7817     0140  00A1               	movwf	(??_efgtoa^(0+128)+1)
  7818     0141  084A               	movf	(efgtoa@g+2)^(0+128),w
  7819     0142  00A2               	movwf	(??_efgtoa^(0+128)+2)
  7820     0143  084B               	movf	(efgtoa@g+3)^(0+128),w
  7821     0144  00A3               	movwf	(??_efgtoa^(0+128)+3)
  7822     0145  0837               	movf	efgtoa@ou^(0+128),w
  7823     0146  02A0               	subwf	??_efgtoa^(0+128),f
  7824     0147  0838               	movf	(efgtoa@ou+1)^(0+128),w
  7825     0148  1C03               	skipc
  7826     0149  0F38               	incfsz	(efgtoa@ou+1)^(0+128),w
  7827     014A  294C               	goto	u4091
  7828     014B  294D               	goto	u4092
  7829     014C                     u4091:
  7830     014C  02A1               	subwf	(??_efgtoa^(0+128)+1),f
  7831     014D                     u4092:
  7832     014D  0839               	movf	(efgtoa@ou+2)^(0+128),w
  7833     014E  1C03               	skipc
  7834     014F  0F39               	incfsz	(efgtoa@ou+2)^(0+128),w
  7835     0150  2952               	goto	u4093
  7836     0151  2953               	goto	u4094
  7837     0152                     u4093:
  7838     0152  02A2               	subwf	(??_efgtoa^(0+128)+2),f
  7839     0153                     u4094:
  7840     0153  083A               	movf	(efgtoa@ou+3)^(0+128),w
  7841     0154  1C03               	skipc
  7842     0155  0F3A               	incfsz	(efgtoa@ou+3)^(0+128),w
  7843     0156  2958               	goto	u4095
  7844     0157  2959               	goto	u4096
  7845     0158                     u4095:
  7846     0158  02A3               	subwf	(??_efgtoa^(0+128)+3),f
  7847     0159                     u4096:
  7848     0159  0823               	movf	(??_efgtoa+3)^(0+128),w
  7849     015A  00F3               	movwf	labs@a+3
  7850     015B  0822               	movf	(??_efgtoa+2)^(0+128),w
  7851     015C  00F2               	movwf	labs@a+2
  7852     015D  0821               	movf	(??_efgtoa+1)^(0+128),w
  7853     015E  00F1               	movwf	labs@a+1
  7854     015F  0820               	movf	??_efgtoa^(0+128),w
  7855     0160  00F0               	movwf	labs@a
  7856     0161  160A  158A  27B1  120A  118A  	fcall	_labs
  7857     0166  1BF3               	btfsc	?_labs+3,7
  7858     0167  2978               	goto	u4101
  7859     0168  0873               	movf	?_labs+3,w
  7860     0169  1D03               	btfss	3,2
  7861     016A  2979               	goto	u4100
  7862     016B  0872               	movf	?_labs+2,w
  7863     016C  1D03               	btfss	3,2
  7864     016D  2979               	goto	u4100
  7865     016E  0871               	movf	?_labs+1,w
  7866     016F  1D03               	btfss	3,2
  7867     0170  2979               	goto	u4100
  7868     0171  3002               	movlw	2
  7869     0172  0270               	subwf	?_labs,w
  7870     0173  1D03               	skipz
  7871     0174  2975               	goto	u4103
  7872     0175                     u4103:
  7873     0175  1C03               	btfss	3,0
  7874     0176  2978               	goto	u4101
  7875     0177  2979               	goto	u4100
  7876     0178                     u4101:
  7877     0178  28EE               	goto	l2683
  7878     0179                     u4100:
  7879     0179                     l2689:
  7880     0179  1683               	bsf	3,5	;RP0=1, select bank1
  7881     017A  1303               	bcf	3,6	;RP1=0, select bank1
  7882     017B  083A               	movf	(efgtoa@ou+3)^(0+128),w
  7883     017C  1283               	bcf	3,5	;RP0=0, select bank0
  7884     017D  1303               	bcf	3,6	;RP1=0, select bank0
  7885     017E  00BD               	movwf	___flge@ff1+3
  7886     017F  1683               	bsf	3,5	;RP0=1, select bank1
  7887     0180  1303               	bcf	3,6	;RP1=0, select bank1
  7888     0181  0839               	movf	(efgtoa@ou+2)^(0+128),w
  7889     0182  1283               	bcf	3,5	;RP0=0, select bank0
  7890     0183  1303               	bcf	3,6	;RP1=0, select bank0
  7891     0184  00BC               	movwf	___flge@ff1+2
  7892     0185  1683               	bsf	3,5	;RP0=1, select bank1
  7893     0186  1303               	bcf	3,6	;RP1=0, select bank1
  7894     0187  0838               	movf	(efgtoa@ou+1)^(0+128),w
  7895     0188  1283               	bcf	3,5	;RP0=0, select bank0
  7896     0189  1303               	bcf	3,6	;RP1=0, select bank0
  7897     018A  00BB               	movwf	___flge@ff1+1
  7898     018B  1683               	bsf	3,5	;RP0=1, select bank1
  7899     018C  1303               	bcf	3,6	;RP1=0, select bank1
  7900     018D  0837               	movf	efgtoa@ou^(0+128),w
  7901     018E  1283               	bcf	3,5	;RP0=0, select bank0
  7902     018F  1303               	bcf	3,6	;RP1=0, select bank0
  7903     0190  00BA               	movwf	___flge@ff1
  7904     0191  1683               	bsf	3,5	;RP0=1, select bank1
  7905     0192  1303               	bcf	3,6	;RP1=0, select bank1
  7906     0193  084B               	movf	(efgtoa@g+3)^(0+128),w
  7907     0194  1283               	bcf	3,5	;RP0=0, select bank0
  7908     0195  1303               	bcf	3,6	;RP1=0, select bank0
  7909     0196  00C1               	movwf	___flge@ff2+3
  7910     0197  1683               	bsf	3,5	;RP0=1, select bank1
  7911     0198  1303               	bcf	3,6	;RP1=0, select bank1
  7912     0199  084A               	movf	(efgtoa@g+2)^(0+128),w
  7913     019A  1283               	bcf	3,5	;RP0=0, select bank0
  7914     019B  1303               	bcf	3,6	;RP1=0, select bank0
  7915     019C  00C0               	movwf	___flge@ff2+2
  7916     019D  1683               	bsf	3,5	;RP0=1, select bank1
  7917     019E  1303               	bcf	3,6	;RP1=0, select bank1
  7918     019F  0849               	movf	(efgtoa@g+1)^(0+128),w
  7919     01A0  1283               	bcf	3,5	;RP0=0, select bank0
  7920     01A1  1303               	bcf	3,6	;RP1=0, select bank0
  7921     01A2  00BF               	movwf	___flge@ff2+1
  7922     01A3  1683               	bsf	3,5	;RP0=1, select bank1
  7923     01A4  1303               	bcf	3,6	;RP1=0, select bank1
  7924     01A5  0848               	movf	efgtoa@g^(0+128),w
  7925     01A6  1283               	bcf	3,5	;RP0=0, select bank0
  7926     01A7  1303               	bcf	3,6	;RP1=0, select bank0
  7927     01A8  00BE               	movwf	___flge@ff2
  7928     01A9  160A  118A  237A  120A  118A  	fcall	___flge
  7929     01AE  1C03               	btfss	3,0
  7930     01AF  29B1               	goto	u4111
  7931     01B0  29B2               	goto	u4110
  7932     01B1                     u4111:
  7933     01B1  28EE               	goto	l2683
  7934     01B2                     u4110:
  7935     01B2                     l2691:
  7936                           
  7937                           ;C:\Program Files\Microchip\xc8\v2.50\pic\sources\c99\common\doprnt.c: 664:   if ((labs(
      +                          (g).u-(u).u) <= 1)) {
  7938     01B2  1683               	bsf	3,5	;RP0=1, select bank1
  7939     01B3  1303               	bcf	3,6	;RP1=0, select bank1
  7940     01B4  0848               	movf	efgtoa@g^(0+128),w
  7941     01B5  00A0               	movwf	??_efgtoa^(0+128)
  7942     01B6  0849               	movf	(efgtoa@g+1)^(0+128),w
  7943     01B7  00A1               	movwf	(??_efgtoa^(0+128)+1)
  7944     01B8  084A               	movf	(efgtoa@g+2)^(0+128),w
  7945     01B9  00A2               	movwf	(??_efgtoa^(0+128)+2)
  7946     01BA  084B               	movf	(efgtoa@g+3)^(0+128),w
  7947     01BB  00A3               	movwf	(??_efgtoa^(0+128)+3)
  7948     01BC  084C               	movf	efgtoa@u^(0+128),w
  7949     01BD  02A0               	subwf	??_efgtoa^(0+128),f
  7950     01BE  084D               	movf	(efgtoa@u+1)^(0+128),w
  7951     01BF  1C03               	skipc
  7952     01C0  0F4D               	incfsz	(efgtoa@u+1)^(0+128),w
  7953     01C1  29C3               	goto	u4121
  7954     01C2  29C4               	goto	u4122
  7955     01C3                     u4121:
  7956     01C3  02A1               	subwf	(??_efgtoa^(0+128)+1),f
  7957     01C4                     u4122:
  7958     01C4  084E               	movf	(efgtoa@u+2)^(0+128),w
  7959     01C5  1C03               	skipc
  7960     01C6  0F4E               	incfsz	(efgtoa@u+2)^(0+128),w
  7961     01C7  29C9               	goto	u4123
  7962     01C8  29CA               	goto	u4124
  7963     01C9                     u4123:
  7964     01C9  02A2               	subwf	(??_efgtoa^(0+128)+2),f
  7965     01CA                     u4124:
  7966     01CA  084F               	movf	(efgtoa@u+3)^(0+128),w
  7967     01CB  1C03               	skipc
  7968     01CC  0F4F               	incfsz	(efgtoa@u+3)^(0+128),w
  7969     01CD  29CF               	goto	u4125
  7970     01CE  29D0               	goto	u4126
  7971     01CF                     u4125:
  7972     01CF  02A3               	subwf	(??_efgtoa^(0+128)+3),f
  7973     01D0                     u4126:
  7974     01D0  0823               	movf	(??_efgtoa+3)^(0+128),w
  7975     01D1  00F3               	movwf	labs@a+3
  7976     01D2  0822               	movf	(??_efgtoa+2)^(0+128),w
  7977     01D3  00F2               	movwf	labs@a+2
  7978     01D4  0821               	movf	(??_efgtoa+1)^(0+128),w
  7979     01D5  00F1               	movwf	labs@a+1
  7980     01D6  0820               	movf	??_efgtoa^(0+128),w
  7981     01D7  00F0               	movwf	labs@a
  7982     01D8  160A  158A  27B1  120A  118A  	fcall	_labs
  7983     01DD  1BF3               	btfsc	?_labs+3,7
  7984     01DE  29F0               	goto	u4130
  7985     01DF  0873               	movf	?_labs+3,w
  7986     01E0  1D03               	btfss	3,2
  7987     01E1  29EF               	goto	u4131
  7988     01E2  0872               	movf	?_labs+2,w
  7989     01E3  1D03               	btfss	3,2
  7990     01E4  29EF               	goto	u4131
  7991     01E5  0871               	movf	?_labs+1,w
  7992     01E6  1D03               	btfss	3,2
  7993     01E7  29EF               	goto	u4131
  7994     01E8  3002               	movlw	2
  7995     01E9  0270               	subwf	?_labs,w
  7996     01EA  1D03               	skipz
  7997     01EB  29EC               	goto	u4133
  7998     01EC                     u4133:
  7999     01EC  1803               	btfsc	3,0
  8000     01ED  29EF               	goto	u4131
  8001     01EE  29F0               	goto	u4130
  8002     01EF                     u4131:
  8003     01EF  2A7D               	goto	l2703
  8004     01F0                     u4130:
  8005     01F0                     l2693:
  8006                           
  8007                           ;C:\Program Files\Microchip\xc8\v2.50\pic\sources\c99\common\doprnt.c: 665:    g = u;
  8008     01F0  1683               	bsf	3,5	;RP0=1, select bank1
  8009     01F1  1303               	bcf	3,6	;RP1=0, select bank1
  8010     01F2  084F               	movf	(efgtoa@u+3)^(0+128),w
  8011     01F3  00CB               	movwf	(efgtoa@g+3)^(0+128)
  8012     01F4  084E               	movf	(efgtoa@u+2)^(0+128),w
  8013     01F5  00CA               	movwf	(efgtoa@g+2)^(0+128)
  8014     01F6  084D               	movf	(efgtoa@u+1)^(0+128),w
  8015     01F7  00C9               	movwf	(efgtoa@g+1)^(0+128)
  8016     01F8  084C               	movf	efgtoa@u^(0+128),w
  8017     01F9  00C8               	movwf	efgtoa@g^(0+128)
  8018                           
  8019                           ;C:\Program Files\Microchip\xc8\v2.50\pic\sources\c99\common\doprnt.c: 666:   }
  8020     01FA  2AB6               	goto	l2705
  8021     01FB                     l2695:
  8022                           
  8023                           ;C:\Program Files\Microchip\xc8\v2.50\pic\sources\c99\common\doprnt.c: 669:     u.f = u.
      +                          f/10.0;
  8024     01FB  3041               	movlw	65
  8025     01FC  1283               	bcf	3,5	;RP0=0, select bank0
  8026     01FD  1303               	bcf	3,6	;RP1=0, select bank0
  8027     01FE  00BD               	movwf	___fldiv@a+3
  8028     01FF  3020               	movlw	32
  8029     0200  00BC               	movwf	___fldiv@a+2
  8030     0201  3000               	movlw	0
  8031     0202  00BB               	movwf	___fldiv@a+1
  8032     0203  3000               	movlw	0
  8033     0204  00BA               	movwf	___fldiv@a
  8034     0205  1683               	bsf	3,5	;RP0=1, select bank1
  8035     0206  1303               	bcf	3,6	;RP1=0, select bank1
  8036     0207  084F               	movf	(efgtoa@u+3)^(0+128),w
  8037     0208  1283               	bcf	3,5	;RP0=0, select bank0
  8038     0209  1303               	bcf	3,6	;RP1=0, select bank0
  8039     020A  00C1               	movwf	___fldiv@b+3
  8040     020B  1683               	bsf	3,5	;RP0=1, select bank1
  8041     020C  1303               	bcf	3,6	;RP1=0, select bank1
  8042     020D  084E               	movf	(efgtoa@u+2)^(0+128),w
  8043     020E  1283               	bcf	3,5	;RP0=0, select bank0
  8044     020F  1303               	bcf	3,6	;RP1=0, select bank0
  8045     0210  00C0               	movwf	___fldiv@b+2
  8046     0211  1683               	bsf	3,5	;RP0=1, select bank1
  8047     0212  1303               	bcf	3,6	;RP1=0, select bank1
  8048     0213  084D               	movf	(efgtoa@u+1)^(0+128),w
  8049     0214  1283               	bcf	3,5	;RP0=0, select bank0
  8050     0215  1303               	bcf	3,6	;RP1=0, select bank0
  8051     0216  00BF               	movwf	___fldiv@b+1
  8052     0217  1683               	bsf	3,5	;RP0=1, select bank1
  8053     0218  1303               	bcf	3,6	;RP1=0, select bank1
  8054     0219  084C               	movf	efgtoa@u^(0+128),w
  8055     021A  1283               	bcf	3,5	;RP0=0, select bank0
  8056     021B  1303               	bcf	3,6	;RP1=0, select bank0
  8057     021C  00BE               	movwf	___fldiv@b
  8058     021D  120A  158A  2098  120A  118A  	fcall	___fldiv
  8059     0222  1283               	bcf	3,5	;RP0=0, select bank0
  8060     0223  1303               	bcf	3,6	;RP1=0, select bank0
  8061     0224  083D               	movf	?___fldiv+3,w
  8062     0225  1683               	bsf	3,5	;RP0=1, select bank1
  8063     0226  1303               	bcf	3,6	;RP1=0, select bank1
  8064     0227  00CF               	movwf	(efgtoa@u+3)^(0+128)
  8065     0228  1283               	bcf	3,5	;RP0=0, select bank0
  8066     0229  1303               	bcf	3,6	;RP1=0, select bank0
  8067     022A  083C               	movf	?___fldiv+2,w
  8068     022B  1683               	bsf	3,5	;RP0=1, select bank1
  8069     022C  1303               	bcf	3,6	;RP1=0, select bank1
  8070     022D  00CE               	movwf	(efgtoa@u+2)^(0+128)
  8071     022E  1283               	bcf	3,5	;RP0=0, select bank0
  8072     022F  1303               	bcf	3,6	;RP1=0, select bank0
  8073     0230  083B               	movf	?___fldiv+1,w
  8074     0231  1683               	bsf	3,5	;RP0=1, select bank1
  8075     0232  1303               	bcf	3,6	;RP1=0, select bank1
  8076     0233  00CD               	movwf	(efgtoa@u+1)^(0+128)
  8077     0234  1283               	bcf	3,5	;RP0=0, select bank0
  8078     0235  1303               	bcf	3,6	;RP1=0, select bank0
  8079     0236  083A               	movf	?___fldiv,w
  8080     0237  1683               	bsf	3,5	;RP0=1, select bank1
  8081     0238  1303               	bcf	3,6	;RP1=0, select bank1
  8082     0239  00CC               	movwf	efgtoa@u^(0+128)
  8083     023A                     l2697:
  8084                           
  8085                           ;C:\Program Files\Microchip\xc8\v2.50\pic\sources\c99\common\doprnt.c: 670:     --e;
  8086     023A  30FF               	movlw	255
  8087     023B  07B3               	addwf	efgtoa@e^(0+128),f
  8088     023C  1803               	skipnc
  8089     023D  0AB4               	incf	(efgtoa@e+1)^(0+128),f
  8090     023E  30FF               	movlw	255
  8091     023F  07B4               	addwf	(efgtoa@e+1)^(0+128),f
  8092     0240                     l2699:
  8093                           
  8094                           ;C:\Program Files\Microchip\xc8\v2.50\pic\sources\c99\common\doprnt.c: 671:     if ((lab
      +                          s((g).u-(u).u) <= 1)) {
  8095     0240  0848               	movf	efgtoa@g^(0+128),w
  8096     0241  00A0               	movwf	??_efgtoa^(0+128)
  8097     0242  0849               	movf	(efgtoa@g+1)^(0+128),w
  8098     0243  00A1               	movwf	(??_efgtoa^(0+128)+1)
  8099     0244  084A               	movf	(efgtoa@g+2)^(0+128),w
  8100     0245  00A2               	movwf	(??_efgtoa^(0+128)+2)
  8101     0246  084B               	movf	(efgtoa@g+3)^(0+128),w
  8102     0247  00A3               	movwf	(??_efgtoa^(0+128)+3)
  8103     0248  084C               	movf	efgtoa@u^(0+128),w
  8104     0249  02A0               	subwf	??_efgtoa^(0+128),f
  8105     024A  084D               	movf	(efgtoa@u+1)^(0+128),w
  8106     024B  1C03               	skipc
  8107     024C  0F4D               	incfsz	(efgtoa@u+1)^(0+128),w
  8108     024D  2A4F               	goto	u4141
  8109     024E  2A50               	goto	u4142
  8110     024F                     u4141:
  8111     024F  02A1               	subwf	(??_efgtoa^(0+128)+1),f
  8112     0250                     u4142:
  8113     0250  084E               	movf	(efgtoa@u+2)^(0+128),w
  8114     0251  1C03               	skipc
  8115     0252  0F4E               	incfsz	(efgtoa@u+2)^(0+128),w
  8116     0253  2A55               	goto	u4143
  8117     0254  2A56               	goto	u4144
  8118     0255                     u4143:
  8119     0255  02A2               	subwf	(??_efgtoa^(0+128)+2),f
  8120     0256                     u4144:
  8121     0256  084F               	movf	(efgtoa@u+3)^(0+128),w
  8122     0257  1C03               	skipc
  8123     0258  0F4F               	incfsz	(efgtoa@u+3)^(0+128),w
  8124     0259  2A5B               	goto	u4145
  8125     025A  2A5C               	goto	u4146
  8126     025B                     u4145:
  8127     025B  02A3               	subwf	(??_efgtoa^(0+128)+3),f
  8128     025C                     u4146:
  8129     025C  0823               	movf	(??_efgtoa+3)^(0+128),w
  8130     025D  00F3               	movwf	labs@a+3
  8131     025E  0822               	movf	(??_efgtoa+2)^(0+128),w
  8132     025F  00F2               	movwf	labs@a+2
  8133     0260  0821               	movf	(??_efgtoa+1)^(0+128),w
  8134     0261  00F1               	movwf	labs@a+1
  8135     0262  0820               	movf	??_efgtoa^(0+128),w
  8136     0263  00F0               	movwf	labs@a
  8137     0264  160A  158A  27B1  120A  118A  	fcall	_labs
  8138     0269  1BF3               	btfsc	?_labs+3,7
  8139     026A  2A7C               	goto	u4150
  8140     026B  0873               	movf	?_labs+3,w
  8141     026C  1D03               	btfss	3,2
  8142     026D  2A7B               	goto	u4151
  8143     026E  0872               	movf	?_labs+2,w
  8144     026F  1D03               	btfss	3,2
  8145     0270  2A7B               	goto	u4151
  8146     0271  0871               	movf	?_labs+1,w
  8147     0272  1D03               	btfss	3,2
  8148     0273  2A7B               	goto	u4151
  8149     0274  3002               	movlw	2
  8150     0275  0270               	subwf	?_labs,w
  8151     0276  1D03               	skipz
  8152     0277  2A78               	goto	u4153
  8153     0278                     u4153:
  8154     0278  1803               	btfsc	3,0
  8155     0279  2A7B               	goto	u4151
  8156     027A  2A7C               	goto	u4150
  8157     027B                     u4151:
  8158     027B  2A7D               	goto	l2703
  8159     027C                     u4150:
  8160     027C  29F0               	goto	l2693
  8161     027D                     l2703:
  8162                           
  8163                           ;C:\Program Files\Microchip\xc8\v2.50\pic\sources\c99\common\doprnt.c: 668:    while (g.
      +                          f < u.f) {
  8164     027D  1683               	bsf	3,5	;RP0=1, select bank1
  8165     027E  1303               	bcf	3,6	;RP1=0, select bank1
  8166     027F  084B               	movf	(efgtoa@g+3)^(0+128),w
  8167     0280  1283               	bcf	3,5	;RP0=0, select bank0
  8168     0281  1303               	bcf	3,6	;RP1=0, select bank0
  8169     0282  00BD               	movwf	___flge@ff1+3
  8170     0283  1683               	bsf	3,5	;RP0=1, select bank1
  8171     0284  1303               	bcf	3,6	;RP1=0, select bank1
  8172     0285  084A               	movf	(efgtoa@g+2)^(0+128),w
  8173     0286  1283               	bcf	3,5	;RP0=0, select bank0
  8174     0287  1303               	bcf	3,6	;RP1=0, select bank0
  8175     0288  00BC               	movwf	___flge@ff1+2
  8176     0289  1683               	bsf	3,5	;RP0=1, select bank1
  8177     028A  1303               	bcf	3,6	;RP1=0, select bank1
  8178     028B  0849               	movf	(efgtoa@g+1)^(0+128),w
  8179     028C  1283               	bcf	3,5	;RP0=0, select bank0
  8180     028D  1303               	bcf	3,6	;RP1=0, select bank0
  8181     028E  00BB               	movwf	___flge@ff1+1
  8182     028F  1683               	bsf	3,5	;RP0=1, select bank1
  8183     0290  1303               	bcf	3,6	;RP1=0, select bank1
  8184     0291  0848               	movf	efgtoa@g^(0+128),w
  8185     0292  1283               	bcf	3,5	;RP0=0, select bank0
  8186     0293  1303               	bcf	3,6	;RP1=0, select bank0
  8187     0294  00BA               	movwf	___flge@ff1
  8188     0295  1683               	bsf	3,5	;RP0=1, select bank1
  8189     0296  1303               	bcf	3,6	;RP1=0, select bank1
  8190     0297  084F               	movf	(efgtoa@u+3)^(0+128),w
  8191     0298  1283               	bcf	3,5	;RP0=0, select bank0
  8192     0299  1303               	bcf	3,6	;RP1=0, select bank0
  8193     029A  00C1               	movwf	___flge@ff2+3
  8194     029B  1683               	bsf	3,5	;RP0=1, select bank1
  8195     029C  1303               	bcf	3,6	;RP1=0, select bank1
  8196     029D  084E               	movf	(efgtoa@u+2)^(0+128),w
  8197     029E  1283               	bcf	3,5	;RP0=0, select bank0
  8198     029F  1303               	bcf	3,6	;RP1=0, select bank0
  8199     02A0  00C0               	movwf	___flge@ff2+2
  8200     02A1  1683               	bsf	3,5	;RP0=1, select bank1
  8201     02A2  1303               	bcf	3,6	;RP1=0, select bank1
  8202     02A3  084D               	movf	(efgtoa@u+1)^(0+128),w
  8203     02A4  1283               	bcf	3,5	;RP0=0, select bank0
  8204     02A5  1303               	bcf	3,6	;RP1=0, select bank0
  8205     02A6  00BF               	movwf	___flge@ff2+1
  8206     02A7  1683               	bsf	3,5	;RP0=1, select bank1
  8207     02A8  1303               	bcf	3,6	;RP1=0, select bank1
  8208     02A9  084C               	movf	efgtoa@u^(0+128),w
  8209     02AA  1283               	bcf	3,5	;RP0=0, select bank0
  8210     02AB  1303               	bcf	3,6	;RP1=0, select bank0
  8211     02AC  00BE               	movwf	___flge@ff2
  8212     02AD  160A  118A  237A  120A  118A  	fcall	___flge
  8213     02B2  1C03               	btfss	3,0
  8214     02B3  2AB5               	goto	u4161
  8215     02B4  2AB6               	goto	u4160
  8216     02B5                     u4161:
  8217     02B5  29FB               	goto	l2695
  8218     02B6                     u4160:
  8219     02B6                     l2705:
  8220                           
  8221                           ;C:\Program Files\Microchip\xc8\v2.50\pic\sources\c99\common\doprnt.c: 683:  mode = c;
  8222     02B6  1283               	bcf	3,5	;RP0=0, select bank0
  8223     02B7  1303               	bcf	3,6	;RP1=0, select bank0
  8224     02B8  086E               	movf	efgtoa@c,w
  8225     02B9  1683               	bsf	3,5	;RP0=1, select bank1
  8226     02BA  1303               	bcf	3,6	;RP1=0, select bank1
  8227     02BB  00AD               	movwf	efgtoa@mode^(0+128)
  8228                           
  8229                           ;C:\Program Files\Microchip\xc8\v2.50\pic\sources\c99\common\doprnt.c: 685:     nmode = 
      +                          mode;
  8230     02BC  082D               	movf	efgtoa@mode^(0+128),w
  8231     02BD  00AE               	movwf	efgtoa@nmode^(0+128)
  8232     02BE                     l2707:
  8233                           
  8234                           ;C:\Program Files\Microchip\xc8\v2.50\pic\sources\c99\common\doprnt.c: 695:  {;C:\Progra
      +                          m Files\Microchip\xc8\v2.50\pic\sources\c99\common\doprnt.c: 696:         p = (prec < 0)
      +                           ? 6 : prec;
  8235     02BE  1683               	bsf	3,5	;RP0=1, select bank3
  8236     02BF  1703               	bsf	3,6	;RP1=1, select bank3
  8237     02C0  1B9B               	btfsc	(_prec+1)^(0+384),7
  8238     02C1  2AC3               	goto	u4171
  8239     02C2  2AC4               	goto	u4170
  8240     02C3                     u4171:
  8241     02C3  2ACF               	goto	l2711
  8242     02C4                     u4170:
  8243     02C4                     l2709:
  8244     02C4  081B               	movf	(_prec+1)^(0+384),w
  8245     02C5  1683               	bsf	3,5	;RP0=1, select bank1
  8246     02C6  1303               	bcf	3,6	;RP1=0, select bank1
  8247     02C7  00A7               	movwf	(efgtoa@p+1)^(0+128)
  8248     02C8  1683               	bsf	3,5	;RP0=1, select bank3
  8249     02C9  1703               	bsf	3,6	;RP1=1, select bank3
  8250     02CA  081A               	movf	_prec^(0+384),w
  8251     02CB  1683               	bsf	3,5	;RP0=1, select bank1
  8252     02CC  1303               	bcf	3,6	;RP1=0, select bank1
  8253     02CD  00A6               	movwf	efgtoa@p^(0+128)
  8254     02CE  2AD5               	goto	l675
  8255     02CF                     l2711:
  8256     02CF  3006               	movlw	6
  8257     02D0  1683               	bsf	3,5	;RP0=1, select bank1
  8258     02D1  1303               	bcf	3,6	;RP1=0, select bank1
  8259     02D2  00A6               	movwf	efgtoa@p^(0+128)
  8260     02D3  3000               	movlw	0
  8261     02D4  00A7               	movwf	(efgtoa@p^(0+128)+1)
  8262     02D5                     l675:
  8263                           
  8264                           ;C:\Program Files\Microchip\xc8\v2.50\pic\sources\c99\common\doprnt.c: 697:     };C:\Pro
      +                          gram Files\Microchip\xc8\v2.50\pic\sources\c99\common\doprnt.c: 711:     m = p;
  8265     02D5  0827               	movf	(efgtoa@p+1)^(0+128),w
  8266     02D6  00B2               	movwf	(efgtoa@m+1)^(0+128)
  8267     02D7  0826               	movf	efgtoa@p^(0+128),w
  8268     02D8  00B1               	movwf	efgtoa@m^(0+128)
  8269                           
  8270                           ;C:\Program Files\Microchip\xc8\v2.50\pic\sources\c99\common\doprnt.c: 715:  {;C:\Progra
      +                          m Files\Microchip\xc8\v2.50\pic\sources\c99\common\doprnt.c: 716:         ++m;
  8271     02D9  3001               	movlw	1
  8272     02DA  07B1               	addwf	efgtoa@m^(0+128),f
  8273     02DB  1803               	skipnc
  8274     02DC  0AB2               	incf	(efgtoa@m+1)^(0+128),f
  8275     02DD  3000               	movlw	0
  8276     02DE  07B2               	addwf	(efgtoa@m+1)^(0+128),f
  8277     02DF                     l2713:
  8278                           
  8279                           ;C:\Program Files\Microchip\xc8\v2.50\pic\sources\c99\common\doprnt.c: 717:     };C:\Pro
      +                          gram Files\Microchip\xc8\v2.50\pic\sources\c99\common\doprnt.c: 721:     if (nmode == 'f
      +                          ') {
  8280     02DF  3066               	movlw	102
  8281     02E0  062E               	xorwf	efgtoa@nmode^(0+128),w
  8282     02E1  1D03               	btfss	3,2
  8283     02E2  2AE4               	goto	u4181
  8284     02E3  2AE5               	goto	u4180
  8285     02E4                     u4181:
  8286     02E4  2AFF               	goto	l2725
  8287     02E5                     u4180:
  8288     02E5                     l2715:
  8289                           
  8290                           ;C:\Program Files\Microchip\xc8\v2.50\pic\sources\c99\common\doprnt.c: 722:         if (
      +                          e < 0) {
  8291     02E5  1FB4               	btfss	(efgtoa@e+1)^(0+128),7
  8292     02E6  2AE8               	goto	u4191
  8293     02E7  2AE9               	goto	u4190
  8294     02E8                     u4191:
  8295     02E8  2AF3               	goto	l2721
  8296     02E9                     u4190:
  8297     02E9                     l2717:
  8298                           
  8299                           ;C:\Program Files\Microchip\xc8\v2.50\pic\sources\c99\common\doprnt.c: 723:             
      +                          u.f = 1.0;
  8300     02E9  303F               	movlw	63
  8301     02EA  00CF               	movwf	(efgtoa@u+3)^(0+128)
  8302     02EB  3080               	movlw	128
  8303     02EC  00CE               	movwf	(efgtoa@u+2)^(0+128)
  8304     02ED  3000               	movlw	0
  8305     02EE  00CD               	movwf	(efgtoa@u+1)^(0+128)
  8306     02EF  3000               	movlw	0
  8307     02F0  00CC               	movwf	efgtoa@u^(0+128)
  8308     02F1                     l2719:
  8309                           
  8310                           ;C:\Program Files\Microchip\xc8\v2.50\pic\sources\c99\common\doprnt.c: 724:             
      +                          e = 0;
  8311     02F1  01B3               	clrf	efgtoa@e^(0+128)
  8312     02F2  01B4               	clrf	(efgtoa@e+1)^(0+128)
  8313     02F3                     l2721:
  8314                           
  8315                           ;C:\Program Files\Microchip\xc8\v2.50\pic\sources\c99\common\doprnt.c: 726:         if (
      +                          !(mode == 'g')) {
  8316     02F3  3067               	movlw	103
  8317     02F4  062D               	xorwf	efgtoa@mode^(0+128),w
  8318     02F5  1903               	btfsc	3,2
  8319     02F6  2AF8               	goto	u4201
  8320     02F7  2AF9               	goto	u4200
  8321     02F8                     u4201:
  8322     02F8  2AFF               	goto	l2725
  8323     02F9                     u4200:
  8324     02F9                     l2723:
  8325                           
  8326                           ;C:\Program Files\Microchip\xc8\v2.50\pic\sources\c99\common\doprnt.c: 727:             
      +                          m += e;
  8327     02F9  0833               	movf	efgtoa@e^(0+128),w
  8328     02FA  07B1               	addwf	efgtoa@m^(0+128),f
  8329     02FB  1803               	skipnc
  8330     02FC  0AB2               	incf	(efgtoa@m+1)^(0+128),f
  8331     02FD  0834               	movf	(efgtoa@e+1)^(0+128),w
  8332     02FE  07B2               	addwf	(efgtoa@m+1)^(0+128),f
  8333     02FF                     l2725:
  8334                           
  8335                           ;C:\Program Files\Microchip\xc8\v2.50\pic\sources\c99\common\doprnt.c: 733:     i = 0;
  8336     02FF  01BB               	clrf	efgtoa@i^(0+128)
  8337     0300  01BC               	clrf	(efgtoa@i+1)^(0+128)
  8338     0301                     l2727:
  8339                           
  8340                           ;C:\Program Files\Microchip\xc8\v2.50\pic\sources\c99\common\doprnt.c: 734:     h = g.f;
  8341     0301  084B               	movf	(efgtoa@g+3)^(0+128),w
  8342     0302  00C0               	movwf	(efgtoa@h+3)^(0+128)
  8343     0303  084A               	movf	(efgtoa@g+2)^(0+128),w
  8344     0304  00BF               	movwf	(efgtoa@h+2)^(0+128)
  8345     0305  0849               	movf	(efgtoa@g+1)^(0+128),w
  8346     0306  00BE               	movwf	(efgtoa@h+1)^(0+128)
  8347     0307  0848               	movf	efgtoa@g^(0+128),w
  8348     0308  00BD               	movwf	efgtoa@h^(0+128)
  8349     0309                     l2729:
  8350                           
  8351                           ;C:\Program Files\Microchip\xc8\v2.50\pic\sources\c99\common\doprnt.c: 735:     ou = u;
  8352     0309  084F               	movf	(efgtoa@u+3)^(0+128),w
  8353     030A  00BA               	movwf	(efgtoa@ou+3)^(0+128)
  8354     030B  084E               	movf	(efgtoa@u+2)^(0+128),w
  8355     030C  00B9               	movwf	(efgtoa@ou+2)^(0+128)
  8356     030D  084D               	movf	(efgtoa@u+1)^(0+128),w
  8357     030E  00B8               	movwf	(efgtoa@ou+1)^(0+128)
  8358     030F  084C               	movf	efgtoa@u^(0+128),w
  8359     0310  00B7               	movwf	efgtoa@ou^(0+128)
  8360                           
  8361                           ;C:\Program Files\Microchip\xc8\v2.50\pic\sources\c99\common\doprnt.c: 736:     while (i
      +                           < m) {
  8362     0311  2C38               	goto	l2741
  8363     0312                     l2731:
  8364                           
  8365                           ;C:\Program Files\Microchip\xc8\v2.50\pic\sources\c99\common\doprnt.c: 737:         l = 
      +                          floorf(h/u.f);
  8366     0312  1683               	bsf	3,5	;RP0=1, select bank1
  8367     0313  1303               	bcf	3,6	;RP1=0, select bank1
  8368     0314  084F               	movf	(efgtoa@u+3)^(0+128),w
  8369     0315  1283               	bcf	3,5	;RP0=0, select bank0
  8370     0316  1303               	bcf	3,6	;RP1=0, select bank0
  8371     0317  00BD               	movwf	___fldiv@a+3
  8372     0318  1683               	bsf	3,5	;RP0=1, select bank1
  8373     0319  1303               	bcf	3,6	;RP1=0, select bank1
  8374     031A  084E               	movf	(efgtoa@u+2)^(0+128),w
  8375     031B  1283               	bcf	3,5	;RP0=0, select bank0
  8376     031C  1303               	bcf	3,6	;RP1=0, select bank0
  8377     031D  00BC               	movwf	___fldiv@a+2
  8378     031E  1683               	bsf	3,5	;RP0=1, select bank1
  8379     031F  1303               	bcf	3,6	;RP1=0, select bank1
  8380     0320  084D               	movf	(efgtoa@u+1)^(0+128),w
  8381     0321  1283               	bcf	3,5	;RP0=0, select bank0
  8382     0322  1303               	bcf	3,6	;RP1=0, select bank0
  8383     0323  00BB               	movwf	___fldiv@a+1
  8384     0324  1683               	bsf	3,5	;RP0=1, select bank1
  8385     0325  1303               	bcf	3,6	;RP1=0, select bank1
  8386     0326  084C               	movf	efgtoa@u^(0+128),w
  8387     0327  1283               	bcf	3,5	;RP0=0, select bank0
  8388     0328  1303               	bcf	3,6	;RP1=0, select bank0
  8389     0329  00BA               	movwf	___fldiv@a
  8390     032A  1683               	bsf	3,5	;RP0=1, select bank1
  8391     032B  1303               	bcf	3,6	;RP1=0, select bank1
  8392     032C  0840               	movf	(efgtoa@h+3)^(0+128),w
  8393     032D  1283               	bcf	3,5	;RP0=0, select bank0
  8394     032E  1303               	bcf	3,6	;RP1=0, select bank0
  8395     032F  00C1               	movwf	___fldiv@b+3
  8396     0330  1683               	bsf	3,5	;RP0=1, select bank1
  8397     0331  1303               	bcf	3,6	;RP1=0, select bank1
  8398     0332  083F               	movf	(efgtoa@h+2)^(0+128),w
  8399     0333  1283               	bcf	3,5	;RP0=0, select bank0
  8400     0334  1303               	bcf	3,6	;RP1=0, select bank0
  8401     0335  00C0               	movwf	___fldiv@b+2
  8402     0336  1683               	bsf	3,5	;RP0=1, select bank1
  8403     0337  1303               	bcf	3,6	;RP1=0, select bank1
  8404     0338  083E               	movf	(efgtoa@h+1)^(0+128),w
  8405     0339  1283               	bcf	3,5	;RP0=0, select bank0
  8406     033A  1303               	bcf	3,6	;RP1=0, select bank0
  8407     033B  00BF               	movwf	___fldiv@b+1
  8408     033C  1683               	bsf	3,5	;RP0=1, select bank1
  8409     033D  1303               	bcf	3,6	;RP1=0, select bank1
  8410     033E  083D               	movf	efgtoa@h^(0+128),w
  8411     033F  1283               	bcf	3,5	;RP0=0, select bank0
  8412     0340  1303               	bcf	3,6	;RP1=0, select bank0
  8413     0341  00BE               	movwf	___fldiv@b
  8414     0342  120A  158A  2098  120A  118A  	fcall	___fldiv
  8415     0347  1283               	bcf	3,5	;RP0=0, select bank0
  8416     0348  1303               	bcf	3,6	;RP1=0, select bank0
  8417     0349  083D               	movf	?___fldiv+3,w
  8418     034A  00D7               	movwf	floorf@x+3
  8419     034B  083C               	movf	?___fldiv+2,w
  8420     034C  00D6               	movwf	floorf@x+2
  8421     034D  083B               	movf	?___fldiv+1,w
  8422     034E  00D5               	movwf	floorf@x+1
  8423     034F  083A               	movf	?___fldiv,w
  8424     0350  00D4               	movwf	floorf@x
  8425     0351  160A  118A  25DE  120A  118A  	fcall	_floorf
  8426     0356  1283               	bcf	3,5	;RP0=0, select bank0
  8427     0357  1303               	bcf	3,6	;RP1=0, select bank0
  8428     0358  0857               	movf	?_floorf+3,w
  8429     0359  1683               	bsf	3,5	;RP0=1, select bank1
  8430     035A  1303               	bcf	3,6	;RP1=0, select bank1
  8431     035B  00C4               	movwf	(efgtoa@l+3)^(0+128)
  8432     035C  1283               	bcf	3,5	;RP0=0, select bank0
  8433     035D  1303               	bcf	3,6	;RP1=0, select bank0
  8434     035E  0856               	movf	?_floorf+2,w
  8435     035F  1683               	bsf	3,5	;RP0=1, select bank1
  8436     0360  1303               	bcf	3,6	;RP1=0, select bank1
  8437     0361  00C3               	movwf	(efgtoa@l+2)^(0+128)
  8438     0362  1283               	bcf	3,5	;RP0=0, select bank0
  8439     0363  1303               	bcf	3,6	;RP1=0, select bank0
  8440     0364  0855               	movf	?_floorf+1,w
  8441     0365  1683               	bsf	3,5	;RP0=1, select bank1
  8442     0366  1303               	bcf	3,6	;RP1=0, select bank1
  8443     0367  00C2               	movwf	(efgtoa@l+1)^(0+128)
  8444     0368  1283               	bcf	3,5	;RP0=0, select bank0
  8445     0369  1303               	bcf	3,6	;RP1=0, select bank0
  8446     036A  0854               	movf	?_floorf,w
  8447     036B  1683               	bsf	3,5	;RP0=1, select bank1
  8448     036C  1303               	bcf	3,6	;RP1=0, select bank1
  8449     036D  00C1               	movwf	efgtoa@l^(0+128)
  8450     036E                     l2733:
  8451                           
  8452                           ;C:\Program Files\Microchip\xc8\v2.50\pic\sources\c99\common\doprnt.c: 738:         d = 
      +                          (int)l;
  8453     036E  0844               	movf	(efgtoa@l+3)^(0+128),w
  8454     036F  00F3               	movwf	___fltol@f1+3
  8455     0370  0843               	movf	(efgtoa@l+2)^(0+128),w
  8456     0371  00F2               	movwf	___fltol@f1+2
  8457     0372  0842               	movf	(efgtoa@l+1)^(0+128),w
  8458     0373  00F1               	movwf	___fltol@f1+1
  8459     0374  0841               	movf	efgtoa@l^(0+128),w
  8460     0375  00F0               	movwf	___fltol@f1
  8461     0376  160A  118A  226C  120A  118A  	fcall	___fltol
  8462     037B  0871               	movf	?___fltol+1,w
  8463     037C  1683               	bsf	3,5	;RP0=1, select bank1
  8464     037D  1303               	bcf	3,6	;RP1=0, select bank1
  8465     037E  00B0               	movwf	(efgtoa@d+1)^(0+128)
  8466     037F  0870               	movf	?___fltol,w
  8467     0380  00AF               	movwf	efgtoa@d^(0+128)
  8468     0381                     l2735:
  8469                           
  8470                           ;C:\Program Files\Microchip\xc8\v2.50\pic\sources\c99\common\doprnt.c: 739:         h -=
      +                           l*u.f;
  8471     0381  084F               	movf	(efgtoa@u+3)^(0+128),w
  8472     0382  1283               	bcf	3,5	;RP0=0, select bank0
  8473     0383  1303               	bcf	3,6	;RP1=0, select bank0
  8474     0384  00A7               	movwf	___flmul@a+3
  8475     0385  1683               	bsf	3,5	;RP0=1, select bank1
  8476     0386  1303               	bcf	3,6	;RP1=0, select bank1
  8477     0387  084E               	movf	(efgtoa@u+2)^(0+128),w
  8478     0388  1283               	bcf	3,5	;RP0=0, select bank0
  8479     0389  1303               	bcf	3,6	;RP1=0, select bank0
  8480     038A  00A6               	movwf	___flmul@a+2
  8481     038B  1683               	bsf	3,5	;RP0=1, select bank1
  8482     038C  1303               	bcf	3,6	;RP1=0, select bank1
  8483     038D  084D               	movf	(efgtoa@u+1)^(0+128),w
  8484     038E  1283               	bcf	3,5	;RP0=0, select bank0
  8485     038F  1303               	bcf	3,6	;RP1=0, select bank0
  8486     0390  00A5               	movwf	___flmul@a+1
  8487     0391  1683               	bsf	3,5	;RP0=1, select bank1
  8488     0392  1303               	bcf	3,6	;RP1=0, select bank1
  8489     0393  084C               	movf	efgtoa@u^(0+128),w
  8490     0394  1283               	bcf	3,5	;RP0=0, select bank0
  8491     0395  1303               	bcf	3,6	;RP1=0, select bank0
  8492     0396  00A4               	movwf	___flmul@a
  8493     0397  1683               	bsf	3,5	;RP0=1, select bank1
  8494     0398  1303               	bcf	3,6	;RP1=0, select bank1
  8495     0399  0844               	movf	(efgtoa@l+3)^(0+128),w
  8496     039A  1283               	bcf	3,5	;RP0=0, select bank0
  8497     039B  1303               	bcf	3,6	;RP1=0, select bank0
  8498     039C  00A3               	movwf	___flmul@b+3
  8499     039D  1683               	bsf	3,5	;RP0=1, select bank1
  8500     039E  1303               	bcf	3,6	;RP1=0, select bank1
  8501     039F  0843               	movf	(efgtoa@l+2)^(0+128),w
  8502     03A0  1283               	bcf	3,5	;RP0=0, select bank0
  8503     03A1  1303               	bcf	3,6	;RP1=0, select bank0
  8504     03A2  00A2               	movwf	___flmul@b+2
  8505     03A3  1683               	bsf	3,5	;RP0=1, select bank1
  8506     03A4  1303               	bcf	3,6	;RP1=0, select bank1
  8507     03A5  0842               	movf	(efgtoa@l+1)^(0+128),w
  8508     03A6  1283               	bcf	3,5	;RP0=0, select bank0
  8509     03A7  1303               	bcf	3,6	;RP1=0, select bank0
  8510     03A8  00A1               	movwf	___flmul@b+1
  8511     03A9  1683               	bsf	3,5	;RP0=1, select bank1
  8512     03AA  1303               	bcf	3,6	;RP1=0, select bank1
  8513     03AB  0841               	movf	efgtoa@l^(0+128),w
  8514     03AC  1283               	bcf	3,5	;RP0=0, select bank0
  8515     03AD  1303               	bcf	3,6	;RP1=0, select bank0
  8516     03AE  00A0               	movwf	___flmul@b
  8517     03AF  120A  158A  24BE  120A  118A  	fcall	___flmul
  8518     03B4  1283               	bcf	3,5	;RP0=0, select bank0
  8519     03B5  1303               	bcf	3,6	;RP1=0, select bank0
  8520     03B6  0823               	movf	?___flmul+3,w
  8521     03B7  00BD               	movwf	___flsub@a+3
  8522     03B8  0822               	movf	?___flmul+2,w
  8523     03B9  00BC               	movwf	___flsub@a+2
  8524     03BA  0821               	movf	?___flmul+1,w
  8525     03BB  00BB               	movwf	___flsub@a+1
  8526     03BC  0820               	movf	?___flmul,w
  8527     03BD  00BA               	movwf	___flsub@a
  8528     03BE  1683               	bsf	3,5	;RP0=1, select bank1
  8529     03BF  1303               	bcf	3,6	;RP1=0, select bank1
  8530     03C0  0840               	movf	(efgtoa@h+3)^(0+128),w
  8531     03C1  1283               	bcf	3,5	;RP0=0, select bank0
  8532     03C2  1303               	bcf	3,6	;RP1=0, select bank0
  8533     03C3  00C1               	movwf	___flsub@b+3
  8534     03C4  1683               	bsf	3,5	;RP0=1, select bank1
  8535     03C5  1303               	bcf	3,6	;RP1=0, select bank1
  8536     03C6  083F               	movf	(efgtoa@h+2)^(0+128),w
  8537     03C7  1283               	bcf	3,5	;RP0=0, select bank0
  8538     03C8  1303               	bcf	3,6	;RP1=0, select bank0
  8539     03C9  00C0               	movwf	___flsub@b+2
  8540     03CA  1683               	bsf	3,5	;RP0=1, select bank1
  8541     03CB  1303               	bcf	3,6	;RP1=0, select bank1
  8542     03CC  083E               	movf	(efgtoa@h+1)^(0+128),w
  8543     03CD  1283               	bcf	3,5	;RP0=0, select bank0
  8544     03CE  1303               	bcf	3,6	;RP1=0, select bank0
  8545     03CF  00BF               	movwf	___flsub@b+1
  8546     03D0  1683               	bsf	3,5	;RP0=1, select bank1
  8547     03D1  1303               	bcf	3,6	;RP1=0, select bank1
  8548     03D2  083D               	movf	efgtoa@h^(0+128),w
  8549     03D3  1283               	bcf	3,5	;RP0=0, select bank0
  8550     03D4  1303               	bcf	3,6	;RP1=0, select bank0
  8551     03D5  00BE               	movwf	___flsub@b
  8552     03D6  160A  118A  2076  120A  118A  	fcall	___flsub
  8553     03DB  1283               	bcf	3,5	;RP0=0, select bank0
  8554     03DC  1303               	bcf	3,6	;RP1=0, select bank0
  8555     03DD  083D               	movf	?___flsub+3,w
  8556     03DE  1683               	bsf	3,5	;RP0=1, select bank1
  8557     03DF  1303               	bcf	3,6	;RP1=0, select bank1
  8558     03E0  00C0               	movwf	(efgtoa@h+3)^(0+128)
  8559     03E1  1283               	bcf	3,5	;RP0=0, select bank0
  8560     03E2  1303               	bcf	3,6	;RP1=0, select bank0
  8561     03E3  083C               	movf	?___flsub+2,w
  8562     03E4  1683               	bsf	3,5	;RP0=1, select bank1
  8563     03E5  1303               	bcf	3,6	;RP1=0, select bank1
  8564     03E6  00BF               	movwf	(efgtoa@h+2)^(0+128)
  8565     03E7  1283               	bcf	3,5	;RP0=0, select bank0
  8566     03E8  1303               	bcf	3,6	;RP1=0, select bank0
  8567     03E9  083B               	movf	?___flsub+1,w
  8568     03EA  1683               	bsf	3,5	;RP0=1, select bank1
  8569     03EB  1303               	bcf	3,6	;RP1=0, select bank1
  8570     03EC  00BE               	movwf	(efgtoa@h+1)^(0+128)
  8571     03ED  1283               	bcf	3,5	;RP0=0, select bank0
  8572     03EE  1303               	bcf	3,6	;RP1=0, select bank0
  8573     03EF  083A               	movf	?___flsub,w
  8574     03F0  1683               	bsf	3,5	;RP0=1, select bank1
  8575     03F1  1303               	bcf	3,6	;RP1=0, select bank1
  8576     03F2  00BD               	movwf	efgtoa@h^(0+128)
  8577     03F3                     l2737:
  8578                           
  8579                           ;C:\Program Files\Microchip\xc8\v2.50\pic\sources\c99\common\doprnt.c: 740:         u.f 
      +                          = u.f/10.0;
  8580     03F3  3041               	movlw	65
  8581     03F4  1283               	bcf	3,5	;RP0=0, select bank0
  8582     03F5  1303               	bcf	3,6	;RP1=0, select bank0
  8583     03F6  00BD               	movwf	___fldiv@a+3
  8584     03F7  3020               	movlw	32
  8585     03F8  00BC               	movwf	___fldiv@a+2
  8586     03F9  3000               	movlw	0
  8587     03FA  00BB               	movwf	___fldiv@a+1
  8588     03FB  3000               	movlw	0
  8589     03FC  00BA               	movwf	___fldiv@a
  8590     03FD  1683               	bsf	3,5	;RP0=1, select bank1
  8591     03FE  1303               	bcf	3,6	;RP1=0, select bank1
  8592     03FF  084F               	movf	(efgtoa@u+3)^(0+128),w
  8593     0400  1283               	bcf	3,5	;RP0=0, select bank0
  8594     0401  1303               	bcf	3,6	;RP1=0, select bank0
  8595     0402  00C1               	movwf	___fldiv@b+3
  8596     0403  1683               	bsf	3,5	;RP0=1, select bank1
  8597     0404  1303               	bcf	3,6	;RP1=0, select bank1
  8598     0405  084E               	movf	(efgtoa@u+2)^(0+128),w
  8599     0406  1283               	bcf	3,5	;RP0=0, select bank0
  8600     0407  1303               	bcf	3,6	;RP1=0, select bank0
  8601     0408  00C0               	movwf	___fldiv@b+2
  8602     0409  1683               	bsf	3,5	;RP0=1, select bank1
  8603     040A  1303               	bcf	3,6	;RP1=0, select bank1
  8604     040B  084D               	movf	(efgtoa@u+1)^(0+128),w
  8605     040C  1283               	bcf	3,5	;RP0=0, select bank0
  8606     040D  1303               	bcf	3,6	;RP1=0, select bank0
  8607     040E  00BF               	movwf	___fldiv@b+1
  8608     040F  1683               	bsf	3,5	;RP0=1, select bank1
  8609     0410  1303               	bcf	3,6	;RP1=0, select bank1
  8610     0411  084C               	movf	efgtoa@u^(0+128),w
  8611     0412  1283               	bcf	3,5	;RP0=0, select bank0
  8612     0413  1303               	bcf	3,6	;RP1=0, select bank0
  8613     0414  00BE               	movwf	___fldiv@b
  8614     0415  120A  158A  2098  120A  118A  	fcall	___fldiv
  8615     041A  1283               	bcf	3,5	;RP0=0, select bank0
  8616     041B  1303               	bcf	3,6	;RP1=0, select bank0
  8617     041C  083D               	movf	?___fldiv+3,w
  8618     041D  1683               	bsf	3,5	;RP0=1, select bank1
  8619     041E  1303               	bcf	3,6	;RP1=0, select bank1
  8620     041F  00CF               	movwf	(efgtoa@u+3)^(0+128)
  8621     0420  1283               	bcf	3,5	;RP0=0, select bank0
  8622     0421  1303               	bcf	3,6	;RP1=0, select bank0
  8623     0422  083C               	movf	?___fldiv+2,w
  8624     0423  1683               	bsf	3,5	;RP0=1, select bank1
  8625     0424  1303               	bcf	3,6	;RP1=0, select bank1
  8626     0425  00CE               	movwf	(efgtoa@u+2)^(0+128)
  8627     0426  1283               	bcf	3,5	;RP0=0, select bank0
  8628     0427  1303               	bcf	3,6	;RP1=0, select bank0
  8629     0428  083B               	movf	?___fldiv+1,w
  8630     0429  1683               	bsf	3,5	;RP0=1, select bank1
  8631     042A  1303               	bcf	3,6	;RP1=0, select bank1
  8632     042B  00CD               	movwf	(efgtoa@u+1)^(0+128)
  8633     042C  1283               	bcf	3,5	;RP0=0, select bank0
  8634     042D  1303               	bcf	3,6	;RP1=0, select bank0
  8635     042E  083A               	movf	?___fldiv,w
  8636     042F  1683               	bsf	3,5	;RP0=1, select bank1
  8637     0430  1303               	bcf	3,6	;RP1=0, select bank1
  8638     0431  00CC               	movwf	efgtoa@u^(0+128)
  8639     0432                     l2739:
  8640                           
  8641                           ;C:\Program Files\Microchip\xc8\v2.50\pic\sources\c99\common\doprnt.c: 741:         ++i;
  8642     0432  3001               	movlw	1
  8643     0433  07BB               	addwf	efgtoa@i^(0+128),f
  8644     0434  1803               	skipnc
  8645     0435  0ABC               	incf	(efgtoa@i+1)^(0+128),f
  8646     0436  3000               	movlw	0
  8647     0437  07BC               	addwf	(efgtoa@i+1)^(0+128),f
  8648     0438                     l2741:
  8649                           
  8650                           ;C:\Program Files\Microchip\xc8\v2.50\pic\sources\c99\common\doprnt.c: 736:     while (i
      +                           < m) {
  8651     0438  083C               	movf	(efgtoa@i+1)^(0+128),w
  8652     0439  3A80               	xorlw	128
  8653     043A  00A0               	movwf	??_efgtoa^(0+128)
  8654     043B  0832               	movf	(efgtoa@m+1)^(0+128),w
  8655     043C  3A80               	xorlw	128
  8656     043D  0220               	subwf	??_efgtoa^(0+128),w
  8657     043E  1D03               	skipz
  8658     043F  2C42               	goto	u4215
  8659     0440  0831               	movf	efgtoa@m^(0+128),w
  8660     0441  023B               	subwf	efgtoa@i^(0+128),w
  8661     0442                     u4215:
  8662     0442  1C03               	skipc
  8663     0443  2C45               	goto	u4211
  8664     0444  2C46               	goto	u4210
  8665     0445                     u4211:
  8666     0445  2B12               	goto	l2731
  8667     0446                     u4210:
  8668     0446                     l2743:
  8669                           
  8670                           ;C:\Program Files\Microchip\xc8\v2.50\pic\sources\c99\common\doprnt.c: 745:     l = u.f*
      +                          5.0;
  8671     0446  3040               	movlw	64
  8672     0447  1283               	bcf	3,5	;RP0=0, select bank0
  8673     0448  1303               	bcf	3,6	;RP1=0, select bank0
  8674     0449  00A3               	movwf	___flmul@b+3
  8675     044A  30A0               	movlw	160
  8676     044B  00A2               	movwf	___flmul@b+2
  8677     044C  3000               	movlw	0
  8678     044D  00A1               	movwf	___flmul@b+1
  8679     044E  3000               	movlw	0
  8680     044F  00A0               	movwf	___flmul@b
  8681     0450  1683               	bsf	3,5	;RP0=1, select bank1
  8682     0451  1303               	bcf	3,6	;RP1=0, select bank1
  8683     0452  084F               	movf	(efgtoa@u+3)^(0+128),w
  8684     0453  1283               	bcf	3,5	;RP0=0, select bank0
  8685     0454  1303               	bcf	3,6	;RP1=0, select bank0
  8686     0455  00A7               	movwf	___flmul@a+3
  8687     0456  1683               	bsf	3,5	;RP0=1, select bank1
  8688     0457  1303               	bcf	3,6	;RP1=0, select bank1
  8689     0458  084E               	movf	(efgtoa@u+2)^(0+128),w
  8690     0459  1283               	bcf	3,5	;RP0=0, select bank0
  8691     045A  1303               	bcf	3,6	;RP1=0, select bank0
  8692     045B  00A6               	movwf	___flmul@a+2
  8693     045C  1683               	bsf	3,5	;RP0=1, select bank1
  8694     045D  1303               	bcf	3,6	;RP1=0, select bank1
  8695     045E  084D               	movf	(efgtoa@u+1)^(0+128),w
  8696     045F  1283               	bcf	3,5	;RP0=0, select bank0
  8697     0460  1303               	bcf	3,6	;RP1=0, select bank0
  8698     0461  00A5               	movwf	___flmul@a+1
  8699     0462  1683               	bsf	3,5	;RP0=1, select bank1
  8700     0463  1303               	bcf	3,6	;RP1=0, select bank1
  8701     0464  084C               	movf	efgtoa@u^(0+128),w
  8702     0465  1283               	bcf	3,5	;RP0=0, select bank0
  8703     0466  1303               	bcf	3,6	;RP1=0, select bank0
  8704     0467  00A4               	movwf	___flmul@a
  8705     0468  120A  158A  24BE  120A  118A  	fcall	___flmul
  8706     046D  1283               	bcf	3,5	;RP0=0, select bank0
  8707     046E  1303               	bcf	3,6	;RP1=0, select bank0
  8708     046F  0823               	movf	?___flmul+3,w
  8709     0470  1683               	bsf	3,5	;RP0=1, select bank1
  8710     0471  1303               	bcf	3,6	;RP1=0, select bank1
  8711     0472  00C4               	movwf	(efgtoa@l+3)^(0+128)
  8712     0473  1283               	bcf	3,5	;RP0=0, select bank0
  8713     0474  1303               	bcf	3,6	;RP1=0, select bank0
  8714     0475  0822               	movf	?___flmul+2,w
  8715     0476  1683               	bsf	3,5	;RP0=1, select bank1
  8716     0477  1303               	bcf	3,6	;RP1=0, select bank1
  8717     0478  00C3               	movwf	(efgtoa@l+2)^(0+128)
  8718     0479  1283               	bcf	3,5	;RP0=0, select bank0
  8719     047A  1303               	bcf	3,6	;RP1=0, select bank0
  8720     047B  0821               	movf	?___flmul+1,w
  8721     047C  1683               	bsf	3,5	;RP0=1, select bank1
  8722     047D  1303               	bcf	3,6	;RP1=0, select bank1
  8723     047E  00C2               	movwf	(efgtoa@l+1)^(0+128)
  8724     047F  1283               	bcf	3,5	;RP0=0, select bank0
  8725     0480  1303               	bcf	3,6	;RP1=0, select bank0
  8726     0481  0820               	movf	?___flmul,w
  8727     0482  1683               	bsf	3,5	;RP0=1, select bank1
  8728     0483  1303               	bcf	3,6	;RP1=0, select bank1
  8729     0484  00C1               	movwf	efgtoa@l^(0+128)
  8730     0485                     l2745:
  8731                           
  8732                           ;C:\Program Files\Microchip\xc8\v2.50\pic\sources\c99\common\doprnt.c: 746:     if (h < 
      +                          l) {
  8733     0485  0840               	movf	(efgtoa@h+3)^(0+128),w
  8734     0486  1283               	bcf	3,5	;RP0=0, select bank0
  8735     0487  1303               	bcf	3,6	;RP1=0, select bank0
  8736     0488  00BD               	movwf	___flge@ff1+3
  8737     0489  1683               	bsf	3,5	;RP0=1, select bank1
  8738     048A  1303               	bcf	3,6	;RP1=0, select bank1
  8739     048B  083F               	movf	(efgtoa@h+2)^(0+128),w
  8740     048C  1283               	bcf	3,5	;RP0=0, select bank0
  8741     048D  1303               	bcf	3,6	;RP1=0, select bank0
  8742     048E  00BC               	movwf	___flge@ff1+2
  8743     048F  1683               	bsf	3,5	;RP0=1, select bank1
  8744     0490  1303               	bcf	3,6	;RP1=0, select bank1
  8745     0491  083E               	movf	(efgtoa@h+1)^(0+128),w
  8746     0492  1283               	bcf	3,5	;RP0=0, select bank0
  8747     0493  1303               	bcf	3,6	;RP1=0, select bank0
  8748     0494  00BB               	movwf	___flge@ff1+1
  8749     0495  1683               	bsf	3,5	;RP0=1, select bank1
  8750     0496  1303               	bcf	3,6	;RP1=0, select bank1
  8751     0497  083D               	movf	efgtoa@h^(0+128),w
  8752     0498  1283               	bcf	3,5	;RP0=0, select bank0
  8753     0499  1303               	bcf	3,6	;RP1=0, select bank0
  8754     049A  00BA               	movwf	___flge@ff1
  8755     049B  1683               	bsf	3,5	;RP0=1, select bank1
  8756     049C  1303               	bcf	3,6	;RP1=0, select bank1
  8757     049D  0844               	movf	(efgtoa@l+3)^(0+128),w
  8758     049E  1283               	bcf	3,5	;RP0=0, select bank0
  8759     049F  1303               	bcf	3,6	;RP1=0, select bank0
  8760     04A0  00C1               	movwf	___flge@ff2+3
  8761     04A1  1683               	bsf	3,5	;RP0=1, select bank1
  8762     04A2  1303               	bcf	3,6	;RP1=0, select bank1
  8763     04A3  0843               	movf	(efgtoa@l+2)^(0+128),w
  8764     04A4  1283               	bcf	3,5	;RP0=0, select bank0
  8765     04A5  1303               	bcf	3,6	;RP1=0, select bank0
  8766     04A6  00C0               	movwf	___flge@ff2+2
  8767     04A7  1683               	bsf	3,5	;RP0=1, select bank1
  8768     04A8  1303               	bcf	3,6	;RP1=0, select bank1
  8769     04A9  0842               	movf	(efgtoa@l+1)^(0+128),w
  8770     04AA  1283               	bcf	3,5	;RP0=0, select bank0
  8771     04AB  1303               	bcf	3,6	;RP1=0, select bank0
  8772     04AC  00BF               	movwf	___flge@ff2+1
  8773     04AD  1683               	bsf	3,5	;RP0=1, select bank1
  8774     04AE  1303               	bcf	3,6	;RP1=0, select bank1
  8775     04AF  0841               	movf	efgtoa@l^(0+128),w
  8776     04B0  1283               	bcf	3,5	;RP0=0, select bank0
  8777     04B1  1303               	bcf	3,6	;RP1=0, select bank0
  8778     04B2  00BE               	movwf	___flge@ff2
  8779     04B3  160A  118A  237A  120A  118A  	fcall	___flge
  8780     04B8  1803               	btfsc	3,0
  8781     04B9  2CBB               	goto	u4221
  8782     04BA  2CBC               	goto	u4220
  8783     04BB                     u4221:
  8784     04BB  2CC7               	goto	l2749
  8785     04BC                     u4220:
  8786     04BC                     l2747:
  8787                           
  8788                           ;C:\Program Files\Microchip\xc8\v2.50\pic\sources\c99\common\doprnt.c: 747:         l = 
      +                          0.0;
  8789     04BC  3000               	movlw	0
  8790     04BD  1683               	bsf	3,5	;RP0=1, select bank1
  8791     04BE  1303               	bcf	3,6	;RP1=0, select bank1
  8792     04BF  00C4               	movwf	(efgtoa@l+3)^(0+128)
  8793     04C0  3000               	movlw	0
  8794     04C1  00C3               	movwf	(efgtoa@l+2)^(0+128)
  8795     04C2  3000               	movlw	0
  8796     04C3  00C2               	movwf	(efgtoa@l+1)^(0+128)
  8797     04C4  3000               	movlw	0
  8798     04C5  00C1               	movwf	efgtoa@l^(0+128)
  8799                           
  8800                           ;C:\Program Files\Microchip\xc8\v2.50\pic\sources\c99\common\doprnt.c: 748:     } else {
  8801     04C6  2CF0               	goto	l2755
  8802     04C7                     l2749:
  8803                           
  8804                           ;C:\Program Files\Microchip\xc8\v2.50\pic\sources\c99\common\doprnt.c: 750:         if (
      +                          (h == l) && !(d % 2)) {
  8805     04C7  1683               	bsf	3,5	;RP0=1, select bank1
  8806     04C8  1303               	bcf	3,6	;RP1=0, select bank1
  8807     04C9  0840               	movf	(efgtoa@h+3)^(0+128),w
  8808     04CA  00F3               	movwf	___fleq@ff1+3
  8809     04CB  083F               	movf	(efgtoa@h+2)^(0+128),w
  8810     04CC  00F2               	movwf	___fleq@ff1+2
  8811     04CD  083E               	movf	(efgtoa@h+1)^(0+128),w
  8812     04CE  00F1               	movwf	___fleq@ff1+1
  8813     04CF  083D               	movf	efgtoa@h^(0+128),w
  8814     04D0  00F0               	movwf	___fleq@ff1
  8815     04D1  0844               	movf	(efgtoa@l+3)^(0+128),w
  8816     04D2  00F7               	movwf	___fleq@ff2+3
  8817     04D3  0843               	movf	(efgtoa@l+2)^(0+128),w
  8818     04D4  00F6               	movwf	___fleq@ff2+2
  8819     04D5  0842               	movf	(efgtoa@l+1)^(0+128),w
  8820     04D6  00F5               	movwf	___fleq@ff2+1
  8821     04D7  0841               	movf	efgtoa@l^(0+128),w
  8822     04D8  00F4               	movwf	___fleq@ff2
  8823     04D9  160A  118A  21C9  120A  118A  	fcall	___fleq
  8824     04DE  1C03               	btfss	3,0
  8825     04DF  2CE1               	goto	u4231
  8826     04E0  2CE2               	goto	u4230
  8827     04E1                     u4231:
  8828     04E1  2CF0               	goto	l2755
  8829     04E2                     u4230:
  8830     04E2                     l2751:
  8831     04E2  1683               	bsf	3,5	;RP0=1, select bank1
  8832     04E3  1303               	bcf	3,6	;RP1=0, select bank1
  8833     04E4  182F               	btfsc	efgtoa@d^(0+128),0
  8834     04E5  2CE7               	goto	u4241
  8835     04E6  2CE8               	goto	u4240
  8836     04E7                     u4241:
  8837     04E7  2CF0               	goto	l2755
  8838     04E8                     u4240:
  8839     04E8                     l2753:
  8840                           
  8841                           ;C:\Program Files\Microchip\xc8\v2.50\pic\sources\c99\common\doprnt.c: 751:             
      +                          l = 0.0;
  8842     04E8  3000               	movlw	0
  8843     04E9  00C4               	movwf	(efgtoa@l+3)^(0+128)
  8844     04EA  3000               	movlw	0
  8845     04EB  00C3               	movwf	(efgtoa@l+2)^(0+128)
  8846     04EC  3000               	movlw	0
  8847     04ED  00C2               	movwf	(efgtoa@l+1)^(0+128)
  8848     04EE  3000               	movlw	0
  8849     04EF  00C1               	movwf	efgtoa@l^(0+128)
  8850     04F0                     l2755:
  8851                           
  8852                           ;C:\Program Files\Microchip\xc8\v2.50\pic\sources\c99\common\doprnt.c: 756:     h = g.f 
      +                          + l;
  8853     04F0  1683               	bsf	3,5	;RP0=1, select bank1
  8854     04F1  1303               	bcf	3,6	;RP1=0, select bank1
  8855     04F2  0844               	movf	(efgtoa@l+3)^(0+128),w
  8856     04F3  00F3               	movwf	___fladd@b+3
  8857     04F4  0843               	movf	(efgtoa@l+2)^(0+128),w
  8858     04F5  00F2               	movwf	___fladd@b+2
  8859     04F6  0842               	movf	(efgtoa@l+1)^(0+128),w
  8860     04F7  00F1               	movwf	___fladd@b+1
  8861     04F8  0841               	movf	efgtoa@l^(0+128),w
  8862     04F9  00F0               	movwf	___fladd@b
  8863     04FA  084B               	movf	(efgtoa@g+3)^(0+128),w
  8864     04FB  00F7               	movwf	___fladd@a+3
  8865     04FC  084A               	movf	(efgtoa@g+2)^(0+128),w
  8866     04FD  00F6               	movwf	___fladd@a+2
  8867     04FE  0849               	movf	(efgtoa@g+1)^(0+128),w
  8868     04FF  00F5               	movwf	___fladd@a+1
  8869     0500  0848               	movf	efgtoa@g^(0+128),w
  8870     0501  00F4               	movwf	___fladd@a
  8871     0502  120A  158A  2262  120A  118A  	fcall	___fladd
  8872     0507  0873               	movf	?___fladd+3,w
  8873     0508  1683               	bsf	3,5	;RP0=1, select bank1
  8874     0509  1303               	bcf	3,6	;RP1=0, select bank1
  8875     050A  00C0               	movwf	(efgtoa@h+3)^(0+128)
  8876     050B  0872               	movf	?___fladd+2,w
  8877     050C  00BF               	movwf	(efgtoa@h+2)^(0+128)
  8878     050D  0871               	movf	?___fladd+1,w
  8879     050E  00BE               	movwf	(efgtoa@h+1)^(0+128)
  8880     050F  0870               	movf	?___fladd,w
  8881     0510  00BD               	movwf	efgtoa@h^(0+128)
  8882     0511                     l2757:
  8883                           
  8884                           ;C:\Program Files\Microchip\xc8\v2.50\pic\sources\c99\common\doprnt.c: 758:  if (h >= (o
      +                          u.f*10.0)) {
  8885     0511  0840               	movf	(efgtoa@h+3)^(0+128),w
  8886     0512  1283               	bcf	3,5	;RP0=0, select bank0
  8887     0513  1303               	bcf	3,6	;RP1=0, select bank0
  8888     0514  00BD               	movwf	___flge@ff1+3
  8889     0515  1683               	bsf	3,5	;RP0=1, select bank1
  8890     0516  1303               	bcf	3,6	;RP1=0, select bank1
  8891     0517  083F               	movf	(efgtoa@h+2)^(0+128),w
  8892     0518  1283               	bcf	3,5	;RP0=0, select bank0
  8893     0519  1303               	bcf	3,6	;RP1=0, select bank0
  8894     051A  00BC               	movwf	___flge@ff1+2
  8895     051B  1683               	bsf	3,5	;RP0=1, select bank1
  8896     051C  1303               	bcf	3,6	;RP1=0, select bank1
  8897     051D  083E               	movf	(efgtoa@h+1)^(0+128),w
  8898     051E  1283               	bcf	3,5	;RP0=0, select bank0
  8899     051F  1303               	bcf	3,6	;RP1=0, select bank0
  8900     0520  00BB               	movwf	___flge@ff1+1
  8901     0521  1683               	bsf	3,5	;RP0=1, select bank1
  8902     0522  1303               	bcf	3,6	;RP1=0, select bank1
  8903     0523  083D               	movf	efgtoa@h^(0+128),w
  8904     0524  1283               	bcf	3,5	;RP0=0, select bank0
  8905     0525  1303               	bcf	3,6	;RP1=0, select bank0
  8906     0526  00BA               	movwf	___flge@ff1
  8907     0527  3041               	movlw	65
  8908     0528  00A3               	movwf	___flmul@b+3
  8909     0529  3020               	movlw	32
  8910     052A  00A2               	movwf	___flmul@b+2
  8911     052B  3000               	movlw	0
  8912     052C  00A1               	movwf	___flmul@b+1
  8913     052D  3000               	movlw	0
  8914     052E  00A0               	movwf	___flmul@b
  8915     052F  1683               	bsf	3,5	;RP0=1, select bank1
  8916     0530  1303               	bcf	3,6	;RP1=0, select bank1
  8917     0531  083A               	movf	(efgtoa@ou+3)^(0+128),w
  8918     0532  1283               	bcf	3,5	;RP0=0, select bank0
  8919     0533  1303               	bcf	3,6	;RP1=0, select bank0
  8920     0534  00A7               	movwf	___flmul@a+3
  8921     0535  1683               	bsf	3,5	;RP0=1, select bank1
  8922     0536  1303               	bcf	3,6	;RP1=0, select bank1
  8923     0537  0839               	movf	(efgtoa@ou+2)^(0+128),w
  8924     0538  1283               	bcf	3,5	;RP0=0, select bank0
  8925     0539  1303               	bcf	3,6	;RP1=0, select bank0
  8926     053A  00A6               	movwf	___flmul@a+2
  8927     053B  1683               	bsf	3,5	;RP0=1, select bank1
  8928     053C  1303               	bcf	3,6	;RP1=0, select bank1
  8929     053D  0838               	movf	(efgtoa@ou+1)^(0+128),w
  8930     053E  1283               	bcf	3,5	;RP0=0, select bank0
  8931     053F  1303               	bcf	3,6	;RP1=0, select bank0
  8932     0540  00A5               	movwf	___flmul@a+1
  8933     0541  1683               	bsf	3,5	;RP0=1, select bank1
  8934     0542  1303               	bcf	3,6	;RP1=0, select bank1
  8935     0543  0837               	movf	efgtoa@ou^(0+128),w
  8936     0544  1283               	bcf	3,5	;RP0=0, select bank0
  8937     0545  1303               	bcf	3,6	;RP1=0, select bank0
  8938     0546  00A4               	movwf	___flmul@a
  8939     0547  120A  158A  24BE  120A  118A  	fcall	___flmul
  8940     054C  1283               	bcf	3,5	;RP0=0, select bank0
  8941     054D  1303               	bcf	3,6	;RP1=0, select bank0
  8942     054E  0823               	movf	?___flmul+3,w
  8943     054F  00C1               	movwf	___flge@ff2+3
  8944     0550  0822               	movf	?___flmul+2,w
  8945     0551  00C0               	movwf	___flge@ff2+2
  8946     0552  0821               	movf	?___flmul+1,w
  8947     0553  00BF               	movwf	___flge@ff2+1
  8948     0554  0820               	movf	?___flmul,w
  8949     0555  00BE               	movwf	___flge@ff2
  8950     0556  160A  118A  237A  120A  118A  	fcall	___flge
  8951     055B  1C03               	btfss	3,0
  8952     055C  2D5E               	goto	u4251
  8953     055D  2D5F               	goto	u4250
  8954     055E                     u4251:
  8955     055E  2DB2               	goto	l685
  8956     055F                     u4250:
  8957     055F                     l2759:
  8958                           
  8959                           ;C:\Program Files\Microchip\xc8\v2.50\pic\sources\c99\common\doprnt.c: 759:   e++;
  8960     055F  3001               	movlw	1
  8961     0560  1683               	bsf	3,5	;RP0=1, select bank1
  8962     0561  1303               	bcf	3,6	;RP1=0, select bank1
  8963     0562  07B3               	addwf	efgtoa@e^(0+128),f
  8964     0563  1803               	skipnc
  8965     0564  0AB4               	incf	(efgtoa@e+1)^(0+128),f
  8966     0565  3000               	movlw	0
  8967     0566  07B4               	addwf	(efgtoa@e+1)^(0+128),f
  8968     0567                     l2761:
  8969                           
  8970                           ;C:\Program Files\Microchip\xc8\v2.50\pic\sources\c99\common\doprnt.c: 760:   ou.f *= 10
      +                          .0;
  8971     0567  3041               	movlw	65
  8972     0568  1283               	bcf	3,5	;RP0=0, select bank0
  8973     0569  1303               	bcf	3,6	;RP1=0, select bank0
  8974     056A  00A3               	movwf	___flmul@b+3
  8975     056B  3020               	movlw	32
  8976     056C  00A2               	movwf	___flmul@b+2
  8977     056D  3000               	movlw	0
  8978     056E  00A1               	movwf	___flmul@b+1
  8979     056F  3000               	movlw	0
  8980     0570  00A0               	movwf	___flmul@b
  8981     0571  1683               	bsf	3,5	;RP0=1, select bank1
  8982     0572  1303               	bcf	3,6	;RP1=0, select bank1
  8983     0573  083A               	movf	(efgtoa@ou+3)^(0+128),w
  8984     0574  1283               	bcf	3,5	;RP0=0, select bank0
  8985     0575  1303               	bcf	3,6	;RP1=0, select bank0
  8986     0576  00A7               	movwf	___flmul@a+3
  8987     0577  1683               	bsf	3,5	;RP0=1, select bank1
  8988     0578  1303               	bcf	3,6	;RP1=0, select bank1
  8989     0579  0839               	movf	(efgtoa@ou+2)^(0+128),w
  8990     057A  1283               	bcf	3,5	;RP0=0, select bank0
  8991     057B  1303               	bcf	3,6	;RP1=0, select bank0
  8992     057C  00A6               	movwf	___flmul@a+2
  8993     057D  1683               	bsf	3,5	;RP0=1, select bank1
  8994     057E  1303               	bcf	3,6	;RP1=0, select bank1
  8995     057F  0838               	movf	(efgtoa@ou+1)^(0+128),w
  8996     0580  1283               	bcf	3,5	;RP0=0, select bank0
  8997     0581  1303               	bcf	3,6	;RP1=0, select bank0
  8998     0582  00A5               	movwf	___flmul@a+1
  8999     0583  1683               	bsf	3,5	;RP0=1, select bank1
  9000     0584  1303               	bcf	3,6	;RP1=0, select bank1
  9001     0585  0837               	movf	efgtoa@ou^(0+128),w
  9002     0586  1283               	bcf	3,5	;RP0=0, select bank0
  9003     0587  1303               	bcf	3,6	;RP1=0, select bank0
  9004     0588  00A4               	movwf	___flmul@a
  9005     0589  120A  158A  24BE  120A  118A  	fcall	___flmul
  9006     058E  1283               	bcf	3,5	;RP0=0, select bank0
  9007     058F  1303               	bcf	3,6	;RP1=0, select bank0
  9008     0590  0823               	movf	?___flmul+3,w
  9009     0591  1683               	bsf	3,5	;RP0=1, select bank1
  9010     0592  1303               	bcf	3,6	;RP1=0, select bank1
  9011     0593  00BA               	movwf	(efgtoa@ou+3)^(0+128)
  9012     0594  1283               	bcf	3,5	;RP0=0, select bank0
  9013     0595  1303               	bcf	3,6	;RP1=0, select bank0
  9014     0596  0822               	movf	?___flmul+2,w
  9015     0597  1683               	bsf	3,5	;RP0=1, select bank1
  9016     0598  1303               	bcf	3,6	;RP1=0, select bank1
  9017     0599  00B9               	movwf	(efgtoa@ou+2)^(0+128)
  9018     059A  1283               	bcf	3,5	;RP0=0, select bank0
  9019     059B  1303               	bcf	3,6	;RP1=0, select bank0
  9020     059C  0821               	movf	?___flmul+1,w
  9021     059D  1683               	bsf	3,5	;RP0=1, select bank1
  9022     059E  1303               	bcf	3,6	;RP1=0, select bank1
  9023     059F  00B8               	movwf	(efgtoa@ou+1)^(0+128)
  9024     05A0  1283               	bcf	3,5	;RP0=0, select bank0
  9025     05A1  1303               	bcf	3,6	;RP1=0, select bank0
  9026     05A2  0820               	movf	?___flmul,w
  9027     05A3  1683               	bsf	3,5	;RP0=1, select bank1
  9028     05A4  1303               	bcf	3,6	;RP1=0, select bank1
  9029     05A5  00B7               	movwf	efgtoa@ou^(0+128)
  9030     05A6                     l2763:
  9031                           
  9032                           ;C:\Program Files\Microchip\xc8\v2.50\pic\sources\c99\common\doprnt.c: 762:   if (nmode 
      +                          == 'f') {
  9033     05A6  3066               	movlw	102
  9034     05A7  062E               	xorwf	efgtoa@nmode^(0+128),w
  9035     05A8  1D03               	btfss	3,2
  9036     05A9  2DAB               	goto	u4261
  9037     05AA  2DAC               	goto	u4260
  9038     05AB                     u4261:
  9039     05AB  2DB2               	goto	l685
  9040     05AC                     u4260:
  9041     05AC                     l2765:
  9042                           
  9043                           ;C:\Program Files\Microchip\xc8\v2.50\pic\sources\c99\common\doprnt.c: 764:    m++;
  9044     05AC  3001               	movlw	1
  9045     05AD  07B1               	addwf	efgtoa@m^(0+128),f
  9046     05AE  1803               	skipnc
  9047     05AF  0AB2               	incf	(efgtoa@m+1)^(0+128),f
  9048     05B0  3000               	movlw	0
  9049     05B1  07B2               	addwf	(efgtoa@m+1)^(0+128),f
  9050     05B2                     l685:	
  9051                           ;C:\Program Files\Microchip\xc8\v2.50\pic\sources\c99\common\doprnt.c: 767:  }
  9052                           
  9053                           
  9054                           ;C:\Program Files\Microchip\xc8\v2.50\pic\sources\c99\common\doprnt.c: 770:     u = ou;
  9055     05B2  1683               	bsf	3,5	;RP0=1, select bank1
  9056     05B3  1303               	bcf	3,6	;RP1=0, select bank1
  9057     05B4  083A               	movf	(efgtoa@ou+3)^(0+128),w
  9058     05B5  00CF               	movwf	(efgtoa@u+3)^(0+128)
  9059     05B6  0839               	movf	(efgtoa@ou+2)^(0+128),w
  9060     05B7  00CE               	movwf	(efgtoa@u+2)^(0+128)
  9061     05B8  0838               	movf	(efgtoa@ou+1)^(0+128),w
  9062     05B9  00CD               	movwf	(efgtoa@u+1)^(0+128)
  9063     05BA  0837               	movf	efgtoa@ou^(0+128),w
  9064     05BB  00CC               	movwf	efgtoa@u^(0+128)
  9065                           
  9066                           ;C:\Program Files\Microchip\xc8\v2.50\pic\sources\c99\common\doprnt.c: 774:  ne = e;
  9067     05BC  0834               	movf	(efgtoa@e+1)^(0+128),w
  9068     05BD  00A5               	movwf	(efgtoa@ne+1)^(0+128)
  9069     05BE  0833               	movf	efgtoa@e^(0+128),w
  9070     05BF  00A4               	movwf	efgtoa@ne^(0+128)
  9071     05C0                     l2767:
  9072                           
  9073                           ;C:\Program Files\Microchip\xc8\v2.50\pic\sources\c99\common\doprnt.c: 776:     pp = 0;
  9074     05C0  01AC               	clrf	efgtoa@pp^(0+128)
  9075     05C1                     l2769:
  9076                           
  9077                           ;C:\Program Files\Microchip\xc8\v2.50\pic\sources\c99\common\doprnt.c: 777:     t = 0;
  9078     05C1  01A8               	clrf	efgtoa@t^(0+128)
  9079     05C2  01A9               	clrf	(efgtoa@t+1)^(0+128)
  9080     05C3                     l2771:
  9081                           
  9082                           ;C:\Program Files\Microchip\xc8\v2.50\pic\sources\c99\common\doprnt.c: 778:     i = 0;
  9083     05C3  01BB               	clrf	efgtoa@i^(0+128)
  9084     05C4  01BC               	clrf	(efgtoa@i+1)^(0+128)
  9085                           
  9086                           ;C:\Program Files\Microchip\xc8\v2.50\pic\sources\c99\common\doprnt.c: 779:     while ((
      +                          i < m) && (n < (80 - 5))) {
  9087     05C5  2F64               	goto	l2815
  9088     05C6                     l2773:
  9089                           
  9090                           ;C:\Program Files\Microchip\xc8\v2.50\pic\sources\c99\common\doprnt.c: 780:         l = 
      +                          floorf(h/u.f);
  9091     05C6  1683               	bsf	3,5	;RP0=1, select bank1
  9092     05C7  1303               	bcf	3,6	;RP1=0, select bank1
  9093     05C8  084F               	movf	(efgtoa@u+3)^(0+128),w
  9094     05C9  1283               	bcf	3,5	;RP0=0, select bank0
  9095     05CA  1303               	bcf	3,6	;RP1=0, select bank0
  9096     05CB  00BD               	movwf	___fldiv@a+3
  9097     05CC  1683               	bsf	3,5	;RP0=1, select bank1
  9098     05CD  1303               	bcf	3,6	;RP1=0, select bank1
  9099     05CE  084E               	movf	(efgtoa@u+2)^(0+128),w
  9100     05CF  1283               	bcf	3,5	;RP0=0, select bank0
  9101     05D0  1303               	bcf	3,6	;RP1=0, select bank0
  9102     05D1  00BC               	movwf	___fldiv@a+2
  9103     05D2  1683               	bsf	3,5	;RP0=1, select bank1
  9104     05D3  1303               	bcf	3,6	;RP1=0, select bank1
  9105     05D4  084D               	movf	(efgtoa@u+1)^(0+128),w
  9106     05D5  1283               	bcf	3,5	;RP0=0, select bank0
  9107     05D6  1303               	bcf	3,6	;RP1=0, select bank0
  9108     05D7  00BB               	movwf	___fldiv@a+1
  9109     05D8  1683               	bsf	3,5	;RP0=1, select bank1
  9110     05D9  1303               	bcf	3,6	;RP1=0, select bank1
  9111     05DA  084C               	movf	efgtoa@u^(0+128),w
  9112     05DB  1283               	bcf	3,5	;RP0=0, select bank0
  9113     05DC  1303               	bcf	3,6	;RP1=0, select bank0
  9114     05DD  00BA               	movwf	___fldiv@a
  9115     05DE  1683               	bsf	3,5	;RP0=1, select bank1
  9116     05DF  1303               	bcf	3,6	;RP1=0, select bank1
  9117     05E0  0840               	movf	(efgtoa@h+3)^(0+128),w
  9118     05E1  1283               	bcf	3,5	;RP0=0, select bank0
  9119     05E2  1303               	bcf	3,6	;RP1=0, select bank0
  9120     05E3  00C1               	movwf	___fldiv@b+3
  9121     05E4  1683               	bsf	3,5	;RP0=1, select bank1
  9122     05E5  1303               	bcf	3,6	;RP1=0, select bank1
  9123     05E6  083F               	movf	(efgtoa@h+2)^(0+128),w
  9124     05E7  1283               	bcf	3,5	;RP0=0, select bank0
  9125     05E8  1303               	bcf	3,6	;RP1=0, select bank0
  9126     05E9  00C0               	movwf	___fldiv@b+2
  9127     05EA  1683               	bsf	3,5	;RP0=1, select bank1
  9128     05EB  1303               	bcf	3,6	;RP1=0, select bank1
  9129     05EC  083E               	movf	(efgtoa@h+1)^(0+128),w
  9130     05ED  1283               	bcf	3,5	;RP0=0, select bank0
  9131     05EE  1303               	bcf	3,6	;RP1=0, select bank0
  9132     05EF  00BF               	movwf	___fldiv@b+1
  9133     05F0  1683               	bsf	3,5	;RP0=1, select bank1
  9134     05F1  1303               	bcf	3,6	;RP1=0, select bank1
  9135     05F2  083D               	movf	efgtoa@h^(0+128),w
  9136     05F3  1283               	bcf	3,5	;RP0=0, select bank0
  9137     05F4  1303               	bcf	3,6	;RP1=0, select bank0
  9138     05F5  00BE               	movwf	___fldiv@b
  9139     05F6  120A  158A  2098  120A  118A  	fcall	___fldiv
  9140     05FB  1283               	bcf	3,5	;RP0=0, select bank0
  9141     05FC  1303               	bcf	3,6	;RP1=0, select bank0
  9142     05FD  083D               	movf	?___fldiv+3,w
  9143     05FE  00D7               	movwf	floorf@x+3
  9144     05FF  083C               	movf	?___fldiv+2,w
  9145     0600  00D6               	movwf	floorf@x+2
  9146     0601  083B               	movf	?___fldiv+1,w
  9147     0602  00D5               	movwf	floorf@x+1
  9148     0603  083A               	movf	?___fldiv,w
  9149     0604  00D4               	movwf	floorf@x
  9150     0605  160A  118A  25DE  120A  118A  	fcall	_floorf
  9151     060A  1283               	bcf	3,5	;RP0=0, select bank0
  9152     060B  1303               	bcf	3,6	;RP1=0, select bank0
  9153     060C  0857               	movf	?_floorf+3,w
  9154     060D  1683               	bsf	3,5	;RP0=1, select bank1
  9155     060E  1303               	bcf	3,6	;RP1=0, select bank1
  9156     060F  00C4               	movwf	(efgtoa@l+3)^(0+128)
  9157     0610  1283               	bcf	3,5	;RP0=0, select bank0
  9158     0611  1303               	bcf	3,6	;RP1=0, select bank0
  9159     0612  0856               	movf	?_floorf+2,w
  9160     0613  1683               	bsf	3,5	;RP0=1, select bank1
  9161     0614  1303               	bcf	3,6	;RP1=0, select bank1
  9162     0615  00C3               	movwf	(efgtoa@l+2)^(0+128)
  9163     0616  1283               	bcf	3,5	;RP0=0, select bank0
  9164     0617  1303               	bcf	3,6	;RP1=0, select bank0
  9165     0618  0855               	movf	?_floorf+1,w
  9166     0619  1683               	bsf	3,5	;RP0=1, select bank1
  9167     061A  1303               	bcf	3,6	;RP1=0, select bank1
  9168     061B  00C2               	movwf	(efgtoa@l+1)^(0+128)
  9169     061C  1283               	bcf	3,5	;RP0=0, select bank0
  9170     061D  1303               	bcf	3,6	;RP1=0, select bank0
  9171     061E  0854               	movf	?_floorf,w
  9172     061F  1683               	bsf	3,5	;RP0=1, select bank1
  9173     0620  1303               	bcf	3,6	;RP1=0, select bank1
  9174     0621  00C1               	movwf	efgtoa@l^(0+128)
  9175                           
  9176                           ;C:\Program Files\Microchip\xc8\v2.50\pic\sources\c99\common\doprnt.c: 781:         d = 
      +                          (int)l > 9 ? 9 : (int)l;
  9177     0622  0844               	movf	(efgtoa@l+3)^(0+128),w
  9178     0623  00F3               	movwf	___fltol@f1+3
  9179     0624  0843               	movf	(efgtoa@l+2)^(0+128),w
  9180     0625  00F2               	movwf	___fltol@f1+2
  9181     0626  0842               	movf	(efgtoa@l+1)^(0+128),w
  9182     0627  00F1               	movwf	___fltol@f1+1
  9183     0628  0841               	movf	efgtoa@l^(0+128),w
  9184     0629  00F0               	movwf	___fltol@f1
  9185     062A  160A  118A  226C  120A  118A  	fcall	___fltol
  9186     062F  0871               	movf	?___fltol+1,w
  9187     0630  3A80               	xorlw	128
  9188     0631  00FF               	movwf	btemp+1
  9189     0632  3080               	movlw	128
  9190     0633  027F               	subwf	btemp+1,w
  9191     0634  1D03               	skipz
  9192     0635  2E38               	goto	u4275
  9193     0636  300A               	movlw	10
  9194     0637  0270               	subwf	?___fltol,w
  9195     0638                     u4275:
  9196     0638  1803               	skipnc
  9197     0639  2E3B               	goto	u4271
  9198     063A  2E3C               	goto	u4270
  9199     063B                     u4271:
  9200     063B  2E52               	goto	l2777
  9201     063C                     u4270:
  9202     063C                     l2775:
  9203     063C  1683               	bsf	3,5	;RP0=1, select bank1
  9204     063D  1303               	bcf	3,6	;RP1=0, select bank1
  9205     063E  0844               	movf	(efgtoa@l+3)^(0+128),w
  9206     063F  00F3               	movwf	___fltol@f1+3
  9207     0640  0843               	movf	(efgtoa@l+2)^(0+128),w
  9208     0641  00F2               	movwf	___fltol@f1+2
  9209     0642  0842               	movf	(efgtoa@l+1)^(0+128),w
  9210     0643  00F1               	movwf	___fltol@f1+1
  9211     0644  0841               	movf	efgtoa@l^(0+128),w
  9212     0645  00F0               	movwf	___fltol@f1
  9213     0646  160A  118A  226C  120A  118A  	fcall	___fltol
  9214     064B  0871               	movf	?___fltol+1,w
  9215     064C  1683               	bsf	3,5	;RP0=1, select bank1
  9216     064D  1303               	bcf	3,6	;RP1=0, select bank1
  9217     064E  00B0               	movwf	(efgtoa@d+1)^(0+128)
  9218     064F  0870               	movf	?___fltol,w
  9219     0650  00AF               	movwf	efgtoa@d^(0+128)
  9220     0651  2E58               	goto	l2779
  9221     0652                     l2777:
  9222     0652  3009               	movlw	9
  9223     0653  1683               	bsf	3,5	;RP0=1, select bank1
  9224     0654  1303               	bcf	3,6	;RP1=0, select bank1
  9225     0655  00AF               	movwf	efgtoa@d^(0+128)
  9226     0656  3000               	movlw	0
  9227     0657  00B0               	movwf	(efgtoa@d^(0+128)+1)
  9228     0658                     l2779:
  9229                           
  9230                           ;C:\Program Files\Microchip\xc8\v2.50\pic\sources\c99\common\doprnt.c: 792:   {;C:\Progr
      +                          am Files\Microchip\xc8\v2.50\pic\sources\c99\common\doprnt.c: 793:             if (!pp &
      +                          & (ne < 0)) {
  9231     0658  082C               	movf	efgtoa@pp^(0+128),w
  9232     0659  1D03               	btfss	3,2
  9233     065A  2E5C               	goto	u4281
  9234     065B  2E5D               	goto	u4280
  9235     065C                     u4281:
  9236     065C  2E8E               	goto	l2799
  9237     065D                     u4280:
  9238     065D                     l2781:
  9239     065D  1FA5               	btfss	(efgtoa@ne+1)^(0+128),7
  9240     065E  2E60               	goto	u4291
  9241     065F  2E61               	goto	u4290
  9242     0660                     u4291:
  9243     0660  2E8E               	goto	l2799
  9244     0661                     u4290:
  9245     0661                     l2783:
  9246                           
  9247                           ;C:\Program Files\Microchip\xc8\v2.50\pic\sources\c99\common\doprnt.c: 794:             
      +                              dbuf[n++] = '.';
  9248     0661  0846               	movf	efgtoa@n^(0+128),w
  9249     0662  3E10               	addlw	(low (_dbuf| (0+256)))& (0+255)
  9250     0663  0084               	movwf	4
  9251     0664  302E               	movlw	46
  9252     0665  1783               	bsf	3,7	;select IRP bank2
  9253     0666  0080               	movwf	0
  9254     0667                     l2785:
  9255     0667  3001               	movlw	1
  9256     0668  07C6               	addwf	efgtoa@n^(0+128),f
  9257     0669  1803               	skipnc
  9258     066A  0AC7               	incf	(efgtoa@n+1)^(0+128),f
  9259     066B  3000               	movlw	0
  9260     066C  07C7               	addwf	(efgtoa@n+1)^(0+128),f
  9261     066D                     l2787:
  9262                           
  9263                           ;C:\Program Files\Microchip\xc8\v2.50\pic\sources\c99\common\doprnt.c: 795:             
      +                              --w;
  9264     066D  30FF               	movlw	255
  9265     066E  07B5               	addwf	efgtoa@w^(0+128),f
  9266     066F  1803               	skipnc
  9267     0670  0AB6               	incf	(efgtoa@w+1)^(0+128),f
  9268     0671  30FF               	movlw	255
  9269     0672  07B6               	addwf	(efgtoa@w+1)^(0+128),f
  9270     0673                     l2789:
  9271                           
  9272                           ;C:\Program Files\Microchip\xc8\v2.50\pic\sources\c99\common\doprnt.c: 796:             
      +                              pp = 1;
  9273     0673  3001               	movlw	1
  9274     0674  00AC               	movwf	efgtoa@pp^(0+128)
  9275     0675  2E8E               	goto	l2799
  9276     0676                     l2791:
  9277                           
  9278                           ;C:\Program Files\Microchip\xc8\v2.50\pic\sources\c99\common\doprnt.c: 799:             
      +                              dbuf[n++] = '0';
  9279     0676  0846               	movf	efgtoa@n^(0+128),w
  9280     0677  3E10               	addlw	(low (_dbuf| (0+256)))& (0+255)
  9281     0678  0084               	movwf	4
  9282     0679  3030               	movlw	48
  9283     067A  1783               	bsf	3,7	;select IRP bank2
  9284     067B  0080               	movwf	0
  9285     067C                     l2793:
  9286     067C  3001               	movlw	1
  9287     067D  07C6               	addwf	efgtoa@n^(0+128),f
  9288     067E  1803               	skipnc
  9289     067F  0AC7               	incf	(efgtoa@n+1)^(0+128),f
  9290     0680  3000               	movlw	0
  9291     0681  07C7               	addwf	(efgtoa@n+1)^(0+128),f
  9292     0682                     l2795:
  9293                           
  9294                           ;C:\Program Files\Microchip\xc8\v2.50\pic\sources\c99\common\doprnt.c: 800:             
      +                              --w;
  9295     0682  30FF               	movlw	255
  9296     0683  07B5               	addwf	efgtoa@w^(0+128),f
  9297     0684  1803               	skipnc
  9298     0685  0AB6               	incf	(efgtoa@w+1)^(0+128),f
  9299     0686  30FF               	movlw	255
  9300     0687  07B6               	addwf	(efgtoa@w+1)^(0+128),f
  9301     0688                     l2797:
  9302                           
  9303                           ;C:\Program Files\Microchip\xc8\v2.50\pic\sources\c99\common\doprnt.c: 801:             
      +                              --t;
  9304     0688  30FF               	movlw	255
  9305     0689  07A8               	addwf	efgtoa@t^(0+128),f
  9306     068A  1803               	skipnc
  9307     068B  0AA9               	incf	(efgtoa@t+1)^(0+128),f
  9308     068C  30FF               	movlw	255
  9309     068D  07A9               	addwf	(efgtoa@t+1)^(0+128),f
  9310     068E                     l2799:
  9311                           
  9312                           ;C:\Program Files\Microchip\xc8\v2.50\pic\sources\c99\common\doprnt.c: 798:             
      +                          while (t) {
  9313     068E  0828               	movf	efgtoa@t^(0+128),w
  9314     068F  0429               	iorwf	(efgtoa@t+1)^(0+128),w
  9315     0690  1D03               	btfss	3,2
  9316     0691  2E93               	goto	u4301
  9317     0692  2E94               	goto	u4300
  9318     0693                     u4301:
  9319     0693  2E76               	goto	l2791
  9320     0694                     u4300:
  9321     0694                     l2801:
  9322                           
  9323                           ;C:\Program Files\Microchip\xc8\v2.50\pic\sources\c99\common\doprnt.c: 803:             
      +                          dbuf[n++] = (char)((int)'0' + d);
  9324     0694  0846               	movf	efgtoa@n^(0+128),w
  9325     0695  3E10               	addlw	(low (_dbuf| (0+256)))& (0+255)
  9326     0696  0084               	movwf	4
  9327     0697  082F               	movf	efgtoa@d^(0+128),w
  9328     0698  3E30               	addlw	48
  9329     0699  1783               	bsf	3,7	;select IRP bank2
  9330     069A  0080               	movwf	0
  9331     069B                     l2803:
  9332     069B  3001               	movlw	1
  9333     069C  07C6               	addwf	efgtoa@n^(0+128),f
  9334     069D  1803               	skipnc
  9335     069E  0AC7               	incf	(efgtoa@n+1)^(0+128),f
  9336     069F  3000               	movlw	0
  9337     06A0  07C7               	addwf	(efgtoa@n+1)^(0+128),f
  9338     06A1                     l2805:
  9339                           
  9340                           ;C:\Program Files\Microchip\xc8\v2.50\pic\sources\c99\common\doprnt.c: 804:             
      +                          --w;
  9341     06A1  30FF               	movlw	255
  9342     06A2  07B5               	addwf	efgtoa@w^(0+128),f
  9343     06A3  1803               	skipnc
  9344     06A4  0AB6               	incf	(efgtoa@w+1)^(0+128),f
  9345     06A5  30FF               	movlw	255
  9346     06A6  07B6               	addwf	(efgtoa@w+1)^(0+128),f
  9347     06A7                     l2807:
  9348                           
  9349                           ;C:\Program Files\Microchip\xc8\v2.50\pic\sources\c99\common\doprnt.c: 805:         };C:
      +                          \Program Files\Microchip\xc8\v2.50\pic\sources\c99\common\doprnt.c: 806:         h -= l*
      +                          u.f;
  9350     06A7  084F               	movf	(efgtoa@u+3)^(0+128),w
  9351     06A8  1283               	bcf	3,5	;RP0=0, select bank0
  9352     06A9  1303               	bcf	3,6	;RP1=0, select bank0
  9353     06AA  00A7               	movwf	___flmul@a+3
  9354     06AB  1683               	bsf	3,5	;RP0=1, select bank1
  9355     06AC  1303               	bcf	3,6	;RP1=0, select bank1
  9356     06AD  084E               	movf	(efgtoa@u+2)^(0+128),w
  9357     06AE  1283               	bcf	3,5	;RP0=0, select bank0
  9358     06AF  1303               	bcf	3,6	;RP1=0, select bank0
  9359     06B0  00A6               	movwf	___flmul@a+2
  9360     06B1  1683               	bsf	3,5	;RP0=1, select bank1
  9361     06B2  1303               	bcf	3,6	;RP1=0, select bank1
  9362     06B3  084D               	movf	(efgtoa@u+1)^(0+128),w
  9363     06B4  1283               	bcf	3,5	;RP0=0, select bank0
  9364     06B5  1303               	bcf	3,6	;RP1=0, select bank0
  9365     06B6  00A5               	movwf	___flmul@a+1
  9366     06B7  1683               	bsf	3,5	;RP0=1, select bank1
  9367     06B8  1303               	bcf	3,6	;RP1=0, select bank1
  9368     06B9  084C               	movf	efgtoa@u^(0+128),w
  9369     06BA  1283               	bcf	3,5	;RP0=0, select bank0
  9370     06BB  1303               	bcf	3,6	;RP1=0, select bank0
  9371     06BC  00A4               	movwf	___flmul@a
  9372     06BD  1683               	bsf	3,5	;RP0=1, select bank1
  9373     06BE  1303               	bcf	3,6	;RP1=0, select bank1
  9374     06BF  0844               	movf	(efgtoa@l+3)^(0+128),w
  9375     06C0  1283               	bcf	3,5	;RP0=0, select bank0
  9376     06C1  1303               	bcf	3,6	;RP1=0, select bank0
  9377     06C2  00A3               	movwf	___flmul@b+3
  9378     06C3  1683               	bsf	3,5	;RP0=1, select bank1
  9379     06C4  1303               	bcf	3,6	;RP1=0, select bank1
  9380     06C5  0843               	movf	(efgtoa@l+2)^(0+128),w
  9381     06C6  1283               	bcf	3,5	;RP0=0, select bank0
  9382     06C7  1303               	bcf	3,6	;RP1=0, select bank0
  9383     06C8  00A2               	movwf	___flmul@b+2
  9384     06C9  1683               	bsf	3,5	;RP0=1, select bank1
  9385     06CA  1303               	bcf	3,6	;RP1=0, select bank1
  9386     06CB  0842               	movf	(efgtoa@l+1)^(0+128),w
  9387     06CC  1283               	bcf	3,5	;RP0=0, select bank0
  9388     06CD  1303               	bcf	3,6	;RP1=0, select bank0
  9389     06CE  00A1               	movwf	___flmul@b+1
  9390     06CF  1683               	bsf	3,5	;RP0=1, select bank1
  9391     06D0  1303               	bcf	3,6	;RP1=0, select bank1
  9392     06D1  0841               	movf	efgtoa@l^(0+128),w
  9393     06D2  1283               	bcf	3,5	;RP0=0, select bank0
  9394     06D3  1303               	bcf	3,6	;RP1=0, select bank0
  9395     06D4  00A0               	movwf	___flmul@b
  9396     06D5  120A  158A  24BE  120A  118A  	fcall	___flmul
  9397     06DA  1283               	bcf	3,5	;RP0=0, select bank0
  9398     06DB  1303               	bcf	3,6	;RP1=0, select bank0
  9399     06DC  0823               	movf	?___flmul+3,w
  9400     06DD  00BD               	movwf	___flsub@a+3
  9401     06DE  0822               	movf	?___flmul+2,w
  9402     06DF  00BC               	movwf	___flsub@a+2
  9403     06E0  0821               	movf	?___flmul+1,w
  9404     06E1  00BB               	movwf	___flsub@a+1
  9405     06E2  0820               	movf	?___flmul,w
  9406     06E3  00BA               	movwf	___flsub@a
  9407     06E4  1683               	bsf	3,5	;RP0=1, select bank1
  9408     06E5  1303               	bcf	3,6	;RP1=0, select bank1
  9409     06E6  0840               	movf	(efgtoa@h+3)^(0+128),w
  9410     06E7  1283               	bcf	3,5	;RP0=0, select bank0
  9411     06E8  1303               	bcf	3,6	;RP1=0, select bank0
  9412     06E9  00C1               	movwf	___flsub@b+3
  9413     06EA  1683               	bsf	3,5	;RP0=1, select bank1
  9414     06EB  1303               	bcf	3,6	;RP1=0, select bank1
  9415     06EC  083F               	movf	(efgtoa@h+2)^(0+128),w
  9416     06ED  1283               	bcf	3,5	;RP0=0, select bank0
  9417     06EE  1303               	bcf	3,6	;RP1=0, select bank0
  9418     06EF  00C0               	movwf	___flsub@b+2
  9419     06F0  1683               	bsf	3,5	;RP0=1, select bank1
  9420     06F1  1303               	bcf	3,6	;RP1=0, select bank1
  9421     06F2  083E               	movf	(efgtoa@h+1)^(0+128),w
  9422     06F3  1283               	bcf	3,5	;RP0=0, select bank0
  9423     06F4  1303               	bcf	3,6	;RP1=0, select bank0
  9424     06F5  00BF               	movwf	___flsub@b+1
  9425     06F6  1683               	bsf	3,5	;RP0=1, select bank1
  9426     06F7  1303               	bcf	3,6	;RP1=0, select bank1
  9427     06F8  083D               	movf	efgtoa@h^(0+128),w
  9428     06F9  1283               	bcf	3,5	;RP0=0, select bank0
  9429     06FA  1303               	bcf	3,6	;RP1=0, select bank0
  9430     06FB  00BE               	movwf	___flsub@b
  9431     06FC  160A  118A  2076  120A  118A  	fcall	___flsub
  9432     0701  1283               	bcf	3,5	;RP0=0, select bank0
  9433     0702  1303               	bcf	3,6	;RP1=0, select bank0
  9434     0703  083D               	movf	?___flsub+3,w
  9435     0704  1683               	bsf	3,5	;RP0=1, select bank1
  9436     0705  1303               	bcf	3,6	;RP1=0, select bank1
  9437     0706  00C0               	movwf	(efgtoa@h+3)^(0+128)
  9438     0707  1283               	bcf	3,5	;RP0=0, select bank0
  9439     0708  1303               	bcf	3,6	;RP1=0, select bank0
  9440     0709  083C               	movf	?___flsub+2,w
  9441     070A  1683               	bsf	3,5	;RP0=1, select bank1
  9442     070B  1303               	bcf	3,6	;RP1=0, select bank1
  9443     070C  00BF               	movwf	(efgtoa@h+2)^(0+128)
  9444     070D  1283               	bcf	3,5	;RP0=0, select bank0
  9445     070E  1303               	bcf	3,6	;RP1=0, select bank0
  9446     070F  083B               	movf	?___flsub+1,w
  9447     0710  1683               	bsf	3,5	;RP0=1, select bank1
  9448     0711  1303               	bcf	3,6	;RP1=0, select bank1
  9449     0712  00BE               	movwf	(efgtoa@h+1)^(0+128)
  9450     0713  1283               	bcf	3,5	;RP0=0, select bank0
  9451     0714  1303               	bcf	3,6	;RP1=0, select bank0
  9452     0715  083A               	movf	?___flsub,w
  9453     0716  1683               	bsf	3,5	;RP0=1, select bank1
  9454     0717  1303               	bcf	3,6	;RP1=0, select bank1
  9455     0718  00BD               	movwf	efgtoa@h^(0+128)
  9456     0719                     l2809:
  9457                           
  9458                           ;C:\Program Files\Microchip\xc8\v2.50\pic\sources\c99\common\doprnt.c: 807:         u.f 
      +                          = u.f/10.0;
  9459     0719  3041               	movlw	65
  9460     071A  1283               	bcf	3,5	;RP0=0, select bank0
  9461     071B  1303               	bcf	3,6	;RP1=0, select bank0
  9462     071C  00BD               	movwf	___fldiv@a+3
  9463     071D  3020               	movlw	32
  9464     071E  00BC               	movwf	___fldiv@a+2
  9465     071F  3000               	movlw	0
  9466     0720  00BB               	movwf	___fldiv@a+1
  9467     0721  3000               	movlw	0
  9468     0722  00BA               	movwf	___fldiv@a
  9469     0723  1683               	bsf	3,5	;RP0=1, select bank1
  9470     0724  1303               	bcf	3,6	;RP1=0, select bank1
  9471     0725  084F               	movf	(efgtoa@u+3)^(0+128),w
  9472     0726  1283               	bcf	3,5	;RP0=0, select bank0
  9473     0727  1303               	bcf	3,6	;RP1=0, select bank0
  9474     0728  00C1               	movwf	___fldiv@b+3
  9475     0729  1683               	bsf	3,5	;RP0=1, select bank1
  9476     072A  1303               	bcf	3,6	;RP1=0, select bank1
  9477     072B  084E               	movf	(efgtoa@u+2)^(0+128),w
  9478     072C  1283               	bcf	3,5	;RP0=0, select bank0
  9479     072D  1303               	bcf	3,6	;RP1=0, select bank0
  9480     072E  00C0               	movwf	___fldiv@b+2
  9481     072F  1683               	bsf	3,5	;RP0=1, select bank1
  9482     0730  1303               	bcf	3,6	;RP1=0, select bank1
  9483     0731  084D               	movf	(efgtoa@u+1)^(0+128),w
  9484     0732  1283               	bcf	3,5	;RP0=0, select bank0
  9485     0733  1303               	bcf	3,6	;RP1=0, select bank0
  9486     0734  00BF               	movwf	___fldiv@b+1
  9487     0735  1683               	bsf	3,5	;RP0=1, select bank1
  9488     0736  1303               	bcf	3,6	;RP1=0, select bank1
  9489     0737  084C               	movf	efgtoa@u^(0+128),w
  9490     0738  1283               	bcf	3,5	;RP0=0, select bank0
  9491     0739  1303               	bcf	3,6	;RP1=0, select bank0
  9492     073A  00BE               	movwf	___fldiv@b
  9493     073B  120A  158A  2098  120A  118A  	fcall	___fldiv
  9494     0740  1283               	bcf	3,5	;RP0=0, select bank0
  9495     0741  1303               	bcf	3,6	;RP1=0, select bank0
  9496     0742  083D               	movf	?___fldiv+3,w
  9497     0743  1683               	bsf	3,5	;RP0=1, select bank1
  9498     0744  1303               	bcf	3,6	;RP1=0, select bank1
  9499     0745  00CF               	movwf	(efgtoa@u+3)^(0+128)
  9500     0746  1283               	bcf	3,5	;RP0=0, select bank0
  9501     0747  1303               	bcf	3,6	;RP1=0, select bank0
  9502     0748  083C               	movf	?___fldiv+2,w
  9503     0749  1683               	bsf	3,5	;RP0=1, select bank1
  9504     074A  1303               	bcf	3,6	;RP1=0, select bank1
  9505     074B  00CE               	movwf	(efgtoa@u+2)^(0+128)
  9506     074C  1283               	bcf	3,5	;RP0=0, select bank0
  9507     074D  1303               	bcf	3,6	;RP1=0, select bank0
  9508     074E  083B               	movf	?___fldiv+1,w
  9509     074F  1683               	bsf	3,5	;RP0=1, select bank1
  9510     0750  1303               	bcf	3,6	;RP1=0, select bank1
  9511     0751  00CD               	movwf	(efgtoa@u+1)^(0+128)
  9512     0752  1283               	bcf	3,5	;RP0=0, select bank0
  9513     0753  1303               	bcf	3,6	;RP1=0, select bank0
  9514     0754  083A               	movf	?___fldiv,w
  9515     0755  1683               	bsf	3,5	;RP0=1, select bank1
  9516     0756  1303               	bcf	3,6	;RP1=0, select bank1
  9517     0757  00CC               	movwf	efgtoa@u^(0+128)
  9518     0758                     l2811:
  9519                           
  9520                           ;C:\Program Files\Microchip\xc8\v2.50\pic\sources\c99\common\doprnt.c: 808:         --ne
      +                          ;
  9521     0758  30FF               	movlw	255
  9522     0759  07A4               	addwf	efgtoa@ne^(0+128),f
  9523     075A  1803               	skipnc
  9524     075B  0AA5               	incf	(efgtoa@ne+1)^(0+128),f
  9525     075C  30FF               	movlw	255
  9526     075D  07A5               	addwf	(efgtoa@ne+1)^(0+128),f
  9527     075E                     l2813:
  9528                           
  9529                           ;C:\Program Files\Microchip\xc8\v2.50\pic\sources\c99\common\doprnt.c: 809:         ++i;
  9530     075E  3001               	movlw	1
  9531     075F  07BB               	addwf	efgtoa@i^(0+128),f
  9532     0760  1803               	skipnc
  9533     0761  0ABC               	incf	(efgtoa@i+1)^(0+128),f
  9534     0762  3000               	movlw	0
  9535     0763  07BC               	addwf	(efgtoa@i+1)^(0+128),f
  9536     0764                     l2815:
  9537                           
  9538                           ;C:\Program Files\Microchip\xc8\v2.50\pic\sources\c99\common\doprnt.c: 779:     while ((
      +                          i < m) && (n < (80 - 5))) {
  9539     0764  083C               	movf	(efgtoa@i+1)^(0+128),w
  9540     0765  3A80               	xorlw	128
  9541     0766  00A0               	movwf	??_efgtoa^(0+128)
  9542     0767  0832               	movf	(efgtoa@m+1)^(0+128),w
  9543     0768  3A80               	xorlw	128
  9544     0769  0220               	subwf	??_efgtoa^(0+128),w
  9545     076A  1D03               	skipz
  9546     076B  2F6E               	goto	u4315
  9547     076C  0831               	movf	efgtoa@m^(0+128),w
  9548     076D  023B               	subwf	efgtoa@i^(0+128),w
  9549     076E                     u4315:
  9550     076E  1803               	skipnc
  9551     076F  2F71               	goto	u4311
  9552     0770  2F72               	goto	u4310
  9553     0771                     u4311:
  9554     0771  2F81               	goto	l2819
  9555     0772                     u4310:
  9556     0772                     l2817:
  9557     0772  1683               	bsf	3,5	;RP0=1, select bank1
  9558     0773  1303               	bcf	3,6	;RP1=0, select bank1
  9559     0774  0847               	movf	(efgtoa@n+1)^(0+128),w
  9560     0775  3A80               	xorlw	128
  9561     0776  00FF               	movwf	btemp+1
  9562     0777  3080               	movlw	128
  9563     0778  027F               	subwf	btemp+1,w
  9564     0779  1D03               	skipz
  9565     077A  2F7D               	goto	u4325
  9566     077B  304B               	movlw	75
  9567     077C  0246               	subwf	efgtoa@n^(0+128),w
  9568     077D                     u4325:
  9569     077D  1C03               	skipc
  9570     077E  2F80               	goto	u4321
  9571     077F  2F81               	goto	u4320
  9572     0780                     u4321:
  9573     0780  2DC6               	goto	l2773
  9574     0781                     u4320:
  9575     0781                     l2819:
  9576                           
  9577                           ;C:\Program Files\Microchip\xc8\v2.50\pic\sources\c99\common\doprnt.c: 816:  i = sizeof(
      +                          dbuf) - 1;
  9578     0781  304F               	movlw	79
  9579     0782  1683               	bsf	3,5	;RP0=1, select bank1
  9580     0783  1303               	bcf	3,6	;RP1=0, select bank1
  9581     0784  00BB               	movwf	efgtoa@i^(0+128)
  9582     0785  3000               	movlw	0
  9583     0786  00BC               	movwf	(efgtoa@i^(0+128)+1)
  9584     0787                     l2821:
  9585                           
  9586                           ;C:\Program Files\Microchip\xc8\v2.50\pic\sources\c99\common\doprnt.c: 817:     dbuf[i] 
      +                          = '\0';
  9587     0787  083B               	movf	efgtoa@i^(0+128),w
  9588     0788  3E10               	addlw	(low (_dbuf| (0+256)))& (0+255)
  9589     0789  0084               	movwf	4
  9590     078A  1783               	bsf	3,7	;select IRP bank2
  9591     078B  0180               	clrf	0
  9592     078C                     l2823:
  9593                           
  9594                           ;C:\Program Files\Microchip\xc8\v2.50\pic\sources\c99\common\doprnt.c: 848:  memcpy(&dbu
      +                          f[i-n], &dbuf[0], (size_t)n);
  9595     078C  3010               	movlw	(low (_dbuf| (0+256)))& (0+255)
  9596     078D  00A0               	movwf	??_efgtoa^(0+128)
  9597     078E  0846               	movf	efgtoa@n^(0+128),w
  9598     078F  02A0               	subwf	??_efgtoa^(0+128),f
  9599     0790  083B               	movf	efgtoa@i^(0+128),w
  9600     0791  0720               	addwf	??_efgtoa^(0+128),w
  9601     0792  00F0               	movwf	memcpy@d1
  9602     0793  3010               	movlw	(low (_dbuf| (0+256)))& (0+255)
  9603     0794  00F1               	movwf	memcpy@s1
  9604     0795  0847               	movf	(efgtoa@n+1)^(0+128),w
  9605     0796  00F3               	movwf	memcpy@n+1
  9606     0797  0846               	movf	efgtoa@n^(0+128),w
  9607     0798  00F2               	movwf	memcpy@n
  9608     0799  160A  158A  27DF  120A  118A  	fcall	_memcpy
  9609     079E                     l2825:
  9610                           
  9611                           ;C:\Program Files\Microchip\xc8\v2.50\pic\sources\c99\common\doprnt.c: 849:  n = i-n;
  9612     079E  1683               	bsf	3,5	;RP0=1, select bank1
  9613     079F  1303               	bcf	3,6	;RP1=0, select bank1
  9614     07A0  0846               	movf	efgtoa@n^(0+128),w
  9615     07A1  023B               	subwf	efgtoa@i^(0+128),w
  9616     07A2  00C6               	movwf	efgtoa@n^(0+128)
  9617     07A3  0847               	movf	(efgtoa@n+1)^(0+128),w
  9618     07A4  1C03               	skipc
  9619     07A5  0A47               	incf	(efgtoa@n+1)^(0+128),w
  9620     07A6  023C               	subwf	(efgtoa@i+1)^(0+128),w
  9621     07A7  00C7               	movwf	(efgtoa@n+1)^(0+128)
  9622     07A8                     l2827:
  9623                           
  9624                           ;C:\Program Files\Microchip\xc8\v2.50\pic\sources\c99\common\doprnt.c: 850:  i = sign ==
      +                           0 ? 0 : 1;
  9625     07A8  0845               	movf	efgtoa@sign^(0+128),w
  9626     07A9  1D03               	btfss	3,2
  9627     07AA  2FAC               	goto	u4331
  9628     07AB  2FAE               	goto	u4330
  9629     07AC                     u4331:
  9630     07AC  3001               	movlw	1
  9631     07AD  2FAF               	goto	u4340
  9632     07AE                     u4330:
  9633     07AE  3000               	movlw	0
  9634     07AF                     u4340:
  9635     07AF  00A0               	movwf	??_efgtoa^(0+128)
  9636     07B0  01A1               	clrf	(??_efgtoa^(0+128)+1)
  9637     07B1  0820               	movf	??_efgtoa^(0+128),w
  9638     07B2  00BB               	movwf	efgtoa@i^(0+128)
  9639     07B3  0821               	movf	(??_efgtoa+1)^(0+128),w
  9640     07B4  00BC               	movwf	(efgtoa@i+1)^(0+128)
  9641     07B5                     l2829:
  9642                           
  9643                           ;C:\Program Files\Microchip\xc8\v2.50\pic\sources\c99\common\doprnt.c: 861:  if (sign) {
  9644     07B5  0845               	movf	efgtoa@sign^(0+128),w
  9645     07B6  1903               	btfsc	3,2
  9646     07B7  2FB9               	goto	u4351
  9647     07B8  2FBA               	goto	u4350
  9648     07B9                     u4351:
  9649     07B9  2FC6               	goto	l2833
  9650     07BA                     u4350:
  9651     07BA                     l2831:
  9652                           
  9653                           ;C:\Program Files\Microchip\xc8\v2.50\pic\sources\c99\common\doprnt.c: 862:   dbuf[--n] 
      +                          = sign;
  9654     07BA  30FF               	movlw	255
  9655     07BB  07C6               	addwf	efgtoa@n^(0+128),f
  9656     07BC  1803               	skipnc
  9657     07BD  0AC7               	incf	(efgtoa@n+1)^(0+128),f
  9658     07BE  30FF               	movlw	255
  9659     07BF  07C7               	addwf	(efgtoa@n+1)^(0+128),f
  9660     07C0  0846               	movf	efgtoa@n^(0+128),w
  9661     07C1  3E10               	addlw	(low (_dbuf| (0+256)))& (0+255)
  9662     07C2  0084               	movwf	4
  9663     07C3  0845               	movf	efgtoa@sign^(0+128),w
  9664     07C4  1783               	bsf	3,7	;select IRP bank2
  9665     07C5  0080               	movwf	0
  9666     07C6                     l2833:
  9667                           
  9668                           ;C:\Program Files\Microchip\xc8\v2.50\pic\sources\c99\common\doprnt.c: 864:  w -= i;
  9669     07C6  083B               	movf	efgtoa@i^(0+128),w
  9670     07C7  02B5               	subwf	efgtoa@w^(0+128),f
  9671     07C8  083C               	movf	(efgtoa@i+1)^(0+128),w
  9672     07C9  1C03               	skipc
  9673     07CA  03B6               	decf	(efgtoa@w+1)^(0+128),f
  9674     07CB  02B6               	subwf	(efgtoa@w+1)^(0+128),f
  9675     07CC                     l2835:
  9676                           
  9677                           ;C:\Program Files\Microchip\xc8\v2.50\pic\sources\c99\common\doprnt.c: 867:     return (
      +                          void) pad(fp, &dbuf[n], w);
  9678     07CC  1283               	bcf	3,5	;RP0=0, select bank0
  9679     07CD  1303               	bcf	3,6	;RP1=0, select bank0
  9680     07CE  0868               	movf	efgtoa@fp,w
  9681     07CF  00A8               	movwf	pad@fp
  9682     07D0  0869               	movf	efgtoa@fp+1,w
  9683     07D1  00A9               	movwf	pad@fp+1
  9684     07D2  1683               	bsf	3,5	;RP0=1, select bank1
  9685     07D3  1303               	bcf	3,6	;RP1=0, select bank1
  9686     07D4  0846               	movf	efgtoa@n^(0+128),w
  9687     07D5  3E10               	addlw	(low (_dbuf| (0+256)))& (0+255)
  9688     07D6  1283               	bcf	3,5	;RP0=0, select bank0
  9689     07D7  1303               	bcf	3,6	;RP1=0, select bank0
  9690     07D8  00AA               	movwf	pad@buf
  9691     07D9  1683               	bsf	3,5	;RP0=1, select bank1
  9692     07DA  1303               	bcf	3,6	;RP1=0, select bank1
  9693     07DB  0836               	movf	(efgtoa@w+1)^(0+128),w
  9694     07DC  1283               	bcf	3,5	;RP0=0, select bank0
  9695     07DD  1303               	bcf	3,6	;RP1=0, select bank0
  9696     07DE  00AC               	movwf	pad@p+1
  9697     07DF  1683               	bsf	3,5	;RP0=1, select bank1
  9698     07E0  1303               	bcf	3,6	;RP1=0, select bank1
  9699     07E1  0835               	movf	efgtoa@w^(0+128),w
  9700     07E2  1283               	bcf	3,5	;RP0=0, select bank0
  9701     07E3  1303               	bcf	3,6	;RP1=0, select bank0
  9702     07E4  00AB               	movwf	pad@p
  9703     07E5  160A  118A  218B  120A  118A  	fcall	_pad
  9704     07EA                     l659:
  9705     07EA  0008               	return
  9706     07EB                     __end_of_efgtoa:

Data Sizes:
    Strings     26
    Constant    0
    Data        0
    BSS         109
    Persistent  0
    Stack       0

Auto Spaces:
    Space          Size  Autos    Used
    COMMON           14     14      14
    BANK0            80     80      80
    BANK1            80     80      80
    BANK3            96     12      41
    BANK2            96      0      80

Pointer List with Targets:

    efgtoa@fp	PTR struct _IO_FILE size(2) Largest target is 11
		 -> sprintf@f(BANK3[11]), 

    f$.$buffer	PTR unsigned char  size(2) Largest target is 16
		 -> buffer(BANK3[16]), 

    f$.$source	PTR const unsigned char  size(1) Largest target is 0

    fputc@fp	PTR struct _IO_FILE size(2) Largest target is 11
		 -> sprintf@f(BANK3[11]), 

    fputc@fp$.$buffer	PTR unsigned char  size(2) Largest target is 16
		 -> buffer(BANK3[16]), 

    fputc@fp$.$source	PTR const unsigned char  size(1) Largest target is 0

    fputs@fp	PTR struct _IO_FILE size(2) Largest target is 11
		 -> sprintf@f(BANK3[11]), 

    fputs@s	PTR const unsigned char  size(1) Largest target is 80
		 -> dbuf(BANK2[80]), 

    lcd_string@str	PTR const unsigned char  size(2) Largest target is 16
		 -> buffer(BANK3[16]), STR_1(CODE[8]), 

    memcpy@d	PTR unsigned char  size(1) Largest target is 80
		 -> dbuf(BANK2[80]), 

    memcpy@d1	PTR void  size(1) Largest target is 80
		 -> dbuf(BANK2[80]), 

    memcpy@s	PTR const unsigned char  size(1) Largest target is 80
		 -> dbuf(BANK2[80]), 

    memcpy@s1	PTR const void  size(1) Largest target is 80
		 -> dbuf(BANK2[80]), 

    pad@buf	PTR unsigned char  size(1) Largest target is 80
		 -> dbuf(BANK2[80]), 

    pad@fp	PTR struct _IO_FILE size(2) Largest target is 11
		 -> sprintf@f(BANK3[11]), 

    read_prec_or_width@ap	PTR PTR void [1] size(1) Largest target is 1
		 -> sprintf@ap(BANK3[1]), 

    read_prec_or_width@fmt	PTR PTR const unsigned char  size(1) Largest target is 1
		 -> vfprintf@cfmt(BANK0[1]), 

    S592$buffer	PTR unsigned char  size(2) Largest target is 16
		 -> buffer(BANK3[16]), 

    S592$source	PTR const unsigned char  size(1) Largest target is 0

    sp__memcpy	PTR void  size(1) Largest target is 80
		 -> dbuf(BANK2[80]), 

    sp__strcpy	PTR unsigned char  size(1) Largest target is 80
		 -> dbuf(BANK2[80]), 

    sprintf@ap	PTR void [1] size(1) Largest target is 2
		 -> ?_sprintf(BANK1[2]), 

    sprintf@fmt	PTR const unsigned char  size(1) Largest target is 10
		 -> STR_2(CODE[10]), 

    sprintf@s	PTR unsigned char  size(1) Largest target is 16
		 -> buffer(BANK3[16]), 

    strcpy@d	PTR unsigned char  size(1) Largest target is 80
		 -> dbuf(BANK2[80]), 

    strcpy@dest	PTR unsigned char  size(1) Largest target is 80
		 -> dbuf(BANK2[80]), 

    strcpy@src	PTR const unsigned char  size(1) Largest target is 4
		 -> STR_3(CODE[4]), STR_6(CODE[4]), 

    vfpfcnvrt@ap	PTR PTR void  size(1) Largest target is 1
		 -> sprintf@ap(BANK3[1]), 

    vfpfcnvrt@cp	PTR unsigned char  size(1) Largest target is 10
		 -> STR_2(CODE[10]), 

    vfpfcnvrt@fmt	PTR PTR unsigned char  size(1) Largest target is 1
		 -> vfprintf@cfmt(BANK0[1]), 

    vfpfcnvrt@fp	PTR struct _IO_FILE size(2) Largest target is 11
		 -> sprintf@f(BANK3[11]), 

    vfprintf@ap	PTR PTR void  size(1) Largest target is 1
		 -> sprintf@ap(BANK3[1]), 

    vfprintf@cfmt	PTR unsigned char  size(1) Largest target is 10
		 -> STR_2(CODE[10]), 

    vfprintf@fmt	PTR const unsigned char  size(1) Largest target is 10
		 -> STR_2(CODE[10]), 

    vfprintf@fp	PTR struct _IO_FILE size(2) Largest target is 11
		 -> sprintf@f(BANK3[11]), 


Critical Paths under _main in COMMON

    _main->___xxtofl
    _read_prec_or_width->___wmul
    _efgtoa->_pad
    _pad->_fputc
    _fputs->_fputc
    ___flmul->___xxtofl
    ___fldiv->___xxtofl
    _lcd_string->_lcd_data
    _lcd_initialise->_lcd_command

Critical Paths under _main in BANK0

    _sprintf->_vfprintf
    _vfpfcnvrt->_efgtoa
    _efgtoa->_floorf
    _pad->_fputs
    _floorf->___fldiv
    ___flsub->___flmul
    ___flge->___flmul
    ___fldiv->___flmul

Critical Paths under _main in BANK1

    _main->_sprintf
    _sprintf->_vfprintf
    _vfprintf->_vfpfcnvrt
    _vfpfcnvrt->_efgtoa

Critical Paths under _main in BANK3

    _main->_sprintf

Critical Paths under _main in BANK2

    None.

Call Graph Tables:

 ---------------------------------------------------------------------------------
 (Depth) Function   	        Calls       Base Space   Used Autos Params    Refs
 ---------------------------------------------------------------------------------
 (0) _main                                                 9     9      0   15717
                                             71 BANK1      9     9      0
                            ___fldiv
                            ___flmul
                           ___xxtofl
                     _adc_initialise
                        _lcd_command
                     _lcd_initialise
                         _lcd_string
                           _read_adc
                            _sprintf
 ---------------------------------------------------------------------------------
 (1) _sprintf                                             21    15      6   12417
                                             64 BANK1      7     1      6
                                              0 BANK3     12    12      0
                           _vfprintf
 ---------------------------------------------------------------------------------
 (2) _vfprintf                                             5     1      4   12212
                                             79 BANK0      1     1      0
                                             60 BANK1      4     0      4
                          _vfpfcnvrt
 ---------------------------------------------------------------------------------
 (3) _vfpfcnvrt                                           13     9      4   12078
                                             48 BANK1     12     8      4
                             _efgtoa
                              _fputc
                 _read_prec_or_width
 ---------------------------------------------------------------------------------
 (4) _read_prec_or_width                                   5     3      2     276
                                              6 COMMON     5     3      2
                             ___wmul
 ---------------------------------------------------------------------------------
 (5) ___wmul                                               6     2      4      94
                                              0 COMMON     6     2      4
 ---------------------------------------------------------------------------------
 (4) _efgtoa                                              56    49      7   11054
                                             72 BANK0      7     0      7
                                              0 BANK1     48    48      0
                            ___fladd
                            ___fldiv
                             ___fleq
                             ___flge
                            ___flmul
                            ___flneg
                            ___flsub
                            ___fltol
                      ___fpclassifyf
                             _floorf
                               _labs
                             _memcpy
                                _pad
                             _strcpy
 ---------------------------------------------------------------------------------
 (6) _strcpy                                               3     1      2      77
                                              0 COMMON     3     1      2
 ---------------------------------------------------------------------------------
 (5) _pad                                                  8     3      5     707
                                             13 COMMON     1     1      0
                                              8 BANK0      7     2      5
                              _fputc
                              _fputs
 ---------------------------------------------------------------------------------
 (6) _fputs                                                8     5      3     331
                                              0 BANK0      8     5      3
                              _fputc
 ---------------------------------------------------------------------------------
 (4) _fputc                                               13     9      4     232
                                              0 COMMON    13     9      4
                              _putch
 ---------------------------------------------------------------------------------
 (5) _putch                                                1     1      0       0
 ---------------------------------------------------------------------------------
 (5) _memcpy                                               7     3      4     146
                                              0 COMMON     7     3      4
 ---------------------------------------------------------------------------------
 (5) _labs                                                 4     0      4      69
                                              0 COMMON     4     0      4
 ---------------------------------------------------------------------------------
 (5) _floorf                                              20    16      4     340
                                             52 BANK0     20    16      4
                            ___fldiv (ARG)
 ---------------------------------------------------------------------------------
 (5) ___fpclassifyf                                       16    12      4     137
                                              0 COMMON    10     6      4
                                              0 BANK0      6     6      0
 ---------------------------------------------------------------------------------
 (5) ___fltol                                             10     6      4     232
                                              0 COMMON    10     6      4
 ---------------------------------------------------------------------------------
 (5) ___flsub                                              8     0      8    2039
                                             26 BANK0      8     0      8
                            ___fladd
                            ___flmul (ARG)
 ---------------------------------------------------------------------------------
 (6) ___fladd                                             20    12      8    1990
                                              0 COMMON    12     4      8
                                              0 BANK0      8     8      0
 ---------------------------------------------------------------------------------
 (5) ___flneg                                              4     0      4      46
                                              0 COMMON     4     0      4
 ---------------------------------------------------------------------------------
 (5) ___flmul                                             26    18      8    1620
                                              0 BANK0     26    18      8
                          __Umul8_16
                           ___xxtofl (ARG)
 ---------------------------------------------------------------------------------
 (6) __Umul8_16                                            9     7      2     139
                                              0 COMMON     9     7      2
 ---------------------------------------------------------------------------------
 (5) ___flge                                              12     4      8     192
                                             26 BANK0     12     4      8
                            ___flmul (ARG)
 ---------------------------------------------------------------------------------
 (5) ___fleq                                              12     4      8      94
                                              0 COMMON    12     4      8
 ---------------------------------------------------------------------------------
 (5) ___fldiv                                             26    18      8    1134
                                             26 BANK0     26    18      8
                            ___flmul (ARG)
                           ___xxtofl (ARG)
 ---------------------------------------------------------------------------------
 (1) _read_adc                                             4     2      2      29
                                              0 COMMON     4     2      2
 ---------------------------------------------------------------------------------
 (1) _lcd_string                                           2     0      2      76
                                              3 COMMON     2     0      2
                           _lcd_data
 ---------------------------------------------------------------------------------
 (2) _lcd_data                                             3     3      0      29
                                              0 COMMON     3     3      0
 ---------------------------------------------------------------------------------
 (1) _lcd_initialise                                       2     2      0      29
                                              3 COMMON     2     2      0
                        _lcd_command
 ---------------------------------------------------------------------------------
 (2) _lcd_command                                          3     3      0      29
                                              0 COMMON     3     3      0
 ---------------------------------------------------------------------------------
 (1) _adc_initialise                                       0     0      0       0
 ---------------------------------------------------------------------------------
 (1) ___xxtofl                                            14    10      4     337
                                              0 COMMON    14    10      4
 ---------------------------------------------------------------------------------
 Estimated maximum stack depth 6
 ---------------------------------------------------------------------------------

 Call Graph Graphs:

 _main (ROOT)
   ___fldiv
     ___flmul (ARG)
       __Umul8_16
       ___xxtofl (ARG)
     ___xxtofl (ARG)
   ___flmul
   ___xxtofl
   _adc_initialise
   _lcd_command
   _lcd_initialise
     _lcd_command
   _lcd_string
     _lcd_data
   _read_adc
   _sprintf
     _vfprintf
       _vfpfcnvrt
         _efgtoa
           ___fladd
           ___fldiv
           ___fleq
           ___flge
             ___flmul (ARG)
           ___flmul
           ___flneg
           ___flsub
             ___fladd
             ___flmul (ARG)
           ___fltol
           ___fpclassifyf
           _floorf
             ___fldiv (ARG)
           _labs
           _memcpy
           _pad
             _fputc
               _putch
             _fputs
               _fputc
           _strcpy
         _fputc
         _read_prec_or_width
           ___wmul

Address spaces:
Name               Size   Autos  Total    Usage
BITCOMMON           14      0       0      0.0%
BITBANK0            80      0       0      0.0%
BITBANK1            80      0       0      0.0%
BITBANK3            96      0       0      0.0%
BITBANK2            96      0       0      0.0%
COMMON              14     14      14    100.0%
BANK0               80     80      80    100.0%
BANK1               80     80      80    100.0%
BANK3               96     12      41     42.7%
BANK2               96      0      80     83.3%
STACK                0      0       0      0.0%
DATA                 0      0     295      0.0%


Microchip Technology PIC Macro Assembler V2.50 build 20240725155939 
Symbol Table                                                                                   Tue Feb 04 14:19:54 2025

              ___fldiv@aexp 0053                ___fldiv@bexp 0052                           pc 0002  
              lcd_data@data 0072                ___fldiv@sign 004B                          l50 106B  
                        l53 1075                          l62 1FB0                          l47 080A  
                        l56 1053                          l59 1F9C                          l68 10E4  
                        fsr 0004         ___wmul@multiplicand 0072         __Umul8_16@word_mpld 0076  
                       l154 10A6                         l323 11E5                         l324 1201  
                       l340 141D                         l332 1398                         l156 10BE  
                       l501 1099                         l511 08ED                         l335 1404  
                       l344 0011                         l601 147F                         l513 0A61  
                       l329 1216                         l450 0A8E                         l355 12CA  
                       l348 12DF                         l533 0A4D                         l461 0B17  
                       l358 12DF                         l535 0A59                         l527 09DB  
                       l551 0FFF                         l455 0ABF                         l608 149B  
                       l480 0C30                         l609 14A7                         l801 1FDE  
                       l617 118A                         l570 10F9                         l563 0FF5  
                       l459 0B3E                         l572 110B                         l476 0C0A  
                       l468 0CBD                         l644 1193                         l708 126B  
                       l557 0F71                         l717 1526                         l486 0C53  
                       l751 162B                         l735 1134                         l752 16EC  
                       l648 11C8                         l656 176D                         l728 15DD  
                       l497 0CB1                         l489 0C91                         l745 0897  
                       l498 0CBD                         l595 1440                         l675 02D5  
                       l659 07EA                         l596 1451                         l756 16E4  
                       l772 1FFF                         l597 14D1                         l685 05B2  
                       l766 1FC5                         l784 1379                         l792 115F  
                       l769 1FF1                         l795 0006                         _pad 118B  
                       fsr0 0004                         indf 0000                ___flmul@aexp 0032  
              ___flmul@bexp 0033                ___flmul@sign 002D                ___flmul@temp 0038  
              ___flmul@prod 0034                ___fltol@exp1 0079                        l2001 0AD9  
                      l2011 0AE3                        l2003 0ADB                        l2101 0C4A  
                      l2021 0B01                        l2013 0AE5                        l2005 0ADD  
                      l2111 0C6B                        l2103 0C50                        l2031 0B2B  
                      l2023 0B1B                        l2015 0AE7                        l2007 0ADF  
                      l3001 1491                        l2121 0CA3                        l2113 0C6F  
                      l2033 0B36                        l2025 0B24                        l2009 0AE1  
                      l2017 0AE9                        l3011 14C4                        l3003 1495  
                      l2203 0007                        l2131 0CB8                        l2123 0CA8  
                      l2115 0C8F                        l2107 0C58                        l2051 0B78  
                      l2043 0B50                        l2027 0B26                        l2035 0B38  
                      l2019 0AEA                        l2211 126C                        l3013 14C8  
                      l3005 149F                        l2141 10F3                        l2205 000F  
                      l2133 0CBC                        l2125 0CA9                        l2117 0C96  
                      l2109 0C5D                        l2053 0B7A                        l2045 0B67  
                      l2037 0B42                        l2061 0B8D                        l2029 0B2A  
                      l2221 1292                        l2213 1275                        l3021 0016  
                      l3015 14C9                        l3007 14A9                        l2311 092C  
                      l2303 090C                        l2143 1102                        l2135 10E6  
                      l2207 0011                        l2127 0CAD                        l2119 0C9B  
                      l2071 0BED                        l2063 0BA3                        l2055 0B7E  
                      l2047 0B6B                        l2039 0B47                        l2223 129A  
                      l2151 113A                        l3031 0031                        l3023 0018  
                      l3009 14BF                        l2321 094B                        l2313 0934  
                      l2305 0911                        l2145 1107                        l2137 10E8  
                      l2401 0CC4                        l2129 0CAF                        l2081 0C20  
                      l2065 0BE3                        l2073 0BFC                        l2057 0B7F  
                      l2049 0B6F                        l2241 12BF                        l2233 12A8  
                      l2225 129C                        l2217 127E                        l2153 114A  
                      l2161 10A0                        l3041 00B5                        l3033 003D  
                      l3025 001D                        l2331 097D                        l2323 095D  
                      l2315 093C                        l2171 11C9                        l2139 10EF  
                      l2411 0CD7                        l2403 0CC8                        l2091 0C3A  
                      l2083 0C2B                        l2075 0C12                        l2067 0BE5  
                      l2059 0B8A                        l2243 12CF                        l2227 12A0  
                      l2235 12B8                        l2219 1291                        l2155 1152  
                      l2163 10AD                        l3035 0093                        l3027 0022  
                      l3019 0012                        l2341 099C                        l2333 097E  
                      l2325 0961                        l2317 0944                        l2309 091A  
                      l2261 08A6                        l2253 0898                        l2173 11DD  
                      l2501 0F5A                        l2421 0CF0                        l2413 0CDF  
                      l2405 0CCC                        l2093 0C3F                        l2085 0C2F  
                      l2077 0C17                        l2069 0BE8                        l2245 12D4  
                      l2149 1135                        l2165 10B4                        l2157 109A  
                      l3037 0099                        l3029 0028                        l2351 09B5  
                      l2343 099E                        l2335 098C                        l2327 0962  
                      l2319 0946                        l2271 08BA                        l2263 08A7  
                      l2255 089C                        l2175 11F9                        l2191 13B8  
                      l2183 137A                        l2511 0F89                        l2503 0F6E  
                      l2431 0D07                        l2423 0CF4                        l2415 0CE1  
                      l2407 0CCD                        l2087 0C34                        l2095 0C41  
                      l2247 1076                        l2167 10BA                        l2159 109C  
                      l3039 00AC                        l2361 09D8                        l2345 09A7  
                      l2353 09BB                        l2329 096B                        l2337 098E  
                      l2281 08CF                        l2265 08AC                        l2273 08BC  
                      l2257 089E                        l2177 1213                        l2193 13DC  
                      l2185 1390                        l2521 0FC4                        l2513 0F8D  
                      l2433 0D09                        l2425 0CF5                        l2417 0CE9  
                      l2409 0CD2                        l2089 0C38                        l2097 0C45  
                      l2249 107A                        l2601 1660                        l2371 09F7  
                      l2355 09BF                        l2347 09AB                        l2339 0994  
                      l2291 08E3                        l2283 08D0                        l2275 08C4  
                      l2267 08B1                        l2259 08A2                        l2179 1215  
                      l2195 13E0                        l2187 13AC                        l2531 0FEF  
                      l2523 0FD3                        l2515 0FA6                        l2507 0F76  
                      l2451 0D76                        l2443 0D24                        l2435 0D11  
                      l2427 0CFA                        l2419 0CEC                        l2099 0C46  
                      l2611 16C3                        l2603 1679                        l2381 0A40  
                      l2373 0A10                        l2365 09E0                        l2357 09C0  
                      l2349 09AC                        l2285 08D5                        l2293 08E5  
                      l2277 08C7                        l2269 08B9                        l2197 141A  
                      l2189 13B4                        l2533 0FF0                        l2525 0FDD  
                      l2509 0F7B                        l2517 0FAC                        l2461 0DEF  
                      l2453 0DA0                        l2445 0D32                        l2437 0D16  
                      l2429 0CFF                        l2613 16DC                        l2605 1690  
                      l2621 1FE9                        l2541 1191                        l2391 0A57  
                      l2383 0A44                        l2367 09E5                        l2375 0A16  
                      l2359 09C4                        l2295 08F5                        l2287 08DA  
                      l2279 08CB                        l2199 141C                        l2535 0FF7  
                      l2527 0FDF                        l2519 0FB9                        l2471 0E6B  
                      l2463 0E0C                        l2455 0DBC                        l2447 0D3F  
                      l2439 0D1B                        l2551 080B                        l2607 16A1  
                      l2623 1FEB                        l2543 1196                        l2711 02CF  
                      l2703 027D                        l2631 172F                        l2385 0A4C  
                      l2377 0A23                        l2369 09F3                        l2297 0901  
                      l2289 08E2                        l2529 0FEB                        l2481 0F1D  
                      l2473 0E96                        l2465 0E1A                        l2457 0DD8  
                      l2449 0D5A                        l2561 0866                        l2553 082B  
                      l2609 16BA                        l2617 1FDF                        l2545 11A5  
                      l2801 0694                        l2721 02F3                        l2713 02DF  
                      l2705 02B6                        l2641 175F                        l2633 1733  
                      l2625 16ED                        l2387 0A51                        l2379 0A31  
                      l2299 0903                        l2491 0F42                        l2483 0F26  
                      l2475 0EA4                        l2467 0E37                        l2459 0DE1  
                      l2571 0893                        l2555 0842                        l2619 1FE4  
                      l1931 130B                        l1923 12E0                        l2547 11AD  
                      l2539 118B                        l2811 0758                        l2803 069B  
                      l2731 0312                        l2723 02F9                        l2715 02E5  
                      l2707 02BE                        l2651 1789                        l2643 1764  
                      l2635 174A                        l2627 16F0                        l2389 0A55  
                      l2493 0F4B                        l2485 0F34                        l2477 0ECF  
                      l2469 0E4E                        l2397 0CBE                        l1941 0A66  
                      l2557 0848                        l2565 086B                        l2581 1FB5  
                      l1933 133D                        l1925 12E6                        l2549 11BB  
                      l2821 0787                        l2813 075E                        l2805 06A1  
                      l2733 036E                        l2741 0438                        l2717 02E9  
                      l2725 02FF                        l2709 02C4                        l2653 1799  
                      l2661 17C7                        l2645 1769                        l2637 174E  
                      l2629 1708                        l2901 15B1                        l2487 0F3D  
                      l2495 0F51                        l2479 0EF5                        l2399 0CC2  
                      l1951 0A7B                        l1943 0A6C                        l2567 0871  
                      l2559 0861                        l2591 161D                        l2583 1FB6  
                      l1927 12EC                        l2575 1FC6                        l2831 07BA  
                      l2823 078C                        l2807 06A7                        l2815 0764  
                      l2751 04E2                        l2743 0446                        l2735 0381  
                      l2727 0301                        l2719 02F1                        l2663 17DE  
                      l2655 17A3                        l2647 176F                        l2639 175A  
                      l2903 15BC                        l2913 1F8A                        l2921 1F9E  
                      l2497 0F55                        l2489 0F41                        l1961 0A92  
                      l1953 0A83                        l1945 0A70                        l1937 0A62  
                      l2593 162A                        l1929 12F3                        l2577 1FC8  
                      l2833 07C6                        l2825 079E                        l2817 0772  
                      l2809 0719                        l2761 0567                        l2753 04E8  
                      l2745 0485                        l2737 03F3                        l2729 0309  
                      l2665 17E5                        l2657 17AB                        l2649 1782  
                      l2841 1219                        l2915 1F8E                        l2923 1FA2  
                      l2499 0F56                        l1971 0AA2                        l1963 0A98  
                      l1955 0A84                        l1947 0A71                        l1939 0A64  
                      l2595 1631                        l2587 15DE                        l2579 1FB1  
                      l2835 07CC                        l2827 07A8                        l2819 0781  
                      l2771 05C3                        l2763 05A6                        l2755 04F0  
                      l2747 04BC                        l2739 0432                        l2691 01B2  
                      l2683 00EE                        l2667 17F5                        l2675 00C8  
                      l2843 1228                        l2851 1256                        l2907 15C4  
                      l2931 1113                        l2917 1F8F                        l2941 104A  
                      l2925 1FA3                        l1973 0AA7                        l1981 0AB7  
                      l1965 0A99                        l1949 0A76                        l1957 0A86  
                      l2597 164B                        l2589 15FE                        l2829 07B5  
                      l2781 065D                        l2773 05C6                        l2765 05AC  
                      l2757 0511                        l2749 04C7                        l2693 01F0  
                      l2685 00FE                        l2677 00D2                        l2853 1267  
                      l2845 122C                        l2861 14E7                        l2933 1122  
                      ?_pad 0028                        l2943 0802                        l2919 1F99  
                      l2927 1FAD                        l2951 10D4                        l1991 0ACF  
                      l1983 0AC5                        l1975 0AAC                        l1967 0A9D  
                      l1959 0A90                        l2791 0676                        l2783 0661  
                      l2775 063C                        l2767 05C0                        l2759 055F  
                      l2695 01FB                        l2687 013D                        l2679 00D4  
                      l2847 123C                        l2839 1217                        l2871 1514  
                      l2863 14ED                        l2935 1130                        l2945 10BF  
                      l2953 1055                        l1993 0AD1                        l1985 0AC9  
                      l1977 0AB4                        l1969 0AA1                        l2793 067C  
                      l2785 0667                        l2777 0652                        l2769 05C1  
                      l2697 023A                        l2689 0179                        l2849 1251  
                      l2881 152B                        l2873 151A                        l2865 14F1  
                      l2857 14D2                        l2929 110C                        l2939 1032  
                      l2947 10C0                        l2955 1064                        l1995 0AD3  
                      l1987 0ACB                        l1979 0AB5                        l2795 0682  
                      l2787 066D                        l2779 0658                        l2699 0240  
                      l2891 156F                        l2883 1536                        l2875 1523  
                      l2867 1501                        l2859 14E3                        l2971 1170  
                      l2963 1160                        l2981 1428                        l2949 10CE  
                      l2957 1068                        l1997 0AD5                        l1989 0ACD  
                      l2797 0688                        l2789 0673                        l2893 1577  
                      l2885 1543                        l2877 1529                        l2869 1505  
                      l2973 117F                        l2965 1164                        l2991 145F  
                      l2983 1438                        l2959 106F                        l1999 0AD7  
                      l2799 068E                        l2895 157D                        l2887 1559  
                      l2967 116C                        l2993 1466                        l2985 1448  
                      l2977 141F                        l2969 116E                        l2995 1468  
                      l2979 1424                        l2997 1476                        l2989 1454  
                      l2999 1486                        STR_1 101A                        STR_2 1010  
                      STR_3 1022                        STR_6 1026                        u3000 1275  
                      u3001 1274                        u3010 128C                        u3100 08A6  
                      u3020 12A0                        u2300 12E6                        u3101 08A5  
                      u3021 129F                        u2301 12E5                        u3110 08AC  
                      u3030 12A7                        u2310 12EC                        u3111 08AB  
                      u3031 12A6                        u3015 1287                        u2311 12EB  
                      u3120 08B1                        u2400 0AA7                        u4000 1FFF  
                      u2320 130B                        u3121 08B0                        u2401 0AA6  
                      u4001 1FFE                        u2321 130A                        u3210 0961  
                      u3130 08CF                        u2410 0AAC                        u3050 12B7  
                      u2330 133D                        u4010 172F                        u3211 0960  
                      u3131 08CE                        u2411 0AAB                        u3051 12B6  
                      u2331 133C                        u4011 172E                        u3300 09C4  
                      u3140 08D5                        u2500 0B3E                        u2420 0AC5  
                      u3060 12BE                        u2340 135E                        u4100 0179  
                      u4020 175F                        u3301 09C3                        u3205 0956  
                      u3141 08D4                        u2501 0B3D                        u2421 0AC4  
                      u3061 12BD                        u3045 12A9                        u4101 0178  
                      u4021 175E                        u3310 09D8                        u3230 097D  
                      u3150 08DA                        u2510 0B42                        u2430 0AC9  
                      u2350 0A70                        u4110 01B2                        u4030 1764  
                      u3311 09D7                        u3231 097C                        u3151 08D9  
                      u2511 0B41                        u2431 0AC8                        u2351 0A6F  
                      u2335 1339                        u4111 01B1                        u4103 0175  
                      u4031 1763                        u3320 09DF                        u3240 0994  
                      u3160 08F5                        u3400 0CD2                        u2600 0BD0  
                      u2520 0B47                        u2440 0B01                        u2360 0A76  
                      u3080 12CF                        u4200 02F9                        u4040 1782  
                      u3321 09DE                        u3241 0993                        u3225 0964  
                      u3161 08F4                        u3401 0CD1                        u2601 0BD1  
                      u2521 0B46                        u2441 0B00                        u2361 0A75  
                      u3081 12CE                        u4201 02F8                        u4121 01C3  
                      u4041 1781                        u3330 09E5                        u3250 099C  
                      u3170 0911                        u3410 0CD7                        u2610 0BED  
                      u2602 0BD6                        u2450 0B0A                        u2370 0A7B  
                      u3090 12D4                        u4210 0446                        u4130 01F0  
                      u4122 01C4                        u4050 1789                        u3331 09E4  
                      u3251 099B                        u3235 0979                        u3171 0910  
                      u3411 0CD6                        u2611 0BEC                        u2603 0BD7  
                      u2531 0B59                        u2451 0B08                        u2371 0A7A  
                      u3091 12D3                        u3075 12C1                        u4211 0445  
                      u4131 01EF                        u4123 01C9                        u4051 1788  
                      u3340 09F7                        u3180 094B                        u3420 0CF4  
                      u2700 0C50                        u2620 0C12                        u2540 0B6B  
                      u2532 0B60                        u2460 0B0B                        u2380 0A98  
                      u4300 0694                        u4220 04BC                        u4124 01CA  
                      u4060 17DE                        u3341 09F6                        u3181 094A  
                      u3501 0DCA                        u3421 0CF3                        u2701 0C4F  
                      u2621 0C11                        u2541 0B6A                        u2533 0B67  
                      u2445 0AFD                        u2381 0A97                        u4301 0693  
                      u4221 04BB                        u4141 024F                        u4133 01EC  
                      u4125 01CF                        u4061 17DB                        u3350 0A06  
                      u3270 09AB                        u3502 0DD1                        u3430 0CFA  
                      u2710 0C57                        u2630 0C17                        u2550 0B6F  
                      u2470 0B1B                        u2390 0AA1                        u4310 0772  
                      u4230 04E2                        u4150 027C                        u4142 0250  
                      u4126 01D0                        u4070 17E5                        u3271 09AA  
                      u3503 0DD8                        u3431 0CF9                        u2711 0C56  
                      u2631 0C16                        u2551 0B6E                        u2471 0B1A  
                      u2391 0AA0                        u4311 0771                        u4231 04E1  
                      u4215 0442                        u4151 027B                        u4143 0255  
                      u4071 17E4                        u3360 0A23                        u3600 0F03  
                      u3440 0CFF                        u2800 0CBC                        u2720 0C5D  
                      u2560 0B7E                        u2480 0B2A                        u4320 0781  
                      u4240 04E8                        u4160 02B6                        u4144 0256  
                      u4080 00ED                        u4400 1542                        u3361 0A22  
                      u3265 09A0                        u3521 0DFE                        u3441 0CFE  
                      u2801 0CBB                        u2721 0C5C                        u2561 0B7D  
                      u2481 0B29                        u4321 0780                        u4241 04E7  
                      u4161 02B5                        u4153 0278                        u4145 025B  
                      u4081 00EC                        u4401 1541                        u3370 0A40  
                      u3290 09BF                        u2810 10F3                        u3522 0E05  
                      u3450 0D16                        u2730 0C6F                        u2650 0C2F  
                      u4330 07AE                        u4250 055F                        u4170 02C4  
                      u4146 025C                        u4410 1130                        u3371 0A3F  
                      u3355 0A01                        u3291 09BE                        u3195 094D  
                      u2811 10F2                        u3611 0F0F                        u3531 0E29  
                      u3523 0E0C                        u3515 0DDA                        u3451 0D15  
                      u2731 0C6E                        u2651 0C2E                        u4331 07AC  
                      u4315 076E                        u4251 055E                        u4171 02C3  
                      u4091 014C                        u4411 112F                        u4420 10E4  
                      u3380 0A55                        u2900 11F9                        u3700 0F7B  
                      u3612 0F16                        u3532 0E30                        u3460 0D1B  
                      u2740 0C80                        u2660 0C34                        u2580 0BA3  
                      u4340 07AF                        u4260 05AC                        u4180 02E5  
                      u4092 014D                        u4421 10E3                        u3381 0A54  
                      u3365 0A1F                        u3285 09AE                        u2901 11F8  
                      u3701 0F7A                        u3613 0F1D                        u3605 0EFE  
                      u3533 0E37                        u3461 0D1A                        u2661 0C33  
                      u2645 0C24                        u2581 0BA2                        u4325 077D  
                      u4261 05AB                        u4181 02E4                        u4093 0152  
                      u4510 1485                        u2910 1213                        u2830 1107  
                      u3710 0F8D                        u3390 0CCC                        u2750 0C8F  
                      u2670 0C3F                        u4350 07BA                        u4270 063C  
                      u4190 02E9                        u4094 0153                        u4511 1484  
                      u3375 0A3C                        u2911 1212                        u2831 1106  
                      u3711 0F8C                        u3551 0E5D                        u3471 0D68  
                      u3391 0CCB                        u2751 0C8E                        u2671 0C3E  
                      u2591 0BBC                        u2583 0B9F                        u2575 0B83  
                      u2495 0B2F                        u4351 07B9                        u4271 063B  
                      u4191 02E8                        u4095 0158                        u4440 106F  
                      u2920 1390                        u3720 0F9C                        u3640 0F41  
                      u3552 0E64                        u3472 0D6F                        u2760 0C96  
                      u2680 0C45                        u2592 0BBD                        u3800 0856  
                      u2840 115F                        u4280 065D                        u4096 0159  
                      u4360 1228                        u4505 1477                        u4441 106E  
                      u2921 138F                        u2825 10FA                        u3641 0F40  
                      u3625 0F1F                        u3561 0E88                        u3553 0E6B  
                      u3545 0E39                        u3481 0D84                        u3473 0D76  
                      u2761 0C95                        u2745 0C7B                        u2681 0C44  
                      u2593 0BC2                        u2841 115E                        u4281 065C  
                      u4361 1227                        u4530 1495                        u4450 1424  
                      u2930 13AC                        u3730 0FB9                        u3562 0E8F  
                      u3482 0D8B                        u2770 0C9B                        u2690 0C4A  
                      u2594 0BC3                        u3810 0861                        u4290 0661  
                      u2850 10A0                        u4370 1267                        u4531 1494  
                      u4451 1423                        u4435 105C                        u2915 120F  
                      u2931 13AB                        u3731 0FB8                        u3635 0F36  
                      u3571 0EB3                        u3563 0E96                        u3491 0DAE  
                      u3483 0D92                        u2771 0C9A                        u2691 0C49  
                      u2595 0BC8                        u3811 0860                        u4291 0660  
                      u4275 0638                        u2851 109F                        u4371 1266  
                      u4540 149B                        u4460 1428                        u2940 13B8  
                      u3740 0FD3                        u3660 0F55                        u3580 0EDB  
                      u3572 0EBA                        u3492 0DB5                        u2780 0CA8  
                      u2596 0BC9                        u3820 0871                        u3900 1631  
                      u4380 14E3                        u4541 149A                        u4525 148A  
                      u4461 1427                        u2941 13B7                        u3741 0FD2  
                      u3725 0F97                        u3661 0F54                        u3573 0EC1  
                      u3493 0DBC                        u2781 0CA7                        u3821 0870  
                      u3805 0851                        u3901 1630                        u4381 14E2  
                      u4550 149F                        u4470 1448                        u3750 0FEF  
                      u3670 0F5A                        u2790 0CAD                        u3830 087F  
                      u3910 1641                        u4390 1501                        u4551 149E  
                      u4471 1447                        u4607 1066                        u2951 13C7  
                      u3751 0FEE                        u3735 0FB5                        u3671 0F59  
                      u3655 0F44                        u3591 0EE7                        u2791 0CAC  
                      u4391 1500                        u4560 14B4                        u2960 13E0  
                      u2952 13C8                        u3680 0F6E                        u3592 0EEE  
                      u3840 088B                        u3920 165F                        u3760 1191  
                      u2880 10BA                        u4617 1FA8                        u2961 13DF  
                      u2953 13CD                        u3745 0FCF                        u3681 0F6D  
                      u3593 0EF5                        u3585 0ED6                        u3841 0889  
                      u3921 165E                        u3761 1190                        u2881 10B9  
                      u2865 10A7                        u4570 14C4                        u4490 1465  
                      u2890 11DD                        u2954 13CE                        u3690 0F75  
                      u3850 088C                        u3930 166E                        u3770 11BB  
                      u4571 14C3                        u4491 1464                        u4627 104E  
                      u2891 11DC                        u2971 13EF                        u2955 13D3  
                      u3691 0F74                        u3835 087A                        u3915 163C  
                      u3771 11BA                        u2875 10AE                        u4580 14C8  
                      u2980 141A                        u2972 13F0                        u2956 13D4  
                      u3780 0839                        u3940 1679                        u3860 1FDE  
                      u4581 14C7                        u4565 14AF                        u4485 1457  
                      u4637 1F94                        u2981 1419                        u2973 13F5  
                      u3941 1678                        u3861 1FDD                        u2974 13F6  
                      u2990 000F                        u3790 0848                        u3870 1FB5  
                      u2975 13FB                        u2991 000E                        u3791 0847  
                      u3951 1682                        u3935 1669                        u3871 1FB4  
                      u3775 11B7                        u2976 13FC                        u3960 16AF  
                      u3952 1689                        u3880 160C                        u2985 1416  
                      u3785 0834                        u3953 1690                        u3970 16BA  
                      u3890 162A                        u3971 16B9                        u3891 1629  
                      u3980 16D1                        u3965 16AA                        u3885 1607  
                      u4597 00BD                        u3990 16DC                        u3991 16DB  
                      u3895 1626                        u3985 16CC                        _dbuf 0110  
                      _labs 1FB1                        _main 0012                        _prec 019A  
                      pad@i 002D                        pad@p 002B                        btemp 007E  
             ___fpclassifyf 080B                        start 0000             ___fldiv@new_exp 004C  
               main@voltage 00EA                       ??_pad 007D               ___fltol@sign1 0078  
                     ?_labs 0070             __end_of___fladd 0CBE                       ?_main 0070  
           __end_of___fldiv 0A62             __end_of___flneg 0012             __end_of___flmul 1000  
           __end_of___flsub 109A             __end_of___fltol 12E0                vfpfcnvrt@fmt 00D2  
                     _PORTD 0008                       _TRISA 0085                       _TRISD 0088  
                     _TRISE 0089                       _flags 019C         read_prec_or_width@c 0078  
       read_prec_or_width@n 0079                       _fputc 12E0                       _fputs 1135  
                     labs@a 0070                       pad@fp 0028                       _width 0198  
                     _putch 0006                       pclath 000A                       status 0003  
                     wtemp0 007E             __end_of_sprintf 118B              ?___fpclassifyf 0070  
             main@adc_value 00EE             __initialization 07EB                __end_of_labs 1FC6  
              __end_of_main 00C8                      ??_labs 0074                      ??_main 00E7  
            lcd_command@cmd 0072  __end_of_read_prec_or_width 126C                      _ADCON0 001F  
                    _ADCON1 009F                      ?_fputc 0070                      ?_fputs 0020  
                    _ADRESH 001E                      _ADRESL 009E                      ?_putch 0070  
          __end_of___xxtofl 14D2            __end_of_lcd_data 1FB1                vfprintf@cfmt 006F  
                    ___flge 137A                      ___fleq 11C9                   ??___fladd 0020  
                    ___wmul 109A                   ??___fldiv 0042                   ??___flneg 0074  
                 ??___flmul 0028                   ??___flsub 007E                   ??___fltol 0074  
                    _efgtoa 16ED                      _buffer 019D                      _floorf 15DE  
                    _memcpy 1FDF        read_prec_or_width@ap 0077            __end_of_read_adc 1076  
                    pad@buf 002A                      _strcpy 1FC6                      fputc@c 0070  
                    fputs@c 0025                      fputs@i 0026                      fputs@s 0020  
           ___fpclassifyf@e 0020             ___fpclassifyf@u 0022             ___fpclassifyf@x 0070  
                    putch@c 0070            __end_of_vfprintf 1135            ??_lcd_initialise 0073  
                 ??_sprintf 00E6                  ___flge@ff1 003A                  ___flge@ff2 003E  
           ??___fpclassifyf 0074                ___xxtofl@arg 007A               lcd_string@str 0073  
              ___xxtofl@exp 0079                ___xxtofl@val 0070                  ___fleq@ff1 0070  
                ___fleq@ff2 0074     __end_of__initialization 07FC                  ___flneg@f1 0070  
                ___fltol@f1 0070              __pcstackCOMMON 0070               __end_of_fputc 137A  
             __end_of_fputs 1160               __end_of_putch 0007                     ??_fputc 0074  
                   ??_fputs 0023                     ??_putch 0070                  __pbssBANK2 0110  
                __pbssBANK3 0190           __end_of__Umul8_16 110C                  _efgtoa$717 00AA  
                __pmaintext 0012                     ?___flge 003A                     ?___fleq 0070  
                   ?___wmul 0070                     ?_efgtoa 0068                     ?_floorf 0054  
                   ?_memcpy 0070                     ?_strcpy 0070                   ?___xxtofl 0070  
                 ?_lcd_data 0070                  _lcd_string 10BF                  __stringtab 1000  
                 ?_read_adc 0070              _adc_initialise 0802                     ___fladd 0A62  
                   ___fldiv 0898                     ___flneg 0007                     ___flmul 0CBE  
                   ___flsub 1076                     ___fltol 126C                   ?_vfprintf 00DC  
                   __ptext1 1160                     __ptext2 110C                     __ptext3 14D2  
                   __ptext4 1217                     __ptext5 109A                     __ptext6 16ED  
                   __ptext7 1FC6                     __ptext8 118B                     __ptext9 1135  
     read_prec_or_width@fmt 0076                  ??___xxtofl 0074                     efgtoa@c 006E  
                   efgtoa@d 00AF                     efgtoa@e 00B3                     efgtoa@f 006A  
                   efgtoa@g 00C8                     efgtoa@h 00BD                     efgtoa@i 00BB  
                   efgtoa@l 00C1                     efgtoa@m 00B1                     efgtoa@n 00C6  
                   efgtoa@p 00A6                     efgtoa@t 00A8                     efgtoa@u 00CC  
                   efgtoa@w 00B5                  ??_lcd_data 0070                     _sprintf 1160  
                   clrloop0 102B        end_of_initialization 07FC                     floorf@e 0062  
                   floorf@m 005E                     floorf@u 0064                     floorf@x 0054  
                   memcpy@d 0075                     memcpy@n 0072                     memcpy@s 0076  
                   fputc@fp 0072                  ??_read_adc 0072                     fputs@fp 0021  
        _read_prec_or_width 1217      __end_of_adc_initialise 080B           __end_of_vfpfcnvrt 15DE  
                efgtoa@mode 00AD                  efgtoa@sign 00C5         ?_read_prec_or_width 0076  
                   psplit$0 11002C            vfpfcnvrt@convarg 00D6                  ??_vfprintf 007E  
                   strcpy@d 0072                   _PORTEbits 0009                 ___fladd@grs 007B  
             ___xxtofl@sign 0078        ??_read_prec_or_width 0078                 ___fldiv@grs 004E  
               ___fldiv@rem 0047                 ?_lcd_string 0073                 ___flmul@grs 002E  
             ??_lcd_command 0070             ?_adc_initialise 0070              __end_of___flge 141E  
            __end_of___fleq 1217                 vfpfcnvrt@ap 00D3                 vfpfcnvrt@cp 00DB  
               vfpfcnvrt@fp 00D0              __end_of___wmul 10BF              __end_of_efgtoa 07EB  
            __end_of_floorf 16ED              __end_of_memcpy 2000                  floorf@F521 0190  
            __end_of_strcpy 1FDF         start_initialization 07EB                 __end_of_pad 11C9  
         pnum$text6_split_1 002C       __end_of___fpclassifyf 0898                 vfprintf@fmt 00DE  
                  ??___flge 0042                    ??___fleq 0078                    ??___wmul 0074  
       __end_of_lcd_command 1F9D                    ??_efgtoa 00A0                   __Umul8_16 10E5  
                  ??_floorf 0058                    ??_memcpy 0074                    ??_strcpy 0072  
                 ___fladd@a 0074                   ___fladd@b 0070                   ___fldiv@a 003A  
                 ___fldiv@b 003E                   ___flmul@a 0024                   ___flmul@b 0020  
                 ___flsub@a 003A                   ___flsub@b 003E                   ___latbits 0002  
             __pcstackBANK0 0020               __pcstackBANK1 00A0               __pcstackBANK3 01AD  
                  ?___fladd 0070                    ?___fldiv 003A                    ?___flneg 0070  
                  ?___flmul 0020                    ?___flsub 003A                    ?___fltol 0070  
                ?__Umul8_16 0070                   __pstrings 1000                    ?_sprintf 00E0  
            ___wmul@product 0074                   clear_ram0 102A                 _lcd_command 1F89  
                 _vfpfcnvrt 14D2                  _ADCON0bits 001F                 __stringbase 100F  
         ___wmul@multiplier 0070                ??_lcd_string 0075                  vfpfcnvrt@c 00DA  
          ??_adc_initialise 0070                   memcpy@tmp 0074                  vfprintf@ap 00DF  
                vfprintf@fp 00DC                 ??__Umul8_16 0072                  ?_vfpfcnvrt 00D0  
        __end_of_lcd_string 10E5          __end_of__stringtab 1010          ___fpclassifyf@F465 0194  
                sprintf@fmt 00E1                    ___xxtofl 141E                    __ptext10 12E0  
                  __ptext11 0006                    __ptext20 0CBE                    __ptext12 1FDF  
                  __ptext21 10E5                    __ptext13 1FB1                    __ptext30 0802  
                  __ptext22 137A                    __ptext14 15DE                    __ptext31 141E  
                  __ptext23 11C9                    __ptext15 080B                    __ptext24 0898  
                  __ptext16 126C                    __ptext25 1054                    __ptext17 1076  
                  __ptext26 10BF                    __ptext18 0A62                    __ptext27 1F9D  
                  __ptext19 0007                    __ptext28 1032                    __ptext29 1F89  
                  _lcd_data 1F9D                  strcpy@dest 0070                    _read_adc 1054  
                 pnum$text6 0011              _lcd_initialise 1032                    efgtoa@fp 0068  
                  efgtoa@ne 00A4                    efgtoa@pp 00AC                    efgtoa@ou 00B7  
             read_adc@canal 0073                    _vfprintf 110C                    memcpy@d1 0070  
                  memcpy@s1 0071                   sprintf@ap 01AD      __end_of_lcd_initialise 1054  
                 strcpy@src 0071                   stringcode 100A                 efgtoa@nmode 00AE  
               ??_vfpfcnvrt 00D4      __Umul8_16@multiplicand 0070                    sprintf@f 01AE  
                  sprintf@s 00E0                    stringdir 100A                    stringtab 1000  
             ___fladd@signs 0078                ___fladd@aexp 0079                ___fladd@bexp 007A  
           ?_lcd_initialise 0070        __Umul8_16@multiplier 0078                ?_lcd_command 0070  
         __Umul8_16@product 0074  
