Microchip MPLAB XC8 Compiler V2.50

Linker command line:

-W-3 \
  --edf=C:\Program Files\Microchip\xc8\v2.50\pic\dat\20240725155939_en.msgs \
  -cn -h+dist/default/production\Lista_8A_novo.production.sym \
  --cmf=dist/default/production\Lista_8A_novo.production.cmf -z -Q16F877 \
  -oC:\Users\Yan\AppData\Local\Temp\xcAsfeg.\driver_tmp_3.o \
  --defsym=__MPLAB_BUILD=1 --fixupoverflow=error \
  -Mdist/default/production/Lista_8A_novo.production.map \
  --md=C:\Users\Yan\AppData\Local\Temp\xcAsfeg.\driver_tmp_0.dat -E1 \
  -ver=XC8 Compiler --acfsm=1493 -ACODE=00h-07FFhx4 -ASTRCODE=00h-01FFFh \
  -ASTRING=00h-0FFhx32 -ACONST=00h-0FFhx32 -AENTRY=00h-0FFhx32 \
  -ACOMMON=070h-07Fh -ABANK0=020h-06Fh -ABANK1=0A0h-0EFh \
  -ABANK2=0110h-016Fh -ABANK3=0190h-01EFh \
  -ARAM=020h-06Fh,0A0h-0EFh,0110h-016Fh,0190h-01EFh \
  -AABS1=020h-07Fh,0A0h-0EFh,0110h-016Fh,0190h-01EFh -ASFR0=00h-01Fh \
  -ASFR1=080h-09Fh -ASFR2=0100h-010Fh -ASFR3=0180h-018Fh \
  -ACONFIG=02007h-02007h -DCONFIG=2 -AIDLOC=02000h-02003h -DIDLOC=2 \
  -AEEDATA=00h-0FFh/02100h -peeprom_data=EEDATA -DEEDATA=2 -DCODE=2 \
  -DSTRCODE=2 -DSTRING=2 -DCONST=2 -DENTRY=2 \
  -preset_vec=00h,intentry,sivt,init,end_init -ppowerup=CODE -pcinit=CODE \
  -pfunctab=ENTRY -k \
  C:\Users\Yan\AppData\Local\Temp\xcAsfeg.\driver_tmp_17.o \
  dist/default/production\Lista_8A_novo.production.o 

Object code version is 3.11

Machine type is 16F877



                Name                               Link     Load   Length Selector   Space Scale
C:\Users\Yan\AppData\Local\Temp\xcAsfeg.\driver_tmp_17.o
                end_init                              0        0        3        0       0
                config                             2007     2007        1        0       4
dist/default/production\Lista_8A_novo.production.o
                cinit                               7EB      7EB       15      FD6       0
                text6_split_1                        C8       C8      723      190       0
                config                             2007     2007        1        0       4
                text31                             141E     141E       B4     283C       0
                text30                              802      802        9     1004       0
                text29                             1F89     1F89       14     3F12       0
                text28                             1032     1032       22     2064       0
                text27                             1F9D     1F9D       14     3F3A       0
                text26                             10BF     10BF       26     217E       0
                text25                             1054     1054       22     20A8       0
                text24                              898      898      1CA     1130       0
                text23                             11C9     11C9       4E     2392       0
                text22                             137A     137A       A4     26F4       0
                text21                             10E5     10E5       27     21CA       0
                text20                              CBE      CBE      342     197C       0
                text19                                7        7        B        E       0
                text18                              A62      A62      25C     14C4       0
                text17                             1076     1076       24     20EC       0
                text16                             126C     126C       74     24D8       0
                text15                              80B      80B       8D     1016       0
                text14                             15DE     15DE      10F     2BBC       0
                text13                             1FB1     1FB1       15     3F62       0
                text12                             1FDF     1FDF       21     3FBE       0
                text11                                6        6        1        C       0
                text10                             12E0     12E0       9A     25C0       0
                text9                              1135     1135       2B     226A       0
                text8                              118B     118B       3E     2316       0
                text7                              1FC6     1FC6       19     3F8C       0
                text6                              16ED     16ED      113     2DDA       0
                text5                              109A     109A       25     2134       0
                text4                              1217     1217       55     242E       0
                text3                              14D2     14D2      10C     29A4       0
                text2                              110C     110C       29     2218       0
                text1                              1160     1160       2B     22C0       0
                maintext                             12       12       B6       24       0
                cstackBANK0                          20       20       50       20       1
                cstackCOMMON                         70       70        E       70       1
                cstackBANK1                          A0       A0       50       A0       1
                cstackBANK3                         1AD      1AD        C      190       1
                clrtext                            102A     102A        8     2054       0
                bssBANK2                            110      110       50      110       1
                bssBANK3                            190      190       1D      190       1
                strings                            1000     1000       2A     2000       0

TOTAL           Name                               Link     Load   Length     Space
        CLASS   CODE           
                end_init                              0        0        3         0
                cinit                               7EB      7EB       15         0
                text6_split_1                        C8       C8      723         0
                text31                             141E     141E       B4         0
                text30                              802      802        9         0
                text29                             1F89     1F89       14         0
                text28                             1032     1032       22         0
                text27                             1F9D     1F9D       14         0
                text26                             10BF     10BF       26         0
                text25                             1054     1054       22         0
                text24                              898      898      1CA         0
                text23                             11C9     11C9       4E         0
                text22                             137A     137A       A4         0
                text21                             10E5     10E5       27         0
                text20                              CBE      CBE      342         0
                text19                                7        7        B         0
                text18                              A62      A62      25C         0
                text17                             1076     1076       24         0
                text16                             126C     126C       74         0
                text15                              80B      80B       8D         0
                text14                             15DE     15DE      10F         0
                text13                             1FB1     1FB1       15         0
                text12                             1FDF     1FDF       21         0
                text11                                6        6        1         0
                text10                             12E0     12E0       9A         0
                text9                              1135     1135       2B         0
                text8                              118B     118B       3E         0
                text7                              1FC6     1FC6       19         0
                text6                              16ED     16ED      113         0
                text5                              109A     109A       25         0
                text4                              1217     1217       55         0
                text3                              14D2     14D2      10C         0
                text2                              110C     110C       29         0
                text1                              1160     1160       2B         0
                maintext                             12       12       B6         0
                clrtext                            102A     102A        8         0

        CLASS   STRCODE        

        CLASS   STRING         
                strings                            1000     1000       2A         0

        CLASS   CONST          

        CLASS   ENTRY          

        CLASS   COMMON         
                cstackCOMMON                         70       70        E         1

        CLASS   BANK0          
                cstackBANK0                          20       20       50         1

        CLASS   BANK1          
                cstackBANK1                          A0       A0       50         1

        CLASS   BANK2          
                bssBANK2                            110      110       50         1

        CLASS   BANK3          
                cstackBANK3                         1AD      1AD        C         1
                bssBANK3                            190      190       1D         1

        CLASS   RAM            

        CLASS   ABS1           
                abs_s1                               7E       7E        2         1

        CLASS   SFR0           

        CLASS   SFR1           

        CLASS   SFR2           

        CLASS   SFR3           

        CLASS   CONFIG         
                config                             2007     2007        1         4

        CLASS   IDLOC          

        CLASS   EEDATA         

        CLASS   HEAP           

        CLASS   STACK          



SEGMENTS        Name                           Load    Length   Top    Selector   Space  Class     Delta

                reset_vec                      000000  000003  000003         0       0  CODE        2
                text11                         000006  000001  000007         C       0  CODE        2
                text19                         000007  00000B  000012         E       0  CODE        2
                cstackBANK0                    000020  000050  000070        20       1  BANK0       1
                maintext                       000012  0000B6  0000C8        24       0  CODE        2
                cstackCOMMON                   000070  00000E  00007E        70       1  COMMON      1
                cstackBANK1                    0000A0  000050  0000F0        A0       1  BANK1       1
                bssBANK2                       000110  000050  000160       110       1  BANK2       1
                bssBANK3                       000190  000029  0001B9       190       1  BANK3       1
                text6_split_1                  0000C8  000723  0007EB       190       0  CODE        2
                cinit                          0007EB  000015  000800       FD6       0  CODE        2
                text30                         000802  000009  00080B      1004       0  CODE        2
                text15                         00080B  00008D  000898      1016       0  CODE        2
                text24                         000898  0001CA  000A62      1130       0  CODE        2
                text18                         000A62  00025C  000CBE      14C4       0  CODE        2
                text20                         000CBE  000342  001000      197C       0  CODE        2
                strings                        001000  00002A  00102A      2000       0  STRING      2
                clrtext                        00102A  000008  001032      2054       0  CODE        2
                text28                         001032  000022  001054      2064       0  CODE        2
                text25                         001054  000022  001076      20A8       0  CODE        2
                text17                         001076  000024  00109A      20EC       0  CODE        2
                text5                          00109A  000025  0010BF      2134       0  CODE        2
                text26                         0010BF  000026  0010E5      217E       0  CODE        2
                text21                         0010E5  000027  00110C      21CA       0  CODE        2
                text2                          00110C  000029  001135      2218       0  CODE        2
                text9                          001135  00002B  001160      226A       0  CODE        2
                text1                          001160  00002B  00118B      22C0       0  CODE        2
                text8                          00118B  00003E  0011C9      2316       0  CODE        2
                text23                         0011C9  00004E  001217      2392       0  CODE        2
                text4                          001217  000055  00126C      242E       0  CODE        2
                text16                         00126C  000074  0012E0      24D8       0  CODE        2
                text10                         0012E0  00009A  00137A      25C0       0  CODE        2
                text22                         00137A  0000A4  00141E      26F4       0  CODE        2
                text31                         00141E  0000B4  0014D2      283C       0  CODE        2
                text3                          0014D2  00010C  0015DE      29A4       0  CODE        2
                text14                         0015DE  00010F  0016ED      2BBC       0  CODE        2
                text6                          0016ED  000113  001800      2DDA       0  CODE        2
                text29                         001F89  000014  001F9D      3F12       0  CODE        2
                text27                         001F9D  000014  001FB1      3F3A       0  CODE        2
                text13                         001FB1  000015  001FC6      3F62       0  CODE        2
                text7                          001FC6  000019  001FDF      3F8C       0  CODE        2
                text12                         001FDF  000021  002000      3FBE       0  CODE        2


UNUSED ADDRESS RANGES

        Name                Unused          Largest block    Delta
        BANK2            000160-00016F               10           1
        BANK3            0001B9-0001EF               37           1
        CODE             000003-000005                3           2
                         000800-000801                2
                         001800-001F88              789
        CONST            000003-000005                3           2
                         000800-000801                2
                         001800-001F88              100
        EEDATA           002100-0021FF              100           2
        ENTRY            000003-000005                3           2
                         000800-000801                2
                         001800-001F88              100
        IDLOC            002000-002003                4           2
        RAM              000160-00016F               10           1
                         0001B9-0001EF               37
        SFR0             000000-00001F               20           1
        SFR1             000080-00009F               20           1
        SFR2             000100-00010F               10           1
        SFR3             000180-00018F               10           1
        STRCODE          000003-000005                3           2
                         000800-000801                2
                         001800-001F88              789
        STRING           000003-000005                3           2
                         000800-000801                2
                         001800-001F88              100

                                  Symbol Table

?__Umul8_16                 cstackCOMMON 000070
?___fladd                   cstackCOMMON 000070
?___fldiv                   cstackBANK0  00003A
?___flmul                   cstackBANK0  000020
?___flneg                   cstackCOMMON 000070
?___flsub                   cstackBANK0  00003A
?___fltol                   cstackCOMMON 000070
?___fpclassifyf             cstackCOMMON 000070
?___wmul                    cstackCOMMON 000070
?___xxtofl                  cstackCOMMON 000070
?_floorf                    cstackBANK0  000054
?_labs                      cstackCOMMON 000070
?_read_adc                  cstackCOMMON 000070
?_read_prec_or_width        cstackCOMMON 000076
?_sprintf                   cstackBANK1  0000E0
?_vfprintf                  cstackBANK1  0000DC
_ADCON0                     (abs)        00001F
_ADCON0bits                 (abs)        00001F
_ADCON1                     (abs)        00009F
_ADRESH                     (abs)        00001E
_ADRESL                     (abs)        00009E
_PORTD                      (abs)        000008
_PORTEbits                  (abs)        000009
_TRISA                      (abs)        000085
_TRISD                      (abs)        000088
_TRISE                      (abs)        000089
__H__absolute__             __absolute__ 000000
__Habs1                     abs1         000000
__Hbank0                    bank0        000000
__Hbank1                    bank1        000000
__Hbank2                    bank2        000000
__Hbank3                    bank3        000000
__HbssBANK2                 bssBANK2     000000
__HbssBANK3                 bssBANK3     000000
__Hcinit                    cinit        000800
__Hclrtext                  clrtext      000000
__Hcode                     code         000000
__Hcommon                   common       000000
__Hconfig                   config       002008
__HcstackBANK0              cstackBANK0  000000
__HcstackBANK1              cstackBANK1  000000
__HcstackBANK3              cstackBANK3  000000
__HcstackCOMMON             cstackCOMMON 000000
__Heeprom_data              eeprom_data  000000
__Hend_init                 end_init     000003
__Hfunctab                  functab      000000
__Hheap                     heap         000000
__Hinit                     init         000000
__Hintentry                 intentry     000000
__Hmaintext                 maintext     000000
__Hpowerup                  powerup      000000
__Hram                      ram          000000
__Hreset_vec                reset_vec    000000
__Hsfr0                     sfr0         000000
__Hsfr1                     sfr1         000000
__Hsfr2                     sfr2         000000
__Hsfr3                     sfr3         000000
__Hsivt                     sivt         000000
__Hspace_0                  (abs)        002000
__Hspace_1                  (abs)        0001B9
__Hspace_2                  (abs)        000000
__Hspace_3                  (abs)        000000
__Hspace_4                  (abs)        00400F
__Hstack                    stack        000000
__Hstrings                  strings      000000
__Htext                     text         000000
__L__absolute__             __absolute__ 000000
__Labs1                     abs1         000000
__Lbank0                    bank0        000000
__Lbank1                    bank1        000000
__Lbank2                    bank2        000000
__Lbank3                    bank3        000000
__LbssBANK2                 bssBANK2     000000
__LbssBANK3                 bssBANK3     000000
__Lcinit                    cinit        0007EB
__Lclrtext                  clrtext      000000
__Lcode                     code         000000
__Lcommon                   common       000000
__Lconfig                   config       000000
__LcstackBANK0              cstackBANK0  000000
__LcstackBANK1              cstackBANK1  000000
__LcstackBANK3              cstackBANK3  000000
__LcstackCOMMON             cstackCOMMON 000000
__Leeprom_data              eeprom_data  000000
__Lend_init                 end_init     000000
__Lfunctab                  functab      000000
__Lheap                     heap         000000
__Linit                     init         000000
__Lintentry                 intentry     000000
__Lmaintext                 maintext     000000
__Lpowerup                  powerup      000000
__Lram                      ram          000000
__Lreset_vec                reset_vec    000000
__Lsfr0                     sfr0         000000
__Lsfr1                     sfr1         000000
__Lsfr2                     sfr2         000000
__Lsfr3                     sfr3         000000
__Lsivt                     sivt         000000
__Lspace_0                  (abs)        000000
__Lspace_1                  (abs)        000000
__Lspace_2                  (abs)        000000
__Lspace_3                  (abs)        000000
__Lspace_4                  (abs)        000000
__Lstack                    stack        000000
__Lstrings                  strings      000000
__Ltext                     text         000000
__S0                        (abs)        002000
__S1                        (abs)        0001B9
__S3                        (abs)        000000
__Umul8_16                  text21       0010E5
__Umul8_16@multiplicand     cstackCOMMON 000070
__Umul8_16@multiplier       cstackCOMMON 000078
__Umul8_16@product          cstackCOMMON 000074
__Umul8_16@word_mpld        cstackCOMMON 000076
___fladd                    text18       000A62
___fladd@a                  cstackCOMMON 000074
___fladd@aexp               cstackCOMMON 000079
___fladd@b                  cstackCOMMON 000070
___fladd@bexp               cstackCOMMON 00007A
___fladd@grs                cstackCOMMON 00007B
___fladd@signs              cstackCOMMON 000078
___fldiv                    text24       000898
___fldiv@a                  cstackBANK0  00003A
___fldiv@aexp               cstackBANK0  000053
___fldiv@b                  cstackBANK0  00003E
___fldiv@bexp               cstackBANK0  000052
___fldiv@grs                cstackBANK0  00004E
___fldiv@new_exp            cstackBANK0  00004C
___fldiv@rem                cstackBANK0  000047
___fldiv@sign               cstackBANK0  00004B
___fleq                     text23       0011C9
___fleq@ff1                 cstackCOMMON 000070
___fleq@ff2                 cstackCOMMON 000074
___flge                     text22       00137A
___flge@ff1                 cstackBANK0  00003A
___flge@ff2                 cstackBANK0  00003E
___flmul                    text20       000CBE
___flmul@a                  cstackBANK0  000024
___flmul@aexp               cstackBANK0  000032
___flmul@b                  cstackBANK0  000020
___flmul@bexp               cstackBANK0  000033
___flmul@grs                cstackBANK0  00002E
___flmul@prod               cstackBANK0  000034
___flmul@sign               cstackBANK0  00002D
___flmul@temp               cstackBANK0  000038
___flneg                    text19       000007
___flneg@f1                 cstackCOMMON 000070
___flsub                    text17       001076
___flsub@a                  cstackBANK0  00003A
___flsub@b                  cstackBANK0  00003E
___fltol                    text16       00126C
___fltol@exp1               cstackCOMMON 000079
___fltol@f1                 cstackCOMMON 000070
___fltol@sign1              cstackCOMMON 000078
___fpclassifyf              text15       00080B
___fpclassifyf@F465         bssBANK3     000194
___fpclassifyf@e            cstackBANK0  000020
___fpclassifyf@u            cstackBANK0  000022
___fpclassifyf@x            cstackCOMMON 000070
___heap_hi                  (abs)        000000
___heap_lo                  (abs)        000000
___int_sp                   stack        000000
___int_stack_hi             stack        000000
___int_stack_lo             stack        000000
___latbits                  (abs)        000002
___sp                       stack        000000
___stack_hi                 stack        000000
___stack_lo                 stack        000000
___stackhi                  (abs)        000000
___stacklo                  (abs)        000000
___wmul                     text5        00109A
___wmul@multiplicand        cstackCOMMON 000072
___wmul@multiplier          cstackCOMMON 000070
___wmul@product             cstackCOMMON 000074
___xxtofl                   text31       00141E
___xxtofl@arg               cstackCOMMON 00007A
___xxtofl@exp               cstackCOMMON 000079
___xxtofl@sign              cstackCOMMON 000078
___xxtofl@val               cstackCOMMON 000070
__end_of__Umul8_16          text21       00110C
__end_of___fladd            text18       000CBE
__end_of___fldiv            text24       000A62
__end_of___fleq             text23       001217
__end_of___flge             text22       00141E
__end_of___flmul            text20       001000
__end_of___flneg            text19       000012
__end_of___flsub            text17       00109A
__end_of___fltol            text16       0012E0
__end_of___fpclassifyf      text15       000898
__end_of___wmul             text5        0010BF
__end_of___xxtofl           text31       0014D2
__end_of__initialization    cinit        0007FC
__end_of__stringtab         strings      001010
__end_of_adc_initialise     text30       00080B
__end_of_efgtoa             text6_split_1 0007EB
__end_of_floorf             text14       0016ED
__end_of_fputc              text10       00137A
__end_of_fputs              text9        001160
__end_of_labs               text13       001FC6
__end_of_lcd_command        text29       001F9D
__end_of_lcd_data           text27       001FB1
__end_of_lcd_initialise     text28       001054
__end_of_lcd_string         text26       0010E5
__end_of_main               maintext     0000C8
__end_of_memcpy             text12       002000
__end_of_pad                text8        0011C9
__end_of_putch              text11       000007
__end_of_read_adc           text25       001076
__end_of_read_prec_or_width text4        00126C
__end_of_sprintf            text1        00118B
__end_of_strcpy             text7        001FDF
__end_of_vfpfcnvrt          text3        0015DE
__end_of_vfprintf           text2        001135
__initialization            cinit        0007EB
__pbssBANK2                 bssBANK2     000110
__pbssBANK3                 bssBANK3     000190
__pcstackBANK0              cstackBANK0  000020
__pcstackBANK1              cstackBANK1  0000A0
__pcstackBANK3              cstackBANK3  0001AD
__pcstackCOMMON             cstackCOMMON 000070
__pmaintext                 maintext     000012
__pstrings                  strings      001000
__ptext1                    text1        001160
__ptext10                   text10       0012E0
__ptext11                   text11       000006
__ptext12                   text12       001FDF
__ptext13                   text13       001FB1
__ptext14                   text14       0015DE
__ptext15                   text15       00080B
__ptext16                   text16       00126C
__ptext17                   text17       001076
__ptext18                   text18       000A62
__ptext19                   text19       000007
__ptext2                    text2        00110C
__ptext20                   text20       000CBE
__ptext21                   text21       0010E5
__ptext22                   text22       00137A
__ptext23                   text23       0011C9
__ptext24                   text24       000898
__ptext25                   text25       001054
__ptext26                   text26       0010BF
__ptext27                   text27       001F9D
__ptext28                   text28       001032
__ptext29                   text29       001F89
__ptext3                    text3        0014D2
__ptext30                   text30       000802
__ptext31                   text31       00141E
__ptext4                    text4        001217
__ptext5                    text5        00109A
__ptext6                    text6        0016ED
__ptext7                    text7        001FC6
__ptext8                    text8        00118B
__ptext9                    text9        001135
__stringbase                strings      00100F
__stringtab                 strings      001000
_adc_initialise             text30       000802
_buffer                     bssBANK3     00019D
_dbuf                       bssBANK2     000110
_efgtoa                     text6        0016ED
_efgtoa$717                 cstackBANK1  0000AA
_flags                      bssBANK3     00019C
_floorf                     text14       0015DE
_fputc                      text10       0012E0
_fputs                      text9        001135
_labs                       text13       001FB1
_lcd_command                text29       001F89
_lcd_data                   text27       001F9D
_lcd_initialise             text28       001032
_lcd_string                 text26       0010BF
_main                       maintext     000012
_memcpy                     text12       001FDF
_pad                        text8        00118B
_prec                       bssBANK3     00019A
_putch                      text11       000006
_read_adc                   text25       001054
_read_prec_or_width         text4        001217
_sprintf                    text1        001160
_strcpy                     text7        001FC6
_vfpfcnvrt                  text3        0014D2
_vfprintf                   text2        00110C
_width                      bssBANK3     000198
btemp                       (abs)        00007E
clear_ram0                  clrtext      00102A
efgtoa@c                    cstackBANK0  00006E
efgtoa@d                    cstackBANK1  0000AF
efgtoa@e                    cstackBANK1  0000B3
efgtoa@f                    cstackBANK0  00006A
efgtoa@fp                   cstackBANK0  000068
efgtoa@g                    cstackBANK1  0000C8
efgtoa@h                    cstackBANK1  0000BD
efgtoa@i                    cstackBANK1  0000BB
efgtoa@l                    cstackBANK1  0000C1
efgtoa@m                    cstackBANK1  0000B1
efgtoa@mode                 cstackBANK1  0000AD
efgtoa@n                    cstackBANK1  0000C6
efgtoa@ne                   cstackBANK1  0000A4
efgtoa@nmode                cstackBANK1  0000AE
efgtoa@ou                   cstackBANK1  0000B7
efgtoa@p                    cstackBANK1  0000A6
efgtoa@pp                   cstackBANK1  0000AC
efgtoa@sign                 cstackBANK1  0000C5
efgtoa@t                    cstackBANK1  0000A8
efgtoa@u                    cstackBANK1  0000CC
efgtoa@w                    cstackBANK1  0000B5
end_of_initialization       cinit        0007FC
floorf@F521                 bssBANK3     000190
floorf@e                    cstackBANK0  000062
floorf@m                    cstackBANK0  00005E
floorf@u                    cstackBANK0  000064
floorf@x                    cstackBANK0  000054
fputc@c                     cstackCOMMON 000070
fputc@fp                    cstackCOMMON 000072
fputs@c                     cstackBANK0  000025
fputs@fp                    cstackBANK0  000021
fputs@i                     cstackBANK0  000026
fputs@s                     cstackBANK0  000020
intlevel0                   functab      000000
intlevel1                   functab      000000
intlevel2                   functab      000000
intlevel3                   functab      000000
intlevel4                   functab      000000
intlevel5                   functab      000000
labs@a                      cstackCOMMON 000070
lcd_command@cmd             cstackCOMMON 000072
lcd_data@data               cstackCOMMON 000072
lcd_string@str              cstackCOMMON 000073
main@adc_value              cstackBANK1  0000EE
main@voltage                cstackBANK1  0000EA
memcpy@d                    cstackCOMMON 000075
memcpy@d1                   cstackCOMMON 000070
memcpy@n                    cstackCOMMON 000072
memcpy@s                    cstackCOMMON 000076
memcpy@s1                   cstackCOMMON 000071
memcpy@tmp                  cstackCOMMON 000074
pad@buf                     cstackBANK0  00002A
pad@fp                      cstackBANK0  000028
pad@i                       cstackBANK0  00002D
pad@p                       cstackBANK0  00002B
pnum$text6                  (abs)        000011
pnum$text6_split_1          (abs)        00002C
psplit$0                    (abs)        11002C
read_adc@canal              cstackCOMMON 000073
read_prec_or_width@ap       cstackCOMMON 000077
read_prec_or_width@c        cstackCOMMON 000078
read_prec_or_width@fmt      cstackCOMMON 000076
read_prec_or_width@n        cstackCOMMON 000079
reset_vec                   reset_vec    000000
sprintf@ap                  cstackBANK3  0001AD
sprintf@f                   cstackBANK3  0001AE
sprintf@fmt                 cstackBANK1  0000E1
sprintf@s                   cstackBANK1  0000E0
start                       init         000000
start_initialization        cinit        0007EB
strcpy@d                    cstackCOMMON 000072
strcpy@dest                 cstackCOMMON 000070
strcpy@src                  cstackCOMMON 000071
vfpfcnvrt@ap                cstackBANK1  0000D3
vfpfcnvrt@c                 cstackBANK1  0000DA
vfpfcnvrt@convarg           cstackBANK1  0000D6
vfpfcnvrt@cp                cstackBANK1  0000DB
vfpfcnvrt@fmt               cstackBANK1  0000D2
vfpfcnvrt@fp                cstackBANK1  0000D0
vfprintf@ap                 cstackBANK1  0000DF
vfprintf@cfmt               cstackBANK0  00006F
vfprintf@fmt                cstackBANK1  0000DE
vfprintf@fp                 cstackBANK1  0000DC
wtemp0                      (abs)        00007E


MODULE INFORMATION

Module		Function		Class		Link	Load	Size
C:\Program Files\Microchip\xc8\v2.50\pic\sources\c99\common\memcpy.c
		_memcpy        		CODE           	1FDF	0000	33

C:\Program Files\Microchip\xc8\v2.50\pic\sources\c99\common\memcpy.c estimated size: 33

C:\Program Files\Microchip\xc8\v2.50\pic\sources\c99\common\flneg.c
		___flneg       		CODE           	0007	0000	11

C:\Program Files\Microchip\xc8\v2.50\pic\sources\c99\common\flneg.c estimated size: 11

C:\Program Files\Microchip\xc8\v2.50\pic\sources\c99\common\Umul16.c
		___wmul        		CODE           	109A	0000	37

C:\Program Files\Microchip\xc8\v2.50\pic\sources\c99\common\Umul16.c estimated size: 37

C:\Program Files\Microchip\xc8\v2.50\pic\sources\c99\common\nf_fputs.c
		_fputs         		CODE           	1135	0000	43

C:\Program Files\Microchip\xc8\v2.50\pic\sources\c99\common\nf_fputs.c estimated size: 43

C:\Program Files\Microchip\xc8\v2.50\pic\sources\c99\common\sprcmul.c
		___flmul       		CODE           	0CBE	0000	834

C:\Program Files\Microchip\xc8\v2.50\pic\sources\c99\common\sprcmul.c estimated size: 834

C:\Program Files\Microchip\xc8\v2.50\pic\sources\c99\common\sprcdiv.c
		___fldiv       		CODE           	0898	0000	458

C:\Program Files\Microchip\xc8\v2.50\pic\sources\c99\common\sprcdiv.c estimated size: 458

C:\Program Files\Microchip\xc8\v2.50\pic\sources\c99\common\floorf.c
		_floorf        		CODE           	15DE	0000	271

C:\Program Files\Microchip\xc8\v2.50\pic\sources\c99\common\floorf.c estimated size: 271

atividade7.c
		_lcd_command   		CODE           	1F89	0000	20
		_adc_initialise		CODE           	0802	0000	9
		_lcd_data      		CODE           	1F9D	0000	20
		_lcd_initialise		CODE           	1032	0000	34
		_main          		CODE           	0012	0000	182
		_read_adc      		CODE           	1054	0000	34
		_lcd_string    		CODE           	10BF	0000	38

atividade7.c estimated size: 337

C:\Program Files\Microchip\xc8\v2.50\pic\sources\c99\common\putch.c
		_putch         		CODE           	0006	0000	1

C:\Program Files\Microchip\xc8\v2.50\pic\sources\c99\common\putch.c estimated size: 1

C:\Program Files\Microchip\xc8\v2.50\pic\sources\c99\common\fleq.c
		___fleq        		CODE           	11C9	0000	78

C:\Program Files\Microchip\xc8\v2.50\pic\sources\c99\common\fleq.c estimated size: 78

C:\Program Files\Microchip\xc8\v2.50\pic\sources\c99\common\xxtofl.c
		___xxtofl      		CODE           	141E	0000	180

C:\Program Files\Microchip\xc8\v2.50\pic\sources\c99\common\xxtofl.c estimated size: 180

C:\Program Files\Microchip\xc8\v2.50\pic\sources\c99\common\Umul8_16.c
		__Umul8_16     		CODE           	10E5	0000	39

C:\Program Files\Microchip\xc8\v2.50\pic\sources\c99\common\Umul8_16.c estimated size: 39

C:\Program Files\Microchip\xc8\v2.50\pic\sources\c99\common\__fpclassifyf.c
		___fpclassifyf 		CODE           	080B	0000	141

C:\Program Files\Microchip\xc8\v2.50\pic\sources\c99\common\__fpclassifyf.c estimated size: 141

C:\Program Files\Microchip\xc8\v2.50\pic\sources\c99\common\strcpy.c
		_strcpy        		CODE           	1FC6	0000	25

C:\Program Files\Microchip\xc8\v2.50\pic\sources\c99\common\strcpy.c estimated size: 25

C:\Program Files\Microchip\xc8\v2.50\pic\sources\c99\common\sprcadd.c
		___flsub       		CODE           	1076	0000	36
		___fladd       		CODE           	0A62	0000	604

C:\Program Files\Microchip\xc8\v2.50\pic\sources\c99\common\sprcadd.c estimated size: 640

C:\Program Files\Microchip\xc8\v2.50\pic\sources\c99\common\nf_sprintf.c
		_sprintf       		CODE           	1160	0000	43

C:\Program Files\Microchip\xc8\v2.50\pic\sources\c99\common\nf_sprintf.c estimated size: 43

C:\Program Files\Microchip\xc8\v2.50\pic\sources\c99\common\nf_fputc.c
		_fputc         		CODE           	12E0	0000	154

C:\Program Files\Microchip\xc8\v2.50\pic\sources\c99\common\nf_fputc.c estimated size: 154

shared
		__stringtab    		STRING         	1000	0000	16
		__initialization		CODE           	07EB	0000	17

shared estimated size: 33

C:\Program Files\Microchip\xc8\v2.50\pic\sources\c99\common\fltol.c
		___fltol       		CODE           	126C	0000	116

C:\Program Files\Microchip\xc8\v2.50\pic\sources\c99\common\fltol.c estimated size: 116

C:\Program Files\Microchip\xc8\v2.50\pic\sources\c99\common\doprnt.c
		_read_prec_or_width		CODE           	1217	0000	85
		_vfpfcnvrt     		CODE           	14D2	0000	268
		_efgtoa        		CODE           	16ED	0000	2102
		_pad           		CODE           	118B	0000	62
		_vfprintf      		CODE           	110C	0000	41

C:\Program Files\Microchip\xc8\v2.50\pic\sources\c99\common\doprnt.c estimated size: 2558

C:\Program Files\Microchip\xc8\v2.50\pic\sources\c99\common\labs.c
		_labs          		CODE           	1FB1	0000	21

C:\Program Files\Microchip\xc8\v2.50\pic\sources\c99\common\labs.c estimated size: 21

C:\Program Files\Microchip\xc8\v2.50\pic\sources\c99\common\flge.c
		___flge        		CODE           	137A	0000	164

C:\Program Files\Microchip\xc8\v2.50\pic\sources\c99\common\flge.c estimated size: 164

