Microchip MPLAB XC8 Compiler V2.50

Linker command line:

-W-3 \
  --edf=C:\Program Files\Microchip\xc8\v2.50\pic\dat\20240725155939_en.msgs \
  -cn -h+dist/default/production\Lista_8A_novo.production.sym \
  --cmf=dist/default/production\Lista_8A_novo.production.cmf -z -Q16F877 \
  -oC:\Users\GUILHE~1\AppData\Local\Temp\xcAs9lo.\driver_tmp_3.o \
  --defsym=__MPLAB_BUILD=1 --fixupoverflow=error \
  -Mdist/default/production/Lista_8A_novo.production.map \
  --md=C:\Users\GUILHE~1\AppData\Local\Temp\xcAs9lo.\driver_tmp_0.dat -E1 \
  -ver=XC8 Compiler --acfsm=1493 -ACODE=00h-07FFhx4 -ASTRCODE=00h-01FFFh \
  -ASTRING=00h-0FFhx32 -ACONST=00h-0FFhx32 -AENTRY=00h-0FFhx32 \
  -ACOMMON=070h-07Fh -ABANK0=020h-06Fh -ABANK1=0A0h-0EFh \
  -ABANK2=0110h-016Fh -ABANK3=0190h-01EFh \
  -ARAM=020h-06Fh,0A0h-0EFh,0110h-016Fh,0190h-01EFh \
  -AABS1=020h-07Fh,0A0h-0EFh,0110h-016Fh,0190h-01EFh -ASFR0=00h-01Fh \
  -ASFR1=080h-09Fh -ASFR2=0100h-010Fh -ASFR3=0180h-018Fh \
  -ACONFIG=02007h-02007h -DCONFIG=2 -AIDLOC=02000h-02003h -DIDLOC=2 \
  -AEEDATA=00h-0FFh/02100h -peeprom_data=EEDATA -DEEDATA=2 -DCODE=2 \
  -DSTRCODE=2 -DSTRING=2 -DCONST=2 -DENTRY=2 \
  -preset_vec=00h,intentry,sivt,init,end_init -ppowerup=CODE -pcinit=CODE \
  -pfunctab=ENTRY -k \
  C:\Users\GUILHE~1\AppData\Local\Temp\xcAs9lo.\driver_tmp_17.o \
  dist/default/production\Lista_8A_novo.production.o 

Object code version is 3.11

Machine type is 16F877



                Name                               Link     Load   Length Selector   Space Scale
C:\Users\GUILHE~1\AppData\Local\Temp\xcAs9lo.\driver_tmp_17.o
                end_init                              0        0        3        0       0
                config                             2007     2007        1        0       4
dist/default/production\Lista_8A_novo.production.o
                cinit                               7EB      7EB       15      FD6       0
                config                             2007     2007        1        0       4
                text19                              3A7      3A7        C      74E       0
                text18                              3CC      3CC       11      798       0
                text17                              3BF      3BF        D      77E       0
                text16                              3EE      3EE       14      7DC       0
                text15                              3B3      3B3        C      766       0
                text14                              4A7      4A7       26      94E       0
                text13                              402      402       1C      804       0
                text12                              5A2      5A2       63      B44       0
                text11                              54B      54B       57      A96       0
                text10                              3DD      3DD       11      7BA       0
                text9                               39E      39E        1      73C       0
                text8                               66B      66B       9A      CD6       0
                text7                               705      705       E6      E0A       0
                text6                               45D      45D       25      8BA       0
                text5                               43A      43A       23      874       0
                text4                               41E      41E       1C      83C       0
                text3                               4FE      4FE       4D      9FC       0
                text2                               482      482       25      904       0
                text1                               4CD      4CD       31      99A       0
                maintext                            605      605       66      C0A       0
                cstackBANK0                          20       20       39       20       1
                cstackCOMMON                         70       70        E       70       1
                clrtext                             39F      39F        8      73E       0
                bssBANK1                             A0       A0       20       A0       1
                bssBANK0                             59       59       10       20       1
                strings                               3        3       3F        6       0
                nvBANK0                              69       69        1       20       1

TOTAL           Name                               Link     Load   Length     Space
        CLASS   CODE           
                end_init                              0        0        3         0
                cinit                               7EB      7EB       15         0
                text19                              3A7      3A7        C         0
                text18                              3CC      3CC       11         0
                text17                              3BF      3BF        D         0
                text16                              3EE      3EE       14         0
                text15                              3B3      3B3        C         0
                text14                              4A7      4A7       26         0
                text13                              402      402       1C         0
                text12                              5A2      5A2       63         0
                text11                              54B      54B       57         0
                text10                              3DD      3DD       11         0
                text9                               39E      39E        1         0
                text8                               66B      66B       9A         0
                text7                               705      705       E6         0
                text6                               45D      45D       25         0
                text5                               43A      43A       23         0
                text4                               41E      41E       1C         0
                text3                               4FE      4FE       4D         0
                text2                               482      482       25         0
                text1                               4CD      4CD       31         0
                maintext                            605      605       66         0
                clrtext                             39F      39F        8         0

        CLASS   STRCODE        

        CLASS   STRING         
                strings                               3        3       3F         0

        CLASS   CONST          

        CLASS   ENTRY          

        CLASS   COMMON         
                cstackCOMMON                         70       70        E         1

        CLASS   BANK0          
                cstackBANK0                          20       20       39         1
                bssBANK0                             59       59       10         1
                nvBANK0                              69       69        1         1

        CLASS   BANK1          
                bssBANK1                             A0       A0       20         1

        CLASS   BANK2          

        CLASS   BANK3          

        CLASS   RAM            

        CLASS   ABS1           
                abs_s1                               7E       7E        2         1

        CLASS   SFR0           

        CLASS   SFR1           

        CLASS   SFR2           

        CLASS   SFR3           

        CLASS   CONFIG         
                config                             2007     2007        1         4

        CLASS   IDLOC          

        CLASS   EEDATA         

        CLASS   HEAP           

        CLASS   STACK          



SEGMENTS        Name                           Load    Length   Top    Selector   Space  Class     Delta

                reset_vec                      000000  000003  000003         0       0  CODE        2
                strings                        000003  00003F  000042         6       0  STRING      2
                cstackBANK0                    000020  00004A  00006A        20       1  BANK0       1
                cstackCOMMON                   000070  00000E  00007E        70       1  COMMON      1
                bssBANK1                       0000A0  000020  0000C0        A0       1  BANK1       1
                text9                          00039E  000001  00039F       73C       0  CODE        2
                clrtext                        00039F  000008  0003A7       73E       0  CODE        2
                text19                         0003A7  00000C  0003B3       74E       0  CODE        2
                text15                         0003B3  00000C  0003BF       766       0  CODE        2
                text17                         0003BF  00000D  0003CC       77E       0  CODE        2
                text18                         0003CC  000011  0003DD       798       0  CODE        2
                text10                         0003DD  000011  0003EE       7BA       0  CODE        2
                text16                         0003EE  000014  000402       7DC       0  CODE        2
                text13                         000402  00001C  00041E       804       0  CODE        2
                text4                          00041E  00001C  00043A       83C       0  CODE        2
                text5                          00043A  000023  00045D       874       0  CODE        2
                text6                          00045D  000025  000482       8BA       0  CODE        2
                text2                          000482  000025  0004A7       904       0  CODE        2
                text14                         0004A7  000026  0004CD       94E       0  CODE        2
                text1                          0004CD  000031  0004FE       99A       0  CODE        2
                text3                          0004FE  00004D  00054B       9FC       0  CODE        2
                text11                         00054B  000057  0005A2       A96       0  CODE        2
                text12                         0005A2  000063  000605       B44       0  CODE        2
                maintext                       000605  000066  00066B       C0A       0  CODE        2
                text8                          00066B  00009A  000705       CD6       0  CODE        2
                text7                          000705  0000E6  0007EB       E0A       0  CODE        2
                cinit                          0007EB  000015  000800       FD6       0  CODE        2


UNUSED ADDRESS RANGES

        Name                Unused          Largest block    Delta
        BANK0            006A-006F              6           1
        BANK1            00C0-00EF             30           1
        BANK2            0110-016F             60           1
        BANK3            0190-01EF             60           1
        CODE             0042-039D            35C           2
                         0800-1FFF            800
        CONST            0042-039D            100           2
                         0800-1FFF            100
        EEDATA           2100-21FF            100           2
        ENTRY            0042-039D            100           2
                         0800-1FFF            100
        IDLOC            2000-2003              4           2
        RAM              006A-006F              6           1
                         00C0-00EF             30
                         0110-016F             60
                         0190-01EF             60
        SFR0             0000-001F             20           1
        SFR1             0080-009F             20           1
        SFR2             0100-010F             10           1
        SFR3             0180-018F             10           1
        STRCODE          0042-039D            35C           2
                         0800-1FFF           1800
        STRING           0042-039D            100           2
                         0800-1FFF            100

                                  Symbol Table

?___awdiv                          cstackCOMMON 0070
?___awmod                          cstackCOMMON 0070
?___wmul                           cstackCOMMON 0070
?_abs                              cstackCOMMON 0076
?_sprintf                          cstackBANK0  0031
?_vfprintf                         cstackBANK0  002D
_CCP1CON                           (abs)        0017
_CCPR1L                            (abs)        0015
_EEADR                             (abs)        010D
_EECON1bits                        (abs)        018C
_EECON2                            (abs)        018D
_EEDATA                            (abs)        010C
_INTCONbits                        (abs)        000B
_PORTBbits                         (abs)        0006
_PORTDbits                         (abs)        0008
_PR2                               (abs)        0092
_RCSTAbits                         (abs)        0018
_SPBRG                             (abs)        0099
_T2CON                             (abs)        0012
_TRISB                             (abs)        0086
_TRISCbits                         (abs)        0087
_TRISD                             (abs)        0088
_TXREG                             (abs)        0019
_TXSTAbits                         (abs)        0098
__H__absolute__                    __absolute__ 0000
__Habs1                            abs1         0000
__Hbank0                           bank0        0000
__Hbank1                           bank1        0000
__Hbank2                           bank2        0000
__Hbank3                           bank3        0000
__HbssBANK0                        bssBANK0     0000
__HbssBANK1                        bssBANK1     0000
__Hcinit                           cinit        0800
__Hclrtext                         clrtext      0000
__Hcode                            code         0000
__Hcommon                          common       0000
__Hconfig                          config       2008
__HcstackBANK0                     cstackBANK0  0000
__HcstackCOMMON                    cstackCOMMON 0000
__Heeprom_data                     eeprom_data  0000
__Hend_init                        end_init     0003
__Hfunctab                         functab      0000
__Hheap                            heap         0000
__Hinit                            init         0000
__Hintentry                        intentry     0000
__Hmaintext                        maintext     0000
__HnvBANK0                         nvBANK0      0000
__Hpowerup                         powerup      0000
__Hram                             ram          0000
__Hreset_vec                       reset_vec    0000
__Hsfr0                            sfr0         0000
__Hsfr1                            sfr1         0000
__Hsfr2                            sfr2         0000
__Hsfr3                            sfr3         0000
__Hsivt                            sivt         0000
__Hspace_0                         (abs)        0800
__Hspace_1                         (abs)        00C0
__Hspace_2                         (abs)        0000
__Hspace_3                         (abs)        0000
__Hspace_4                         (abs)        400F
__Hstack                           stack        0000
__Hstrings                         strings      0000
__Htext                            text         0000
__L__absolute__                    __absolute__ 0000
__Labs1                            abs1         0000
__Lbank0                           bank0        0000
__Lbank1                           bank1        0000
__Lbank2                           bank2        0000
__Lbank3                           bank3        0000
__LbssBANK0                        bssBANK0     0000
__LbssBANK1                        bssBANK1     0000
__Lcinit                           cinit        07EB
__Lclrtext                         clrtext      0000
__Lcode                            code         0000
__Lcommon                          common       0000
__Lconfig                          config       0000
__LcstackBANK0                     cstackBANK0  0000
__LcstackCOMMON                    cstackCOMMON 0000
__Leeprom_data                     eeprom_data  0000
__Lend_init                        end_init     0000
__Lfunctab                         functab      0000
__Lheap                            heap         0000
__Linit                            init         0000
__Lintentry                        intentry     0000
__Lmaintext                        maintext     0000
__LnvBANK0                         nvBANK0      0000
__Lpowerup                         powerup      0000
__Lram                             ram          0000
__Lreset_vec                       reset_vec    0000
__Lsfr0                            sfr0         0000
__Lsfr1                            sfr1         0000
__Lsfr2                            sfr2         0000
__Lsfr3                            sfr3         0000
__Lsivt                            sivt         0000
__Lspace_0                         (abs)        0000
__Lspace_1                         (abs)        0000
__Lspace_2                         (abs)        0000
__Lspace_3                         (abs)        0000
__Lspace_4                         (abs)        0000
__Lstack                           stack        0000
__Lstrings                         strings      0000
__Ltext                            text         0000
__S0                               (abs)        0800
__S1                               (abs)        00C0
__S3                               (abs)        0000
___awdiv                           text12       05A2
___awdiv@counter                   cstackCOMMON 0074
___awdiv@dividend                  cstackCOMMON 0072
___awdiv@divisor                   cstackCOMMON 0070
___awdiv@quotient                  cstackCOMMON 0076
___awdiv@sign                      cstackCOMMON 0075
___awmod                           text11       054B
___awmod@counter                   cstackCOMMON 0074
___awmod@dividend                  cstackCOMMON 0072
___awmod@divisor                   cstackCOMMON 0070
___awmod@sign                      cstackCOMMON 0075
___heap_hi                         (abs)        0000
___heap_lo                         (abs)        0000
___int_sp                          stack        0000
___int_stack_hi                    stack        0000
___int_stack_lo                    stack        0000
___latbits                         (abs)        0002
___sp                              stack        0000
___stack_hi                        stack        0000
___stack_lo                        stack        0000
___stackhi                         (abs)        0000
___stacklo                         (abs)        0000
___wmul                            text2        0482
___wmul@multiplicand               cstackCOMMON 0072
___wmul@multiplier                 cstackCOMMON 0070
___wmul@product                    cstackCOMMON 0074
__end_of___awdiv                   text12       0605
__end_of___awmod                   text11       05A2
__end_of___wmul                    text2        04A7
__end_of__initialization           cinit        07FC
__end_of__stringtab                strings      0013
__end_of_abs                       text10       03EE
__end_of_config_PWM                text19       03B3
__end_of_config_UART               text18       03DD
__end_of_eeprom_read               text17       03CC
__end_of_eeprom_write              text16       0402
__end_of_enviarChar                text15       03BF
__end_of_enviarSequenciaUART       text13       041E
__end_of_enviarString              text14       04CD
__end_of_enviarVelocidadeAtualUART text4        043A
__end_of_fputc                     text8        0705
__end_of_ler_teclado               text3        054B
__end_of_main                      maintext     066B
__end_of_putch                     text9        039F
__end_of_set_PWM                   text1        04FE
__end_of_sprintf                   text5        045D
__end_of_vfpfcnvrt                 text7        07EB
__end_of_vfprintf                  text6        0482
__initialization                   cinit        07EB
__pbssBANK0                        bssBANK0     0059
__pbssBANK1                        bssBANK1     00A0
__pcstackBANK0                     cstackBANK0  0020
__pcstackCOMMON                    cstackCOMMON 0070
__pmaintext                        maintext     0605
__pnvBANK0                         nvBANK0      0069
__pstrings                         strings      0003
__ptext1                           text1        04CD
__ptext10                          text10       03DD
__ptext11                          text11       054B
__ptext12                          text12       05A2
__ptext13                          text13       0402
__ptext14                          text14       04A7
__ptext15                          text15       03B3
__ptext16                          text16       03EE
__ptext17                          text17       03BF
__ptext18                          text18       03CC
__ptext19                          text19       03A7
__ptext2                           text2        0482
__ptext3                           text3        04FE
__ptext4                           text4        041E
__ptext5                           text5        043A
__ptext6                           text6        045D
__ptext7                           text7        0705
__ptext8                           text8        066B
__ptext9                           text9        039E
__stringbase                       strings      0012
__stringtab                        strings      0003
_abs                               text10       03DD
_config_PWM                        text19       03A7
_config_UART                       text18       03CC
_dbuf                              bssBANK1     00A0
_eeprom_read                       text17       03BF
_eeprom_write                      text16       03EE
_enviarChar                        text15       03B3
_enviarSequenciaUART               text13       0402
_enviarString                      text14       04A7
_enviarVelocidadeAtualUART         text4        041E
_flags                             bssBANK0     005D
_fputc                             text8        066B
_ler_teclado                       text3        04FE
_main                              maintext     0605
_posicao                           bssBANK0     005E
_prec                              bssBANK0     005B
_putch                             text9        039E
_sequencia                         bssBANK0     005F
_set_PWM                           text1        04CD
_sprintf                           text5        043A
_velocidade_atual                  nvBANK0      0069
_vfpfcnvrt                         text7        0705
_vfprintf                          text6        045D
_width                             bssBANK0     0059
abs@a                              cstackCOMMON 0076
btemp                              (abs)        007E
clear_ram0                         clrtext      039F
eeprom_read@endereco               cstackCOMMON 0070
eeprom_write@dado                  cstackCOMMON 0070
eeprom_write@endereco              cstackCOMMON 0071
end_of_initialization              cinit        07FC
enviarChar@c                       cstackCOMMON 0070
enviarString@s                     cstackCOMMON 0071
enviarVelocidadeAtualUART@buffer   cstackBANK0  0044
fputc@c                            cstackCOMMON 0070
fputc@fp                           cstackCOMMON 0072
intlevel0                          functab      0000
intlevel1                          functab      0000
intlevel2                          functab      0000
intlevel3                          functab      0000
intlevel4                          functab      0000
intlevel5                          functab      0000
ler_teclado@tecla                  cstackCOMMON 0070
main@tecla                         cstackBANK0  0058
reset_vec                          reset_vec    0000
set_PWM@duty_cycle                 cstackCOMMON 0079
set_PWM@velocidade                 cstackCOMMON 0078
sprintf@ap                         cstackBANK0  0036
sprintf@f                          cstackBANK0  0037
sprintf@fmt                        cstackBANK0  0032
sprintf@s                          cstackBANK0  0031
start                              init         0000
start_initialization               cinit        07EB
vfpfcnvrt@ap                       cstackBANK0  0023
vfpfcnvrt@c                        cstackBANK0  002C
vfpfcnvrt@convarg                  cstackBANK0  0028
vfpfcnvrt@cp                       cstackBANK0  0027
vfpfcnvrt@done                     cstackBANK0  0026
vfpfcnvrt@fmt                      cstackBANK0  0022
vfpfcnvrt@fp                       cstackBANK0  0020
vfprintf@ap                        cstackBANK0  0030
vfprintf@cfmt                      cstackCOMMON 007D
vfprintf@fmt                       cstackBANK0  002F
vfprintf@fp                        cstackBANK0  002D
wtemp0                             (abs)        007E


MODULE INFORMATION

Module		Function		Class		Link	Load	Size
C:\Program Files\Microchip\xc8\v2.50\pic\sources\c99\common\Umul16.c
		___wmul        		CODE           	0482	0000	37

C:\Program Files\Microchip\xc8\v2.50\pic\sources\c99\common\Umul16.c estimated size: 37

atividade7.c
		_set_PWM       		CODE           	04CD	0000	49
		_main          		CODE           	0605	0000	102
		_ler_teclado   		CODE           	04FE	0000	77
		_enviarChar    		CODE           	03B3	0000	12
		_enviarString  		CODE           	04A7	0000	38
		_enviarSequenciaUART		CODE           	0402	0000	28
		_enviarVelocidadeAtualUART		CODE           	041E	0000	28
		_config_PWM    		CODE           	03A7	0000	12
		_config_UART   		CODE           	03CC	0000	17
		_eeprom_read   		CODE           	03BF	0000	13
		_eeprom_write  		CODE           	03EE	0000	20

atividade7.c estimated size: 396

C:\Program Files\Microchip\xc8\v2.50\pic\sources\c99\common\awmod.c
		___awmod       		CODE           	054B	0000	87

C:\Program Files\Microchip\xc8\v2.50\pic\sources\c99\common\awmod.c estimated size: 87

C:\Program Files\Microchip\xc8\v2.50\pic\sources\c99\common\putch.c
		_putch         		CODE           	039E	0000	1

C:\Program Files\Microchip\xc8\v2.50\pic\sources\c99\common\putch.c estimated size: 1

C:\Program Files\Microchip\xc8\v2.50\pic\sources\c99\common\abs.c
		_abs           		CODE           	03DD	0000	17

C:\Program Files\Microchip\xc8\v2.50\pic\sources\c99\common\abs.c estimated size: 17

C:\Program Files\Microchip\xc8\v2.50\pic\sources\c99\common\nf_sprintf.c
		_sprintf       		CODE           	043A	0000	35

C:\Program Files\Microchip\xc8\v2.50\pic\sources\c99\common\nf_sprintf.c estimated size: 35

C:\Program Files\Microchip\xc8\v2.50\pic\sources\c99\common\nf_fputc.c
		_fputc         		CODE           	066B	0000	154

C:\Program Files\Microchip\xc8\v2.50\pic\sources\c99\common\nf_fputc.c estimated size: 154

shared
		__stringtab    		STRING         	0003	0000	16
		__initialization		CODE           	07EB	0000	17

shared estimated size: 33

C:\Program Files\Microchip\xc8\v2.50\pic\sources\c99\common\awdiv.c
		___awdiv       		CODE           	05A2	0000	99

C:\Program Files\Microchip\xc8\v2.50\pic\sources\c99\common\awdiv.c estimated size: 99

C:\Program Files\Microchip\xc8\v2.50\pic\sources\c99\common\doprnt.c
		_vfpfcnvrt     		CODE           	0705	0000	230
		_vfprintf      		CODE           	045D	0000	37

C:\Program Files\Microchip\xc8\v2.50\pic\sources\c99\common\doprnt.c estimated size: 267

