Microchip MPLAB XC8 Compiler V2.50

Linker command line:

-W-3 \
  --edf=C:\Program Files\Microchip\xc8\v2.50\pic\dat\20240725155939_en.msgs \
  -cn -h+dist/default/debug\Lista_7_.debug.sym \
  --cmf=dist/default/debug\Lista_7_.debug.cmf -z -Q16F877 \
  -oC:\Users\Yan\AppData\Local\Temp\xcAs2i8.\driver_tmp_3.o \
  --defsym=__MPLAB_BUILD=1 --fixupoverflow=error \
  -Mdist/default/debug/Lista_7_.debug.map \
  --md=C:\Users\Yan\AppData\Local\Temp\xcAs2i8.\driver_tmp_0.dat -E1 \
  -ver=XC8 Compiler --acfsm=1493 -ACODE=00h-07FFhx4 -ASTRCODE=00h-01FFFh \
  -ASTRING=00h-0FFhx32 -ACONST=00h-0FFhx32 -AENTRY=00h-0FFhx32 \
  -ACOMMON=070h-07Fh -ABANK0=020h-06Fh -ABANK1=0A0h-0EFh \
  -ABANK2=0110h-016Fh -ABANK3=0190h-01EFh \
  -ARAM=020h-06Fh,0A0h-0EFh,0110h-016Fh,0190h-01EFh \
  -AABS1=020h-07Fh,0A0h-0EFh,0110h-016Fh,0190h-01EFh -ASFR0=00h-01Fh \
  -ASFR1=080h-09Fh -ASFR2=0100h-010Fh -ASFR3=0180h-018Fh \
  -ACONFIG=02007h-02007h -DCONFIG=2 -AIDLOC=02000h-02003h -DIDLOC=2 \
  -AEEDATA=00h-0FFh/02100h -peeprom_data=EEDATA -DEEDATA=2 -DCODE=2 \
  -DSTRCODE=2 -DSTRING=2 -DCONST=2 -DENTRY=2 \
  -preset_vec=00h,intentry,sivt,init,end_init -ppowerup=CODE -pcinit=CODE \
  -pfunctab=ENTRY -k \
  C:\Users\Yan\AppData\Local\Temp\xcAs2i8.\driver_tmp_17.o \
  dist/default/debug\Lista_7_.debug.o 

Object code version is 3.11

Machine type is 16F877



                Name                               Link     Load   Length Selector   Space Scale
C:\Users\Yan\AppData\Local\Temp\xcAs2i8.\driver_tmp_17.o
                end_init                              0        0        3        0       0
                config                             2007     2007        1        0       4
dist/default/debug\Lista_7_.debug.o
                cinit                               7E2      7E2       1E      FC4       0
                config                             2007     2007        1        0       4
                text20                              24E      24E       14      49C       0
                text19                              262      262       14      4C4       0
                text18                              276      276       14      4EC       0
                text17                              460      460       63      8C0       0
                text16                              409      409       57      812       0
                text15                              23D      23D       11      47A       0
                text14                              224      224        1      448       0
                text13                              5BD      5BD       9A      B7A       0
                text12                              338      338       2B      670       0
                text11                              363      363       53      6C6       0
                text10                              717      717       CB      E2E       0
                text9                               2E9      2E9       25      5D2       0
                text8                               3B6      3B6       53      76C       0
                text7                               657      657       C0      CAE       0
                text6                               2A3      2A3       23      546       0
                text5                               2C6      2C6       23      58C       0
                text4                               30E      30E       2A      61C       0
                text3                               22F      22F        E      45E       0
                text2                               28A      28A       19      514       0
                text1                               53F      53F       7E      A7E       0
                maintext                            4C3      4C3       7C      986       0
                cstackBANK0                          20       20       4F       20       1
                cstackCOMMON                         70       70        E       70       1
                cstackBANK1                          C5       C5        3       A0       1
                clrtext                             227      227        8      44E       0
                dataBANK1                            C8       C8        2       A0       1
                bssBANK1                             A0       A0       25       A0       1
                bssBANK0                             6F       6F        1       20       1
                strings                               3        3        B        6       0
                idataBANK1                          225      225        2      44A       0

TOTAL           Name                               Link     Load   Length     Space
        CLASS   CODE           
                end_init                              0        0        3         0
                cinit                               7E2      7E2       1E         0
                text20                              24E      24E       14         0
                text19                              262      262       14         0
                text18                              276      276       14         0
                text17                              460      460       63         0
                text16                              409      409       57         0
                text15                              23D      23D       11         0
                text14                              224      224        1         0
                text13                              5BD      5BD       9A         0
                text12                              338      338       2B         0
                text11                              363      363       53         0
                text10                              717      717       CB         0
                text9                               2E9      2E9       25         0
                text8                               3B6      3B6       53         0
                text7                               657      657       C0         0
                text6                               2A3      2A3       23         0
                text5                               2C6      2C6       23         0
                text4                               30E      30E       2A         0
                text3                               22F      22F        E         0
                text2                               28A      28A       19         0
                text1                               53F      53F       7E         0
                maintext                            4C3      4C3       7C         0
                clrtext                             227      227        8         0
                idataBANK1                          225      225        2         0

        CLASS   STRCODE        

        CLASS   STRING         
                strings                               3        3        B         0

        CLASS   CONST          

        CLASS   ENTRY          

        CLASS   COMMON         
                cstackCOMMON                         70       70        E         1

        CLASS   BANK0          
                cstackBANK0                          20       20       4F         1
                bssBANK0                             6F       6F        1         1

        CLASS   BANK1          
                cstackBANK1                          C5       C5        3         1
                dataBANK1                            C8       C8        2         1
                bssBANK1                             A0       A0       25         1

        CLASS   BANK2          

        CLASS   BANK3          

        CLASS   RAM            

        CLASS   ABS1           
                abs_s1                               7E       7E        2         1

        CLASS   SFR0           

        CLASS   SFR1           

        CLASS   SFR2           

        CLASS   SFR3           

        CLASS   CONFIG         
                config                             2007     2007        1         4

        CLASS   IDLOC          

        CLASS   EEDATA         

        CLASS   HEAP           

        CLASS   STACK          



SEGMENTS        Name                           Load    Length   Top    Selector   Space  Class     Delta

                reset_vec                      000000  000003  000003         0       0  CODE        2
                strings                        000003  00000B  00000E         6       0  STRING      2
                cstackBANK0                    000020  000050  000070        20       1  BANK0       1
                cstackCOMMON                   000070  00000E  00007E        70       1  COMMON      1
                bssBANK1                       0000A0  00002A  0000CA        A0       1  BANK1       1
                text14                         000224  000001  000225       448       0  CODE        2
                idataBANK1                     000225  000002  000227       44A       0  CODE        2
                clrtext                        000227  000008  00022F       44E       0  CODE        2
                text3                          00022F  00000E  00023D       45E       0  CODE        2
                text15                         00023D  000011  00024E       47A       0  CODE        2
                text20                         00024E  000014  000262       49C       0  CODE        2
                text19                         000262  000014  000276       4C4       0  CODE        2
                text18                         000276  000014  00028A       4EC       0  CODE        2
                text2                          00028A  000019  0002A3       514       0  CODE        2
                text6                          0002A3  000023  0002C6       546       0  CODE        2
                text5                          0002C6  000023  0002E9       58C       0  CODE        2
                text9                          0002E9  000025  00030E       5D2       0  CODE        2
                text4                          00030E  00002A  000338       61C       0  CODE        2
                text12                         000338  00002B  000363       670       0  CODE        2
                text11                         000363  000053  0003B6       6C6       0  CODE        2
                text8                          0003B6  000053  000409       76C       0  CODE        2
                text16                         000409  000057  000460       812       0  CODE        2
                text17                         000460  000063  0004C3       8C0       0  CODE        2
                maintext                       0004C3  00007C  00053F       986       0  CODE        2
                text1                          00053F  00007E  0005BD       A7E       0  CODE        2
                text13                         0005BD  00009A  000657       B7A       0  CODE        2
                text7                          000657  0000C0  000717       CAE       0  CODE        2
                text10                         000717  0000CB  0007E2       E2E       0  CODE        2
                cinit                          0007E2  00001E  000800       FC4       0  CODE        2


UNUSED ADDRESS RANGES

        Name                Unused          Largest block    Delta
        BANK1            00CA-00EF             26           1
        BANK2            0110-016F             60           1
        BANK3            0190-01EF             60           1
        CODE             000E-0223            216           2
                         0800-1FFF            800
        CONST            000E-0223            100           2
                         0800-1FFF            100
        EEDATA           2100-21FF            100           2
        ENTRY            000E-0223            100           2
                         0800-1FFF            100
        IDLOC            2000-2003              4           2
        RAM              00CA-00EF             26           1
                         0110-016F             60
                         0190-01EF             60
        SFR0             0000-001F             20           1
        SFR1             0080-009F             20           1
        SFR2             0100-010F             10           1
        SFR3             0180-018F             10           1
        STRCODE          000E-0223            216           2
                         0800-1FFF           1800
        STRING           000E-0223            100           2
                         0800-1FFF            100

                                  Symbol Table

?___awdiv                   cstackCOMMON 0070
?___awmod                   cstackCOMMON 0070
?___wmul                    cstackCOMMON 0070
?_abs                       cstackCOMMON 0076
?_read_prec_or_width        cstackCOMMON 0076
?_sprintf                   cstackBANK0  004C
?_vfprintf                  cstackBANK0  0047
_PORTBbits                  (abs)        0006
_PORTCbits                  (abs)        0007
_PORTD                      (abs)        0008
_PORTEbits                  (abs)        0009
_TRISB                      (abs)        0086
_TRISC                      (abs)        0087
_TRISD                      (abs)        0088
_TRISE                      (abs)        0089
__H__absolute__             __absolute__ 0000
__Habs1                     abs1         0000
__Hbank0                    bank0        0000
__Hbank1                    bank1        0000
__Hbank2                    bank2        0000
__Hbank3                    bank3        0000
__HbssBANK0                 bssBANK0     0000
__HbssBANK1                 bssBANK1     0000
__Hcinit                    cinit        0800
__Hclrtext                  clrtext      0000
__Hcode                     code         0000
__Hcommon                   common       0000
__Hconfig                   config       2008
__HcstackBANK0              cstackBANK0  0000
__HcstackBANK1              cstackBANK1  0000
__HcstackCOMMON             cstackCOMMON 0000
__HdataBANK1                dataBANK1    0000
__Heeprom_data              eeprom_data  0000
__Hend_init                 end_init     0003
__Hfunctab                  functab      0000
__Hheap                     heap         0000
__HidataBANK1               idataBANK1   0000
__Hinit                     init         0000
__Hintentry                 intentry     0000
__Hmaintext                 maintext     0000
__Hpowerup                  powerup      0000
__Hram                      ram          0000
__Hreset_vec                reset_vec    0000
__Hsfr0                     sfr0         0000
__Hsfr1                     sfr1         0000
__Hsfr2                     sfr2         0000
__Hsfr3                     sfr3         0000
__Hsivt                     sivt         0000
__Hspace_0                  (abs)        0800
__Hspace_1                  (abs)        00CA
__Hspace_2                  (abs)        0000
__Hspace_3                  (abs)        0000
__Hspace_4                  (abs)        400F
__Hstack                    stack        0000
__Hstrings                  strings      0000
__Htext                     text         0000
__L__absolute__             __absolute__ 0000
__Labs1                     abs1         0000
__Lbank0                    bank0        0000
__Lbank1                    bank1        0000
__Lbank2                    bank2        0000
__Lbank3                    bank3        0000
__LbssBANK0                 bssBANK0     0000
__LbssBANK1                 bssBANK1     0000
__Lcinit                    cinit        07E2
__Lclrtext                  clrtext      0000
__Lcode                     code         0000
__Lcommon                   common       0000
__Lconfig                   config       0000
__LcstackBANK0              cstackBANK0  0000
__LcstackBANK1              cstackBANK1  0000
__LcstackCOMMON             cstackCOMMON 0000
__LdataBANK1                dataBANK1    0000
__Leeprom_data              eeprom_data  0000
__Lend_init                 end_init     0000
__Lfunctab                  functab      0000
__Lheap                     heap         0000
__LidataBANK1               idataBANK1   0000
__Linit                     init         0000
__Lintentry                 intentry     0000
__Lmaintext                 maintext     0000
__Lpowerup                  powerup      0000
__Lram                      ram          0000
__Lreset_vec                reset_vec    0000
__Lsfr0                     sfr0         0000
__Lsfr1                     sfr1         0000
__Lsfr2                     sfr2         0000
__Lsfr3                     sfr3         0000
__Lsivt                     sivt         0000
__Lspace_0                  (abs)        0000
__Lspace_1                  (abs)        0000
__Lspace_2                  (abs)        0000
__Lspace_3                  (abs)        0000
__Lspace_4                  (abs)        0000
__Lstack                    stack        0000
__Lstrings                  strings      0000
__Ltext                     text         0000
__S0                        (abs)        0800
__S1                        (abs)        00CA
__S3                        (abs)        0000
___awdiv                    text17       0460
___awdiv@counter            cstackCOMMON 0074
___awdiv@dividend           cstackCOMMON 0072
___awdiv@divisor            cstackCOMMON 0070
___awdiv@quotient           cstackCOMMON 0076
___awdiv@sign               cstackCOMMON 0075
___awmod                    text16       0409
___awmod@counter            cstackCOMMON 0074
___awmod@dividend           cstackCOMMON 0072
___awmod@divisor            cstackCOMMON 0070
___awmod@sign               cstackCOMMON 0075
___heap_hi                  (abs)        0000
___heap_lo                  (abs)        0000
___int_sp                   stack        0000
___int_stack_hi             stack        0000
___int_stack_lo             stack        0000
___latbits                  (abs)        0002
___sp                       stack        0000
___stack_hi                 stack        0000
___stack_lo                 stack        0000
___stackhi                  (abs)        0000
___stacklo                  (abs)        0000
___wmul                     text9        02E9
___wmul@multiplicand        cstackCOMMON 0072
___wmul@multiplier          cstackCOMMON 0070
___wmul@product             cstackCOMMON 0074
__end_of___awdiv            text17       04C3
__end_of___awmod            text16       0460
__end_of___wmul             text9        030E
__end_of__initialization    cinit        07FC
__end_of__stringtab         strings      0009
__end_of_abs                text15       024E
__end_of_atualiza_lcd       text4        0338
__end_of_debounce           text3        023D
__end_of_dtoa               text10       07E2
__end_of_fputc              text13       0657
__end_of_fputs              text12       0363
__end_of_lcd_command        text20       0262
__end_of_lcd_data           text19       0276
__end_of_lcd_initialise     text2        02A3
__end_of_lcd_string         text18       028A
__end_of_main               maintext     053F
__end_of_pad                text11       03B6
__end_of_putch              text14       0225
__end_of_read_prec_or_width text8        0409
__end_of_sprintf            text5        02E9
__end_of_teclado            text1        05BD
__end_of_vfpfcnvrt          text7        0717
__end_of_vfprintf           text6        02C6
__initialization            cinit        07E2
__pbssBANK0                 bssBANK0     006F
__pbssBANK1                 bssBANK1     00A0
__pcstackBANK0              cstackBANK0  0020
__pcstackBANK1              cstackBANK1  00C5
__pcstackCOMMON             cstackCOMMON 0070
__pdataBANK1                dataBANK1    00C8
__pidataBANK1               idataBANK1   0225
__pmaintext                 maintext     04C3
__pstrings                  strings      0003
__ptext1                    text1        053F
__ptext10                   text10       0717
__ptext11                   text11       0363
__ptext12                   text12       0338
__ptext13                   text13       05BD
__ptext14                   text14       0224
__ptext15                   text15       023D
__ptext16                   text16       0409
__ptext17                   text17       0460
__ptext18                   text18       0276
__ptext19                   text19       0262
__ptext2                    text2        028A
__ptext20                   text20       024E
__ptext3                    text3        022F
__ptext4                    text4        030E
__ptext5                    text5        02C6
__ptext6                    text6        02A3
__ptext7                    text7        0657
__ptext8                    text8        03B6
__ptext9                    text9        02E9
__stringbase                strings      0008
__stringtab                 strings      0003
_abs                        text15       023D
_atualiza_lcd               text4        030E
_dbuf                       bssBANK1     00A5
_debounce                   text3        022F
_dtoa                       text10       0717
_dtoa$661                   cstackBANK0  0033
_flags                      bssBANK0     006F
_fputc                      text13       05BD
_fputs                      text12       0338
_lcd_command                text20       024E
_lcd_data                   text19       0262
_lcd_initialise             text2        028A
_lcd_string                 text18       0276
_main                       maintext     04C3
_pad                        text11       0363
_prec                       bssBANK1     00A2
_putch                      text14       0224
_read_prec_or_width         text8        03B6
_sprintf                    text5        02C6
_tecla_pressionada          bssBANK1     00A4
_teclado                    text1        053F
_vfpfcnvrt                  text7        0657
_vfprintf                   text6        02A3
_width                      bssBANK1     00A0
abs@a                       cstackCOMMON 0076
atualiza_lcd@buffer         cstackBANK0  005F
btemp                       (abs)        007E
clear_ram0                  clrtext      0227
dtoa@d                      cstackBANK0  0031
dtoa@fp                     cstackBANK0  002F
dtoa@i                      cstackBANK0  0039
dtoa@p                      cstackBANK0  0035
dtoa@s                      cstackBANK0  0038
dtoa@w                      cstackBANK0  0036
end_of_initialization       cinit        07FC
fputc@c                     cstackCOMMON 0070
fputc@fp                    cstackCOMMON 0072
fputs@c                     cstackBANK0  0025
fputs@fp                    cstackBANK0  0021
fputs@i                     cstackBANK0  0026
fputs@s                     cstackBANK0  0020
intlevel0                   functab      0000
intlevel1                   functab      0000
intlevel2                   functab      0000
intlevel3                   functab      0000
intlevel4                   functab      0000
intlevel5                   functab      0000
lcd_command@cmd             cstackCOMMON 0072
lcd_data@data               cstackCOMMON 0072
lcd_string@str              cstackCOMMON 0073
main@cursor_pos             dataBANK1    00C8
main@i                      cstackBANK1  00C5
main@tecla                  cstackBANK1  00C7
pad@buf                     cstackBANK0  002A
pad@fp                      cstackBANK0  0028
pad@i                       cstackBANK0  002D
pad@p                       cstackBANK0  002B
read_prec_or_width@ap       cstackCOMMON 0077
read_prec_or_width@c        cstackCOMMON 0078
read_prec_or_width@fmt      cstackCOMMON 0076
read_prec_or_width@n        cstackCOMMON 0079
reset_vec                   reset_vec    0000
sprintf@ap                  cstackBANK0  0051
sprintf@f                   cstackBANK0  0052
sprintf@fmt                 cstackBANK0  004D
sprintf@s                   cstackBANK0  004C
start                       init         0000
start_initialization        cinit        07E2
teclado@tecla               cstackCOMMON 0070
vfpfcnvrt@ap                cstackBANK0  003E
vfpfcnvrt@convarg           cstackBANK0  0041
vfpfcnvrt@cp                cstackBANK0  0046
vfpfcnvrt@done              cstackBANK0  0045
vfpfcnvrt@fmt               cstackBANK0  003D
vfpfcnvrt@fp                cstackBANK0  003B
vfprintf@ap                 cstackBANK0  004A
vfprintf@cfmt               cstackBANK0  004B
vfprintf@fmt                cstackBANK0  0049
vfprintf@fp                 cstackBANK0  0047
wtemp0                      (abs)        007E


MODULE INFORMATION

Module		Function		Class		Link	Load	Size
C:\Program Files\Microchip\xc8\v2.50\pic\sources\c99\common\Umul16.c
		___wmul        		CODE           	02E9	0000	37

C:\Program Files\Microchip\xc8\v2.50\pic\sources\c99\common\Umul16.c estimated size: 37

C:\Program Files\Microchip\xc8\v2.50\pic\sources\c99\common\nf_fputs.c
		_fputs         		CODE           	0338	0000	43

C:\Program Files\Microchip\xc8\v2.50\pic\sources\c99\common\nf_fputs.c estimated size: 43

atividade7.c
		_lcd_command   		CODE           	024E	0000	20
		_debounce      		CODE           	022F	0000	14
		_lcd_data      		CODE           	0262	0000	20
		_lcd_initialise		CODE           	028A	0000	25
		_main          		CODE           	04C3	0000	124
		_teclado       		CODE           	053F	0000	126
		_atualiza_lcd  		CODE           	030E	0000	42
		_lcd_string    		CODE           	0276	0000	20

atividade7.c estimated size: 391

C:\Program Files\Microchip\xc8\v2.50\pic\sources\c99\common\awmod.c
		___awmod       		CODE           	0409	0000	87

C:\Program Files\Microchip\xc8\v2.50\pic\sources\c99\common\awmod.c estimated size: 87

C:\Program Files\Microchip\xc8\v2.50\pic\sources\c99\common\putch.c
		_putch         		CODE           	0224	0000	1

C:\Program Files\Microchip\xc8\v2.50\pic\sources\c99\common\putch.c estimated size: 1

C:\Program Files\Microchip\xc8\v2.50\pic\sources\c99\common\abs.c
		_abs           		CODE           	023D	0000	17

C:\Program Files\Microchip\xc8\v2.50\pic\sources\c99\common\abs.c estimated size: 17

C:\Program Files\Microchip\xc8\v2.50\pic\sources\c99\common\nf_sprintf.c
		_sprintf       		CODE           	02C6	0000	35

C:\Program Files\Microchip\xc8\v2.50\pic\sources\c99\common\nf_sprintf.c estimated size: 35

C:\Program Files\Microchip\xc8\v2.50\pic\sources\c99\common\nf_fputc.c
		_fputc         		CODE           	05BD	0000	154

C:\Program Files\Microchip\xc8\v2.50\pic\sources\c99\common\nf_fputc.c estimated size: 154

shared
		__stringtab    		STRING         	0003	0000	6
		__initialization		CODE           	07E2	0000	26

shared estimated size: 32

C:\Program Files\Microchip\xc8\v2.50\pic\sources\c99\common\awdiv.c
		___awdiv       		CODE           	0460	0000	99

C:\Program Files\Microchip\xc8\v2.50\pic\sources\c99\common\awdiv.c estimated size: 99

C:\Program Files\Microchip\xc8\v2.50\pic\sources\c99\common\doprnt.c
		_read_prec_or_width		CODE           	03B6	0000	83
		_vfpfcnvrt     		CODE           	0657	0000	192
		_pad           		CODE           	0363	0000	83
		_dtoa          		CODE           	0717	0000	203
		_vfprintf      		CODE           	02A3	0000	35

C:\Program Files\Microchip\xc8\v2.50\pic\sources\c99\common\doprnt.c estimated size: 596

